(dp0
S'OG0001790'
p1
(dp2
S'VW4'
p3
c__builtin__
set
p4
((lp5
S'scaffold10091_cov218'
p6
aS'scaffold8128_cov148'
p7
atp8
Rp9
sS'Mare'
p10
g4
((lp11
S'scaffold15290_cov65'
p12
aS'scaffold426_cov79'
p13
atp14
Rp15
sS'W1'
p16
g4
((lp17
S'scaffold47938_cov75'
p18
aS'scaffold12892_cov134'
p19
atp20
Rp21
ssS'OG0001890'
p22
(dp23
S'VW4'
p24
g4
((lp25
S'scaffold34809_cov225'
p26
aS'scaffold34892_cov211'
p27
atp28
Rp29
sS'Mare'
p30
g4
((lp31
S'scaffold952_cov71'
p32
aS'scaffold9240_cov92'
p33
atp34
Rp35
sS'W1'
p36
g4
((lp37
S'scaffold53892_cov107'
p38
aS'scaffold57838_cov69'
p39
atp40
Rp41
ssS'OG0001793'
p42
(dp43
S'VW4'
p44
g4
((lp45
S'scaffold979_cov154'
p46
aS'scaffold978_cov183'
p47
atp48
Rp49
sS'Mare'
p50
g4
((lp51
S'scaffold444_cov67'
p52
aS'scaffold13494_cov55'
p53
atp54
Rp55
sS'W1'
p56
g4
((lp57
S'scaffold1701_cov70'
p58
aS'scaffold15731_cov124'
p59
atp60
Rp61
ssS'OG0001795'
p62
(dp63
S'VW4'
p64
g4
((lp65
S'scaffold18214_cov222'
p66
aS'scaffold3250_cov209'
p67
atp68
Rp69
sS'Mare'
p70
g4
((lp71
S'scaffold462_cov72'
p72
aS'scaffold10361_cov51'
p73
atp74
Rp75
sS'W1'
p76
g4
((lp77
S'scaffold10148_cov99'
p78
aS'scaffold6498_cov76'
p79
atp80
Rp81
ssS'OG0001797'
p82
(dp83
S'VW4'
p84
g4
((lp85
S'scaffold987_cov149'
p86
aS'scaffold4886_cov351'
p87
atp88
Rp89
sS'Mare'
p90
g4
((lp91
S'scaffold2592_cov100'
p92
aS'scaffold466_cov101'
p93
atp94
Rp95
sS'W1'
p96
g4
((lp97
S'scaffold15124_cov63'
p98
aS'scaffold22339_cov108'
p99
atp100
Rp101
ssS'OG0002144'
p102
(dp103
S'VW4'
p104
g4
((lp105
S'scaffold6948_cov274'
p106
aS'scaffold6699_cov179'
p107
atp108
Rp109
sS'Mare'
p110
g4
((lp111
S'scaffold4668_cov92'
p112
aS'scaffold2804_cov64'
p113
atp114
Rp115
sS'W1'
p116
g4
((lp117
S'scaffold5960_cov65'
p118
aS'scaffold38008_cov141'
p119
atp120
Rp121
ssS'OG0002140'
p122
(dp123
S'VW4'
p124
g4
((lp125
S'scaffold17512_cov158'
p126
aS'scaffold10366_cov326'
p127
atp128
Rp129
sS'Mare'
p130
g4
((lp131
S'scaffold5283_cov61'
p132
aS'scaffold2790_cov71'
p133
atp134
Rp135
sS'W1'
p136
g4
((lp137
S'scaffold3807_cov105'
p138
aS'scaffold3967_cov66'
p139
atp140
Rp141
ssS'OG0002224'
p142
(dp143
S'VW4'
p144
g4
((lp145
S'scaffold7453_cov163'
p146
aS'scaffold3910_cov214'
p147
atp148
Rp149
sS'Mare'
p150
g4
((lp151
S'scaffold17012_cov101'
p152
aS'scaffold3572_cov58'
p153
atp154
Rp155
sS'W1'
p156
g4
((lp157
S'scaffold10897_cov63'
p158
atp159
Rp160
ssS'OG0002149'
p161
(dp162
S'VW4'
p163
g4
((lp164
S'scaffold19913_cov154'
p165
aS'scaffold35508_cov210'
p166
atp167
Rp168
sS'Mare'
p169
g4
((lp170
S'scaffold2853_cov69'
p171
aS'scaffold12329_cov67'
p172
atp173
Rp174
sS'W1'
p175
g4
((lp176
S'scaffold6437_cov66'
p177
aS'scaffold7194_cov116'
p178
atp179
Rp180
ssS'OG0001899'
p181
(dp182
S'VW4'
p183
g4
((lp184
S'scaffold3282_cov224'
p185
atp186
Rp187
sS'Mare'
p188
g4
((lp189
S'scaffold46684_cov88'
p190
aS'scaffold1007_cov77'
p191
atp192
Rp193
sS'W1'
p194
g4
((lp195
S'scaffold17931_cov63'
p196
aS'scaffold167504_cov85'
p197
atp198
Rp199
ssS'OG0001045'
p200
(dp201
S'VW4'
p202
g4
((lp203
S'scaffold1412_cov235'
p204
aS'scaffold29217_cov317'
p205
atp206
Rp207
sS'Mare'
p208
g4
((lp209
S'scaffold34682_cov108'
p210
aS'scaffold411_cov59'
p211
atp212
Rp213
sS'W1'
p214
g4
((lp215
S'scaffold94664_cov148'
p216
aS'scaffold11692_cov72'
p217
atp218
Rp219
ssS'OG0001895'
p220
(dp221
S'VW4'
p222
g4
((lp223
S'scaffold1404_cov156'
p224
aS'scaffold5051_cov291'
p225
atp226
Rp227
sS'Mare'
p228
g4
((lp229
S'scaffold14844_cov71'
p230
aS'scaffold985_cov66'
p231
atp232
Rp233
sS'W1'
p234
g4
((lp235
S'scaffold100812_cov62'
p236
aS'scaffold1158_cov100'
p237
atp238
Rp239
ssS'OG0001894'
p240
(dp241
S'VW4'
p242
g4
((lp243
S'scaffold29092_cov411'
p244
aS'scaffold3158_cov165'
p245
atp246
Rp247
sS'Mare'
p248
g4
((lp249
S'scaffold968_cov57'
p250
aS'scaffold6480_cov125'
p251
atp252
Rp253
sS'W1'
p254
g4
((lp255
S'scaffold13885_cov142'
p256
aS'scaffold213265_cov125'
p257
atp258
Rp259
ssS'OG0001893'
p260
(dp261
S'VW4'
p262
g4
((lp263
S'scaffold4133_cov176'
p264
aS'scaffold11521_cov238'
p265
atp266
Rp267
sS'Mare'
p268
g4
((lp269
S'scaffold966_cov63'
p270
ag191
atp271
Rp272
sS'W1'
p273
g4
((lp274
S'scaffold10896_cov107'
p275
atp276
Rp277
ssS'OG0001892'
p278
(dp279
S'VW4'
p280
g4
((lp281
g264
ag265
atp282
Rp283
sS'Mare'
p284
g4
((lp285
g270
ag191
atp286
Rp287
sS'W1'
p288
g4
((lp289
g275
atp290
Rp291
ssS'OG0001575'
p292
(dp293
S'VW4'
p294
g4
((lp295
S'scaffold9873_cov235'
p296
atp297
Rp298
sS'Mare'
p299
g4
((lp300
S'scaffold10446_cov98'
p301
aS'scaffold19864_cov84'
p302
atp303
Rp304
sS'W1'
p305
g4
((lp306
S'scaffold24771_cov64'
p307
aS'scaffold35208_cov127'
p308
atp309
Rp310
ssS'OG0001320'
p311
(dp312
S'VW4'
p313
g4
((lp314
S'scaffold10188_cov228'
p315
aS'scaffold1228_cov289'
p316
atp317
Rp318
sS'Mare'
p319
g4
((lp320
S'scaffold37060_cov73'
p321
aS'scaffold3248_cov70'
p322
atp323
Rp324
sS'W1'
p325
g4
((lp326
S'scaffold90279_cov161'
p327
aS'scaffold90278_cov81'
p328
atp329
Rp330
ssS'OG0001282'
p331
(dp332
S'VW4'
p333
g4
((lp334
S'scaffold1178_cov205'
p335
aS'scaffold8210_cov209'
p336
atp337
Rp338
sS'Mare'
p339
g4
((lp340
S'scaffold12632_cov75'
p341
atp342
Rp343
sS'W1'
p344
g4
((lp345
S'scaffold18891_cov66'
p346
aS'scaffold99_cov152'
p347
atp348
Rp349
ssS'OG0000687'
p350
(dp351
S'VW4'
p352
g4
((lp353
S'scaffold3726_cov220'
p354
aS'scaffold43864_cov305'
p355
atp356
Rp357
sS'Mare'
p358
g4
((lp359
S'scaffold3320_cov61'
p360
atp361
Rp362
sS'W1'
p363
g4
((lp364
S'scaffold5036_cov115'
p365
aS'scaffold352_cov73'
p366
atp367
Rp368
ssS'OG0002585'
p369
(dp370
S'VW4'
p371
g4
((lp372
S'scaffold42378_cov315'
p373
aS'scaffold36255_cov269'
p374
atp375
Rp376
sS'Mare'
p377
g4
((lp378
S'scaffold9739_cov94'
p379
aS'scaffold35055_cov91'
p380
atp381
Rp382
sS'W1'
p383
g4
((lp384
S'scaffold16606_cov107'
p385
aS'scaffold42581_cov70'
p386
atp387
Rp388
ssS'OG0002587'
p389
(dp390
S'VW4'
p391
g4
((lp392
S'scaffold3622_cov247'
p393
aS'scaffold2018_cov229'
p394
atp395
Rp396
sS'Mare'
p397
g4
((lp398
S'scaffold9750_cov109'
p399
aS'scaffold23746_cov60'
p400
atp401
Rp402
sS'W1'
p403
g4
((lp404
S'scaffold46569_cov79'
p405
aS'scaffold23696_cov107'
p406
atp407
Rp408
ssS'OG0002668'
p409
(dp410
S'VW4'
p411
g4
((lp412
S'scaffold5892_cov193'
p413
aS'scaffold768_cov263'
p414
atp415
Rp416
sS'Mare'
p417
g4
((lp418
S'scaffold12122_cov53'
p419
aS'scaffold37330_cov55'
p420
atp421
Rp422
sS'W1'
p423
g4
((lp424
S'scaffold3691_cov98'
p425
atp426
Rp427
ssS'OG0002583'
p428
(dp429
S'VW4'
p430
g4
((lp431
S'scaffold10657_cov306'
p432
aS'scaffold4178_cov282'
p433
atp434
Rp435
sS'Mare'
p436
g4
((lp437
S'scaffold9666_cov95'
p438
aS'scaffold9665_cov44'
p439
atp440
Rp441
sS'W1'
p442
g4
((lp443
S'scaffold18914_cov65'
p444
aS'scaffold18912_cov140'
p445
atp446
Rp447
ssS'OG0002664'
p448
(dp449
S'VW4'
p450
g4
((lp451
S'scaffold35795_cov188'
p452
aS'scaffold1252_cov215'
p453
atp454
Rp455
sS'Mare'
p456
g4
((lp457
S'scaffold17907_cov58'
p458
aS'scaffold12010_cov46'
p459
atp460
Rp461
sS'W1'
p462
g4
((lp463
S'scaffold8016_cov129'
p464
atp465
Rp466
ssS'OG0002542'
p467
(dp468
S'VW4'
p469
g4
((lp470
S'scaffold4573_cov200'
p471
aS'scaffold9482_cov230'
p472
atp473
Rp474
sS'Mare'
p475
g4
((lp476
S'scaffold8496_cov75'
p477
aS'scaffold10687_cov51'
p478
atp479
Rp480
sS'W1'
p481
g4
((lp482
S'scaffold1316_cov119'
p483
aS'scaffold5085_cov79'
p484
atp485
Rp486
ssS'OG0002743'
p487
(dp488
S'VW4'
p489
g4
((lp490
S'scaffold27882_cov209'
p491
aS'scaffold36175_cov226'
p492
atp493
Rp494
sS'Mare'
p495
g4
((lp496
S'scaffold19259_cov55'
p497
aS'scaffold16506_cov55'
p498
atp499
Rp500
sS'W1'
p501
g4
((lp502
S'scaffold20419_cov113'
p503
aS'scaffold114_cov72'
p504
atp505
Rp506
ssS'OG0002747'
p507
(dp508
S'VW4'
p509
g4
((lp510
S'scaffold38236_cov294'
p511
aS'scaffold12700_cov150'
p512
atp513
Rp514
sS'Mare'
p515
g4
((lp516
S'scaffold16649_cov90'
p517
aS'scaffold33204_cov76'
p518
atp519
Rp520
sS'W1'
p521
g4
((lp522
S'scaffold5059_cov70'
p523
aS'scaffold5060_cov136'
p524
atp525
Rp526
ssS'OG0002031'
p527
(dp528
S'VW4'
p529
g4
((lp530
S'scaffold7068_cov172'
p531
aS'scaffold1512_cov178'
p532
atp533
Rp534
sS'Mare'
p535
g4
((lp536
S'scaffold4418_cov65'
p537
aS'scaffold1902_cov64'
p538
atp539
Rp540
sS'W1'
p541
g4
((lp542
S'scaffold8782_cov64'
p543
aS'scaffold476_cov90'
p544
atp545
Rp546
ssS'OG0002749'
p547
(dp548
S'VW4'
p549
g4
((lp550
S'scaffold3310_cov167'
p551
aS'scaffold7198_cov282'
p552
atp553
Rp554
sS'Mare'
p555
g4
((lp556
S'scaffold20051_cov88'
p557
aS'scaffold16801_cov94'
p558
atp559
Rp560
sS'W1'
p561
g4
((lp562
S'scaffold17315_cov142'
p563
aS'scaffold17316_cov65'
p564
atp565
Rp566
ssS'OG0002034'
p567
(dp568
S'VW4'
p569
g4
((lp570
S'scaffold8732_cov275'
p571
aS'scaffold5560_cov257'
p572
atp573
Rp574
sS'Mare'
p575
g4
((lp576
S'scaffold1943_cov61'
p577
aS'scaffold10758_cov137'
p578
atp579
Rp580
sS'W1'
p581
g4
((lp582
S'scaffold14579_cov112'
p583
aS'scaffold14578_cov124'
p584
atp585
Rp586
ssS'OG0002130'
p587
(dp588
S'VW4'
p589
g4
((lp590
S'scaffold6713_cov225'
p591
aS'scaffold16317_cov210'
p592
atp593
Rp594
sS'Mare'
p595
g4
((lp596
S'scaffold3230_cov72'
p597
aS'scaffold2697_cov65'
p598
atp599
Rp600
sS'W1'
p601
g4
((lp602
S'scaffold279_cov75'
p603
aS'scaffold7438_cov111'
p604
atp605
Rp606
ssS'OG0001648'
p607
(dp608
S'VW4'
p609
g4
((lp610
S'scaffold11481_cov169'
p611
aS'scaffold21751_cov240'
p612
atp613
Rp614
sS'Mare'
p615
g4
((lp616
S'scaffold22352_cov39'
p617
aS'scaffold37380_cov122'
p618
atp619
Rp620
sS'W1'
p621
g4
((lp622
S'scaffold39367_cov97'
p623
aS'scaffold37943_cov120'
p624
atp625
Rp626
ssS'OG0002134'
p627
(dp628
S'VW4'
p629
g4
((lp630
S'scaffold315_cov308'
p631
aS'scaffold314_cov314'
p632
atp633
Rp634
sS'Mare'
p635
g4
((lp636
S'scaffold2731_cov57'
p637
aS'scaffold35040_cov139'
p638
atp639
Rp640
sS'W1'
p641
g4
((lp642
S'scaffold25660_cov79'
p643
aS'scaffold25662_cov161'
p644
atp645
Rp646
ssS'OG0001763'
p647
(dp648
S'VW4'
p649
g4
((lp650
S'scaffold11035_cov138'
p651
aS'scaffold10751_cov195'
p652
atp653
Rp654
sS'Mare'
p655
g4
((lp656
S'scaffold314_cov51'
p657
atp658
Rp659
sS'W1'
p660
g4
((lp661
S'scaffold67858_cov62'
p662
aS'scaffold67856_cov136'
p663
atp664
Rp665
ssS'OG0002136'
p666
(dp667
S'VW4'
p668
g4
((lp669
S'scaffold3285_cov233'
p670
aS'scaffold2395_cov243'
p671
atp672
Rp673
sS'Mare'
p674
g4
((lp675
S'scaffold18278_cov58'
p676
aS'scaffold2739_cov53'
p677
atp678
Rp679
sS'W1'
p680
g4
((lp681
S'scaffold15885_cov116'
p682
aS'scaffold15073_cov71'
p683
atp684
Rp685
ssS'OG0002139'
p686
(dp687
S'VW4'
p688
g4
((lp689
S'scaffold42181_cov294'
p690
aS'scaffold16898_cov268'
p691
atp692
Rp693
sS'Mare'
p694
g4
((lp695
S'scaffold6624_cov86'
p696
aS'scaffold2786_cov74'
p697
atp698
Rp699
sS'W1'
p700
g4
((lp701
S'scaffold34203_cov139'
p702
aS'scaffold15986_cov63'
p703
atp704
Rp705
ssS'OG0002138'
p706
(dp707
S'VW4'
p708
g4
((lp709
S'scaffold48640_cov294'
p710
aS'scaffold10308_cov219'
p711
atp712
Rp713
sS'Mare'
p714
g4
((lp715
S'scaffold2945_cov79'
p716
ag697
atp717
Rp718
sS'W1'
p719
g4
((lp720
g702
aS'scaffold18396_cov65'
p721
atp722
Rp723
ssS'OG0001641'
p724
(dp725
S'VW4'
p726
g4
((lp727
S'scaffold7849_cov260'
p728
aS'scaffold40132_cov484'
p729
atp730
Rp731
sS'Mare'
p732
g4
((lp733
S'scaffold34289_cov136'
p734
aS'scaffold23854_cov126'
p735
atp736
Rp737
sS'W1'
p738
g4
((lp739
S'scaffold7174_cov138'
p740
aS'scaffold2501_cov70'
p741
atp742
Rp743
ssS'OG0001645'
p744
(dp745
S'VW4'
p746
g4
((lp747
S'scaffold4629_cov361'
p748
atp749
Rp750
sS'Mare'
p751
g4
((lp752
S'scaffold33493_cov107'
p753
aS'scaffold20561_cov72'
p754
atp755
Rp756
sS'W1'
p757
g4
((lp758
S'scaffold2061_cov67'
p759
aS'scaffold90706_cov103'
p760
atp761
Rp762
ssS'OG0001136'
p763
(dp764
S'VW4'
p765
g4
((lp766
S'scaffold42388_cov305'
p767
aS'scaffold5495_cov293'
p768
atp769
Rp770
sS'Mare'
p771
g4
((lp772
S'scaffold1201_cov53'
p773
aS'scaffold8487_cov70'
p774
atp775
Rp776
sS'W1'
p777
g4
((lp778
S'scaffold12601_cov106'
p779
aS'scaffold12765_cov63'
p780
atp781
Rp782
ssS'OG0001138'
p783
(dp784
S'VW4'
p785
g4
((lp786
S'scaffold51910_cov463'
p787
ag245
atp788
Rp789
sS'Mare'
p790
g4
((lp791
S'scaffold5065_cov145'
p792
aS'scaffold1207_cov107'
p793
atp794
Rp795
sS'W1'
p796
g4
((lp797
S'scaffold32103_cov132'
p798
aS'scaffold3002_cov145'
p799
atp800
Rp801
ssS'OG0001426'
p802
(dp803
S'VW4'
p804
g4
((lp805
S'scaffold5813_cov245'
p806
aS'scaffold5700_cov293'
p807
atp808
Rp809
sS'Mare'
p810
g4
((lp811
S'scaffold5176_cov58'
p812
aS'scaffold56598_cov161'
p813
atp814
Rp815
sS'W1'
p816
g4
((lp817
S'scaffold51827_cov73'
p818
aS'scaffold16201_cov125'
p819
atp820
Rp821
ssS'OG0001425'
p822
(dp823
S'VW4'
p824
g4
((lp825
S'scaffold9528_cov287'
p826
aS'scaffold13440_cov161'
p827
atp828
Rp829
sS'Mare'
p830
g4
((lp831
S'scaffold10915_cov72'
p832
aS'scaffold5164_cov59'
p833
atp834
Rp835
sS'W1'
p836
g4
((lp837
S'scaffold20513_cov68'
p838
aS'scaffold25966_cov129'
p839
atp840
Rp841
ssS'OG0002511'
p842
(dp843
S'VW4'
p844
g4
((lp845
S'scaffold15598_cov210'
p846
aS'scaffold5017_cov219'
p847
atp848
Rp849
sS'Mare'
p850
g4
((lp851
S'scaffold7766_cov56'
p852
aS'scaffold8073_cov71'
p853
atp854
Rp855
sS'W1'
p856
g4
((lp857
S'scaffold166729_cov102'
p858
aS'scaffold165425_cov72'
p859
atp860
Rp861
ssS'OG0002854'
p862
(dp863
S'VW4'
p864
g4
((lp865
S'scaffold9227_cov270'
p866
atp867
Rp868
sS'Mare'
p869
g4
((lp870
S'scaffold36016_cov53'
p871
aS'scaffold44370_cov165'
p872
atp873
Rp874
sS'W1'
p875
g4
((lp876
S'scaffold5631_cov106'
p877
aS'scaffold17150_cov67'
p878
atp879
Rp880
ssS'OG0002852'
p881
(dp882
S'VW4'
p883
g4
((lp884
S'scaffold34811_cov176'
p885
aS'scaffold8081_cov244'
p886
atp887
Rp888
sS'Mare'
p889
g4
((lp890
S'scaffold36022_cov58'
p891
aS'scaffold35995_cov87'
p892
atp893
Rp894
sS'W1'
p895
g4
((lp896
S'scaffold17627_cov105'
p897
aS'scaffold117137_cov65'
p898
atp899
Rp900
ssS'OG0002853'
p901
(dp902
S'VW4'
p903
g4
((lp904
S'scaffold1952_cov217'
p905
aS'scaffold6035_cov288'
p906
atp907
Rp908
sS'Mare'
p909
g4
((lp910
S'scaffold36009_cov57'
p911
aS'scaffold40047_cov153'
p912
atp913
Rp914
sS'W1'
p915
g4
((lp916
S'scaffold10337_cov80'
p917
aS'scaffold21068_cov65'
p918
atp919
Rp920
ssS'OG0002850'
p921
(dp922
S'VW4'
p923
g4
((lp924
S'scaffold1798_cov239'
p925
aS'scaffold16937_cov241'
p926
atp927
Rp928
sS'Mare'
p929
g4
((lp930
S'scaffold36370_cov147'
p931
aS'scaffold35874_cov101'
p932
atp933
Rp934
sS'W1'
p935
g4
((lp936
S'scaffold49558_cov135'
p937
aS'scaffold10462_cov135'
p938
atp939
Rp940
ssS'OG0002851'
p941
(dp942
S'VW4'
p943
g4
((lp944
S'scaffold34753_cov325'
p945
aS'scaffold78_cov298'
p946
atp947
Rp948
sS'Mare'
p949
g4
((lp950
S'scaffold36297_cov113'
p951
aS'scaffold35963_cov95'
p952
atp953
Rp954
sS'W1'
p955
g4
((lp956
S'scaffold4478_cov68'
p957
aS'scaffold14572_cov90'
p958
atp959
Rp960
ssS'OG0001866'
p961
(dp962
S'VW4'
p963
g4
((lp964
S'scaffold9204_cov285'
p965
aS'scaffold2497_cov220'
p966
atp967
Rp968
sS'Mare'
p969
g4
((lp970
S'scaffold19517_cov60'
p971
aS'scaffold832_cov72'
p972
atp973
Rp974
sS'W1'
p975
g4
((lp976
S'scaffold25755_cov75'
p977
aS'scaffold53875_cov130'
p978
atp979
Rp980
ssS'OG0001860'
p981
(dp982
S'VW4'
p983
g4
((lp984
S'scaffold7998_cov239'
p985
aS'scaffold34786_cov228'
p986
atp987
Rp988
sS'Mare'
p989
g4
((lp990
S'scaffold827_cov76'
p991
aS'scaffold1580_cov88'
p992
atp993
Rp994
sS'W1'
p995
g4
((lp996
S'scaffold22925_cov86'
p997
atp998
Rp999
ssS'OG0001861'
p1000
(dp1001
S'VW4'
p1002
g4
((lp1003
g985
ag986
atp1004
Rp1005
sS'Mare'
p1006
g4
((lp1007
g991
aS'scaffold3365_cov65'
p1008
atp1009
Rp1010
sS'W1'
p1011
g4
((lp1012
S'scaffold166706_cov72'
p1013
aS'scaffold4489_cov91'
p1014
atp1015
Rp1016
ssS'OG0001394'
p1017
(dp1018
S'VW4'
p1019
g4
((lp1020
S'scaffold8590_cov218'
p1021
aS'scaffold5645_cov270'
p1022
atp1023
Rp1024
sS'Mare'
p1025
g4
((lp1026
S'scaffold4544_cov85'
p1027
aS'scaffold30472_cov70'
p1028
atp1029
Rp1030
sS'W1'
p1031
g4
((lp1032
S'scaffold6820_cov103'
p1033
aS'scaffold6818_cov67'
p1034
atp1035
Rp1036
ssS'OG0001258'
p1037
(dp1038
S'VW4'
p1039
g4
((lp1040
S'scaffold5344_cov146'
p1041
aS'scaffold12136_cov215'
p1042
atp1043
Rp1044
sS'Mare'
p1045
g4
((lp1046
S'scaffold2428_cov67'
p1047
aS'scaffold8055_cov67'
p1048
atp1049
Rp1050
sS'W1'
p1051
g4
((lp1052
S'scaffold21004_cov60'
p1053
aS'scaffold5694_cov90'
p1054
atp1055
Rp1056
ssS'OG0002364'
p1057
(dp1058
S'VW4'
p1059
g4
((lp1060
S'scaffold4631_cov169'
p1061
aS'scaffold5249_cov206'
p1062
atp1063
Rp1064
sS'Mare'
p1065
g4
((lp1066
S'scaffold5262_cov49'
p1067
aS'scaffold15918_cov54'
p1068
atp1069
Rp1070
sS'W1'
p1071
g4
((lp1072
S'scaffold1071_cov92'
p1073
aS'scaffold49421_cov62'
p1074
atp1075
Rp1076
ssS'OG0002365'
p1077
(dp1078
S'VW4'
p1079
g4
((lp1080
S'scaffold343_cov157'
p1081
aS'scaffold6196_cov437'
p1082
atp1083
Rp1084
sS'Mare'
p1085
g4
((lp1086
S'scaffold5284_cov102'
p1087
aS'scaffold18868_cov79'
p1088
atp1089
Rp1090
sS'W1'
p1091
g4
((lp1092
S'scaffold9073_cov65'
p1093
aS'scaffold8548_cov121'
p1094
atp1095
Rp1096
ssS'OG0002366'
p1097
(dp1098
S'VW4'
p1099
g4
((lp1100
S'scaffold16272_cov418'
p1101
ag1081
atp1102
Rp1103
sS'Mare'
p1104
g4
((lp1105
g1087
ag1088
atp1106
Rp1107
sS'W1'
p1108
g4
((lp1109
g1094
ag1093
atp1110
Rp1111
ssS'OG0002367'
p1112
(dp1113
S'VW4'
p1114
g4
((lp1115
S'scaffold762_cov284'
p1116
atp1117
Rp1118
sS'Mare'
p1119
g4
((lp1120
S'scaffold22784_cov77'
p1121
aS'scaffold5297_cov82'
p1122
atp1123
Rp1124
sS'W1'
p1125
g4
((lp1126
S'scaffold4065_cov68'
p1127
aS'scaffold165600_cov166'
p1128
atp1129
Rp1130
ssS'OG0002361'
p1131
(dp1132
S'VW4'
p1133
g4
((lp1134
S'scaffold1042_cov233'
p1135
aS'scaffold20788_cov116'
p1136
atp1137
Rp1138
sS'Mare'
p1139
g4
((lp1140
S'scaffold5211_cov57'
p1141
aS'scaffold7470_cov77'
p1142
atp1143
Rp1144
sS'W1'
p1145
g4
((lp1146
S'scaffold19586_cov139'
p1147
aS'scaffold30711_cov65'
p1148
atp1149
Rp1150
ssS'OG0002362'
p1151
(dp1152
S'VW4'
p1153
g4
((lp1154
S'scaffold34835_cov215'
p1155
aS'scaffold2237_cov233'
p1156
atp1157
Rp1158
sS'Mare'
p1159
g4
((lp1160
S'scaffold35940_cov79'
p1161
aS'scaffold5213_cov135'
p1162
atp1163
Rp1164
sS'W1'
p1165
g4
((lp1166
S'scaffold45520_cov151'
p1167
aS'scaffold45518_cov71'
p1168
atp1169
Rp1170
ssS'OG0002363'
p1171
(dp1172
S'VW4'
p1173
g4
((lp1174
S'scaffold18071_cov248'
p1175
atp1176
Rp1177
sS'Mare'
p1178
g4
((lp1179
S'scaffold14648_cov98'
p1180
aS'scaffold5218_cov54'
p1181
atp1182
Rp1183
sS'W1'
p1184
g4
((lp1185
S'scaffold44377_cov142'
p1186
aS'scaffold14953_cov70'
p1187
atp1188
Rp1189
ssS'OG0002407'
p1190
(dp1191
S'VW4'
p1192
g4
((lp1193
S'scaffold6871_cov206'
p1194
aS'scaffold10121_cov202'
p1195
atp1196
Rp1197
sS'Mare'
p1198
g4
((lp1199
S'scaffold23308_cov74'
p1200
aS'scaffold5768_cov48'
p1201
atp1202
Rp1203
sS'W1'
p1204
g4
((lp1205
S'scaffold3456_cov132'
p1206
aS'scaffold166714_cov62'
p1207
atp1208
Rp1209
ssS'OG0002406'
p1210
(dp1211
S'VW4'
p1212
g4
((lp1213
S'scaffold1203_cov294'
p1214
aS'scaffold1019_cov183'
p1215
atp1216
Rp1217
sS'Mare'
p1218
g4
((lp1219
S'scaffold15567_cov64'
p1220
aS'scaffold5760_cov53'
p1221
atp1222
Rp1223
sS'W1'
p1224
g4
((lp1225
S'scaffold15895_cov77'
p1226
aS'scaffold49814_cov72'
p1227
atp1228
Rp1229
ssS'OG0002400'
p1230
(dp1231
S'VW4'
p1232
g4
((lp1233
S'scaffold1047_cov391'
p1234
aS'scaffold1999_cov166'
p1235
atp1236
Rp1237
sS'Mare'
p1238
g4
((lp1239
S'scaffold30291_cov59'
p1240
aS'scaffold5664_cov97'
p1241
atp1242
Rp1243
sS'W1'
p1244
g4
((lp1245
S'scaffold3009_cov66'
p1246
atp1247
Rp1248
ssS'OG0001554'
p1249
(dp1250
S'VW4'
p1251
g4
((lp1252
S'scaffold2691_cov437'
p1253
aS'scaffold843_cov157'
p1254
atp1255
Rp1256
sS'Mare'
p1257
g4
((lp1258
S'scaffold9100_cov54'
p1259
aS'scaffold37745_cov103'
p1260
atp1261
Rp1262
sS'W1'
p1263
g4
((lp1264
S'scaffold661_cov69'
p1265
aS'scaffold6054_cov102'
p1266
atp1267
Rp1268
ssS'OG0002402'
p1269
(dp1270
S'VW4'
p1271
g4
((lp1272
S'scaffold34901_cov222'
p1273
aS'scaffold14139_cov184'
p1274
atp1275
Rp1276
sS'Mare'
p1277
g4
((lp1278
S'scaffold5688_cov67'
p1279
aS'scaffold25903_cov62'
p1280
atp1281
Rp1282
sS'W1'
p1283
g4
((lp1284
S'scaffold10313_cov102'
p1285
aS'scaffold21316_cov65'
p1286
atp1287
Rp1288
ssS'OG0001493'
p1289
(dp1290
S'VW4'
p1291
g4
((lp1292
S'scaffold10396_cov149'
p1293
aS'scaffold13470_cov212'
p1294
atp1295
Rp1296
sS'Mare'
p1297
g4
((lp1298
S'scaffold10360_cov60'
p1299
aS'scaffold6609_cov59'
p1300
atp1301
Rp1302
sS'W1'
p1303
g4
((lp1304
S'scaffold15237_cov73'
p1305
aS'scaffold24301_cov102'
p1306
atp1307
Rp1308
ssS'OG0001492'
p1309
(dp1310
S'VW4'
p1311
g4
((lp1312
S'scaffold10173_cov150'
p1313
aS'scaffold10174_cov324'
p1314
atp1315
Rp1316
sS'Mare'
p1317
g4
((lp1318
S'scaffold36583_cov64'
p1319
aS'scaffold6606_cov160'
p1320
atp1321
Rp1322
sS'W1'
p1323
g4
((lp1324
S'scaffold50494_cov83'
p1325
aS'scaffold50322_cov70'
p1326
atp1327
Rp1328
ssS'OG0002560'
p1329
(dp1330
S'VW4'
p1331
g4
((lp1332
S'scaffold9757_cov155'
p1333
aS'scaffold7588_cov337'
p1334
atp1335
Rp1336
sS'Mare'
p1337
g4
((lp1338
S'scaffold8908_cov58'
p1339
aS'scaffold19950_cov56'
p1340
atp1341
Rp1342
sS'W1'
p1343
g4
((lp1344
S'scaffold2416_cov137'
p1345
aS'scaffold2417_cov66'
p1346
atp1347
Rp1348
ssS'OG0002561'
p1349
(dp1350
S'VW4'
p1351
g4
((lp1352
S'scaffold1767_cov191'
p1353
aS'scaffold1511_cov206'
p1354
atp1355
Rp1356
sS'Mare'
p1357
g4
((lp1358
S'scaffold53939_cov149'
p1359
aS'scaffold8942_cov56'
p1360
atp1361
Rp1362
sS'W1'
p1363
g4
((lp1364
S'scaffold8620_cov63'
p1365
aS'scaffold23855_cov65'
p1366
atp1367
Rp1368
ssS'OG0002566'
p1369
(dp1370
S'VW4'
p1371
g4
((lp1372
S'scaffold5141_cov149'
p1373
aS'scaffold4981_cov255'
p1374
atp1375
Rp1376
sS'Mare'
p1377
g4
((lp1378
S'scaffold32857_cov74'
p1379
aS'scaffold9215_cov55'
p1380
atp1381
Rp1382
sS'W1'
p1383
g4
((lp1384
S'scaffold2129_cov167'
p1385
aS'scaffold92330_cov67'
p1386
atp1387
Rp1388
ssS'OG0001495'
p1389
(dp1390
S'VW4'
p1391
g4
((lp1392
S'scaffold1867_cov235'
p1393
aS'scaffold12541_cov206'
p1394
atp1395
Rp1396
sS'Mare'
p1397
g4
((lp1398
S'scaffold6640_cov57'
p1399
aS'scaffold15420_cov62'
p1400
atp1401
Rp1402
sS'W1'
p1403
g4
((lp1404
S'scaffold1994_cov63'
p1405
aS'scaffold17601_cov135'
p1406
atp1407
Rp1408
ssS'OG0001494'
p1409
(dp1410
S'VW4'
p1411
g4
((lp1412
S'scaffold3089_cov153'
p1413
aS'scaffold6588_cov297'
p1414
atp1415
Rp1416
sS'Mare'
p1417
g4
((lp1418
S'scaffold6612_cov63'
p1419
aS'scaffold33314_cov52'
p1420
atp1421
Rp1422
sS'W1'
p1423
g4
((lp1424
S'scaffold4585_cov69'
p1425
aS'scaffold6268_cov78'
p1426
atp1427
Rp1428
ssS'OG0002217'
p1429
(dp1430
S'VW4'
p1431
g4
((lp1432
S'scaffold54_cov186'
p1433
aS'scaffold6744_cov389'
p1434
atp1435
Rp1436
sS'Mare'
p1437
g4
((lp1438
S'scaffold4550_cov107'
p1439
aS'scaffold3432_cov48'
p1440
atp1441
Rp1442
sS'W1'
p1443
g4
((lp1444
S'scaffold108_cov145'
p1445
aS'scaffold107_cov67'
p1446
atp1447
Rp1448
ssS'OG0001913'
p1449
(dp1450
S'VW4'
p1451
g4
((lp1452
S'scaffold1302_cov140'
p1453
aS'scaffold622_cov424'
p1454
atp1455
Rp1456
sS'Mare'
p1457
g4
((lp1458
S'scaffold1104_cov68'
p1459
aS'scaffold1103_cov83'
p1460
atp1461
Rp1462
sS'W1'
p1463
g4
((lp1464
S'scaffold7102_cov63'
p1465
aS'scaffold1868_cov136'
p1466
atp1467
Rp1468
ssS'OG0001916'
p1469
(dp1470
S'VW4'
p1471
g4
((lp1472
S'scaffold34525_cov187'
p1473
aS'scaffold6504_cov303'
p1474
atp1475
Rp1476
sS'Mare'
p1477
g4
((lp1478
S'scaffold1118_cov61'
p1479
aS'scaffold1469_cov82'
p1480
atp1481
Rp1482
sS'W1'
p1483
g4
((lp1484
S'scaffold166700_cov80'
p1485
atp1486
Rp1487
ssS'OG0001914'
p1488
(dp1489
S'VW4'
p1490
g4
((lp1491
S'scaffold34653_cov212'
p1492
aS'scaffold5909_cov266'
p1493
atp1494
Rp1495
sS'Mare'
p1496
g4
((lp1497
S'scaffold1115_cov70'
p1498
atp1499
Rp1500
sS'W1'
p1501
g4
((lp1502
S'scaffold98302_cov108'
p1503
aS'scaffold9790_cov65'
p1504
atp1505
Rp1506
ssS'OG0001918'
p1507
(dp1508
S'VW4'
p1509
g4
((lp1510
S'scaffold35711_cov297'
p1511
aS'scaffold6027_cov281'
p1512
atp1513
Rp1514
sS'Mare'
p1515
g4
((lp1516
S'scaffold1151_cov99'
p1517
aS'scaffold5881_cov87'
p1518
atp1519
Rp1520
sS'W1'
p1521
g4
((lp1522
S'scaffold21646_cov62'
p1523
aS'scaffold12770_cov157'
p1524
atp1525
Rp1526
ssS'OG0001919'
p1527
(dp1528
S'VW4'
p1529
g4
((lp1530
S'scaffold34105_cov301'
p1531
atp1532
Rp1533
sS'Mare'
p1534
g4
((lp1535
S'scaffold34396_cov102'
p1536
ag1517
atp1537
Rp1538
sS'W1'
p1539
g4
((lp1540
S'scaffold1295_cov143'
p1541
aS'scaffold11979_cov78'
p1542
atp1543
Rp1544
ssS'OG0002319'
p1545
(dp1546
S'VW4'
p1547
g4
((lp1548
S'scaffold625_cov187'
p1549
aS'scaffold8957_cov170'
p1550
atp1551
Rp1552
sS'Mare'
p1553
g4
((lp1554
S'scaffold38060_cov100'
p1555
aS'scaffold4757_cov67'
p1556
atp1557
Rp1558
sS'W1'
p1559
g4
((lp1560
S'scaffold29206_cov81'
p1561
aS'scaffold167496_cov97'
p1562
atp1563
Rp1564
ssS'OG0002318'
p1565
(dp1566
S'VW4'
p1567
g4
((lp1568
S'scaffold7174_cov157'
p1569
aS'scaffold3656_cov164'
p1570
atp1571
Rp1572
sS'Mare'
p1573
g4
((lp1574
S'scaffold42399_cov165'
p1575
aS'scaffold4701_cov56'
p1576
atp1577
Rp1578
sS'W1'
p1579
g4
((lp1580
S'scaffold141950_cov79'
p1581
aS'scaffold9327_cov109'
p1582
atp1583
Rp1584
ssS'OG0002313'
p1585
(dp1586
S'VW4'
p1587
g4
((lp1588
g107
aS'scaffold5178_cov237'
p1589
atp1590
Rp1591
sS'Mare'
p1592
g4
((lp1593
g112
aS'scaffold35981_cov85'
p1594
atp1595
Rp1596
sS'W1'
p1597
g4
((lp1598
g118
ag119
atp1599
Rp1600
ssS'OG0002709'
p1601
(dp1602
S'VW4'
p1603
g4
((lp1604
S'scaffold34618_cov281'
p1605
aS'scaffold15715_cov311'
p1606
atp1607
Rp1608
sS'Mare'
p1609
g4
((lp1610
S'scaffold33284_cov157'
p1611
aS'scaffold14343_cov60'
p1612
atp1613
Rp1614
sS'W1'
p1615
g4
((lp1616
S'scaffold48022_cov63'
p1617
aS'scaffold43497_cov152'
p1618
atp1619
Rp1620
ssS'OG0002074'
p1621
(dp1622
S'VW4'
p1623
g4
((lp1624
S'scaffold13539_cov223'
p1625
aS'scaffold2054_cov174'
p1626
atp1627
Rp1628
sS'Mare'
p1629
g4
((lp1630
S'scaffold34413_cov63'
p1631
aS'scaffold2285_cov92'
p1632
atp1633
Rp1634
sS'W1'
p1635
g4
((lp1636
S'scaffold844_cov69'
p1637
aS'scaffold843_cov127'
p1638
atp1639
Rp1640
ssS'OG0002076'
p1641
(dp1642
S'VW4'
p1643
g4
((lp1644
S'scaffold25159_cov143'
p1645
aS'scaffold13565_cov263'
p1646
atp1647
Rp1648
sS'Mare'
p1649
g4
((lp1650
S'scaffold2297_cov70'
p1651
aS'scaffold5466_cov54'
p1652
atp1653
Rp1654
sS'W1'
p1655
g4
((lp1656
S'scaffold6388_cov146'
p1657
aS'scaffold8779_cov66'
p1658
atp1659
Rp1660
ssS'OG0002077'
p1661
(dp1662
S'VW4'
p1663
g4
((lp1664
S'scaffold2301_cov209'
p1665
aS'scaffold3444_cov244'
p1666
atp1667
Rp1668
sS'Mare'
p1669
g4
((lp1670
S'scaffold11052_cov59'
p1671
aS'scaffold2304_cov65'
p1672
atp1673
Rp1674
sS'W1'
p1675
g4
((lp1676
S'scaffold30423_cov65'
p1677
aS'scaffold6055_cov140'
p1678
atp1679
Rp1680
ssS'OG0002070'
p1681
(dp1682
S'VW4'
p1683
g4
((lp1684
S'scaffold4396_cov166'
p1685
aS'scaffold10417_cov197'
p1686
atp1687
Rp1688
sS'Mare'
p1689
g4
((lp1690
S'scaffold2211_cov55'
p1691
aS'scaffold3443_cov80'
p1692
atp1693
Rp1694
sS'W1'
p1695
g4
((lp1696
S'scaffold3133_cov141'
p1697
aS'scaffold30966_cov62'
p1698
atp1699
Rp1700
ssS'OG0002071'
p1701
(dp1702
S'VW4'
p1703
g4
((lp1704
S'scaffold58_cov215'
p1705
aS'scaffold33716_cov277'
p1706
atp1707
Rp1708
sS'Mare'
p1709
g4
((lp1710
S'scaffold16639_cov75'
p1711
aS'scaffold2248_cov58'
p1712
atp1713
Rp1714
sS'W1'
p1715
g4
((lp1716
S'scaffold7585_cov68'
p1717
aS'scaffold13852_cov94'
p1718
atp1719
Rp1720
ssS'OG0002174'
p1721
(dp1722
S'VW4'
p1723
g4
((lp1724
S'scaffold1044_cov225'
p1725
aS'scaffold2920_cov216'
p1726
atp1727
Rp1728
sS'Mare'
p1729
g4
((lp1730
S'scaffold11009_cov54'
p1731
aS'scaffold3040_cov93'
p1732
atp1733
Rp1734
sS'W1'
p1735
g4
((lp1736
S'scaffold58432_cov194'
p1737
atp1738
Rp1739
ssS'OG0002078'
p1740
(dp1741
S'VW4'
p1742
g4
((lp1743
S'scaffold4047_cov207'
p1744
aS'scaffold1199_cov265'
p1745
atp1746
Rp1747
sS'Mare'
p1748
g4
((lp1749
S'scaffold2309_cov75'
p1750
aS'scaffold31137_cov66'
p1751
atp1752
Rp1753
sS'W1'
p1754
g4
((lp1755
S'scaffold165459_cov155'
p1756
atp1757
Rp1758
ssS'OG0002173'
p1759
(dp1760
S'VW4'
p1761
g4
((lp1762
g1725
ag1726
atp1763
Rp1764
sS'Mare'
p1765
g4
((lp1766
g1731
ag1732
atp1767
Rp1768
sS'W1'
p1769
g4
((lp1770
g1737
atp1771
Rp1772
ssS'OG0001606'
p1773
(dp1774
S'VW4'
p1775
g4
((lp1776
S'scaffold4188_cov191'
p1777
aS'scaffold36852_cov305'
p1778
atp1779
Rp1780
sS'Mare'
p1781
g4
((lp1782
S'scaffold37302_cov74'
p1783
aS'scaffold13367_cov89'
p1784
atp1785
Rp1786
sS'W1'
p1787
g4
((lp1788
S'scaffold57178_cov79'
p1789
aS'scaffold38959_cov135'
p1790
atp1791
Rp1792
ssS'OG0002273'
p1793
(dp1794
S'VW4'
p1795
g4
((lp1796
S'scaffold5780_cov292'
p1797
aS'scaffold421_cov166'
p1798
atp1799
Rp1800
sS'Mare'
p1801
g4
((lp1802
S'scaffold17734_cov54'
p1803
aS'scaffold4093_cov55'
p1804
atp1805
Rp1806
sS'W1'
p1807
g4
((lp1808
S'scaffold19197_cov73'
p1809
aS'scaffold4030_cov67'
p1810
atp1811
Rp1812
ssS'OG0002270'
p1813
(dp1814
S'VW4'
p1815
g4
((lp1816
S'scaffold36011_cov302'
p1817
aS'scaffold40654_cov315'
p1818
atp1819
Rp1820
sS'Mare'
p1821
g4
((lp1822
S'scaffold4085_cov106'
p1823
ag734
atp1824
Rp1825
sS'W1'
p1826
g4
((lp1827
S'scaffold9044_cov136'
p1828
ag741
atp1829
Rp1830
ssS'OG0002271'
p1831
(dp1832
S'VW4'
p1833
g4
((lp1834
S'scaffold3829_cov235'
p1835
aS'scaffold1469_cov209'
p1836
atp1837
Rp1838
sS'Mare'
p1839
g4
((lp1840
S'scaffold44657_cov149'
p1841
aS'scaffold4089_cov52'
p1842
atp1843
Rp1844
sS'W1'
p1845
g4
((lp1846
S'scaffold6934_cov101'
p1847
aS'scaffold5476_cov91'
p1848
atp1849
Rp1850
ssS'OG0002275'
p1851
(dp1852
S'VW4'
p1853
g4
((lp1854
S'scaffold4382_cov182'
p1855
aS'scaffold50853_cov294'
p1856
atp1857
Rp1858
sS'Mare'
p1859
g4
((lp1860
S'scaffold4328_cov64'
p1861
aS'scaffold4094_cov85'
p1862
atp1863
Rp1864
sS'W1'
p1865
g4
((lp1866
S'scaffold5259_cov70'
p1867
aS'scaffold31513_cov82'
p1868
atp1869
Rp1870
ssS'OG0002278'
p1871
(dp1872
S'VW4'
p1873
g4
((lp1874
S'scaffold10294_cov190'
p1875
aS'scaffold40391_cov315'
p1876
atp1877
Rp1878
sS'Mare'
p1879
g4
((lp1880
S'scaffold4147_cov76'
p1881
aS'scaffold36003_cov57'
p1882
atp1883
Rp1884
sS'W1'
p1885
g4
((lp1886
S'scaffold9387_cov68'
p1887
aS'scaffold4321_cov104'
p1888
atp1889
Rp1890
ssS'OG0001170'
p1891
(dp1892
S'VW4'
p1893
g4
((lp1894
S'scaffold424_cov173'
p1895
aS'scaffold34894_cov238'
p1896
atp1897
Rp1898
sS'Mare'
p1899
g4
((lp1900
S'scaffold1981_cov53'
p1901
aS'scaffold1561_cov50'
p1902
atp1903
Rp1904
sS'W1'
p1905
g4
((lp1906
S'scaffold34941_cov134'
p1907
aS'scaffold1333_cov60'
p1908
atp1909
Rp1910
ssS'OG0001071'
p1911
(dp1912
S'VW4'
p1913
g4
((lp1914
S'scaffold4412_cov349'
p1915
aS'scaffold13583_cov156'
p1916
atp1917
Rp1918
sS'Mare'
p1919
g4
((lp1920
S'scaffold649_cov86'
p1921
aS'scaffold3689_cov71'
p1922
atp1923
Rp1924
sS'W1'
p1925
g4
((lp1926
S'scaffold34222_cov195'
p1927
atp1928
Rp1929
ssS'OG0001070'
p1930
(dp1931
S'VW4'
p1932
g4
((lp1933
S'scaffold2099_cov316'
p1934
aS'scaffold52810_cov589'
p1935
atp1936
Rp1937
sS'Mare'
p1938
g4
((lp1939
S'scaffold34267_cov108'
p1940
aS'scaffold643_cov63'
p1941
atp1942
Rp1943
sS'W1'
p1944
g4
((lp1945
S'scaffold59464_cov122'
p1946
aS'scaffold165520_cov190'
p1947
atp1948
Rp1949
ssS'OG0001372'
p1950
(dp1951
S'VW4'
p1952
g4
((lp1953
S'scaffold16909_cov171'
p1954
aS'scaffold10939_cov235'
p1955
atp1956
Rp1957
sS'Mare'
p1958
g4
((lp1959
S'scaffold4050_cov108'
p1960
aS'scaffold15254_cov56'
p1961
atp1962
Rp1963
sS'W1'
p1964
g4
((lp1965
S'scaffold11821_cov67'
p1966
aS'scaffold16084_cov74'
p1967
atp1968
Rp1969
ssS'OG0001371'
p1970
(dp1971
S'VW4'
p1972
g4
((lp1973
S'scaffold2659_cov200'
p1974
aS'scaffold7260_cov230'
p1975
atp1976
Rp1977
sS'Mare'
p1978
g4
((lp1979
S'scaffold4048_cov55'
p1980
aS'scaffold33066_cov68'
p1981
atp1982
Rp1983
sS'W1'
p1984
g4
((lp1985
S'scaffold22816_cov146'
p1986
aS'scaffold22815_cov69'
p1987
atp1988
Rp1989
ssS'OG0001079'
p1990
(dp1991
S'VW4'
p1992
g4
((lp1993
S'scaffold5271_cov299'
p1994
aS'scaffold5221_cov193'
p1995
atp1996
Rp1997
sS'Mare'
p1998
g4
((lp1999
S'scaffold707_cov65'
p2000
aS'scaffold1774_cov51'
p2001
atp2002
Rp2003
sS'W1'
p2004
g4
((lp2005
S'scaffold3987_cov100'
p2006
aS'scaffold14924_cov62'
p2007
atp2008
Rp2009
ssS'OG0001962'
p2010
(dp2011
S'VW4'
p2012
g4
((lp2013
S'scaffold3984_cov353'
p2014
aS'scaffold2503_cov151'
p2015
atp2016
Rp2017
sS'Mare'
p2018
g4
((lp2019
S'scaffold3254_cov78'
p2020
aS'scaffold1402_cov78'
p2021
atp2022
Rp2023
sS'W1'
p2024
g4
((lp2025
S'scaffold10385_cov64'
p2026
aS'scaffold19924_cov91'
p2027
atp2028
Rp2029
ssS'OG0001836'
p2030
(dp2031
S'VW4'
p2032
g4
((lp2033
g571
aS'scaffold1058_cov270'
p2034
atp2035
Rp2036
sS'Mare'
p2037
g4
((lp2038
S'scaffold720_cov51'
p2039
aS'scaffold35156_cov134'
p2040
atp2041
Rp2042
sS'W1'
p2043
g4
((lp2044
S'scaffold5456_cov152'
p2045
aS'scaffold67160_cov58'
p2046
atp2047
Rp2048
ssS'OG0002630'
p2049
(dp2050
S'VW4'
p2051
g4
((lp2052
S'scaffold5461_cov213'
p2053
aS'scaffold3485_cov257'
p2054
atp2055
Rp2056
sS'Mare'
p2057
g4
((lp2058
S'scaffold11042_cov64'
p2059
aS'scaffold18292_cov125'
p2060
atp2061
Rp2062
sS'W1'
p2063
g4
((lp2064
S'scaffold4052_cov74'
p2065
aS'scaffold5847_cov85'
p2066
atp2067
Rp2068
ssS'OG0001960'
p2069
(dp2070
S'VW4'
p2071
g4
((lp2072
S'scaffold4452_cov272'
p2073
aS'scaffold7051_cov276'
p2074
atp2075
Rp2076
sS'Mare'
p2077
g4
((lp2078
S'scaffold4621_cov57'
p2079
aS'scaffold1390_cov116'
p2080
atp2081
Rp2082
sS'W1'
p2083
g4
((lp2084
S'scaffold34357_cov65'
p2085
aS'scaffold70862_cov124'
p2086
atp2087
Rp2088
ssS'OG0002636'
p2089
(dp2090
S'VW4'
p2091
g4
((lp2092
S'scaffold35079_cov288'
p2093
aS'scaffold35849_cov287'
p2094
atp2095
Rp2096
sS'Mare'
p2097
g4
((lp2098
S'scaffold12855_cov52'
p2099
aS'scaffold11190_cov116'
p2100
atp2101
Rp2102
sS'W1'
p2103
g4
((lp2104
S'scaffold33185_cov125'
p2105
aS'scaffold19276_cov115'
p2106
atp2107
Rp2108
ssS'OG0002634'
p2109
(dp2110
S'VW4'
p2111
g4
((lp2112
S'scaffold3991_cov197'
p2113
aS'scaffold41274_cov305'
p2114
atp2115
Rp2116
sS'Mare'
p2117
g4
((lp2118
S'scaffold11140_cov73'
p2119
atp2120
Rp2121
sS'W1'
p2122
g4
((lp2123
S'scaffold4897_cov96'
p2124
aS'scaffold6377_cov65'
p2125
atp2126
Rp2127
ssS'OG0002639'
p2128
(dp2129
S'VW4'
p2130
g4
((lp2131
S'scaffold6793_cov348'
p2132
atp2133
Rp2134
sS'Mare'
p2135
g4
((lp2136
S'scaffold11323_cov68'
p2137
atp2138
Rp2139
sS'W1'
p2140
g4
((lp2141
S'scaffold4152_cov75'
p2142
aS'scaffold15839_cov63'
p2143
atp2144
Rp2145
ssS'OG0002581'
p2146
(dp2147
S'VW4'
p2148
g4
((lp2149
S'scaffold36473_cov268'
p2150
aS'scaffold3188_cov246'
p2151
atp2152
Rp2153
sS'Mare'
p2154
g4
((lp2155
S'scaffold9651_cov60'
p2156
aS'scaffold45026_cov161'
p2157
atp2158
Rp2159
sS'W1'
p2160
g4
((lp2161
S'scaffold1394_cov148'
p2162
aS'scaffold1395_cov70'
p2163
atp2164
Rp2165
ssS'OG0002001'
p2166
(dp2167
S'VW4'
p2168
g4
((lp2169
S'scaffold4093_cov203'
p2170
aS'scaffold15331_cov173'
p2171
atp2172
Rp2173
sS'Mare'
p2174
g4
((lp2175
S'scaffold1673_cov68'
p2176
aS'scaffold1672_cov57'
p2177
atp2178
Rp2179
sS'W1'
p2180
g4
((lp2181
S'scaffold14267_cov83'
p2182
aS'scaffold1125_cov68'
p2183
atp2184
Rp2185
ssS'OG0002000'
p2186
(dp2187
S'VW4'
p2188
g4
((lp2189
S'scaffold3241_cov286'
p2190
aS'scaffold12477_cov250'
p2191
atp2192
Rp2193
sS'Mare'
p2194
g4
((lp2195
S'scaffold1671_cov114'
p2196
aS'scaffold39151_cov168'
p2197
atp2198
Rp2199
sS'W1'
p2200
g4
((lp2201
S'scaffold9974_cov151'
p2202
atp2203
Rp2204
ssS'OG0001738'
p2205
(dp2206
S'VW4'
p2207
g4
((lp2208
S'scaffold3028_cov204'
p2209
atp2210
Rp2211
sS'Mare'
p2212
g4
((lp2213
S'scaffold3623_cov65'
p2214
aS'scaffold154_cov94'
p2215
atp2216
Rp2217
sS'W1'
p2218
g4
((lp2219
S'scaffold12599_cov64'
p2220
aS'scaffold164974_cov139'
p2221
atp2222
Rp2223
ssS'OG0002004'
p2224
(dp2225
S'VW4'
p2226
g4
((lp2227
S'scaffold2468_cov231'
p2228
aS'scaffold4243_cov244'
p2229
atp2230
Rp2231
sS'Mare'
p2232
g4
((lp2233
S'scaffold1680_cov53'
p2234
aS'scaffold3753_cov79'
p2235
atp2236
Rp2237
sS'W1'
p2238
g4
((lp2239
S'scaffold39128_cov65'
p2240
aS'scaffold51750_cov85'
p2241
atp2242
Rp2243
ssS'OG0002009'
p2244
(dp2245
S'VW4'
p2246
g4
((lp2247
S'scaffold34992_cov298'
p2248
aS'scaffold428_cov197'
p2249
atp2250
Rp2251
sS'Mare'
p2252
g4
((lp2253
S'scaffold1726_cov57'
p2254
aS'scaffold10939_cov60'
p2255
atp2256
Rp2257
sS'W1'
p2258
g4
((lp2259
S'scaffold10475_cov143'
p2260
aS'scaffold10474_cov65'
p2261
atp2262
Rp2263
ssS'OG0002008'
p2264
(dp2265
S'VW4'
p2266
g4
((lp2267
g2248
ag2249
atp2268
Rp2269
sS'Mare'
p2270
g4
((lp2271
g2254
ag2255
atp2272
Rp2273
sS'W1'
p2274
g4
((lp2275
g2260
ag2261
atp2276
Rp2277
ssS'OG0001730'
p2278
(dp2279
S'VW4'
p2280
g4
((lp2281
S'scaffold10400_cov191'
p2282
aS'scaffold674_cov219'
p2283
atp2284
Rp2285
sS'Mare'
p2286
g4
((lp2287
S'scaffold24311_cov69'
p2288
aS'scaffold138_cov63'
p2289
atp2290
Rp2291
sS'W1'
p2292
g4
((lp2293
S'scaffold2987_cov88'
p2294
aS'scaffold4224_cov73'
p2295
atp2296
Rp2297
ssS'OG0001736'
p2298
(dp2299
S'VW4'
p2300
g4
((lp2301
S'scaffold3045_cov189'
p2302
atp2303
Rp2304
sS'Mare'
p2305
g4
((lp2306
S'scaffold5935_cov64'
p2307
aS'scaffold146_cov83'
p2308
atp2309
Rp2310
sS'W1'
p2311
g4
((lp2312
S'scaffold1006_cov111'
p2313
aS'scaffold1003_cov64'
p2314
atp2315
Rp2316
ssS'OG0001737'
p2317
(dp2318
S'VW4'
p2319
g4
((lp2320
g2209
aS'scaffold1871_cov212'
p2321
atp2322
Rp2323
sS'Mare'
p2324
g4
((lp2325
S'scaffold3622_cov63'
p2326
ag2215
atp2327
Rp2328
sS'W1'
p2329
g4
((lp2330
S'scaffold2833_cov61'
p2331
ag2221
atp2332
Rp2333
ssS'OG0001734'
p2334
(dp2335
S'VW4'
p2336
g4
((lp2337
S'scaffold34047_cov174'
p2338
aS'scaffold14855_cov234'
p2339
atp2340
Rp2341
sS'Mare'
p2342
g4
((lp2343
S'scaffold36050_cov70'
p2344
aS'scaffold144_cov60'
p2345
atp2346
Rp2347
sS'W1'
p2348
g4
((lp2349
S'scaffold9703_cov100'
p2350
aS'scaffold166756_cov71'
p2351
atp2352
Rp2353
ssS'OG0001735'
p2354
(dp2355
S'VW4'
p2356
g4
((lp2357
S'scaffold4466_cov187'
p2358
aS'scaffold2115_cov223'
p2359
atp2360
Rp2361
sS'Mare'
p2362
g4
((lp2363
S'scaffold6515_cov62'
p2364
ag2308
atp2365
Rp2366
sS'W1'
p2367
g4
((lp2368
g2313
ag2314
atp2369
Rp2370
ssS'OG0001800'
p2371
(dp2372
S'VW4'
p2373
g4
((lp2374
S'scaffold5979_cov159'
p2375
atp2376
Rp2377
sS'Mare'
p2378
g4
((lp2379
S'scaffold13514_cov72'
p2380
aS'scaffold475_cov56'
p2381
atp2382
Rp2383
sS'W1'
p2384
g4
((lp2385
S'scaffold6150_cov132'
p2386
aS'scaffold31648_cov66'
p2387
atp2388
Rp2389
ssS'OG0001801'
p2390
(dp2391
S'VW4'
p2392
g4
((lp2393
S'scaffold7776_cov261'
p2394
aS'scaffold417_cov219'
p2395
atp2396
Rp2397
sS'Mare'
p2398
g4
((lp2399
S'scaffold1111_cov107'
p2400
aS'scaffold479_cov51'
p2401
atp2402
Rp2403
sS'W1'
p2404
g4
((lp2405
S'scaffold73058_cov93'
p2406
aS'scaffold5775_cov75'
p2407
atp2408
Rp2409
ssS'OG0001101'
p2410
(dp2411
S'VW4'
p2412
g4
((lp2413
S'scaffold33647_cov137'
p2414
aS'scaffold6177_cov155'
p2415
atp2416
Rp2417
sS'Mare'
p2418
g4
((lp2419
S'scaffold4034_cov67'
p2420
aS'scaffold866_cov53'
p2421
atp2422
Rp2423
sS'W1'
p2424
g4
((lp2425
g1054
aS'scaffold6452_cov96'
p2426
atp2427
Rp2428
ssS'OG0001104'
p2429
(dp2430
S'VW4'
p2431
g4
((lp2432
S'scaffold35491_cov284'
p2433
aS'scaffold6922_cov210'
p2434
atp2435
Rp2436
sS'Mare'
p2437
g4
((lp2438
S'scaffold34199_cov83'
p2439
aS'scaffold886_cov63'
p2440
atp2441
Rp2442
sS'W1'
p2443
g4
((lp2444
S'scaffold8565_cov73'
p2445
aS'scaffold166331_cov132'
p2446
atp2447
Rp2448
ssS'OG0001516'
p2449
(dp2450
S'VW4'
p2451
g4
((lp2452
S'scaffold29908_cov147'
p2453
aS'scaffold663_cov256'
p2454
atp2455
Rp2456
sS'Mare'
p2457
g4
((lp2458
S'scaffold7200_cov64'
p2459
aS'scaffold8638_cov55'
p2460
atp2461
Rp2462
sS'W1'
p2463
g4
((lp2464
S'scaffold4528_cov69'
p2465
aS'scaffold17015_cov140'
p2466
atp2467
Rp2468
ssS'OG0001512'
p2469
(dp2470
S'VW4'
p2471
g4
((lp2472
g2170
ag2171
atp2473
Rp2474
sS'Mare'
p2475
g4
((lp2476
S'scaffold8457_cov52'
p2477
aS'scaffold7133_cov53'
p2478
atp2479
Rp2480
sS'W1'
p2481
g4
((lp2482
g2182
ag2183
atp2483
Rp2484
ssS'OG0001457'
p2485
(dp2486
S'VW4'
p2487
g4
((lp2488
S'scaffold8056_cov196'
p2489
aS'scaffold19250_cov205'
p2490
atp2491
Rp2492
sS'Mare'
p2493
g4
((lp2494
S'scaffold5777_cov82'
p2495
aS'scaffold6784_cov56'
p2496
atp2497
Rp2498
sS'W1'
p2499
g4
((lp2500
S'scaffold42400_cov69'
p2501
aS'scaffold14567_cov126'
p2502
atp2503
Rp2504
ssS'OG0002524'
p2505
(dp2506
S'VW4'
p2507
g4
((lp2508
S'scaffold6879_cov212'
p2509
atp2510
Rp2511
sS'Mare'
p2512
g4
((lp2513
S'scaffold8048_cov96'
p2514
aS'scaffold32919_cov67'
p2515
atp2516
Rp2517
sS'W1'
p2518
g4
((lp2519
S'scaffold32540_cov74'
p2520
aS'scaffold14652_cov67'
p2521
atp2522
Rp2523
ssS'OG0002525'
p2524
(dp2525
S'VW4'
p2526
g4
((lp2527
S'scaffold3249_cov179'
p2528
aS'scaffold3476_cov276'
p2529
atp2530
Rp2531
sS'Mare'
p2532
g4
((lp2533
S'scaffold8082_cov74'
p2534
aS'scaffold12811_cov99'
p2535
atp2536
Rp2537
sS'W1'
p2538
g4
((lp2539
S'scaffold166740_cov68'
p2540
aS'scaffold167477_cov80'
p2541
atp2542
Rp2543
ssS'OG0002523'
p2544
(dp2545
S'VW4'
p2546
g4
((lp2547
S'scaffold33985_cov263'
p2548
aS'scaffold383_cov198'
p2549
atp2550
Rp2551
sS'Mare'
p2552
g4
((lp2553
S'scaffold19720_cov60'
p2554
aS'scaffold8038_cov51'
p2555
atp2556
Rp2557
sS'W1'
p2558
g4
((lp2559
S'scaffold893_cov66'
p2560
aS'scaffold167565_cov117'
p2561
atp2562
Rp2563
ssS'OG0002689'
p2564
(dp2565
S'VW4'
p2566
g4
((lp2567
S'scaffold43872_cov294'
p2568
aS'scaffold25699_cov127'
p2569
atp2570
Rp2571
sS'Mare'
p2572
g4
((lp2573
S'scaffold13115_cov55'
p2574
atp2575
Rp2576
sS'W1'
p2577
g4
((lp2578
S'scaffold514_cov77'
p2579
aS'scaffold6036_cov69'
p2580
atp2581
Rp2582
ssS'OG0002687'
p2583
(dp2584
S'VW4'
p2585
g4
((lp2586
g866
aS'scaffold9228_cov240'
p2587
atp2588
Rp2589
sS'Mare'
p2590
g4
((lp2591
S'scaffold12994_cov59'
p2592
atp2593
Rp2594
sS'W1'
p2595
g4
((lp2596
S'scaffold4828_cov66'
p2597
aS'scaffold68570_cov69'
p2598
atp2599
Rp2600
ssS'OG0000478'
p2601
(dp2602
S'VW4'
p2603
g4
((lp2604
S'scaffold2058_cov324'
p2605
aS'scaffold6925_cov364'
p2606
atp2607
Rp2608
sS'Mare'
p2609
g4
((lp2610
S'scaffold6018_cov72'
p2611
aS'scaffold7261_cov132'
p2612
atp2613
Rp2614
sS'W1'
p2615
g4
((lp2616
S'scaffold3122_cov145'
p2617
aS'scaffold3123_cov67'
p2618
atp2619
Rp2620
ssS'OG0002683'
p2621
(dp2622
S'VW4'
p2623
g4
((lp2624
S'scaffold3898_cov165'
p2625
aS'scaffold13712_cov247'
p2626
atp2627
Rp2628
sS'Mare'
p2629
g4
((lp2630
S'scaffold34228_cov83'
p2631
aS'scaffold12788_cov56'
p2632
atp2633
Rp2634
sS'W1'
p2635
g4
((lp2636
g385
ag386
atp2637
Rp2638
ssS'OG0002682'
p2639
(dp2640
S'VW4'
p2641
g4
((lp2642
g2625
ag2626
atp2643
Rp2644
sS'Mare'
p2645
g4
((lp2646
g2631
ag2632
atp2647
Rp2648
sS'W1'
p2649
g4
((lp2650
g385
ag386
atp2651
Rp2652
ssS'OG0002528'
p2653
(dp2654
S'VW4'
p2655
g4
((lp2656
S'scaffold7433_cov210'
p2657
atp2658
Rp2659
sS'Mare'
p2660
g4
((lp2661
S'scaffold35870_cov85'
p2662
aS'scaffold8169_cov55'
p2663
atp2664
Rp2665
sS'W1'
p2666
g4
((lp2667
S'scaffold218920_cov134'
p2668
aS'scaffold990_cov68'
p2669
atp2670
Rp2671
ssS'OG0001733'
p2672
(dp2673
S'VW4'
p2674
g4
((lp2675
S'scaffold3989_cov265'
p2676
aS'scaffold13021_cov287'
p2677
atp2678
Rp2679
sS'Mare'
p2680
g4
((lp2681
S'scaffold5382_cov123'
p2682
aS'scaffold143_cov57'
p2683
atp2684
Rp2685
sS'W1'
p2686
g4
((lp2687
S'scaffold3718_cov71'
p2688
aS'scaffold3714_cov147'
p2689
atp2690
Rp2691
ssS'OG0002091'
p2692
(dp2693
S'VW4'
p2694
g4
((lp2695
g1353
ag1354
atp2696
Rp2697
sS'Mare'
p2698
g4
((lp2699
S'scaffold2390_cov64'
p2700
ag1360
atp2701
Rp2702
sS'W1'
p2703
g4
((lp2704
g1365
ag1366
atp2705
Rp2706
ssS'OG0002828'
p2707
(dp2708
S'VW4'
p2709
g4
((lp2710
S'scaffold2483_cov281'
p2711
atp2712
Rp2713
sS'Mare'
p2714
g4
((lp2715
S'scaffold33224_cov59'
p2716
aS'scaffold34455_cov54'
p2717
atp2718
Rp2719
sS'W1'
p2720
g4
((lp2721
S'scaffold3217_cov84'
p2722
aS'scaffold3253_cov68'
p2723
atp2724
Rp2725
ssS'OG0002826'
p2726
(dp2727
S'VW4'
p2728
g4
((lp2729
S'scaffold5917_cov146'
p2730
aS'scaffold8573_cov422'
p2731
atp2732
Rp2733
sS'Mare'
p2734
g4
((lp2735
S'scaffold33082_cov85'
p2736
aS'scaffold41869_cov103'
p2737
atp2738
Rp2739
sS'W1'
p2740
g4
((lp2741
S'scaffold45339_cov132'
p2742
aS'scaffold5542_cov64'
p2743
atp2744
Rp2745
ssS'OG0002825'
p2746
(dp2747
S'VW4'
p2748
g4
((lp2749
S'scaffold479_cov184'
p2750
atp2751
Rp2752
sS'Mare'
p2753
g4
((lp2754
S'scaffold33054_cov87'
p2755
aS'scaffold37007_cov62'
p2756
atp2757
Rp2758
sS'W1'
p2759
g4
((lp2760
S'scaffold60044_cov77'
p2761
aS'scaffold51140_cov73'
p2762
atp2763
Rp2764
ssS'OG0002823'
p2765
(dp2766
S'VW4'
p2767
g4
((lp2768
S'scaffold24574_cov156'
p2769
atp2770
Rp2771
sS'Mare'
p2772
g4
((lp2773
S'scaffold36780_cov101'
p2774
aS'scaffold32904_cov75'
p2775
atp2776
Rp2777
sS'W1'
p2778
g4
((lp2779
S'scaffold12593_cov122'
p2780
aS'scaffold10714_cov60'
p2781
atp2782
Rp2783
ssS'OG0002822'
p2784
(dp2785
S'VW4'
p2786
g4
((lp2787
S'scaffold854_cov247'
p2788
aS'scaffold166_cov236'
p2789
atp2790
Rp2791
sS'Mare'
p2792
g4
((lp2793
S'scaffold30275_cov121'
p2794
atp2795
Rp2796
sS'W1'
p2797
g4
((lp2798
S'scaffold14753_cov103'
p2799
aS'scaffold10581_cov98'
p2800
atp2801
Rp2802
ssS'OG0002821'
p2803
(dp2804
S'VW4'
p2805
g4
((lp2806
S'scaffold9550_cov156'
p2807
aS'scaffold3709_cov220'
p2808
atp2809
Rp2810
sS'Mare'
p2811
g4
((lp2812
S'scaffold29903_cov123'
p2813
aS'scaffold33612_cov72'
p2814
atp2815
Rp2816
sS'W1'
p2817
g4
((lp2818
S'scaffold1145_cov65'
p2819
aS'scaffold1143_cov170'
p2820
atp2821
Rp2822
ssS'OG0001816'
p2823
(dp2824
S'VW4'
p2825
g4
((lp2826
S'scaffold3415_cov306'
p2827
aS'scaffold2730_cov266'
p2828
atp2829
Rp2830
sS'Mare'
p2831
g4
((lp2832
S'scaffold6452_cov95'
p2833
aS'scaffold570_cov75'
p2834
atp2835
Rp2836
sS'W1'
p2837
g4
((lp2838
S'scaffold166345_cov136'
p2839
aS'scaffold367_cov102'
p2840
atp2841
Rp2842
ssS'OG0001815'
p2843
(dp2844
S'VW4'
p2845
g4
((lp2846
S'scaffold35026_cov310'
p2847
aS'scaffold288_cov182'
p2848
atp2849
Rp2850
sS'Mare'
p2851
g4
((lp2852
S'scaffold3128_cov90'
p2853
ag2834
atp2854
Rp2855
sS'W1'
p2856
g4
((lp2857
S'scaffold374_cov71'
p2858
aS'scaffold166682_cov143'
p2859
atp2860
Rp2861
ssS'OG0001813'
p2862
(dp2863
S'VW4'
p2864
g4
((lp2865
S'scaffold6764_cov231'
p2866
aS'scaffold3813_cov275'
p2867
atp2868
Rp2869
sS'Mare'
p2870
g4
((lp2871
S'scaffold565_cov58'
p2872
aS'scaffold27913_cov149'
p2873
atp2874
Rp2875
sS'W1'
p2876
g4
((lp2877
S'scaffold451_cov146'
p2878
aS'scaffold449_cov70'
p2879
atp2880
Rp2881
ssS'OG0001477'
p2882
(dp2883
S'VW4'
p2884
g4
((lp2885
S'scaffold5589_cov166'
p2886
aS'scaffold2157_cov220'
p2887
atp2888
Rp2889
sS'Mare'
p2890
g4
((lp2891
S'scaffold7428_cov49'
p2892
aS'scaffold33201_cov53'
p2893
atp2894
Rp2895
sS'W1'
p2896
g4
((lp2897
S'scaffold5046_cov63'
p2898
aS'scaffold5049_cov88'
p2899
atp2900
Rp2901
ssS'OG0001819'
p2902
(dp2903
S'VW4'
p2904
g4
((lp2905
S'scaffold2155_cov181'
p2906
aS'scaffold54209_cov305'
p2907
atp2908
Rp2909
sS'Mare'
p2910
g4
((lp2911
S'scaffold3440_cov56'
p2912
aS'scaffold582_cov57'
p2913
atp2914
Rp2915
sS'W1'
p2916
g4
((lp2917
S'scaffold1808_cov87'
p2918
aS'scaffold18178_cov78'
p2919
atp2920
Rp2921
ssS'OG0001818'
p2922
(dp2923
S'VW4'
p2924
g4
((lp2925
S'scaffold879_cov251'
p2926
aS'scaffold13815_cov162'
p2927
atp2928
Rp2929
sS'Mare'
p2930
g4
((lp2931
S'scaffold580_cov61'
p2932
atp2933
Rp2934
sS'W1'
p2935
g4
((lp2936
S'scaffold12178_cov107'
p2937
aS'scaffold19442_cov115'
p2938
atp2939
Rp2940
ssS'OG0002355'
p2941
(dp2942
S'VW4'
p2943
g4
((lp2944
S'scaffold1795_cov197'
p2945
aS'scaffold3646_cov176'
p2946
atp2947
Rp2948
sS'Mare'
p2949
g4
((lp2950
S'scaffold5186_cov71'
p2951
aS'scaffold5185_cov80'
p2952
atp2953
Rp2954
sS'W1'
p2955
g4
((lp2956
S'scaffold542_cov70'
p2957
aS'scaffold6824_cov114'
p2958
atp2959
Rp2960
ssS'OG0002354'
p2961
(dp2962
S'VW4'
p2963
g4
((lp2964
S'scaffold1141_cov217'
p2965
aS'scaffold9518_cov247'
p2966
atp2967
Rp2968
sS'Mare'
p2969
g4
((lp2970
S'scaffold18184_cov66'
p2971
aS'scaffold5184_cov86'
p2972
atp2973
Rp2974
sS'W1'
p2975
g4
((lp2976
S'scaffold2350_cov77'
p2977
aS'scaffold95123_cov91'
p2978
atp2979
Rp2980
ssS'OG0002459'
p2981
(dp2982
S'VW4'
p2983
g4
((lp2984
S'scaffold772_cov211'
p2985
atp2986
Rp2987
sS'Mare'
p2988
g4
((lp2989
S'scaffold27234_cov62'
p2990
aS'scaffold6717_cov98'
p2991
atp2992
Rp2993
sS'W1'
p2994
g4
((lp2995
S'scaffold14538_cov73'
p2996
aS'scaffold181222_cov236'
p2997
atp2998
Rp2999
ssS'OG0002352'
p3000
(dp3001
S'VW4'
p3002
g4
((lp3003
S'scaffold2120_cov226'
p3004
ag2375
atp3005
Rp3006
sS'Mare'
p3007
g4
((lp3008
S'scaffold53971_cov161'
p3009
aS'scaffold5146_cov52'
p3010
atp3011
Rp3012
sS'W1'
p3013
g4
((lp3014
S'scaffold7705_cov77'
p3015
aS'scaffold9037_cov132'
p3016
atp3017
Rp3018
ssS'OG0001971'
p3019
(dp3020
S'VW4'
p3021
g4
((lp3022
S'scaffold4051_cov206'
p3023
aS'scaffold16908_cov201'
p3024
atp3025
Rp3026
sS'Mare'
p3027
g4
((lp3028
S'scaffold1467_cov54'
p3029
aS'scaffold3293_cov67'
p3030
atp3031
Rp3032
sS'W1'
p3033
g4
((lp3034
S'scaffold61789_cov64'
p3035
aS'scaffold11599_cov105'
p3036
atp3037
Rp3038
ssS'OG0002238'
p3039
(dp3040
S'VW4'
p3041
g4
((lp3042
S'scaffold6880_cov163'
p3043
aS'scaffold8291_cov270'
p3044
atp3045
Rp3046
sS'Mare'
p3047
g4
((lp3048
S'scaffold3719_cov93'
p3049
aS'scaffold28403_cov55'
p3050
atp3051
Rp3052
sS'W1'
p3053
g4
((lp3054
S'scaffold4413_cov63'
p3055
aS'scaffold15975_cov67'
p3056
atp3057
Rp3058
ssS'OG0002342'
p3059
(dp3060
S'VW4'
p3061
g4
((lp3062
S'scaffold12309_cov222'
p3063
aS'scaffold5946_cov159'
p3064
atp3065
Rp3066
sS'Mare'
p3067
g4
((lp3068
S'scaffold9806_cov59'
p3069
aS'scaffold5049_cov79'
p3070
atp3071
Rp3072
sS'W1'
p3073
g4
((lp3074
S'scaffold2221_cov93'
p3075
atp3076
Rp3077
ssS'OG0002234'
p3078
(dp3079
S'VW4'
p3080
g4
((lp3081
S'scaffold10089_cov244'
p3082
aS'scaffold11805_cov225'
p3083
atp3084
Rp3085
sS'Mare'
p3086
g4
((lp3087
S'scaffold8941_cov89'
p3088
aS'scaffold3688_cov96'
p3089
atp3090
Rp3091
sS'W1'
p3092
g4
((lp3093
S'scaffold1171_cov70'
p3094
aS'scaffold180_cov107'
p3095
atp3096
Rp3097
ssS'OG0002235'
p3098
(dp3099
S'VW4'
p3100
g4
((lp3101
S'scaffold3041_cov299'
p3102
aS'scaffold587_cov278'
p3103
atp3104
Rp3105
sS'Mare'
p3106
g4
((lp3107
S'scaffold3712_cov58'
p3108
atp3109
Rp3110
sS'W1'
p3111
g4
((lp3112
S'scaffold34286_cov104'
p3113
aS'scaffold185713_cov338'
p3114
atp3115
Rp3116
ssS'OG0002232'
p3117
(dp3118
S'VW4'
p3119
g4
((lp3120
S'scaffold2845_cov269'
p3121
aS'scaffold10125_cov274'
p3122
atp3123
Rp3124
sS'Mare'
p3125
g4
((lp3126
S'scaffold3661_cov61'
p3127
atp3128
Rp3129
sS'W1'
p3130
g4
((lp3131
S'scaffold9958_cov151'
p3132
aS'scaffold19717_cov71'
p3133
atp3134
Rp3135
ssS'OG0002230'
p3136
(dp3137
S'VW4'
p3138
g4
((lp3139
S'scaffold6223_cov242'
p3140
aS'scaffold1876_cov202'
p3141
atp3142
Rp3143
sS'Mare'
p3144
g4
((lp3145
S'scaffold10188_cov85'
p3146
aS'scaffold3646_cov69'
p3147
atp3148
Rp3149
sS'W1'
p3150
g4
((lp3151
S'scaffold4162_cov69'
p3152
aS'scaffold35735_cov102'
p3153
atp3154
Rp3155
ssS'OG0001760'
p3156
(dp3157
S'VW4'
p3158
g4
((lp3159
S'scaffold7990_cov217'
p3160
aS'scaffold35943_cov295'
p3161
atp3162
Rp3163
sS'Mare'
p3164
g4
((lp3165
S'scaffold311_cov53'
p3166
aS'scaffold16119_cov63'
p3167
atp3168
Rp3169
sS'W1'
p3170
g4
((lp3171
S'scaffold5481_cov69'
p3172
aS'scaffold26582_cov78'
p3173
atp3174
Rp3175
ssS'OG0001883'
p3176
(dp3177
S'VW4'
p3178
g4
((lp3179
S'scaffold50233_cov936'
p3180
aS'scaffold4673_cov163'
p3181
atp3182
Rp3183
sS'Mare'
p3184
g4
((lp3185
S'scaffold50891_cov398'
p3186
aS'scaffold909_cov73'
p3187
atp3188
Rp3189
sS'W1'
p3190
g4
((lp3191
S'scaffold29989_cov70'
p3192
aS'scaffold66329_cov132'
p3193
atp3194
Rp3195
ssS'OG0002137'
p3196
(dp3197
S'VW4'
p3198
g4
((lp3199
S'scaffold1792_cov186'
p3200
aS'scaffold50320_cov305'
p3201
atp3202
Rp3203
sS'Mare'
p3204
g4
((lp3205
S'scaffold39016_cov111'
p3206
ag697
atp3207
Rp3208
sS'W1'
p3209
g4
((lp3210
g702
aS'scaffold4395_cov68'
p3211
atp3212
Rp3213
ssS'OG0001762'
p3214
(dp3215
S'VW4'
p3216
g4
((lp3217
S'scaffold3115_cov146'
p3218
atp3219
Rp3220
sS'Mare'
p3221
g4
((lp3222
g657
aS'scaffold37445_cov75'
p3223
atp3224
Rp3225
sS'W1'
p3226
g4
((lp3227
S'scaffold1279_cov68'
p3228
aS'scaffold1282_cov138'
p3229
atp3230
Rp3231
ssS'OG0000910'
p3232
(dp3233
S'VW4'
p3234
g4
((lp3235
S'scaffold4404_cov204'
p3236
aS'scaffold53165_cov284'
p3237
atp3238
Rp3239
sS'Mare'
p3240
g4
((lp3241
S'scaffold23743_cov66'
p3242
aS'scaffold10910_cov53'
p3243
atp3244
Rp3245
sS'W1'
p3246
g4
((lp3247
S'scaffold1076_cov67'
p3248
aS'scaffold4095_cov147'
p3249
atp3250
Rp3251
ssS'OG0001331'
p3252
(dp3253
S'VW4'
p3254
g4
((lp3255
S'scaffold7661_cov288'
p3256
aS'scaffold7242_cov266'
p3257
atp3258
Rp3259
sS'Mare'
p3260
g4
((lp3261
S'scaffold35910_cov137'
p3262
aS'scaffold3418_cov60'
p3263
atp3264
Rp3265
sS'W1'
p3266
g4
((lp3267
S'scaffold165401_cov148'
p3268
aS'scaffold12422_cov71'
p3269
atp3270
Rp3271
ssS'OG0002676'
p3272
(dp3273
S'VW4'
p3274
g4
((lp3275
S'scaffold4782_cov229'
p3276
aS'scaffold15348_cov229'
p3277
atp3278
Rp3279
sS'Mare'
p3280
g4
((lp3281
S'scaffold12485_cov61'
p3282
atp3283
Rp3284
sS'W1'
p3285
g4
((lp3286
S'scaffold6136_cov70'
p3287
aS'scaffold166717_cov81'
p3288
atp3289
Rp3290
ssS'OG0002677'
p3291
(dp3292
S'VW4'
p3293
g4
((lp3294
S'scaffold355_cov233'
p3295
aS'scaffold5164_cov209'
p3296
atp3297
Rp3298
sS'Mare'
p3299
g4
((lp3300
S'scaffold12489_cov66'
p3301
aS'scaffold12509_cov75'
p3302
atp3303
Rp3304
sS'W1'
p3305
g4
((lp3306
S'scaffold5433_cov148'
p3307
aS'scaffold4791_cov68'
p3308
atp3309
Rp3310
ssS'OG0002674'
p3311
(dp3312
S'VW4'
p3313
g4
((lp3314
S'scaffold17787_cov155'
p3315
aS'scaffold3845_cov316'
p3316
atp3317
Rp3318
sS'Mare'
p3319
g4
((lp3320
S'scaffold12413_cov101'
p3321
atp3322
Rp3323
sS'W1'
p3324
g4
((lp3325
S'scaffold37393_cov137'
p3326
aS'scaffold37391_cov65'
p3327
atp3328
Rp3329
ssS'OG0002672'
p3330
(dp3331
S'VW4'
p3332
g4
((lp3333
S'scaffold14550_cov277'
p3334
aS'scaffold1760_cov210'
p3335
atp3336
Rp3337
sS'Mare'
p3338
g4
((lp3339
S'scaffold12316_cov62'
p3340
aS'scaffold13613_cov67'
p3341
atp3342
Rp3343
sS'W1'
p3344
g4
((lp3345
S'scaffold4939_cov152'
p3346
aS'scaffold4940_cov72'
p3347
atp3348
Rp3349
ssS'OG0002774'
p3350
(dp3351
S'VW4'
p3352
g4
((lp3353
S'scaffold15270_cov133'
p3354
aS'scaffold65_cov217'
p3355
atp3356
Rp3357
sS'Mare'
p3358
g4
((lp3359
S'scaffold19558_cov55'
p3360
aS'scaffold53087_cov191'
p3361
atp3362
Rp3363
sS'W1'
p3364
g4
((lp3365
S'scaffold34705_cov67'
p3366
aS'scaffold104_cov67'
p3367
atp3368
Rp3369
ssS'OG0002773'
p3370
(dp3371
S'VW4'
p3372
g4
((lp3373
g945
ag946
atp3374
Rp3375
sS'Mare'
p3376
g4
((lp3377
S'scaffold19525_cov111'
p3378
atp3379
Rp3380
sS'W1'
p3381
g4
((lp3382
g957
ag958
atp3383
Rp3384
ssS'OG0002772'
p3385
(dp3386
S'VW4'
p3387
g4
((lp3388
g1081
aS'scaffold38974_cov463'
p3389
atp3390
Rp3391
sS'Mare'
p3392
g4
((lp3393
S'scaffold34060_cov96'
p3394
aS'scaffold19386_cov101'
p3395
atp3396
Rp3397
sS'W1'
p3398
g4
((lp3399
S'scaffold7006_cov83'
p3400
aS'scaffold7005_cov65'
p3401
atp3402
Rp3403
ssS'OG0002771'
p3404
(dp3405
S'VW4'
p3406
g4
((lp3407
S'scaffold28085_cov431'
p3408
ag1081
atp3409
Rp3410
sS'Mare'
p3411
g4
((lp3412
g3394
ag3395
atp3413
Rp3414
sS'W1'
p3415
g4
((lp3416
g3401
atp3417
Rp3418
ssS'OG0002045'
p3419
(dp3420
S'VW4'
p3421
g4
((lp3422
S'scaffold1559_cov231'
p3423
aS'scaffold204_cov205'
p3424
atp3425
Rp3426
sS'Mare'
p3427
g4
((lp3428
S'scaffold12642_cov74'
p3429
aS'scaffold1985_cov52'
p3430
atp3431
Rp3432
sS'W1'
p3433
g4
((lp3434
S'scaffold7098_cov89'
p3435
aS'scaffold8421_cov73'
p3436
atp3437
Rp3438
ssS'OG0002044'
p3439
(dp3440
S'VW4'
p3441
g4
((lp3442
S'scaffold7912_cov254'
p3443
aS'scaffold22036_cov148'
p3444
atp3445
Rp3446
sS'Mare'
p3447
g4
((lp3448
S'scaffold1972_cov88'
p3449
aS'scaffold33248_cov88'
p3450
atp3451
Rp3452
sS'W1'
p3453
g4
((lp3454
S'scaffold3257_cov146'
p3455
aS'scaffold16169_cov72'
p3456
atp3457
Rp3458
ssS'OG0002042'
p3459
(dp3460
S'VW4'
p3461
g4
((lp3462
S'scaffold4811_cov246'
p3463
aS'scaffold3626_cov240'
p3464
atp3465
Rp3466
sS'Mare'
p3467
g4
((lp3468
S'scaffold17628_cov108'
p3469
aS'scaffold1969_cov52'
p3470
atp3471
Rp3472
sS'W1'
p3473
g4
((lp3474
S'scaffold1354_cov130'
p3475
aS'scaffold8335_cov68'
p3476
atp3477
Rp3478
ssS'OG0001776'
p3479
(dp3480
S'VW4'
p3481
g4
((lp3482
S'scaffold34756_cov262'
p3483
aS'scaffold23838_cov109'
p3484
atp3485
Rp3486
sS'Mare'
p3487
g4
((lp3488
S'scaffold2245_cov55'
p3489
aS'scaffold344_cov95'
p3490
atp3491
Rp3492
sS'W1'
p3493
g4
((lp3494
S'scaffold96847_cov139'
p3495
aS'scaffold3943_cov70'
p3496
atp3497
Rp3498
ssS'OG0001777'
p3499
(dp3500
S'VW4'
p3501
g4
((lp3502
S'scaffold2297_cov206'
p3503
aS'scaffold4936_cov217'
p3504
atp3505
Rp3506
sS'Mare'
p3507
g4
((lp3508
S'scaffold350_cov52'
p3509
aS'scaffold14030_cov122'
p3510
atp3511
Rp3512
sS'W1'
p3513
g4
((lp3514
S'scaffold6097_cov70'
p3515
aS'scaffold4116_cov143'
p3516
atp3517
Rp3518
ssS'OG0002289'
p3519
(dp3520
S'VW4'
p3521
g4
((lp3522
S'scaffold9147_cov314'
p3523
aS'scaffold35739_cov310'
p3524
atp3525
Rp3526
sS'Mare'
p3527
g4
((lp3528
S'scaffold34162_cov105'
p3529
aS'scaffold4290_cov94'
p3530
atp3531
Rp3532
sS'W1'
p3533
g4
((lp3534
S'scaffold9683_cov69'
p3535
aS'scaffold3559_cov143'
p3536
atp3537
Rp3538
ssS'OG0002121'
p3539
(dp3540
S'VW4'
p3541
g4
((lp3542
S'scaffold1661_cov299'
p3543
aS'scaffold4453_cov194'
p3544
atp3545
Rp3546
sS'Mare'
p3547
g4
((lp3548
S'scaffold36571_cov67'
p3549
aS'scaffold2671_cov61'
p3550
atp3551
Rp3552
sS'W1'
p3553
g4
((lp3554
S'scaffold21508_cov87'
p3555
atp3556
Rp3557
ssS'OG0001770'
p3558
(dp3559
S'VW4'
p3560
g4
((lp3561
S'scaffold6808_cov251'
p3562
aS'scaffold5535_cov217'
p3563
atp3564
Rp3565
sS'Mare'
p3566
g4
((lp3567
S'scaffold331_cov56'
p3568
aS'scaffold4178_cov79'
p3569
atp3570
Rp3571
sS'W1'
p3572
g4
((lp3573
S'scaffold10215_cov75'
p3574
aS'scaffold16998_cov67'
p3575
atp3576
Rp3577
ssS'OG0002125'
p3578
(dp3579
S'VW4'
p3580
g4
((lp3581
S'scaffold36279_cov207'
p3582
aS'scaffold12881_cov242'
p3583
atp3584
Rp3585
sS'Mare'
p3586
g4
((lp3587
S'scaffold2683_cov54'
p3588
aS'scaffold36509_cov117'
p3589
atp3590
Rp3591
sS'W1'
p3592
g4
((lp3593
S'scaffold414_cov67'
p3594
aS'scaffold2507_cov119'
p3595
atp3596
Rp3597
ssS'OG0002129'
p3598
(dp3599
S'VW4'
p3600
g4
((lp3601
S'scaffold35822_cov215'
p3602
aS'scaffold5242_cov262'
p3603
atp3604
Rp3605
sS'Mare'
p3606
g4
((lp3607
S'scaffold2694_cov89'
p3608
aS'scaffold36033_cov68'
p3609
atp3610
Rp3611
sS'W1'
p3612
g4
((lp3613
S'scaffold14010_cov120'
p3614
aS'scaffold9558_cov65'
p3615
atp3616
Rp3617
ssS'OG0002106'
p3618
(dp3619
S'VW4'
p3620
g4
((lp3621
S'scaffold5757_cov278'
p3622
aS'scaffold35469_cov250'
p3623
atp3624
Rp3625
sS'Mare'
p3626
g4
((lp3627
S'scaffold2570_cov56'
p3628
aS'scaffold33937_cov139'
p3629
atp3630
Rp3631
sS'W1'
p3632
g4
((lp3633
S'scaffold56505_cov129'
p3634
aS'scaffold60_cov119'
p3635
atp3636
Rp3637
ssS'OG0002263'
p3638
(dp3639
S'VW4'
p3640
g4
((lp3641
g2549
aS'scaffold3511_cov209'
p3642
atp3643
Rp3644
sS'Mare'
p3645
g4
((lp3646
S'scaffold9958_cov63'
p3647
aS'scaffold4040_cov52'
p3648
atp3649
Rp3650
sS'W1'
p3651
g4
((lp3652
S'scaffold58306_cov63'
p3653
aS'scaffold1865_cov101'
p3654
atp3655
Rp3656
ssS'OG0001026'
p3657
(dp3658
S'VW4'
p3659
g4
((lp3660
S'scaffold18343_cov274'
p3661
atp3662
Rp3663
sS'Mare'
p3664
g4
((lp3665
S'scaffold303_cov49'
p3666
aS'scaffold34159_cov71'
p3667
atp3668
Rp3669
sS'W1'
p3670
g4
((lp3671
S'scaffold19548_cov110'
p3672
atp3673
Rp3674
ssS'OG0002489'
p3675
(dp3676
S'VW4'
p3677
g4
((lp3678
S'scaffold432_cov233'
p3679
aS'scaffold2702_cov266'
p3680
atp3681
Rp3682
sS'Mare'
p3683
g4
((lp3684
S'scaffold7284_cov54'
p3685
aS'scaffold14887_cov139'
p3686
atp3687
Rp3688
sS'W1'
p3689
g4
((lp3690
S'scaffold16672_cov63'
p3691
aS'scaffold165417_cov143'
p3692
atp3693
Rp3694
ssS'OG0002485'
p3695
(dp3696
S'VW4'
p3697
g4
((lp3698
S'scaffold5690_cov178'
p3699
aS'scaffold8992_cov141'
p3700
atp3701
Rp3702
sS'Mare'
p3703
g4
((lp3704
S'scaffold7244_cov53'
p3705
aS'scaffold13919_cov66'
p3706
atp3707
Rp3708
sS'W1'
p3709
g4
((lp3710
S'scaffold4610_cov62'
p3711
aS'scaffold3566_cov79'
p3712
atp3713
Rp3714
ssS'OG0002484'
p3715
(dp3716
S'VW4'
p3717
g4
((lp3718
S'scaffold7460_cov152'
p3719
aS'scaffold12689_cov256'
p3720
atp3721
Rp3722
sS'Mare'
p3723
g4
((lp3724
S'scaffold7575_cov56'
p3725
aS'scaffold7234_cov93'
p3726
atp3727
Rp3728
sS'W1'
p3729
g4
((lp3730
S'scaffold7264_cov122'
p3731
aS'scaffold10275_cov68'
p3732
atp3733
Rp3734
ssS'OG0002486'
p3735
(dp3736
S'VW4'
p3737
g4
((lp3738
g3699
ag3700
atp3739
Rp3740
sS'Mare'
p3741
g4
((lp3742
g3705
ag3706
atp3743
Rp3744
sS'W1'
p3745
g4
((lp3746
g3711
aS'scaffold20004_cov62'
p3747
atp3748
Rp3749
ssS'OG0002481'
p3750
(dp3751
S'VW4'
p3752
g4
((lp3753
S'scaffold1599_cov246'
p3754
aS'scaffold34016_cov157'
p3755
atp3756
Rp3757
sS'Mare'
p3758
g4
((lp3759
S'scaffold7198_cov59'
p3760
aS'scaffold25181_cov79'
p3761
atp3762
Rp3763
sS'W1'
p3764
g4
((lp3765
g523
ag524
atp3766
Rp3767
ssS'OG0002480'
p3768
(dp3769
S'VW4'
p3770
g4
((lp3771
S'scaffold4480_cov293'
p3772
aS'scaffold18648_cov147'
p3773
atp3774
Rp3775
sS'Mare'
p3776
g4
((lp3777
S'scaffold7192_cov111'
p3778
aS'scaffold33440_cov107'
p3779
atp3780
Rp3781
sS'W1'
p3782
g4
((lp3783
S'scaffold12870_cov60'
p3784
aS'scaffold19598_cov123'
p3785
atp3786
Rp3787
ssS'OG0002482'
p3788
(dp3789
S'VW4'
p3790
g4
((lp3791
S'scaffold34904_cov288'
p3792
aS'scaffold5809_cov177'
p3793
atp3794
Rp3795
sS'Mare'
p3796
g4
((lp3797
S'scaffold7217_cov99'
p3798
aS'scaffold35970_cov109'
p3799
atp3800
Rp3801
sS'W1'
p3802
g4
((lp3803
S'scaffold48176_cov76'
p3804
aS'scaffold42838_cov68'
p3805
atp3806
Rp3807
ssS'OG0001563'
p3808
(dp3809
S'VW4'
p3810
g4
((lp3811
S'scaffold20237_cov146'
p3812
aS'scaffold21569_cov380'
p3813
atp3814
Rp3815
sS'Mare'
p3816
g4
((lp3817
S'scaffold9695_cov86'
p3818
aS'scaffold17407_cov65'
p3819
atp3820
Rp3821
sS'W1'
p3822
g4
((lp3823
S'scaffold16554_cov65'
p3824
aS'scaffold27219_cov142'
p3825
atp3826
Rp3827
ssS'OG0002156'
p3828
(dp3829
S'VW4'
p3830
g4
((lp3831
S'scaffold9545_cov229'
p3832
aS'scaffold3054_cov300'
p3833
atp3834
Rp3835
sS'Mare'
p3836
g4
((lp3837
S'scaffold2900_cov54'
p3838
aS'scaffold53186_cov165'
p3839
atp3840
Rp3841
sS'W1'
p3842
g4
((lp3843
S'scaffold1043_cov70'
p3844
aS'scaffold13631_cov149'
p3845
atp3846
Rp3847
ssS'OG0002411'
p3848
(dp3849
S'VW4'
p3850
g4
((lp3851
g2302
aS'scaffold10960_cov260'
p3852
atp3853
Rp3854
sS'Mare'
p3855
g4
((lp3856
S'scaffold15257_cov86'
p3857
ag2307
atp3858
Rp3859
sS'W1'
p3860
g4
((lp3861
S'scaffold6893_cov67'
p3862
atp3863
Rp3864
ssS'OG0002558'
p3865
(dp3866
S'VW4'
p3867
g4
((lp3868
S'scaffold4227_cov149'
p3869
aS'scaffold4226_cov183'
p3870
atp3871
Rp3872
sS'Mare'
p3873
g4
((lp3874
S'scaffold33560_cov76'
p3875
aS'scaffold8879_cov52'
p3876
atp3877
Rp3878
sS'W1'
p3879
g4
((lp3880
S'scaffold1929_cov135'
p3881
aS'scaffold9933_cov110'
p3882
atp3883
Rp3884
ssS'OG0002199'
p3885
(dp3886
S'VW4'
p3887
g4
((lp3888
S'scaffold3512_cov246'
p3889
atp3890
Rp3891
sS'Mare'
p3892
g4
((lp3893
S'scaffold3266_cov67'
p3894
aS'scaffold3267_cov53'
p3895
atp3896
Rp3897
sS'W1'
p3898
g4
((lp3899
S'scaffold1024_cov141'
p3900
aS'scaffold1786_cov70'
p3901
atp3902
Rp3903
ssS'OG0002194'
p3904
(dp3905
S'VW4'
p3906
g4
((lp3907
g551
aS'scaffold9918_cov286'
p3908
atp3909
Rp3910
sS'Mare'
p3911
g4
((lp3912
S'scaffold33782_cov98'
p3913
aS'scaffold3247_cov88'
p3914
atp3915
Rp3916
sS'W1'
p3917
g4
((lp3918
S'scaffold16608_cov151'
p3919
aS'scaffold117332_cov60'
p3920
atp3921
Rp3922
ssS'OG0002193'
p3923
(dp3924
S'VW4'
p3925
g4
((lp3926
S'scaffold902_cov223'
p3927
aS'scaffold6221_cov149'
p3928
atp3929
Rp3930
sS'Mare'
p3931
g4
((lp3932
S'scaffold3224_cov53'
p3933
aS'scaffold9871_cov55'
p3934
atp3935
Rp3936
sS'W1'
p3937
g4
((lp3938
S'scaffold43353_cov68'
p3939
aS'scaffold77207_cov117'
p3940
atp3941
Rp3942
ssS'OG0002192'
p3943
(dp3944
S'VW4'
p3945
g4
((lp3946
S'scaffold1708_cov257'
p3947
aS'scaffold2991_cov233'
p3948
atp3949
Rp3950
sS'Mare'
p3951
g4
((lp3952
S'scaffold3621_cov101'
p3953
aS'scaffold3183_cov139'
p3954
atp3955
Rp3956
sS'W1'
p3957
g4
((lp3958
S'scaffold2522_cov147'
p3959
aS'scaffold2520_cov73'
p3960
atp3961
Rp3962
ssS'OG0002190'
p3963
(dp3964
S'VW4'
p3965
g4
((lp3966
S'scaffold10369_cov160'
p3967
aS'scaffold13299_cov272'
p3968
atp3969
Rp3970
sS'Mare'
p3971
g4
((lp3972
S'scaffold3130_cov88'
p3973
ag3609
atp3974
Rp3975
sS'W1'
p3976
g4
((lp3977
S'scaffold20924_cov70'
p3978
aS'scaffold1030_cov88'
p3979
atp3980
Rp3981
ssS'OG0001851'
p3982
(dp3983
S'VW4'
p3984
g4
((lp3985
S'scaffold2985_cov221'
p3986
aS'scaffold103_cov152'
p3987
atp3988
Rp3989
sS'Mare'
p3990
g4
((lp3991
S'scaffold1537_cov77'
p3992
aS'scaffold772_cov56'
p3993
atp3994
Rp3995
sS'W1'
p3996
g4
((lp3997
S'scaffold5670_cov74'
p3998
aS'scaffold3349_cov142'
p3999
atp4000
Rp4001
ssS'OG0001857'
p4002
(dp4003
S'VW4'
p4004
g4
((lp4005
S'scaffold8695_cov229'
p4006
aS'scaffold34757_cov272'
p4007
atp4008
Rp4009
sS'Mare'
p4010
g4
((lp4011
S'scaffold2583_cov99'
p4012
aS'scaffold822_cov97'
p4013
atp4014
Rp4015
sS'W1'
p4016
g4
((lp4017
S'scaffold17612_cov105'
p4018
atp4019
Rp4020
ssS'OG0001480'
p4021
(dp4022
S'VW4'
p4023
g4
((lp4024
S'scaffold5897_cov436'
p4025
ag1081
atp4026
Rp4027
sS'Mare'
p4028
g4
((lp4029
S'scaffold6472_cov101'
p4030
aS'scaffold22301_cov147'
p4031
atp4032
Rp4033
sS'W1'
p4034
g4
((lp4035
g3400
ag3401
atp4036
Rp4037
ssS'OG0001859'
p4038
(dp4039
S'VW4'
p4040
g4
((lp4041
S'scaffold1134_cov233'
p4042
aS'scaffold9743_cov237'
p4043
atp4044
Rp4045
sS'Mare'
p4046
g4
((lp4047
S'scaffold1933_cov76'
p4048
aS'scaffold826_cov79'
p4049
atp4050
Rp4051
sS'W1'
p4052
g4
((lp4053
S'scaffold11204_cov106'
p4054
aS'scaffold30140_cov63'
p4055
atp4056
Rp4057
ssS'OG0002391'
p4058
(dp4059
S'VW4'
p4060
g4
((lp4061
S'scaffold1747_cov293'
p4062
aS'scaffold34100_cov244'
p4063
atp4064
Rp4065
sS'Mare'
p4066
g4
((lp4067
S'scaffold5587_cov95'
p4068
aS'scaffold6763_cov50'
p4069
atp4070
Rp4071
sS'W1'
p4072
g4
((lp4073
S'scaffold24079_cov69'
p4074
aS'scaffold25492_cov142'
p4075
atp4076
Rp4077
ssS'OG0002390'
p4078
(dp4079
S'VW4'
p4080
g4
((lp4081
S'scaffold20409_cov139'
p4082
atp4083
Rp4084
sS'Mare'
p4085
g4
((lp4086
S'scaffold36797_cov51'
p4087
aS'scaffold5563_cov86'
p4088
atp4089
Rp4090
sS'W1'
p4091
g4
((lp4092
S'scaffold3747_cov79'
p4093
aS'scaffold5443_cov135'
p4094
atp4095
Rp4096
ssS'OG0002395'
p4097
(dp4098
S'VW4'
p4099
g4
((lp4100
S'scaffold10654_cov169'
p4101
aS'scaffold5155_cov170'
p4102
atp4103
Rp4104
sS'Mare'
p4105
g4
((lp4106
S'scaffold5604_cov55'
p4107
aS'scaffold5602_cov57'
p4108
atp4109
Rp4110
sS'W1'
p4111
g4
((lp4112
S'scaffold7080_cov68'
p4113
aS'scaffold20332_cov97'
p4114
atp4115
Rp4116
ssS'OG0000648'
p4117
(dp4118
S'VW4'
p4119
g4
((lp4120
S'scaffold5414_cov176'
p4121
atp4122
Rp4123
sS'Mare'
p4124
g4
((lp4125
S'scaffold4742_cov75'
p4126
aS'scaffold1085_cov53'
p4127
atp4128
Rp4129
sS'W1'
p4130
g4
((lp4131
S'scaffold11037_cov64'
p4132
aS'scaffold24781_cov141'
p4133
atp4134
Rp4135
ssS'OG0002396'
p4136
(dp4137
S'VW4'
p4138
g4
((lp4139
S'scaffold10254_cov166'
p4140
aS'scaffold6250_cov257'
p4141
atp4142
Rp4143
sS'Mare'
p4144
g4
((lp4145
S'scaffold5629_cov52'
p4146
atp4147
Rp4148
sS'W1'
p4149
g4
((lp4150
S'scaffold22805_cov66'
p4151
aS'scaffold22806_cov140'
p4152
atp4153
Rp4154
ssS'OG0000647'
p4155
(dp4156
S'VW4'
p4157
g4
((lp4158
S'scaffold8707_cov275'
p4159
aS'scaffold1032_cov163'
p4160
atp4161
Rp4162
sS'Mare'
p4163
g4
((lp4164
S'scaffold8217_cov58'
p4165
aS'scaffold1082_cov61'
p4166
atp4167
Rp4168
sS'W1'
p4169
g4
((lp4170
g1425
aS'scaffold4589_cov98'
p4171
atp4172
Rp4173
ssS'OG0002419'
p4174
(dp4175
S'VW4'
p4176
g4
((lp4177
S'scaffold8431_cov243'
p4178
aS'scaffold487_cov180'
p4179
atp4180
Rp4181
sS'Mare'
p4182
g4
((lp4183
S'scaffold5977_cov91'
p4184
atp4185
Rp4186
sS'W1'
p4187
g4
((lp4188
S'scaffold6500_cov83'
p4189
aS'scaffold2604_cov82'
p4190
atp4191
Rp4192
ssS'OG0001243'
p4193
(dp4194
S'VW4'
p4195
g4
((lp4196
S'scaffold2747_cov252'
p4197
aS'scaffold35860_cov272'
p4198
atp4199
Rp4200
sS'Mare'
p4201
g4
((lp4202
S'scaffold25369_cov123'
p4203
ag1712
atp4204
Rp4205
sS'W1'
p4206
g4
((lp4207
S'scaffold1323_cov67'
p4208
aS'scaffold165413_cov124'
p4209
atp4210
Rp4211
ssS'OG0001240'
p4212
(dp4213
S'VW4'
p4214
g4
((lp4215
S'scaffold8920_cov186'
p4216
aS'scaffold34774_cov195'
p4217
atp4218
Rp4219
sS'Mare'
p4220
g4
((lp4221
S'scaffold7425_cov50'
p4222
aS'scaffold2209_cov63'
p4223
atp4224
Rp4225
sS'W1'
p4226
g4
((lp4227
S'scaffold31655_cov72'
p4228
atp4229
Rp4230
ssS'OG0001241'
p4231
(dp4232
S'VW4'
p4233
g4
((lp4234
S'scaffold3562_cov182'
p4235
aS'scaffold7038_cov214'
p4236
atp4237
Rp4238
sS'Mare'
p4239
g4
((lp4240
S'scaffold2212_cov51'
p4241
aS'scaffold8360_cov69'
p4242
atp4243
Rp4244
sS'W1'
p4245
g4
((lp4246
S'scaffold12003_cov68'
p4247
aS'scaffold12001_cov141'
p4248
atp4249
Rp4250
ssS'OG0002417'
p4251
(dp4252
S'VW4'
p4253
g4
((lp4254
S'scaffold3901_cov329'
p4255
aS'scaffold14736_cov203'
p4256
atp4257
Rp4258
sS'Mare'
p4259
g4
((lp4260
S'scaffold12766_cov71'
p4261
aS'scaffold5970_cov74'
p4262
atp4263
Rp4264
sS'W1'
p4265
g4
((lp4266
S'scaffold7183_cov82'
p4267
aS'scaffold167598_cov96'
p4268
atp4269
Rp4270
ssS'OG0002415'
p4271
(dp4272
S'VW4'
p4273
g4
((lp4274
S'scaffold6461_cov208'
p4275
aS'scaffold10232_cov153'
p4276
atp4277
Rp4278
sS'Mare'
p4279
g4
((lp4280
S'scaffold5966_cov74'
p4281
aS'scaffold18342_cov147'
p4282
atp4283
Rp4284
sS'W1'
p4285
g4
((lp4286
S'scaffold16862_cov66'
p4287
aS'scaffold18416_cov135'
p4288
atp4289
Rp4290
ssS'OG0002412'
p4291
(dp4292
S'VW4'
p4293
g4
((lp4294
S'scaffold34946_cov233'
p4295
aS'scaffold2695_cov200'
p4296
atp4297
Rp4298
sS'Mare'
p4299
g4
((lp4300
S'scaffold5955_cov136'
p4301
aS'scaffold13833_cov52'
p4302
atp4303
Rp4304
sS'W1'
p4305
g4
((lp4306
S'scaffold6426_cov139'
p4307
aS'scaffold6427_cov67'
p4308
atp4309
Rp4310
ssS'OG0002413'
p4311
(dp4312
S'VW4'
p4313
g4
((lp4314
S'scaffold2519_cov239'
p4315
aS'scaffold33999_cov278'
p4316
atp4317
Rp4318
sS'Mare'
p4319
g4
((lp4320
S'scaffold20541_cov54'
p4321
aS'scaffold5962_cov96'
p4322
atp4323
Rp4324
sS'W1'
p4325
g4
((lp4326
S'scaffold6997_cov65'
p4327
aS'scaffold183201_cov134'
p4328
atp4329
Rp4330
ssS'OG0001001'
p4331
(dp4332
S'VW4'
p4333
g4
((lp4334
S'scaffold35882_cov149'
p4335
aS'scaffold42832_cov315'
p4336
atp4337
Rp4338
sS'Mare'
p4339
g4
((lp4340
S'scaffold137_cov58'
p4341
ag4049
atp4342
Rp4343
sS'W1'
p4344
g4
((lp4345
S'scaffold119999_cov80'
p4346
atp4347
Rp4348
ssS'OG0002554'
p4349
(dp4350
S'VW4'
p4351
g4
((lp4352
S'scaffold25510_cov231'
p4353
aS'scaffold8365_cov240'
p4354
atp4355
Rp4356
sS'Mare'
p4357
g4
((lp4358
S'scaffold8803_cov55'
p4359
aS'scaffold13550_cov68'
p4360
atp4361
Rp4362
sS'W1'
p4363
g4
((lp4364
S'scaffold167512_cov105'
p4365
aS'scaffold132398_cov66'
p4366
atp4367
Rp4368
ssS'OG0002553'
p4369
(dp4370
S'VW4'
p4371
g4
((lp4372
S'scaffold18467_cov153'
p4373
aS'scaffold7309_cov448'
p4374
atp4375
Rp4376
sS'Mare'
p4377
g4
((lp4378
S'scaffold17825_cov105'
p4379
aS'scaffold8794_cov89'
p4380
atp4381
Rp4382
sS'W1'
p4383
g4
((lp4384
S'scaffold165571_cov134'
p4385
atp4386
Rp4387
ssS'OG0002418'
p4388
(dp4389
S'VW4'
p4390
g4
((lp4391
S'scaffold5528_cov193'
p4392
aS'scaffold1482_cov191'
p4393
atp4394
Rp4395
sS'Mare'
p4396
g4
((lp4397
S'scaffold5971_cov62'
p4398
aS'scaffold21443_cov74'
p4399
atp4400
Rp4401
sS'W1'
p4402
g4
((lp4403
S'scaffold57290_cov111'
p4404
atp4405
Rp4406
ssS'OG0002550'
p4407
(dp4408
S'VW4'
p4409
g4
((lp4410
g3754
ag3755
atp4411
Rp4412
sS'Mare'
p4413
g4
((lp4414
S'scaffold8719_cov85'
p4415
atp4416
Rp4417
sS'W1'
p4418
g4
((lp4419
g523
ag524
atp4420
Rp4421
ssS'OG0001686'
p4422
(dp4423
S'VW4'
p4424
g4
((lp4425
S'scaffold34878_cov239'
p4426
aS'scaffold6446_cov191'
p4427
atp4428
Rp4429
sS'Mare'
p4430
g4
((lp4431
S'scaffold46292_cov180'
p4432
aS'scaffold44255_cov165'
p4433
atp4434
Rp4435
sS'W1'
p4436
g4
((lp4437
S'scaffold12557_cov77'
p4438
aS'scaffold167464_cov86'
p4439
atp4440
Rp4441
ssS'OG0001926'
p4442
(dp4443
S'VW4'
p4444
g4
((lp4445
S'scaffold21112_cov305'
p4446
aS'scaffold22738_cov154'
p4447
atp4448
Rp4449
sS'Mare'
p4450
g4
((lp4451
S'scaffold1175_cov49'
p4452
aS'scaffold4917_cov59'
p4453
atp4454
Rp4455
sS'W1'
p4456
g4
((lp4457
S'scaffold28864_cov67'
p4458
aS'scaffold9131_cov93'
p4459
atp4460
Rp4461
ssS'OG0001924'
p4462
(dp4463
S'VW4'
p4464
g4
((lp4465
S'scaffold4931_cov207'
p4466
aS'scaffold3363_cov220'
p4467
atp4468
Rp4469
sS'Mare'
p4470
g4
((lp4471
S'scaffold6497_cov85'
p4472
aS'scaffold1156_cov80'
p4473
atp4474
Rp4475
sS'W1'
p4476
g4
((lp4477
S'scaffold903_cov126'
p4478
aS'scaffold1840_cov66'
p4479
atp4480
Rp4481
ssS'OG0001922'
p4482
(dp4483
S'VW4'
p4484
g4
((lp4485
S'scaffold4289_cov227'
p4486
aS'scaffold367_cov216'
p4487
atp4488
Rp4489
sS'Mare'
p4490
g4
((lp4491
S'scaffold1152_cov101'
p4492
aS'scaffold3643_cov57'
p4493
atp4494
Rp4495
sS'W1'
p4496
g4
((lp4497
S'scaffold10079_cov79'
p4498
atp4499
Rp4500
ssS'OG0001921'
p4501
(dp4502
S'VW4'
p4503
g4
((lp4504
S'scaffold13148_cov271'
p4505
aS'scaffold35889_cov160'
p4506
atp4507
Rp4508
sS'Mare'
p4509
g4
((lp4510
g4492
aS'scaffold12511_cov51'
p4511
atp4512
Rp4513
sS'W1'
p4514
g4
((lp4515
S'scaffold17978_cov75'
p4516
atp4517
Rp4518
ssS'OG0001452'
p4519
(dp4520
S'VW4'
p4521
g4
((lp4522
S'scaffold11822_cov236'
p4523
aS'scaffold34659_cov215'
p4524
atp4525
Rp4526
sS'Mare'
p4527
g4
((lp4528
S'scaffold13336_cov75'
p4529
aS'scaffold5700_cov54'
p4530
atp4531
Rp4532
sS'W1'
p4533
g4
((lp4534
S'scaffold14104_cov135'
p4535
aS'scaffold22906_cov63'
p4536
atp4537
Rp4538
ssS'OG0002308'
p4539
(dp4540
S'VW4'
p4541
g4
((lp4542
S'scaffold5976_cov266'
p4543
aS'scaffold3325_cov214'
p4544
atp4545
Rp4546
sS'Mare'
p4547
g4
((lp4548
S'scaffold13474_cov57'
p4549
aS'scaffold4565_cov62'
p4550
atp4551
Rp4552
sS'W1'
p4553
g4
((lp4554
S'scaffold2637_cov71'
p4555
aS'scaffold14189_cov153'
p4556
atp4557
Rp4558
ssS'OG0002309'
p4559
(dp4560
S'VW4'
p4561
g4
((lp4562
S'scaffold35051_cov180'
p4563
aS'scaffold869_cov236'
p4564
atp4565
Rp4566
sS'Mare'
p4567
g4
((lp4568
S'scaffold4606_cov54'
p4569
aS'scaffold4816_cov61'
p4570
atp4571
Rp4572
sS'W1'
p4573
g4
((lp4574
S'scaffold41553_cov82'
p4575
aS'scaffold62223_cov138'
p4576
atp4577
Rp4578
ssS'OG0002520'
p4579
(dp4580
S'VW4'
p4581
g4
((lp4582
S'scaffold2311_cov232'
p4583
aS'scaffold34052_cov286'
p4584
atp4585
Rp4586
sS'Mare'
p4587
g4
((lp4588
S'scaffold7965_cov102'
p4589
aS'scaffold36789_cov57'
p4590
atp4591
Rp4592
sS'W1'
p4593
g4
((lp4594
S'scaffold1716_cov94'
p4595
aS'scaffold45397_cov62'
p4596
atp4597
Rp4598
ssS'OG0002302'
p4599
(dp4600
S'VW4'
p4601
g4
((lp4602
S'scaffold5076_cov199'
p4603
aS'scaffold8225_cov232'
p4604
atp4605
Rp4606
sS'Mare'
p4607
g4
((lp4608
S'scaffold8067_cov57'
p4609
aS'scaffold4419_cov74'
p4610
atp4611
Rp4612
sS'W1'
p4613
g4
((lp4614
S'scaffold16893_cov136'
p4615
atp4616
Rp4617
ssS'OG0002303'
p4618
(dp4619
S'VW4'
p4620
g4
((lp4621
S'scaffold1084_cov208'
p4622
aS'scaffold749_cov235'
p4623
atp4624
Rp4625
sS'Mare'
p4626
g4
((lp4627
S'scaffold33478_cov95'
p4628
aS'scaffold4442_cov63'
p4629
atp4630
Rp4631
sS'W1'
p4632
g4
((lp4633
S'scaffold167250_cov176'
p4634
atp4635
Rp4636
ssS'OG0002300'
p4637
(dp4638
S'VW4'
p4639
g4
((lp4640
S'scaffold983_cov158'
p4641
atp4642
Rp4643
sS'Mare'
p4644
g4
((lp4645
S'scaffold4406_cov104'
p4646
aS'scaffold6478_cov57'
p4647
atp4648
Rp4649
sS'W1'
p4650
g4
((lp4651
S'scaffold5722_cov65'
p4652
aS'scaffold165437_cov96'
p4653
atp4654
Rp4655
ssS'OG0002301'
p4656
(dp4657
S'VW4'
p4658
g4
((lp4659
S'scaffold5238_cov294'
p4660
aS'scaffold5154_cov300'
p4661
atp4662
Rp4663
sS'Mare'
p4664
g4
((lp4665
S'scaffold4412_cov49'
p4666
atp4667
Rp4668
sS'W1'
p4669
g4
((lp4670
S'scaffold10923_cov62'
p4671
aS'scaffold19891_cov95'
p4672
atp4673
Rp4674
ssS'OG0002868'
p4675
(dp4676
S'VW4'
p4677
g4
((lp4678
S'scaffold1811_cov234'
p4679
aS'scaffold1561_cov271'
p4680
atp4681
Rp4682
sS'Mare'
p4683
g4
((lp4684
S'scaffold41262_cov172'
p4685
aS'scaffold36919_cov73'
p4686
atp4687
Rp4688
sS'W1'
p4689
g4
((lp4690
S'scaffold9115_cov70'
p4691
aS'scaffold9117_cov151'
p4692
atp4693
Rp4694
ssS'OG0002862'
p4695
(dp4696
S'VW4'
p4697
g4
((lp4698
S'scaffold1934_cov244'
p4699
aS'scaffold25449_cov271'
p4700
atp4701
Rp4702
sS'Mare'
p4703
g4
((lp4704
S'scaffold36569_cov56'
p4705
atp4706
Rp4707
sS'W1'
p4708
g4
((lp4709
S'scaffold166784_cov147'
p4710
aS'scaffold67882_cov62'
p4711
atp4712
Rp4713
ssS'OG0002733'
p4714
(dp4715
S'VW4'
p4716
g4
((lp4717
S'scaffold42512_cov294'
p4718
aS'scaffold11428_cov295'
p4719
atp4720
Rp4721
sS'Mare'
p4722
g4
((lp4723
S'scaffold15333_cov101'
p4724
aS'scaffold36026_cov97'
p4725
atp4726
Rp4727
sS'W1'
p4728
g4
((lp4729
S'scaffold540_cov68'
p4730
aS'scaffold167824_cov153'
p4731
atp4732
Rp4733
ssS'OG0002732'
p4734
(dp4735
S'VW4'
p4736
g4
((lp4737
S'scaffold14416_cov151'
p4738
aS'scaffold11570_cov373'
p4739
atp4740
Rp4741
sS'Mare'
p4742
g4
((lp4743
S'scaffold15331_cov66'
p4744
atp4745
Rp4746
sS'W1'
p4747
g4
((lp4748
S'scaffold3155_cov65'
p4749
aS'scaffold5573_cov113'
p4750
atp4751
Rp4752
ssS'OG0002737'
p4753
(dp4754
S'VW4'
p4755
g4
((lp4756
S'scaffold662_cov282'
p4757
ag2454
atp4758
Rp4759
sS'Mare'
p4760
g4
((lp4761
S'scaffold15508_cov90'
p4762
aS'scaffold36032_cov131'
p4763
atp4764
Rp4765
sS'W1'
p4766
g4
((lp4767
S'scaffold48213_cov76'
p4768
aS'scaffold34153_cov147'
p4769
atp4770
Rp4771
ssS'OG0002734'
p4772
(dp4773
S'VW4'
p4774
g4
((lp4775
g4719
aS'scaffold10547_cov289'
p4776
atp4777
Rp4778
sS'Mare'
p4779
g4
((lp4780
g4724
ag4725
atp4781
Rp4782
sS'W1'
p4783
g4
((lp4784
S'scaffold167537_cov112'
p4785
ag4730
atp4786
Rp4787
ssS'OG0002738'
p4788
(dp4789
S'VW4'
p4790
g4
((lp4791
S'scaffold34580_cov232'
p4792
aS'scaffold21079_cov185'
p4793
atp4794
Rp4795
sS'Mare'
p4796
g4
((lp4797
S'scaffold17331_cov117'
p4798
aS'scaffold15562_cov57'
p4799
atp4800
Rp4801
sS'W1'
p4802
g4
((lp4803
S'scaffold40887_cov133'
p4804
aS'scaffold46748_cov73'
p4805
atp4806
Rp4807
ssS'OG0001638'
p4808
(dp4809
S'VW4'
p4810
g4
((lp4811
S'scaffold3956_cov265'
p4812
aS'scaffold4654_cov204'
p4813
atp4814
Rp4815
sS'Mare'
p4816
g4
((lp4817
S'scaffold52556_cov103'
p4818
aS'scaffold19735_cov56'
p4819
atp4820
Rp4821
sS'W1'
p4822
g4
((lp4823
S'scaffold2048_cov125'
p4824
aS'scaffold7977_cov71'
p4825
atp4826
Rp4827
ssS'OG0002166'
p4828
(dp4829
S'VW4'
p4830
g4
((lp4831
S'scaffold3033_cov182'
p4832
aS'scaffold2254_cov207'
p4833
atp4834
Rp4835
sS'Mare'
p4836
g4
((lp4837
S'scaffold9604_cov73'
p4838
aS'scaffold2998_cov77'
p4839
atp4840
Rp4841
sS'W1'
p4842
g4
((lp4843
S'scaffold36202_cov116'
p4844
aS'scaffold32923_cov104'
p4845
atp4846
Rp4847
ssS'OG0001632'
p4848
(dp4849
S'VW4'
p4850
g4
((lp4851
S'scaffold6945_cov182'
p4852
aS'scaffold3075_cov156'
p4853
atp4854
Rp4855
sS'Mare'
p4856
g4
((lp4857
S'scaffold18659_cov51'
p4858
aS'scaffold17143_cov73'
p4859
atp4860
Rp4861
sS'W1'
p4862
g4
((lp4863
S'scaffold12903_cov71'
p4864
aS'scaffold10491_cov66'
p4865
atp4866
Rp4867
ssS'OG0002161'
p4868
(dp4869
S'VW4'
p4870
g4
((lp4871
S'scaffold1965_cov228'
p4872
aS'scaffold8060_cov254'
p4873
atp4874
Rp4875
sS'Mare'
p4876
g4
((lp4877
S'scaffold2962_cov68'
p4878
aS'scaffold35192_cov79'
p4879
atp4880
Rp4881
sS'W1'
p4882
g4
((lp4883
S'scaffold98231_cov114'
p4884
atp4885
Rp4886
ssS'OG0001183'
p4887
(dp4888
S'VW4'
p4889
g4
((lp4890
S'scaffold9505_cov197'
p4891
aS'scaffold3671_cov181'
p4892
atp4893
Rp4894
sS'Mare'
p4895
g4
((lp4896
S'scaffold2676_cov98'
p4897
aS'scaffold1670_cov61'
p4898
atp4899
Rp4900
sS'W1'
p4901
g4
((lp4902
S'scaffold2702_cov92'
p4903
aS'scaffold4931_cov109'
p4904
atp4905
Rp4906
ssS'OG0002243'
p4907
(dp4908
S'VW4'
p4909
g4
((lp4910
S'scaffold1488_cov177'
p4911
aS'scaffold7765_cov174'
p4912
atp4913
Rp4914
sS'Mare'
p4915
g4
((lp4916
S'scaffold3769_cov71'
p4917
aS'scaffold18525_cov53'
p4918
atp4919
Rp4920
sS'W1'
p4921
g4
((lp4922
S'scaffold26778_cov137'
p4923
aS'scaffold13891_cov62'
p4924
atp4925
Rp4926
ssS'OG0001184'
p4927
(dp4928
S'VW4'
p4929
g4
((lp4930
g4295
ag4296
atp4931
Rp4932
sS'Mare'
p4933
g4
((lp4934
g2196
aS'scaffold16650_cov62'
p4935
atp4936
Rp4937
sS'W1'
p4938
g4
((lp4939
g4307
ag4308
atp4940
Rp4941
ssS'OG0002240'
p4942
(dp4943
S'VW4'
p4944
g4
((lp4945
S'scaffold2175_cov210'
p4946
aS'scaffold5106_cov198'
p4947
atp4948
Rp4949
sS'Mare'
p4950
g4
((lp4951
S'scaffold3733_cov66'
p4952
atp4953
Rp4954
sS'W1'
p4955
g4
((lp4956
S'scaffold166684_cov70'
p4957
aS'scaffold166685_cov152'
p4958
atp4959
Rp4960
ssS'OG0001188'
p4961
(dp4962
S'VW4'
p4963
g4
((lp4964
S'scaffold44578_cov315'
p4965
aS'scaffold585_cov234'
p4966
atp4967
Rp4968
sS'Mare'
p4969
g4
((lp4970
S'scaffold19477_cov64'
p4971
aS'scaffold1740_cov88'
p4972
atp4973
Rp4974
sS'W1'
p4975
g4
((lp4976
S'scaffold165629_cov145'
p4977
aS'scaffold33634_cov72'
p4978
atp4979
Rp4980
ssS'OG0001066'
p4981
(dp4982
S'VW4'
p4983
g4
((lp4984
S'scaffold35824_cov247'
p4985
aS'scaffold3010_cov208'
p4986
atp4987
Rp4988
sS'Mare'
p4989
g4
((lp4990
S'scaffold617_cov62'
p4991
aS'scaffold35008_cov71'
p4992
atp4993
Rp4994
sS'W1'
p4995
g4
((lp4996
S'scaffold6658_cov76'
p4997
aS'scaffold860_cov64'
p4998
atp4999
Rp5000
ssS'OG0000864'
p5001
(dp5002
S'VW4'
p5003
g4
((lp5004
S'scaffold6362_cov299'
p5005
aS'scaffold2940_cov284'
p5006
atp5007
Rp5008
sS'Mare'
p5009
g4
((lp5010
S'scaffold7110_cov91'
p5011
aS'scaffold32611_cov78'
p5012
atp5013
Rp5014
sS'W1'
p5015
g4
((lp5016
S'scaffold2148_cov143'
p5017
atp5018
Rp5019
ssS'OG0001064'
p5020
(dp5021
S'VW4'
p5022
g4
((lp5023
S'scaffold4870_cov219'
p5024
aS'scaffold7504_cov226'
p5025
atp5026
Rp5027
sS'Mare'
p5028
g4
((lp5029
S'scaffold1828_cov67'
p5030
aS'scaffold608_cov87'
p5031
atp5032
Rp5033
sS'W1'
p5034
g4
((lp5035
S'scaffold10321_cov72'
p5036
aS'scaffold34740_cov99'
p5037
atp5038
Rp5039
ssS'OG0001347'
p5040
(dp5041
S'VW4'
p5042
g4
((lp5043
S'scaffold16101_cov206'
p5044
aS'scaffold5460_cov182'
p5045
atp5046
Rp5047
sS'Mare'
p5048
g4
((lp5049
S'scaffold27353_cov63'
p5050
aS'scaffold3678_cov88'
p5051
atp5052
Rp5053
sS'W1'
p5054
g4
((lp5055
g1867
atp5056
Rp5057
ssS'OG0002606'
p5058
(dp5059
S'VW4'
p5060
g4
((lp5061
S'scaffold35902_cov179'
p5062
aS'scaffold2764_cov248'
p5063
atp5064
Rp5065
sS'Mare'
p5066
g4
((lp5067
S'scaffold10374_cov51'
p5068
aS'scaffold37747_cov56'
p5069
atp5070
Rp5071
sS'W1'
p5072
g4
((lp5073
S'scaffold26032_cov70'
p5074
aS'scaffold11081_cov88'
p5075
atp5076
Rp5077
ssS'OG0002602'
p5078
(dp5079
S'VW4'
p5080
g4
((lp5081
S'scaffold21510_cov192'
p5082
ag1725
atp5083
Rp5084
sS'Mare'
p5085
g4
((lp5086
S'scaffold36443_cov67'
p5087
aS'scaffold10198_cov57'
p5088
atp5089
Rp5090
sS'W1'
p5091
g4
((lp5092
S'scaffold107607_cov79'
p5093
aS'scaffold107606_cov134'
p5094
atp5095
Rp5096
ssS'OG0002601'
p5097
(dp5098
S'VW4'
p5099
g4
((lp5100
S'scaffold3621_cov266'
p5101
aS'scaffold30714_cov262'
p5102
atp5103
Rp5104
sS'Mare'
p5105
g4
((lp5106
S'scaffold10187_cov86'
p5107
aS'scaffold10455_cov70'
p5108
atp5109
Rp5110
sS'W1'
p5111
g4
((lp5112
S'scaffold5296_cov115'
p5113
aS'scaffold2979_cov71'
p5114
atp5115
Rp5116
ssS'OG0002600'
p5117
(dp5118
S'VW4'
p5119
g4
((lp5120
S'scaffold3005_cov229'
p5121
aS'scaffold3895_cov206'
p5122
atp5123
Rp5124
sS'Mare'
p5125
g4
((lp5126
S'scaffold10114_cov67'
p5127
aS'scaffold15878_cov98'
p5128
atp5129
Rp5130
sS'W1'
p5131
g4
((lp5132
S'scaffold7481_cov74'
p5133
atp5134
Rp5135
ssS'OG0002609'
p5136
(dp5137
S'VW4'
p5138
g4
((lp5139
S'scaffold9508_cov196'
p5140
aS'scaffold11324_cov225'
p5141
atp5142
Rp5143
sS'Mare'
p5144
g4
((lp5145
S'scaffold10405_cov56'
p5146
aS'scaffold33245_cov72'
p5147
atp5148
Rp5149
sS'W1'
p5150
g4
((lp5151
S'scaffold11627_cov72'
p5152
aS'scaffold11629_cov141'
p5153
atp5154
Rp5155
ssS'OG0002010'
p5156
(dp5157
S'VW4'
p5158
g4
((lp5159
S'scaffold47223_cov305'
p5160
ag2249
atp5161
Rp5162
sS'Mare'
p5163
g4
((lp5164
g2254
ag2255
atp5165
Rp5166
sS'W1'
p5167
g4
((lp5168
g2260
ag2261
atp5169
Rp5170
ssS'OG0002011'
p5171
(dp5172
S'VW4'
p5173
g4
((lp5174
S'scaffold4385_cov239'
p5175
aS'scaffold14087_cov206'
p5176
atp5177
Rp5178
sS'Mare'
p5179
g4
((lp5180
S'scaffold4369_cov78'
p5181
aS'scaffold1727_cov50'
p5182
atp5183
Rp5184
sS'W1'
p5185
g4
((lp5186
S'scaffold2722_cov84'
p5187
aS'scaffold8397_cov125'
p5188
atp5189
Rp5190
ssS'OG0002016'
p5191
(dp5192
S'VW4'
p5193
g4
((lp5194
S'scaffold4184_cov249'
p5195
aS'scaffold2531_cov161'
p5196
atp5197
Rp5198
sS'Mare'
p5199
g4
((lp5200
S'scaffold3846_cov88'
p5201
aS'scaffold1776_cov57'
p5202
atp5203
Rp5204
sS'W1'
p5205
g4
((lp5206
S'scaffold11499_cov143'
p5207
aS'scaffold19165_cov65'
p5208
atp5209
Rp5210
ssS'OG0001709'
p5211
(dp5212
S'VW4'
p5213
g4
((lp5214
g4660
ag4661
atp5215
Rp5216
sS'Mare'
p5217
g4
((lp5218
S'scaffold39_cov48'
p5219
aS'scaffold34852_cov63'
p5220
atp5221
Rp5222
sS'W1'
p5223
g4
((lp5224
g4671
atp5225
Rp5226
ssS'OG0001708'
p5227
(dp5228
S'VW4'
p5229
g4
((lp5230
S'scaffold7307_cov224'
p5231
aS'scaffold13758_cov189'
p5232
atp5233
Rp5234
sS'Mare'
p5235
g4
((lp5236
S'scaffold34360_cov143'
p5237
aS'scaffold35_cov50'
p5238
atp5239
Rp5240
sS'W1'
p5241
g4
((lp5242
S'scaffold5058_cov63'
p5243
aS'scaffold6532_cov126'
p5244
atp5245
Rp5246
ssS'OG0001706'
p5247
(dp5248
S'VW4'
p5249
g4
((lp5250
S'scaffold275_cov215'
p5251
aS'scaffold387_cov149'
p5252
atp5253
Rp5254
sS'Mare'
p5255
g4
((lp5256
S'scaffold9366_cov65'
p5257
aS'scaffold32_cov80'
p5258
atp5259
Rp5260
sS'W1'
p5261
g4
((lp5262
S'scaffold12688_cov135'
p5263
aS'scaffold12686_cov61'
p5264
atp5265
Rp5266
ssS'OG0001705'
p5267
(dp5268
S'VW4'
p5269
g4
((lp5270
S'scaffold35375_cov237'
p5271
aS'scaffold9181_cov229'
p5272
atp5273
Rp5274
sS'Mare'
p5275
g4
((lp5276
S'scaffold6159_cov60'
p5277
aS'scaffold19_cov53'
p5278
atp5279
Rp5280
sS'W1'
p5281
g4
((lp5282
g1966
atp5283
Rp5284
ssS'OG0002021'
p5285
(dp5286
S'VW4'
p5287
g4
((lp5288
g1777
atp5289
Rp5290
sS'Mare'
p5291
g4
((lp5292
S'scaffold1823_cov69'
p5293
aS'scaffold8418_cov72'
p5294
atp5295
Rp5296
sS'W1'
p5297
g4
((lp5298
S'scaffold11933_cov110'
p5299
aS'scaffold36533_cov69'
p5300
atp5301
Rp5302
ssS'OG0001702'
p5303
(dp5304
S'VW4'
p5305
g4
((lp5306
S'scaffold35378_cov179'
p5307
aS'scaffold696_cov225'
p5308
atp5309
Rp5310
sS'Mare'
p5311
g4
((lp5312
S'scaffold7_cov64'
p5313
aS'scaffold20448_cov63'
p5314
atp5315
Rp5316
sS'W1'
p5317
g4
((lp5318
S'scaffold43207_cov71'
p5319
atp5320
Rp5321
ssS'OG0001118'
p5322
(dp5323
S'VW4'
p5324
g4
((lp5325
g185
aS'scaffold35925_cov172'
p5326
atp5327
Rp5328
sS'Mare'
p5329
g4
((lp5330
S'scaffold2714_cov57'
p5331
ag191
atp5332
Rp5333
sS'W1'
p5334
g4
((lp5335
g196
ag197
atp5336
Rp5337
ssS'OG0001114'
p5338
(dp5339
S'VW4'
p5340
g4
((lp5341
S'scaffold10_cov225'
p5342
aS'scaffold2901_cov252'
p5343
atp5344
Rp5345
sS'Mare'
p5346
g4
((lp5347
S'scaffold3401_cov49'
p5348
aS'scaffold931_cov102'
p5349
atp5350
Rp5351
sS'W1'
p5352
g4
((lp5353
S'scaffold900_cov65'
p5354
ag4478
atp5355
Rp5356
ssS'OG0002618'
p5357
(dp5358
S'VW4'
p5359
g4
((lp5360
S'scaffold4454_cov228'
p5361
aS'scaffold3425_cov288'
p5362
atp5363
Rp5364
sS'Mare'
p5365
g4
((lp5366
g4799
aS'scaffold10735_cov120'
p5367
atp5368
Rp5369
sS'W1'
p5370
g4
((lp5371
g4804
ag4805
atp5372
Rp5373
ssS'OG0001449'
p5374
(dp5375
S'VW4'
p5376
g4
((lp5377
g1234
ag1235
atp5378
Rp5379
sS'Mare'
p5380
g4
((lp5381
g1241
aS'scaffold8637_cov48'
p5382
atp5383
Rp5384
sS'W1'
p5385
g4
((lp5386
S'scaffold3010_cov130'
p5387
ag1246
atp5388
Rp5389
ssS'OG0002512'
p5390
(dp5391
S'VW4'
p5392
g4
((lp5393
g846
aS'scaffold30594_cov201'
p5394
atp5395
Rp5396
sS'Mare'
p5397
g4
((lp5398
g852
aS'scaffold18355_cov54'
p5399
atp5400
Rp5401
sS'W1'
p5402
g4
((lp5403
S'scaffold209265_cov209'
p5404
atp5405
Rp5406
ssS'OG0001529'
p5407
(dp5408
S'VW4'
p5409
g4
((lp5410
S'scaffold126_cov233'
p5411
aS'scaffold34997_cov218'
p5412
atp5413
Rp5414
sS'Mare'
p5415
g4
((lp5416
S'scaffold7874_cov52'
p5417
aS'scaffold7875_cov69'
p5418
atp5419
Rp5420
sS'W1'
p5421
g4
((lp5422
S'scaffold8135_cov71'
p5423
aS'scaffold8694_cov129'
p5424
atp5425
Rp5426
ssS'OG0002517'
p5427
(dp5428
S'VW4'
p5429
g4
((lp5430
S'scaffold3436_cov196'
p5431
aS'scaffold1629_cov253'
p5432
atp5433
Rp5434
sS'Mare'
p5435
g4
((lp5436
S'scaffold7920_cov76'
p5437
aS'scaffold10711_cov58'
p5438
atp5439
Rp5440
sS'W1'
p5441
g4
((lp5442
S'scaffold9676_cov145'
p5443
aS'scaffold16231_cov68'
p5444
atp5445
Rp5446
ssS'OG0001445'
p5447
(dp5448
S'VW4'
p5449
g4
((lp5450
S'scaffold18434_cov227'
p5451
aS'scaffold8280_cov208'
p5452
atp5453
Rp5454
sS'Mare'
p5455
g4
((lp5456
S'scaffold5562_cov105'
p5457
aS'scaffold6247_cov68'
p5458
atp5459
Rp5460
sS'W1'
p5461
g4
((lp5462
S'scaffold33358_cov122'
p5463
aS'scaffold11974_cov67'
p5464
atp5465
Rp5466
ssS'OG0002515'
p5467
(dp5468
S'VW4'
p5469
g4
((lp5470
S'scaffold19836_cov268'
p5471
atp5472
Rp5473
sS'Mare'
p5474
g4
((lp5475
g5417
aS'scaffold9159_cov98'
p5476
atp5477
Rp5478
sS'W1'
p5479
g4
((lp5480
g5424
aS'scaffold65227_cov63'
p5481
atp5482
Rp5483
ssS'OG0002514'
p5484
(dp5485
S'VW4'
p5486
g4
((lp5487
S'scaffold4838_cov202'
p5488
aS'scaffold19777_cov232'
p5489
atp5490
Rp5491
sS'Mare'
p5492
g4
((lp5493
S'scaffold7846_cov55'
p5494
aS'scaffold37339_cov109'
p5495
atp5496
Rp5497
sS'W1'
p5498
g4
((lp5499
S'scaffold5995_cov84'
p5500
aS'scaffold6502_cov73'
p5501
atp5502
Rp5503
ssS'OG0002691'
p5504
(dp5505
S'VW4'
p5506
g4
((lp5507
S'scaffold18450_cov147'
p5508
aS'scaffold5973_cov289'
p5509
atp5510
Rp5511
sS'Mare'
p5512
g4
((lp5513
S'scaffold13453_cov71'
p5514
atp5515
Rp5516
sS'W1'
p5517
g4
((lp5518
S'scaffold71233_cov131'
p5519
aS'scaffold2718_cov68'
p5520
atp5521
Rp5522
ssS'OG0002695'
p5523
(dp5524
S'VW4'
p5525
g4
((lp5526
S'scaffold1893_cov262'
p5527
aS'scaffold35334_cov163'
p5528
atp5529
Rp5530
sS'Mare'
p5531
g4
((lp5532
S'scaffold54888_cov107'
p5533
aS'scaffold13650_cov74'
p5534
atp5535
Rp5536
sS'W1'
p5537
g4
((lp5538
S'scaffold6206_cov112'
p5539
aS'scaffold19927_cov67'
p5540
atp5541
Rp5542
ssS'OG0002830'
p5543
(dp5544
S'VW4'
p5545
g4
((lp5546
S'scaffold468_cov283'
p5547
aS'scaffold34761_cov319'
p5548
atp5549
Rp5550
sS'Mare'
p5551
g4
((lp5552
S'scaffold51556_cov207'
p5553
aS'scaffold33448_cov79'
p5554
atp5555
Rp5556
sS'W1'
p5557
g4
((lp5558
S'scaffold3835_cov145'
p5559
atp5560
Rp5561
ssS'OG0002831'
p5562
(dp5563
S'VW4'
p5564
g4
((lp5565
S'scaffold5523_cov227'
p5566
aS'scaffold3428_cov197'
p5567
atp5568
Rp5569
sS'Mare'
p5570
g4
((lp5571
S'scaffold36090_cov104'
p5572
aS'scaffold33623_cov60'
p5573
atp5574
Rp5575
sS'W1'
p5576
g4
((lp5577
S'scaffold9303_cov137'
p5578
aS'scaffold3018_cov62'
p5579
atp5580
Rp5581
ssS'OG0002833'
p5582
(dp5583
S'VW4'
p5584
g4
((lp5585
S'scaffold15707_cov225'
p5586
aS'scaffold9226_cov257'
p5587
atp5588
Rp5589
sS'Mare'
p5590
g4
((lp5591
S'scaffold33931_cov97'
p5592
atp5593
Rp5594
sS'W1'
p5595
g4
((lp5596
g2260
ag2261
atp5597
Rp5598
ssS'OG0001967'
p5599
(dp5600
S'VW4'
p5601
g4
((lp5602
S'scaffold5160_cov248'
p5603
aS'scaffold35969_cov266'
p5604
atp5605
Rp5606
sS'Mare'
p5607
g4
((lp5608
S'scaffold4918_cov110'
p5609
aS'scaffold1432_cov55'
p5610
atp5611
Rp5612
sS'W1'
p5613
g4
((lp5614
S'scaffold75670_cov64'
p5615
aS'scaffold36663_cov134'
p5616
atp5617
Rp5618
ssS'OG0002836'
p5619
(dp5620
S'VW4'
p5621
g4
((lp5622
S'scaffold14897_cov267'
p5623
aS'scaffold5330_cov257'
p5624
atp5625
Rp5626
sS'Mare'
p5627
g4
((lp5628
S'scaffold35057_cov143'
p5629
aS'scaffold34175_cov92'
p5630
atp5631
Rp5632
sS'W1'
p5633
g4
((lp5634
S'scaffold55111_cov144'
p5635
aS'scaffold55112_cov70'
p5636
atp5637
Rp5638
ssS'OG0002837'
p5639
(dp5640
S'VW4'
p5641
g4
((lp5642
S'scaffold4262_cov323'
p5643
aS'scaffold490_cov215'
p5644
atp5645
Rp5646
sS'Mare'
p5647
g4
((lp5648
S'scaffold34176_cov72'
p5649
atp5650
Rp5651
sS'W1'
p5652
g4
((lp5653
S'scaffold828_cov102'
p5654
aS'scaffold6530_cov101'
p5655
atp5656
Rp5657
ssS'OG0002838'
p5658
(dp5659
S'VW4'
p5660
g4
((lp5661
S'scaffold34957_cov248'
p5662
aS'scaffold3062_cov254'
p5663
atp5664
Rp5665
sS'Mare'
p5666
g4
((lp5667
S'scaffold35974_cov80'
p5668
aS'scaffold34177_cov82'
p5669
atp5670
Rp5671
sS'W1'
p5672
g4
((lp5673
S'scaffold17615_cov61'
p5674
aS'scaffold17086_cov103'
p5675
atp5676
Rp5677
ssS'OG0002839'
p5678
(dp5679
S'VW4'
p5680
g4
((lp5681
g5662
ag5663
atp5682
Rp5683
sS'Mare'
p5684
g4
((lp5685
S'scaffold36499_cov103'
p5686
ag5669
atp5687
Rp5688
sS'W1'
p5689
g4
((lp5690
g5674
ag5675
atp5691
Rp5692
ssS'OG0001802'
p5693
(dp5694
S'VW4'
p5695
g4
((lp5696
S'scaffold6544_cov240'
p5697
aS'scaffold8921_cov268'
p5698
atp5699
Rp5700
sS'Mare'
p5701
g4
((lp5702
S'scaffold480_cov57'
p5703
aS'scaffold5817_cov105'
p5704
atp5705
Rp5706
sS'W1'
p5707
g4
((lp5708
S'scaffold36067_cov121'
p5709
aS'scaffold10421_cov69'
p5710
atp5711
Rp5712
ssS'OG0001803'
p5713
(dp5714
S'VW4'
p5715
g4
((lp5716
S'scaffold34868_cov282'
p5717
atp5718
Rp5719
sS'Mare'
p5720
g4
((lp5721
S'scaffold49673_cov172'
p5722
aS'scaffold487_cov56'
p5723
atp5724
Rp5725
sS'W1'
p5726
g4
((lp5727
S'scaffold1359_cov69'
p5728
aS'scaffold42688_cov131'
p5729
atp5730
Rp5731
ssS'OG0001804'
p5732
(dp5733
S'VW4'
p5734
g4
((lp5735
S'scaffold8469_cov191'
p5736
ag5717
atp5737
Rp5738
sS'Mare'
p5739
g4
((lp5740
S'scaffold3771_cov131'
p5741
ag5723
atp5742
Rp5743
sS'W1'
p5744
g4
((lp5745
S'scaffold38164_cov70'
p5746
aS'scaffold17874_cov144'
p5747
atp5748
Rp5749
ssS'OG0001807'
p5750
(dp5751
S'VW4'
p5752
g4
((lp5753
S'scaffold1948_cov236'
p5754
aS'scaffold3201_cov239'
p5755
atp5756
Rp5757
sS'Mare'
p5758
g4
((lp5759
S'scaffold497_cov71'
p5760
aS'scaffold35984_cov60'
p5761
atp5762
Rp5763
sS'W1'
p5764
g4
((lp5765
S'scaffold21338_cov100'
p5766
aS'scaffold8647_cov65'
p5767
atp5768
Rp5769
ssS'OG0000998'
p5770
(dp5771
S'VW4'
p5772
g4
((lp5773
S'scaffold34183_cov209'
p5774
aS'scaffold3590_cov237'
p5775
atp5776
Rp5777
sS'Mare'
p5778
g4
((lp5779
S'scaffold9445_cov50'
p5780
aS'scaffold101_cov106'
p5781
atp5782
Rp5783
sS'W1'
p5784
g4
((lp5785
S'scaffold9901_cov65'
p5786
aS'scaffold16120_cov143'
p5787
atp5788
Rp5789
ssS'OG0000992'
p5790
(dp5791
S'VW4'
p5792
g4
((lp5793
S'scaffold23025_cov260'
p5794
aS'scaffold2260_cov157'
p5795
atp5796
Rp5797
sS'Mare'
p5798
g4
((lp5799
S'scaffold55_cov132'
p5800
aS'scaffold33949_cov53'
p5801
atp5802
Rp5803
sS'W1'
p5804
g4
((lp5805
S'scaffold16044_cov69'
p5806
aS'scaffold182_cov83'
p5807
atp5808
Rp5809
ssS'OG0002346'
p5810
(dp5811
S'VW4'
p5812
g4
((lp5813
S'scaffold9044_cov264'
p5814
ag2788
atp5815
Rp5816
sS'Mare'
p5817
g4
((lp5818
S'scaffold34270_cov89'
p5819
aS'scaffold5071_cov113'
p5820
atp5821
Rp5822
sS'W1'
p5823
g4
((lp5824
S'scaffold17516_cov69'
p5825
ag2800
atp5826
Rp5827
ssS'OG0002344'
p5828
(dp5829
S'VW4'
p5830
g4
((lp5831
S'scaffold5533_cov227'
p5832
aS'scaffold10988_cov149'
p5833
atp5834
Rp5835
sS'Mare'
p5836
g4
((lp5837
g3070
aS'scaffold9910_cov51'
p5838
atp5839
Rp5840
sS'W1'
p5841
g4
((lp5842
S'scaffold5199_cov65'
p5843
aS'scaffold13917_cov148'
p5844
atp5845
Rp5846
ssS'OG0001233'
p5847
(dp5848
S'VW4'
p5849
g4
((lp5850
S'scaffold2942_cov228'
p5851
aS'scaffold18738_cov241'
p5852
atp5853
Rp5854
sS'Mare'
p5855
g4
((lp5856
S'scaffold2164_cov100'
p5857
ag5277
atp5858
Rp5859
sS'W1'
p5860
g4
((lp5861
S'scaffold21352_cov62'
p5862
aS'scaffold78461_cov65'
p5863
atp5864
Rp5865
ssS'OG0002343'
p5866
(dp5867
S'VW4'
p5868
g4
((lp5869
g5832
ag5833
atp5870
Rp5871
sS'Mare'
p5872
g4
((lp5873
g3070
ag5838
atp5874
Rp5875
sS'W1'
p5876
g4
((lp5877
g5844
aS'scaffold28422_cov65'
p5878
atp5879
Rp5880
ssS'OG0002469'
p5881
(dp5882
S'VW4'
p5883
g4
((lp5884
S'scaffold1140_cov158'
p5885
atp5886
Rp5887
sS'Mare'
p5888
g4
((lp5889
S'scaffold6937_cov75'
p5890
aS'scaffold13886_cov61'
p5891
atp5892
Rp5893
sS'W1'
p5894
g4
((lp5895
S'scaffold27501_cov85'
p5896
aS'scaffold19410_cov68'
p5897
atp5898
Rp5899
ssS'OG0002465'
p5900
(dp5901
S'VW4'
p5902
g4
((lp5903
S'scaffold3741_cov269'
p5904
atp5905
Rp5906
sS'Mare'
p5907
g4
((lp5908
S'scaffold6855_cov93'
p5909
aS'scaffold12816_cov117'
p5910
atp5911
Rp5912
sS'W1'
p5913
g4
((lp5914
S'scaffold21821_cov69'
p5915
atp5916
Rp5917
ssS'OG0002463'
p5918
(dp5919
S'VW4'
p5920
g4
((lp5921
S'scaffold3883_cov286'
p5922
ag5196
atp5923
Rp5924
sS'Mare'
p5925
g4
((lp5926
S'scaffold36466_cov115'
p5927
aS'scaffold6807_cov54'
p5928
atp5929
Rp5930
sS'W1'
p5931
g4
((lp5932
S'scaffold11874_cov70'
p5933
ag5207
atp5934
Rp5935
ssS'OG0002462'
p5936
(dp5937
S'VW4'
p5938
g4
((lp5939
S'scaffold12108_cov159'
p5940
ag5922
atp5941
Rp5942
sS'Mare'
p5943
g4
((lp5944
g5928
aS'scaffold35419_cov111'
p5945
atp5946
Rp5947
sS'W1'
p5948
g4
((lp5949
g5933
ag5207
atp5950
Rp5951
ssS'OG0002348'
p5952
(dp5953
S'VW4'
p5954
g4
((lp5955
S'scaffold11329_cov238'
p5956
aS'scaffold3410_cov258'
p5957
atp5958
Rp5959
sS'Mare'
p5960
g4
((lp5961
g2119
aS'scaffold5096_cov57'
p5962
atp5963
Rp5964
sS'W1'
p5965
g4
((lp5966
S'scaffold3432_cov123'
p5967
aS'scaffold3406_cov67'
p5968
atp5969
Rp5970
ssS'OG0002349'
p5971
(dp5972
S'VW4'
p5973
g4
((lp5974
S'scaffold51921_cov294'
p5975
aS'scaffold193_cov232'
p5976
atp5977
Rp5978
sS'Mare'
p5979
g4
((lp5980
S'scaffold5118_cov85'
p5981
aS'scaffold5119_cov50'
p5982
atp5983
Rp5984
sS'W1'
p5985
g4
((lp5986
S'scaffold69980_cov67'
p5987
aS'scaffold6014_cov96'
p5988
atp5989
Rp5990
ssS'OG0001722'
p5991
(dp5992
S'VW4'
p5993
g4
((lp5994
S'scaffold6144_cov377'
p5995
aS'scaffold6254_cov268'
p5996
atp5997
Rp5998
sS'Mare'
p5999
g4
((lp6000
g2234
aS'scaffold79_cov102'
p6001
atp6002
Rp6003
sS'W1'
p6004
g4
((lp6005
S'scaffold8878_cov69'
p6006
aS'scaffold13862_cov109'
p6007
atp6008
Rp6009
ssS'OG0002203'
p6010
(dp6011
S'VW4'
p6012
g4
((lp6013
S'scaffold4949_cov266'
p6014
aS'scaffold2246_cov240'
p6015
atp6016
Rp6017
sS'Mare'
p6018
g4
((lp6019
S'scaffold4478_cov57'
p6020
aS'scaffold3303_cov130'
p6021
atp6022
Rp6023
sS'W1'
p6024
g4
((lp6025
S'scaffold3955_cov67'
p6026
aS'scaffold164980_cov146'
p6027
atp6028
Rp6029
ssS'OG0002200'
p6030
(dp6031
S'VW4'
p6032
g4
((lp6033
S'scaffold3350_cov342'
p6034
aS'scaffold1682_cov148'
p6035
atp6036
Rp6037
sS'Mare'
p6038
g4
((lp6039
S'scaffold3275_cov103'
p6040
atp6041
Rp6042
sS'W1'
p6043
g4
((lp6044
S'scaffold10883_cov62'
p6045
aS'scaffold21852_cov84'
p6046
atp6047
Rp6048
ssS'OG0002208'
p6049
(dp6050
S'VW4'
p6051
g4
((lp6052
S'scaffold1508_cov264'
p6053
aS'scaffold1208_cov229'
p6054
atp6055
Rp6056
sS'Mare'
p6057
g4
((lp6058
S'scaffold3358_cov56'
p6059
aS'scaffold20331_cov77'
p6060
atp6061
Rp6062
sS'W1'
p6063
g4
((lp6064
S'scaffold21453_cov86'
p6065
aS'scaffold4784_cov67'
p6066
atp6067
Rp6068
ssS'OG0001869'
p6069
(dp6070
S'VW4'
p6071
g4
((lp6072
S'scaffold35361_cov259'
p6073
aS'scaffold2334_cov190'
p6074
atp6075
Rp6076
sS'Mare'
p6077
g4
((lp6078
S'scaffold13232_cov62'
p6079
aS'scaffold846_cov98'
p6080
atp6081
Rp6082
sS'W1'
p6083
g4
((lp6084
S'scaffold2767_cov75'
p6085
aS'scaffold9955_cov79'
p6086
atp6087
Rp6088
ssS'OG0002760'
p6089
(dp6090
S'VW4'
p6091
g4
((lp6092
S'scaffold10499_cov243'
p6093
aS'scaffold8400_cov160'
p6094
atp6095
Rp6096
sS'Mare'
p6097
g4
((lp6098
S'scaffold17754_cov46'
p6099
aS'scaffold21839_cov86'
p6100
atp6101
Rp6102
sS'W1'
p6103
g4
((lp6104
S'scaffold1731_cov70'
p6105
atp6106
Rp6107
ssS'OG0002643'
p6108
(dp6109
S'VW4'
p6110
g4
((lp6111
S'scaffold3342_cov163'
p6112
ag3316
atp6113
Rp6114
sS'Mare'
p6115
g4
((lp6116
S'scaffold11516_cov50'
p6117
aS'scaffold13738_cov105'
p6118
atp6119
Rp6120
sS'W1'
p6121
g4
((lp6122
S'scaffold36163_cov117'
p6123
aS'scaffold6928_cov65'
p6124
atp6125
Rp6126
ssS'OG0002646'
p6127
(dp6128
S'VW4'
p6129
g4
((lp6130
S'scaffold34572_cov182'
p6131
aS'scaffold47198_cov463'
p6132
atp6133
Rp6134
sS'Mare'
p6135
g4
((lp6136
S'scaffold37592_cov59'
p6137
aS'scaffold11537_cov147'
p6138
atp6139
Rp6140
sS'W1'
p6141
g4
((lp6142
g1345
aS'scaffold16788_cov63'
p6143
atp6144
Rp6145
ssS'OG0002645'
p6146
(dp6147
S'VW4'
p6148
g4
((lp6149
S'scaffold8748_cov151'
p6150
aS'scaffold34233_cov348'
p6151
atp6152
Rp6153
sS'Mare'
p6154
g4
((lp6155
S'scaffold11529_cov77'
p6156
aS'scaffold34462_cov79'
p6157
atp6158
Rp6159
sS'W1'
p6160
g4
((lp6161
S'scaffold12153_cov65'
p6162
atp6163
Rp6164
ssS'OG0002644'
p6165
(dp6166
S'VW4'
p6167
g4
((lp6168
S'scaffold10673_cov201'
p6169
aS'scaffold3680_cov185'
p6170
atp6171
Rp6172
sS'Mare'
p6173
g4
((lp6174
S'scaffold11517_cov58'
p6175
aS'scaffold11518_cov107'
p6176
atp6177
Rp6178
sS'W1'
p6179
g4
((lp6180
S'scaffold37213_cov79'
p6181
aS'scaffold29941_cov91'
p6182
atp6183
Rp6184
ssS'OG0001809'
p6185
(dp6186
S'VW4'
p6187
g4
((lp6188
S'scaffold5708_cov422'
p6189
ag2730
atp6190
Rp6191
sS'Mare'
p6192
g4
((lp6193
S'scaffold9133_cov84'
p6194
aS'scaffold507_cov73'
p6195
atp6196
Rp6197
sS'W1'
p6198
g4
((lp6199
S'scaffold4513_cov135'
p6200
aS'scaffold59029_cov68'
p6201
atp6202
Rp6203
ssS'OG0002649'
p6204
(dp6205
S'VW4'
p6206
g4
((lp6207
S'scaffold1898_cov190'
p6208
atp6209
Rp6210
sS'Mare'
p6211
g4
((lp6212
S'scaffold32891_cov66'
p6213
aS'scaffold11587_cov65'
p6214
atp6215
Rp6216
sS'W1'
p6217
g4
((lp6218
S'scaffold13624_cov94'
p6219
aS'scaffold13622_cov72'
p6220
atp6221
Rp6222
ssS'OG0002648'
p6223
(dp6224
S'VW4'
p6225
g4
((lp6226
S'scaffold774_cov229'
p6227
aS'scaffold47935_cov305'
p6228
atp6229
Rp6230
sS'Mare'
p6231
g4
((lp6232
S'scaffold11579_cov94'
p6233
aS'scaffold14662_cov55'
p6234
atp6235
Rp6236
sS'W1'
p6237
g4
((lp6238
S'scaffold6252_cov71'
p6239
aS'scaffold21927_cov117'
p6240
atp6241
Rp6242
ssS'OG0002764'
p6243
(dp6244
S'VW4'
p6245
g4
((lp6246
S'scaffold5059_cov217'
p6247
aS'scaffold7462_cov213'
p6248
atp6249
Rp6250
sS'Mare'
p6251
g4
((lp6252
S'scaffold18560_cov75'
p6253
aS'scaffold46285_cov153'
p6254
atp6255
Rp6256
sS'W1'
p6257
g4
((lp6258
S'scaffold11274_cov111'
p6259
aS'scaffold2804_cov69'
p6260
atp6261
Rp6262
ssS'OG0002766'
p6263
(dp6264
S'VW4'
p6265
g4
((lp6266
S'scaffold5724_cov219'
p6267
aS'scaffold8613_cov250'
p6268
atp6269
Rp6270
sS'Mare'
p6271
g4
((lp6272
S'scaffold38243_cov111'
p6273
aS'scaffold18737_cov72'
p6274
atp6275
Rp6276
sS'W1'
p6277
g4
((lp6278
S'scaffold48928_cov92'
p6279
aS'scaffold165470_cov102'
p6280
atp6281
Rp6282
ssS'OG0002058'
p6283
(dp6284
S'VW4'
p6285
g4
((lp6286
S'scaffold181_cov231'
p6287
aS'scaffold14007_cov270'
p6288
atp6289
Rp6290
sS'Mare'
p6291
g4
((lp6292
S'scaffold2084_cov95'
p6293
atp6294
Rp6295
sS'W1'
p6296
g4
((lp6297
S'scaffold54946_cov65'
p6298
aS'scaffold8532_cov71'
p6299
atp6300
Rp6301
ssS'OG0002057'
p6302
(dp6303
S'VW4'
p6304
g4
((lp6305
S'scaffold734_cov173'
p6306
atp6307
Rp6308
sS'Mare'
p6309
g4
((lp6310
S'scaffold12570_cov59'
p6311
aS'scaffold2068_cov72'
p6312
atp6313
Rp6314
sS'W1'
p6315
g4
((lp6316
S'scaffold44628_cov76'
p6317
aS'scaffold70942_cov70'
p6318
atp6319
Rp6320
ssS'OG0001740'
p6321
(dp6322
S'VW4'
p6323
g4
((lp6324
S'scaffold4008_cov147'
p6325
aS'scaffold36090_cov308'
p6326
atp6327
Rp6328
sS'Mare'
p6329
g4
((lp6330
S'scaffold1036_cov100'
p6331
aS'scaffold174_cov95'
p6332
atp6333
Rp6334
sS'W1'
p6335
g4
((lp6336
S'scaffold12335_cov66'
p6337
aS'scaffold8993_cov67'
p6338
atp6339
Rp6340
ssS'OG0001745'
p6341
(dp6342
S'VW4'
p6343
g4
((lp6344
S'scaffold202_cov202'
p6345
atp6346
Rp6347
sS'Mare'
p6348
g4
((lp6349
S'scaffold221_cov52'
p6350
aS'scaffold5256_cov64'
p6351
atp6352
Rp6353
sS'W1'
p6354
g4
((lp6355
S'scaffold1498_cov63'
p6356
aS'scaffold1500_cov91'
p6357
atp6358
Rp6359
ssS'OG0001989'
p6360
(dp6361
S'VW4'
p6362
g4
((lp6363
g4660
atp6364
Rp6365
sS'Mare'
p6366
g4
((lp6367
S'scaffold1619_cov60'
p6368
aS'scaffold2506_cov73'
p6369
atp6370
Rp6371
sS'W1'
p6372
g4
((lp6373
S'scaffold7147_cov103'
p6374
aS'scaffold27381_cov64'
p6375
atp6376
Rp6377
ssS'OG0002116'
p6378
(dp6379
S'VW4'
p6380
g4
((lp6381
S'scaffold2082_cov195'
p6382
aS'scaffold5796_cov292'
p6383
atp6384
Rp6385
sS'Mare'
p6386
g4
((lp6387
S'scaffold21958_cov101'
p6388
aS'scaffold2626_cov102'
p6389
atp6390
Rp6391
sS'W1'
p6392
g4
((lp6393
S'scaffold9324_cov148'
p6394
aS'scaffold9325_cov63'
p6395
atp6396
Rp6397
ssS'OG0002113'
p6398
(dp6399
S'VW4'
p6400
g4
((lp6401
g551
aS'scaffold11028_cov263'
p6402
atp6403
Rp6404
sS'Mare'
p6405
g4
((lp6406
g558
aS'scaffold2603_cov89'
p6407
atp6408
Rp6409
sS'W1'
p6410
g4
((lp6411
S'scaffold27251_cov134'
p6412
aS'scaffold26715_cov65'
p6413
atp6414
Rp6415
ssS'OG0002299'
p6416
(dp6417
S'VW4'
p6418
g4
((lp6419
S'scaffold2939_cov159'
p6420
aS'scaffold22748_cov150'
p6421
atp6422
Rp6423
sS'Mare'
p6424
g4
((lp6425
S'scaffold4391_cov53'
p6426
aS'scaffold50244_cov161'
p6427
atp6428
Rp6429
sS'W1'
p6430
g4
((lp6431
S'scaffold19614_cov87'
p6432
aS'scaffold74444_cov64'
p6433
atp6434
Rp6435
ssS'OG0001666'
p6436
(dp6437
S'VW4'
p6438
g4
((lp6439
S'scaffold3486_cov238'
p6440
ag2807
atp6441
Rp6442
sS'Mare'
p6443
g4
((lp6444
S'scaffold34367_cov119'
p6445
ag2814
atp6446
Rp6447
sS'W1'
p6448
g4
((lp6449
S'scaffold185565_cov204'
p6450
ag2820
atp6451
Rp6452
ssS'OG0001983'
p6453
(dp6454
S'VW4'
p6455
g4
((lp6456
S'scaffold3805_cov206'
p6457
aS'scaffold12582_cov223'
p6458
atp6459
Rp6460
sS'Mare'
p6461
g4
((lp6462
S'scaffold14725_cov115'
p6463
aS'scaffold1554_cov54'
p6464
atp6465
Rp6466
sS'W1'
p6467
g4
((lp6468
S'scaffold5496_cov92'
p6469
aS'scaffold195195_cov811'
p6470
atp6471
Rp6472
ssS'OG0001982'
p6473
(dp6474
S'VW4'
p6475
g4
((lp6476
S'scaffold3131_cov164'
p6477
atp6478
Rp6479
sS'Mare'
p6480
g4
((lp6481
S'scaffold1553_cov43'
p6482
aS'scaffold1950_cov58'
p6483
atp6484
Rp6485
sS'W1'
p6486
g4
((lp6487
S'scaffold11463_cov104'
p6488
aS'scaffold7453_cov60'
p6489
atp6490
Rp6491
ssS'OG0002290'
p6492
(dp6493
S'VW4'
p6494
g4
((lp6495
S'scaffold16517_cov275'
p6496
aS'scaffold1106_cov224'
p6497
atp6498
Rp6499
sS'Mare'
p6500
g4
((lp6501
S'scaffold4313_cov91'
p6502
aS'scaffold21487_cov54'
p6503
atp6504
Rp6505
sS'W1'
p6506
g4
((lp6507
S'scaffold720_cov79'
p6508
aS'scaffold721_cov134'
p6509
atp6510
Rp6511
ssS'OG0002119'
p6512
(dp6513
S'VW4'
p6514
g4
((lp6515
g1474
aS'scaffold13906_cov172'
p6516
atp6517
Rp6518
sS'Mare'
p6519
g4
((lp6520
S'scaffold2637_cov103'
p6521
aS'scaffold12063_cov48'
p6522
atp6523
Rp6524
sS'W1'
p6525
g4
((lp6526
S'scaffold15763_cov140'
p6527
aS'scaffold7011_cov67'
p6528
atp6529
Rp6530
ssS'OG0002118'
p6531
(dp6532
S'VW4'
p6533
g4
((lp6534
S'scaffold32879_cov158'
p6535
ag1474
atp6536
Rp6537
sS'Mare'
p6538
g4
((lp6539
g6521
aS'scaffold19626_cov63'
p6540
atp6541
Rp6542
sS'W1'
p6543
g4
((lp6544
g6527
ag6528
atp6545
Rp6546
ssS'OG0001153'
p6547
(dp6548
S'VW4'
p6549
g4
((lp6550
S'scaffold3627_cov265'
p6551
aS'scaffold11291_cov250'
p6552
atp6553
Rp6554
sS'Mare'
p6555
g4
((lp6556
S'scaffold5161_cov62'
p6557
aS'scaffold1379_cov53'
p6558
atp6559
Rp6560
sS'W1'
p6561
g4
((lp6562
S'scaffold1170_cov146'
p6563
aS'scaffold69771_cov67'
p6564
atp6565
Rp6566
ssS'OG0001151'
p6567
(dp6568
S'VW4'
p6569
g4
((lp6570
S'scaffold8301_cov160'
p6571
ag906
atp6572
Rp6573
sS'Mare'
p6574
g4
((lp6575
S'scaffold1364_cov77'
p6576
aS'scaffold2830_cov52'
p6577
atp6578
Rp6579
sS'W1'
p6580
g4
((lp6581
S'scaffold8011_cov68'
p6582
aS'scaffold20641_cov90'
p6583
atp6584
Rp6585
ssS'OG0001017'
p6586
(dp6587
S'VW4'
p6588
g4
((lp6589
S'scaffold6786_cov155'
p6590
aS'scaffold7878_cov249'
p6591
atp6592
Rp6593
sS'Mare'
p6594
g4
((lp6595
S'scaffold57424_cov115'
p6596
aS'scaffold215_cov62'
p6597
atp6598
Rp6599
sS'W1'
p6600
g4
((lp6601
S'scaffold11409_cov72'
p6602
atp6603
Rp6604
ssS'OG0000830'
p6605
(dp6606
S'VW4'
p6607
g4
((lp6608
S'scaffold2338_cov238'
p6609
aS'scaffold2516_cov204'
p6610
atp6611
Rp6612
sS'Mare'
p6613
g4
((lp6614
S'scaffold5310_cov60'
p6615
aS'scaffold28521_cov53'
p6616
atp6617
Rp6618
sS'W1'
p6619
g4
((lp6620
S'scaffold52798_cov134'
p6621
aS'scaffold16609_cov69'
p6622
atp6623
Rp6624
ssS'OG0002369'
p6625
(dp6626
S'VW4'
p6627
g4
((lp6628
S'scaffold1507_cov164'
p6629
aS'scaffold34923_cov148'
p6630
atp6631
Rp6632
sS'Mare'
p6633
g4
((lp6634
S'scaffold5663_cov69'
p6635
aS'scaffold5328_cov53'
p6636
atp6637
Rp6638
sS'W1'
p6639
g4
((lp6640
S'scaffold4202_cov67'
p6641
aS'scaffold37263_cov117'
p6642
atp6643
Rp6644
ssS'OG0002499'
p6645
(dp6646
S'VW4'
p6647
g4
((lp6648
S'scaffold31451_cov239'
p6649
aS'scaffold644_cov199'
p6650
atp6651
Rp6652
sS'Mare'
p6653
g4
((lp6654
S'scaffold7528_cov114'
p6655
aS'scaffold20937_cov59'
p6656
atp6657
Rp6658
sS'W1'
p6659
g4
((lp6660
S'scaffold7298_cov66'
p6661
aS'scaffold5572_cov101'
p6662
atp6663
Rp6664
ssS'OG0002496'
p6665
(dp6666
S'VW4'
p6667
g4
((lp6668
g393
aS'scaffold45254_cov315'
p6669
atp6670
Rp6671
sS'Mare'
p6672
g4
((lp6673
S'scaffold17701_cov112'
p6674
aS'scaffold7423_cov56'
p6675
atp6676
Rp6677
sS'W1'
p6678
g4
((lp6679
S'scaffold26651_cov113'
p6680
aS'scaffold2076_cov75'
p6681
atp6682
Rp6683
ssS'OG0002497'
p6684
(dp6685
S'VW4'
p6686
g4
((lp6687
S'scaffold6721_cov174'
p6688
aS'scaffold22860_cov185'
p6689
atp6690
Rp6691
sS'Mare'
p6692
g4
((lp6693
S'scaffold7461_cov76'
p6694
aS'scaffold39987_cov111'
p6695
atp6696
Rp6697
sS'W1'
p6698
g4
((lp6699
S'scaffold66380_cov110'
p6700
aS'scaffold15785_cov113'
p6701
atp6702
Rp6703
ssS'OG0002495'
p6704
(dp6705
S'VW4'
p6706
g4
((lp6707
g393
aS'scaffold8607_cov268'
p6708
atp6709
Rp6710
sS'Mare'
p6711
g4
((lp6712
S'scaffold13283_cov100'
p6713
ag6675
atp6714
Rp6715
sS'W1'
p6716
g4
((lp6717
S'scaffold27671_cov68'
p6718
atp6719
Rp6720
ssS'OG0002493'
p6721
(dp6722
S'VW4'
p6723
g4
((lp6724
S'scaffold14602_cov161'
p6725
aS'scaffold11228_cov232'
p6726
atp6727
Rp6728
sS'Mare'
p6729
g4
((lp6730
S'scaffold7401_cov60'
p6731
aS'scaffold11244_cov56'
p6732
atp6733
Rp6734
sS'W1'
p6735
g4
((lp6736
S'scaffold26431_cov130'
p6737
aS'scaffold15686_cov66'
p6738
atp6739
Rp6740
ssS'OG0002491'
p6741
(dp6742
S'VW4'
p6743
g4
((lp6744
S'scaffold11388_cov150'
p6745
aS'scaffold11387_cov298'
p6746
atp6747
Rp6748
sS'Mare'
p6749
g4
((lp6750
S'scaffold7293_cov140'
p6751
atp6752
Rp6753
sS'W1'
p6754
g4
((lp6755
S'scaffold11315_cov66'
p6756
atp6757
Rp6758
ssS'OG0001255'
p6759
(dp6760
S'VW4'
p6761
g4
((lp6762
g316
aS'scaffold18802_cov239'
p6763
atp6764
Rp6765
sS'Mare'
p6766
g4
((lp6767
S'scaffold2412_cov121'
p6768
ag321
atp6769
Rp6770
sS'W1'
p6771
g4
((lp6772
S'scaffold160792_cov138'
p6773
ag328
atp6774
Rp6775
ssS'OG0001742'
p6776
(dp6777
S'VW4'
p6778
g4
((lp6779
S'scaffold6560_cov168'
p6780
aS'scaffold1041_cov212'
p6781
atp6782
Rp6783
sS'Mare'
p6784
g4
((lp6785
S'scaffold5829_cov52'
p6786
aS'scaffold200_cov51'
p6787
atp6788
Rp6789
sS'W1'
p6790
g4
((lp6791
S'scaffold26015_cov66'
p6792
aS'scaffold18542_cov139'
p6793
atp6794
Rp6795
ssS'OG0002795'
p6796
(dp6797
S'VW4'
p6798
g4
((lp6799
S'scaffold7468_cov213'
p6800
aS'scaffold35800_cov215'
p6801
atp6802
Rp6803
sS'Mare'
p6804
g4
((lp6805
S'scaffold23346_cov53'
p6806
aS'scaffold37470_cov151'
p6807
atp6808
Rp6809
sS'W1'
p6810
g4
((lp6811
S'scaffold166767_cov133'
p6812
aS'scaffold166788_cov64'
p6813
atp6814
Rp6815
ssS'OG0002797'
p6816
(dp6817
S'VW4'
p6818
g4
((lp6819
S'scaffold8587_cov157'
p6820
aS'scaffold36286_cov261'
p6821
atp6822
Rp6823
sS'Mare'
p6824
g4
((lp6825
S'scaffold34278_cov88'
p6826
aS'scaffold23473_cov56'
p6827
atp6828
Rp6829
sS'W1'
p6830
g4
((lp6831
S'scaffold35511_cov69'
p6832
aS'scaffold9312_cov104'
p6833
atp6834
Rp6835
ssS'OG0002796'
p6836
(dp6837
S'VW4'
p6838
g4
((lp6839
S'scaffold6855_cov172'
p6840
aS'scaffold6105_cov252'
p6841
atp6842
Rp6843
sS'Mare'
p6844
g4
((lp6845
S'scaffold32491_cov104'
p6846
aS'scaffold23375_cov83'
p6847
atp6848
Rp6849
sS'W1'
p6850
g4
((lp6851
S'scaffold10061_cov67'
p6852
aS'scaffold3477_cov108'
p6853
atp6854
Rp6855
ssS'OG0002790'
p6856
(dp6857
S'VW4'
p6858
g4
((lp6859
S'scaffold39652_cov294'
p6860
aS'scaffold6762_cov212'
p6861
atp6862
Rp6863
sS'Mare'
p6864
g4
((lp6865
S'scaffold21922_cov80'
p6866
ag6826
atp6867
Rp6868
sS'W1'
p6869
g4
((lp6870
g6832
ag6833
atp6871
Rp6872
ssS'OG0002792'
p6873
(dp6874
S'VW4'
p6875
g4
((lp6876
g1081
aS'scaffold28262_cov431'
p6877
atp6878
Rp6879
sS'Mare'
p6880
g4
((lp6881
S'scaffold28236_cov103'
p6882
ag4031
atp6883
Rp6884
sS'W1'
p6885
g4
((lp6886
g3400
ag3401
atp6887
Rp6888
ssS'OG0002183'
p6889
(dp6890
S'VW4'
p6891
g4
((lp6892
S'scaffold7259_cov286'
p6893
aS'scaffold1969_cov172'
p6894
atp6895
Rp6896
sS'Mare'
p6897
g4
((lp6898
S'scaffold3077_cov95'
p6899
aS'scaffold5136_cov47'
p6900
atp6901
Rp6902
sS'W1'
p6903
g4
((lp6904
S'scaffold33112_cov67'
p6905
aS'scaffold33753_cov69'
p6906
atp6907
Rp6908
ssS'OG0002186'
p6909
(dp6910
S'VW4'
p6911
g4
((lp6912
g6208
aS'scaffold2596_cov234'
p6913
atp6914
Rp6915
sS'Mare'
p6916
g4
((lp6917
S'scaffold3118_cov72'
p6918
ag6214
atp6919
Rp6920
sS'W1'
p6921
g4
((lp6922
S'scaffold72210_cov77'
p6923
ag6219
atp6924
Rp6925
ssS'OG0002189'
p6926
(dp6927
S'VW4'
p6928
g4
((lp6929
g2847
ag2848
atp6930
Rp6931
sS'Mare'
p6932
g4
((lp6933
g2853
atp6934
Rp6935
sS'W1'
p6936
g4
((lp6937
g2858
ag2859
atp6938
Rp6939
ssS'OG0001846'
p6940
(dp6941
S'VW4'
p6942
g4
((lp6943
S'scaffold1066_cov299'
p6944
atp6945
Rp6946
sS'Mare'
p6947
g4
((lp6948
S'scaffold761_cov50'
p6949
aS'scaffold15994_cov56'
p6950
atp6951
Rp6952
sS'W1'
p6953
g4
((lp6954
S'scaffold17710_cov77'
p6955
aS'scaffold90644_cov80'
p6956
atp6957
Rp6958
ssS'OG0001842'
p6959
(dp6960
S'VW4'
p6961
g4
((lp6962
S'scaffold2015_cov427'
p6963
ag1254
atp6964
Rp6965
sS'Mare'
p6966
g4
((lp6967
S'scaffold756_cov60'
p6968
ag1260
atp6969
Rp6970
sS'W1'
p6971
g4
((lp6972
S'scaffold21768_cov66'
p6973
aS'scaffold167650_cov100'
p6974
atp6975
Rp6976
ssS'OG0001661'
p6977
(dp6978
S'VW4'
p6979
g4
((lp6980
S'scaffold11037_cov149'
p6981
aS'scaffold11638_cov181'
p6982
atp6983
Rp6984
sS'Mare'
p6985
g4
((lp6986
S'scaffold28921_cov145'
p6987
aS'scaffold41142_cov161'
p6988
atp6989
Rp6990
sS'W1'
p6991
g4
((lp6992
S'scaffold11968_cov142'
p6993
aS'scaffold3404_cov63'
p6994
atp6995
Rp6996
ssS'OG0001848'
p6997
(dp6998
S'VW4'
p6999
g4
((lp7000
S'scaffold8399_cov190'
p7001
aS'scaffold2328_cov197'
p7002
atp7003
Rp7004
sS'Mare'
p7005
g4
((lp7006
S'scaffold767_cov66'
p7007
aS'scaffold20490_cov67'
p7008
atp7009
Rp7010
sS'W1'
p7011
g4
((lp7012
S'scaffold6481_cov91'
p7013
aS'scaffold47796_cov64'
p7014
atp7015
Rp7016
ssS'OG0001273'
p7017
(dp7018
S'VW4'
p7019
g4
((lp7020
g1474
ag6516
atp7021
Rp7022
sS'Mare'
p7023
g4
((lp7024
g6521
aS'scaffold3877_cov78'
p7025
atp7026
Rp7027
sS'W1'
p7028
g4
((lp7029
g6527
ag6528
atp7030
Rp7031
ssS'OG0002380'
p7032
(dp7033
S'VW4'
p7034
g4
((lp7035
S'scaffold437_cov301'
p7036
aS'scaffold305_cov293'
p7037
atp7038
Rp7039
sS'Mare'
p7040
g4
((lp7041
S'scaffold5454_cov72'
p7042
aS'scaffold5517_cov53'
p7043
atp7044
Rp7045
sS'W1'
p7046
g4
((lp7047
S'scaffold1391_cov96'
p7048
aS'scaffold46961_cov69'
p7049
atp7050
Rp7051
ssS'OG0002381'
p7052
(dp7053
S'VW4'
p7054
g4
((lp7055
S'scaffold4704_cov190'
p7056
aS'scaffold2105_cov193'
p7057
atp7058
Rp7059
sS'Mare'
p7060
g4
((lp7061
S'scaffold7228_cov62'
p7062
aS'scaffold5487_cov69'
p7063
atp7064
Rp7065
sS'W1'
p7066
g4
((lp7067
S'scaffold182819_cov255'
p7068
aS'scaffold2675_cov72'
p7069
atp7070
Rp7071
ssS'OG0002387'
p7072
(dp7073
S'VW4'
p7074
g4
((lp7075
S'scaffold5287_cov211'
p7076
aS'scaffold6822_cov208'
p7077
atp7078
Rp7079
sS'Mare'
p7080
g4
((lp7081
S'scaffold5518_cov59'
p7082
aS'scaffold21109_cov47'
p7083
atp7084
Rp7085
sS'W1'
p7086
g4
((lp7087
S'scaffold4555_cov123'
p7088
aS'scaffold65460_cov69'
p7089
atp7090
Rp7091
ssS'OG0002384'
p7092
(dp7093
S'VW4'
p7094
g4
((lp7095
g4813
aS'scaffold6978_cov264'
p7096
atp7097
Rp7098
sS'Mare'
p7099
g4
((lp7100
S'scaffold5498_cov103'
p7101
aS'scaffold10506_cov79'
p7102
atp7103
Rp7104
sS'W1'
p7105
g4
((lp7106
g4824
ag4825
atp7107
Rp7108
ssS'OG0002385'
p7109
(dp7110
S'VW4'
p7111
g4
((lp7112
g7036
ag7037
atp7113
Rp7114
sS'Mare'
p7115
g4
((lp7116
g7043
aS'scaffold36145_cov66'
p7117
atp7118
Rp7119
sS'W1'
p7120
g4
((lp7121
g7049
aS'scaffold25651_cov100'
p7122
atp7123
Rp7124
ssS'OG0002423'
p7125
(dp7126
S'VW4'
p7127
g4
((lp7128
S'scaffold11669_cov179'
p7129
aS'scaffold2323_cov224'
p7130
atp7131
Rp7132
sS'Mare'
p7133
g4
((lp7134
S'scaffold6010_cov62'
p7135
aS'scaffold6032_cov86'
p7136
atp7137
Rp7138
sS'W1'
p7139
g4
((lp7140
S'scaffold165395_cov77'
p7141
aS'scaffold42402_cov68'
p7142
atp7143
Rp7144
ssS'OG0002421'
p7145
(dp7146
S'VW4'
p7147
g4
((lp7148
S'scaffold279_cov300'
p7149
aS'scaffold888_cov152'
p7150
atp7151
Rp7152
sS'Mare'
p7153
g4
((lp7154
S'scaffold5982_cov55'
p7155
aS'scaffold10508_cov75'
p7156
atp7157
Rp7158
sS'W1'
p7159
g4
((lp7160
S'scaffold59620_cov74'
p7161
aS'scaffold181240_cov148'
p7162
atp7163
Rp7164
ssS'OG0002420'
p7165
(dp7166
S'VW4'
p7167
g4
((lp7168
S'scaffold6724_cov185'
p7169
aS'scaffold6415_cov250'
p7170
atp7171
Rp7172
sS'Mare'
p7173
g4
((lp7174
S'scaffold5980_cov50'
p7175
aS'scaffold34989_cov66'
p7176
atp7177
Rp7178
sS'W1'
p7179
g4
((lp7180
S'scaffold57150_cov68'
p7181
aS'scaffold3674_cov106'
p7182
atp7183
Rp7184
ssS'OG0002426'
p7185
(dp7186
S'VW4'
p7187
g4
((lp7188
S'scaffold13641_cov196'
p7189
aS'scaffold13364_cov176'
p7190
atp7191
Rp7192
sS'Mare'
p7193
g4
((lp7194
S'scaffold9331_cov54'
p7195
aS'scaffold6021_cov51'
p7196
atp7197
Rp7198
sS'W1'
p7199
g4
((lp7200
S'scaffold6704_cov127'
p7201
aS'scaffold6524_cov65'
p7202
atp7203
Rp7204
ssS'OG0002112'
p7205
(dp7206
S'VW4'
p7207
g4
((lp7208
S'scaffold8091_cov211'
p7209
aS'scaffold4548_cov238'
p7210
atp7211
Rp7212
sS'Mare'
p7213
g4
((lp7214
S'scaffold2598_cov61'
p7215
aS'scaffold14610_cov136'
p7216
atp7217
Rp7218
sS'W1'
p7219
g4
((lp7220
S'scaffold165420_cov139'
p7221
aS'scaffold27291_cov70'
p7222
atp7223
Rp7224
ssS'OG0002541'
p7225
(dp7226
S'VW4'
p7227
g4
((lp7228
S'scaffold12922_cov262'
p7229
aS'scaffold10384_cov193'
p7230
atp7231
Rp7232
sS'Mare'
p7233
g4
((lp7234
S'scaffold8470_cov160'
p7235
atp7236
Rp7237
sS'W1'
p7238
g4
((lp7239
S'scaffold25408_cov98'
p7240
aS'scaffold19766_cov64'
p7241
atp7242
Rp7243
ssS'OG0001473'
p7244
(dp7245
S'VW4'
p7246
g4
((lp7247
S'scaffold3246_cov212'
p7248
aS'scaffold1226_cov199'
p7249
atp7250
Rp7251
sS'Mare'
p7252
g4
((lp7253
S'scaffold6252_cov63'
p7254
aS'scaffold9548_cov63'
p7255
atp7256
Rp7257
sS'W1'
p7258
g4
((lp7259
S'scaffold19109_cov84'
p7260
aS'scaffold25594_cov137'
p7261
atp7262
Rp7263
ssS'OG0002545'
p7264
(dp7265
S'VW4'
p7266
g4
((lp7267
g3443
aS'scaffold11346_cov240'
p7268
atp7269
Rp7270
sS'Mare'
p7271
g4
((lp7272
g3450
aS'scaffold8659_cov78'
p7273
atp7274
Rp7275
sS'W1'
p7276
g4
((lp7277
S'scaffold14473_cov147'
p7278
aS'scaffold33229_cov65'
p7279
atp7280
Rp7281
ssS'OG0002546'
p7282
(dp7283
S'VW4'
p7284
g4
((lp7285
g3443
ag7268
atp7286
Rp7287
sS'Mare'
p7288
g4
((lp7289
g3450
ag7273
atp7290
Rp7291
sS'W1'
p7292
g4
((lp7293
g7278
ag7279
atp7294
Rp7295
ssS'OG0002548'
p7296
(dp7297
S'VW4'
p7298
g4
((lp7299
S'scaffold2656_cov192'
p7300
aS'scaffold28966_cov241'
p7301
atp7302
Rp7303
sS'Mare'
p7304
g4
((lp7305
S'scaffold8668_cov57'
p7306
aS'scaffold11818_cov100'
p7307
atp7308
Rp7309
sS'W1'
p7310
g4
((lp7311
S'scaffold6974_cov73'
p7312
aS'scaffold2677_cov108'
p7313
atp7314
Rp7315
ssS'OG0002562'
p7316
(dp7317
S'VW4'
p7318
g4
((lp7319
S'scaffold19598_cov155'
p7320
ag2151
atp7321
Rp7322
sS'Mare'
p7323
g4
((lp7324
g2156
aS'scaffold8961_cov96'
p7325
atp7326
Rp7327
sS'W1'
p7328
g4
((lp7329
S'scaffold5208_cov124'
p7330
aS'scaffold14968_cov70'
p7331
atp7332
Rp7333
ssS'OG0002805'
p7334
(dp7335
S'VW4'
p7336
g4
((lp7337
g1235
aS'scaffold6403_cov387'
p7338
atp7339
Rp7340
sS'Mare'
p7341
g4
((lp7342
S'scaffold24718_cov103'
p7343
aS'scaffold26220_cov52'
p7344
atp7345
Rp7346
sS'W1'
p7347
g4
((lp7348
g5387
ag1246
atp7349
Rp7350
ssS'OG0002806'
p7351
(dp7352
S'VW4'
p7353
g4
((lp7354
S'scaffold6260_cov182'
p7355
aS'scaffold5383_cov228'
p7356
atp7357
Rp7358
sS'Mare'
p7359
g4
((lp7360
S'scaffold55592_cov107'
p7361
aS'scaffold25106_cov104'
p7362
atp7363
Rp7364
sS'W1'
p7365
g4
((lp7366
S'scaffold406_cov110'
p7367
aS'scaffold39105_cov66'
p7368
atp7369
Rp7370
ssS'OG0001831'
p7371
(dp7372
S'VW4'
p7373
g4
((lp7374
S'scaffold6422_cov190'
p7375
aS'scaffold14276_cov161'
p7376
atp7377
Rp7378
sS'Mare'
p7379
g4
((lp7380
S'scaffold687_cov68'
p7381
aS'scaffold5823_cov93'
p7382
atp7383
Rp7384
sS'W1'
p7385
g4
((lp7386
S'scaffold43863_cov126'
p7387
aS'scaffold7672_cov74'
p7388
atp7389
Rp7390
ssS'OG0001830'
p7391
(dp7392
S'VW4'
p7393
g4
((lp7394
S'scaffold3994_cov307'
p7395
ag946
atp7396
Rp7397
sS'Mare'
p7398
g4
((lp7399
S'scaffold32906_cov106'
p7400
aS'scaffold683_cov92'
p7401
atp7402
Rp7403
sS'W1'
p7404
g4
((lp7405
S'scaffold8504_cov71'
p7406
aS'scaffold33902_cov94'
p7407
atp7408
Rp7409
ssS'OG0001835'
p7410
(dp7411
S'VW4'
p7412
g4
((lp7413
S'scaffold9334_cov225'
p7414
aS'scaffold4813_cov177'
p7415
atp7416
Rp7417
sS'Mare'
p7418
g4
((lp7419
S'scaffold713_cov67'
p7420
aS'scaffold15659_cov85'
p7421
atp7422
Rp7423
sS'W1'
p7424
g4
((lp7425
S'scaffold5667_cov96'
p7426
aS'scaffold8355_cov67'
p7427
atp7428
Rp7429
ssS'OG0002292'
p7430
(dp7431
S'VW4'
p7432
g4
((lp7433
S'scaffold53022_cov294'
p7434
aS'scaffold13730_cov260'
p7435
atp7436
Rp7437
sS'Mare'
p7438
g4
((lp7439
S'scaffold34332_cov81'
p7440
aS'scaffold4339_cov63'
p7441
atp7442
Rp7443
sS'W1'
p7444
g4
((lp7445
S'scaffold8528_cov135'
p7446
aS'scaffold10431_cov72'
p7447
atp7448
Rp7449
ssS'OG0001837'
p7450
(dp7451
S'VW4'
p7452
g4
((lp7453
g571
ag2034
atp7454
Rp7455
sS'Mare'
p7456
g4
((lp7457
g2039
aS'scaffold3582_cov122'
p7458
atp7459
Rp7460
sS'W1'
p7461
g4
((lp7462
S'scaffold95366_cov79'
p7463
aS'scaffold95367_cov139'
p7464
atp7465
Rp7466
ssS'OG0002167'
p7467
(dp7468
S'VW4'
p7469
g4
((lp7470
S'scaffold4014_cov157'
p7471
aS'scaffold3670_cov194'
p7472
atp7473
Rp7474
sS'Mare'
p7475
g4
((lp7476
S'scaffold3000_cov63'
p7477
atp7478
Rp7479
sS'W1'
p7480
g4
((lp7481
S'scaffold27414_cov63'
p7482
aS'scaffold21706_cov134'
p7483
atp7484
Rp7485
ssS'OG0001838'
p7486
(dp7487
S'VW4'
p7488
g4
((lp7489
S'scaffold4488_cov207'
p7490
aS'scaffold292_cov203'
p7491
atp7492
Rp7493
sS'Mare'
p7494
g4
((lp7495
S'scaffold3175_cov115'
p7496
aS'scaffold733_cov57'
p7497
atp7498
Rp7499
sS'W1'
p7500
g4
((lp7501
S'scaffold32619_cov118'
p7502
aS'scaffold20061_cov80'
p7503
atp7504
Rp7505
ssS'OG0002376'
p7506
(dp7507
S'VW4'
p7508
g4
((lp7509
S'scaffold1436_cov280'
p7510
aS'scaffold11878_cov196'
p7511
atp7512
Rp7513
sS'Mare'
p7514
g4
((lp7515
S'scaffold5395_cov50'
p7516
aS'scaffold35877_cov69'
p7517
atp7518
Rp7519
sS'W1'
p7520
g4
((lp7521
S'scaffold18420_cov96'
p7522
aS'scaffold167535_cov101'
p7523
atp7524
Rp7525
ssS'OG0002336'
p7526
(dp7527
S'VW4'
p7528
g4
((lp7529
S'scaffold16414_cov176'
p7530
aS'scaffold6_cov291'
p7531
atp7532
Rp7533
sS'Mare'
p7534
g4
((lp7535
S'scaffold7436_cov87'
p7536
aS'scaffold4928_cov54'
p7537
atp7538
Rp7539
sS'W1'
p7540
g4
((lp7541
S'scaffold50857_cov93'
p7542
atp7543
Rp7544
ssS'OG0002335'
p7545
(dp7546
S'VW4'
p7547
g4
((lp7548
S'scaffold34987_cov177'
p7549
ag7531
atp7550
Rp7551
sS'Mare'
p7552
g4
((lp7553
g7537
aS'scaffold32443_cov66'
p7554
atp7555
Rp7556
sS'W1'
p7557
g4
((lp7558
S'scaffold25239_cov67'
p7559
atp7560
Rp7561
ssS'OG0002334'
p7562
(dp7563
S'VW4'
p7564
g4
((lp7565
S'scaffold5494_cov202'
p7566
aS'scaffold2251_cov300'
p7567
atp7568
Rp7569
sS'Mare'
p7570
g4
((lp7571
S'scaffold18040_cov61'
p7572
aS'scaffold4891_cov78'
p7573
atp7574
Rp7575
sS'W1'
p7576
g4
((lp7577
S'scaffold4605_cov69'
p7578
aS'scaffold4604_cov80'
p7579
atp7580
Rp7581
ssS'OG0001585'
p7582
(dp7583
S'VW4'
p7584
g4
((lp7585
S'scaffold299_cov290'
p7586
aS'scaffold4971_cov235'
p7587
atp7588
Rp7589
sS'Mare'
p7590
g4
((lp7591
S'scaffold10866_cov51'
p7592
aS'scaffold34599_cov98'
p7593
atp7594
Rp7595
sS'W1'
p7596
g4
((lp7597
S'scaffold29738_cov68'
p7598
aS'scaffold4941_cov130'
p7599
atp7600
Rp7601
ssS'OG0002871'
p7602
(dp7603
S'VW4'
p7604
g4
((lp7605
S'scaffold50230_cov305'
p7606
aS'scaffold10636_cov255'
p7607
atp7608
Rp7609
sS'Mare'
p7610
g4
((lp7611
S'scaffold37383_cov86'
p7612
atp7613
Rp7614
sS'W1'
p7615
g4
((lp7616
S'scaffold78564_cov65'
p7617
aS'scaffold78565_cov125'
p7618
atp7619
Rp7620
ssS'OG0002724'
p7621
(dp7622
S'VW4'
p7623
g4
((lp7624
S'scaffold4640_cov176'
p7625
aS'scaffold6032_cov173'
p7626
atp7627
Rp7628
sS'Mare'
p7629
g4
((lp7630
S'scaffold36895_cov67'
p7631
aS'scaffold14776_cov55'
p7632
atp7633
Rp7634
sS'W1'
p7635
g4
((lp7636
S'scaffold6409_cov65'
p7637
aS'scaffold4107_cov90'
p7638
atp7639
Rp7640
ssS'OG0002725'
p7641
(dp7642
S'VW4'
p7643
g4
((lp7644
S'scaffold36798_cov326'
p7645
ag3524
atp7646
Rp7647
sS'Mare'
p7648
g4
((lp7649
g3529
aS'scaffold14859_cov92'
p7650
atp7651
Rp7652
sS'W1'
p7653
g4
((lp7654
S'scaffold183613_cov153'
p7655
aS'scaffold5720_cov71'
p7656
atp7657
Rp7658
ssS'OG0002726'
p7659
(dp7660
S'VW4'
p7661
g4
((lp7662
S'scaffold6573_cov148'
p7663
aS'scaffold4216_cov285'
p7664
atp7665
Rp7666
sS'Mare'
p7667
g4
((lp7668
S'scaffold30348_cov82'
p7669
aS'scaffold14951_cov56'
p7670
atp7671
Rp7672
sS'W1'
p7673
g4
((lp7674
S'scaffold166664_cov195'
p7675
atp7676
Rp7677
ssS'OG0002721'
p7678
(dp7679
S'VW4'
p7680
g4
((lp7681
S'scaffold34579_cov226'
p7682
aS'scaffold34935_cov228'
p7683
atp7684
Rp7685
sS'Mare'
p7686
g4
((lp7687
S'scaffold17264_cov49'
p7688
aS'scaffold14721_cov66'
p7689
atp7690
Rp7691
sS'W1'
p7692
g4
((lp7693
S'scaffold10574_cov127'
p7694
aS'scaffold11171_cov138'
p7695
atp7696
Rp7697
ssS'OG0002722'
p7698
(dp7699
S'VW4'
p7700
g4
((lp7701
S'scaffold858_cov242'
p7702
aS'scaffold6205_cov227'
p7703
atp7704
Rp7705
sS'Mare'
p7706
g4
((lp7707
S'scaffold32828_cov78'
p7708
aS'scaffold14767_cov109'
p7709
atp7710
Rp7711
sS'W1'
p7712
g4
((lp7713
g3732
aS'scaffold62474_cov113'
p7714
atp7715
Rp7716
ssS'OG0002723'
p7717
(dp7718
S'VW4'
p7719
g4
((lp7720
S'scaffold5593_cov185'
p7721
ag7625
atp7722
Rp7723
sS'Mare'
p7724
g4
((lp7725
g7632
atp7726
Rp7727
sS'W1'
p7728
g4
((lp7729
g7637
ag7638
atp7730
Rp7731
ssS'OG0002537'
p7732
(dp7733
S'VW4'
p7734
g4
((lp7735
g3200
aS'scaffold30587_cov247'
p7736
atp7737
Rp7738
sS'Mare'
p7739
g4
((lp7740
S'scaffold8357_cov58'
p7741
aS'scaffold8823_cov89'
p7742
atp7743
Rp7744
sS'W1'
p7745
g4
((lp7746
g702
ag3211
atp7747
Rp7748
ssS'OG0001787'
p7749
(dp7750
S'VW4'
p7751
g4
((lp7752
S'scaffold914_cov157'
p7753
aS'scaffold915_cov207'
p7754
atp7755
Rp7756
sS'Mare'
p7757
g4
((lp7758
S'scaffold3014_cov60'
p7759
aS'scaffold398_cov53'
p7760
atp7761
Rp7762
sS'W1'
p7763
g4
((lp7764
S'scaffold3135_cov68'
p7765
ag1697
atp7766
Rp7767
ssS'OG0002259'
p7768
(dp7769
S'VW4'
p7770
g4
((lp7771
S'scaffold7695_cov182'
p7772
aS'scaffold1435_cov176'
p7773
atp7774
Rp7775
sS'Mare'
p7776
g4
((lp7777
S'scaffold3937_cov54'
p7778
aS'scaffold19063_cov80'
p7779
atp7780
Rp7781
sS'W1'
p7782
g4
((lp7783
S'scaffold2562_cov78'
p7784
aS'scaffold60916_cov101'
p7785
atp7786
Rp7787
ssS'OG0001784'
p7788
(dp7789
S'VW4'
p7790
g4
((lp7791
S'scaffold34876_cov153'
p7792
aS'scaffold2872_cov327'
p7793
atp7794
Rp7795
sS'Mare'
p7796
g4
((lp7797
S'scaffold362_cov88'
p7798
atp7799
Rp7800
sS'W1'
p7801
g4
((lp7802
S'scaffold1371_cov67'
p7803
aS'scaffold6182_cov109'
p7804
atp7805
Rp7806
ssS'OG0001783'
p7807
(dp7808
S'VW4'
p7809
g4
((lp7810
S'scaffold6784_cov373'
p7811
ag7792
atp7812
Rp7813
sS'Mare'
p7814
g4
((lp7815
g7798
aS'scaffold361_cov52'
p7816
atp7817
Rp7818
sS'W1'
p7819
g4
((lp7820
S'scaffold2398_cov98'
p7821
aS'scaffold2617_cov76'
p7822
atp7823
Rp7824
ssS'OG0001782'
p7825
(dp7826
S'VW4'
p7827
g4
((lp7828
S'scaffold19486_cov306'
p7829
aS'scaffold19485_cov191'
p7830
atp7831
Rp7832
sS'Mare'
p7833
g4
((lp7834
g7798
ag7816
atp7835
Rp7836
sS'W1'
p7837
g4
((lp7838
g7821
ag7822
atp7839
Rp7840
ssS'OG0001780'
p7841
(dp7842
S'VW4'
p7843
g4
((lp7844
S'scaffold219_cov217'
p7845
aS'scaffold1343_cov240'
p7846
atp7847
Rp7848
sS'Mare'
p7849
g4
((lp7850
S'scaffold359_cov50'
p7851
aS'scaffold24304_cov59'
p7852
atp7853
Rp7854
sS'W1'
p7855
g4
((lp7856
S'scaffold21534_cov145'
p7857
aS'scaffold21531_cov67'
p7858
atp7859
Rp7860
ssS'OG0002251'
p7861
(dp7862
S'VW4'
p7863
g4
((lp7864
S'scaffold7855_cov227'
p7865
aS'scaffold642_cov217'
p7866
atp7867
Rp7868
sS'Mare'
p7869
g4
((lp7870
S'scaffold25187_cov99'
p7871
aS'scaffold3835_cov72'
p7872
atp7873
Rp7874
sS'W1'
p7875
g4
((lp7876
S'scaffold18457_cov115'
p7877
aS'scaffold32162_cov89'
p7878
atp7879
Rp7880
ssS'OG0002159'
p7881
(dp7882
S'VW4'
p7883
g4
((lp7884
S'scaffold3083_cov378'
p7885
aS'scaffold34652_cov210'
p7886
atp7887
Rp7888
sS'Mare'
p7889
g4
((lp7890
S'scaffold2946_cov99'
p7891
aS'scaffold8059_cov49'
p7892
atp7893
Rp7894
sS'W1'
p7895
g4
((lp7896
S'scaffold1873_cov63'
p7897
aS'scaffold14527_cov64'
p7898
atp7899
Rp7900
ssS'OG0002253'
p7901
(dp7902
S'VW4'
p7903
g4
((lp7904
g1254
atp7905
Rp7906
sS'Mare'
p7907
g4
((lp7908
S'scaffold6445_cov52'
p7909
aS'scaffold3836_cov52'
p7910
atp7911
Rp7912
sS'W1'
p7913
g4
((lp7914
g6974
aS'scaffold1975_cov65'
p7915
atp7916
Rp7917
ssS'OG0001789'
p7918
(dp7919
S'VW4'
p7920
g4
((lp7921
S'scaffold1067_cov296'
p7922
atp7923
Rp7924
sS'Mare'
p7925
g4
((lp7926
S'scaffold414_cov56'
p7927
aS'scaffold15622_cov48'
p7928
atp7929
Rp7930
sS'W1'
p7931
g4
((lp7932
S'scaffold314_cov64'
p7933
aS'scaffold209_cov93'
p7934
atp7935
Rp7936
ssS'OG0001353'
p7937
(dp7938
S'VW4'
p7939
g4
((lp7940
S'scaffold294_cov265'
p7941
ag316
atp7942
Rp7943
sS'Mare'
p7944
g4
((lp7945
S'scaffold33263_cov56'
p7946
aS'scaffold3742_cov92'
p7947
atp7948
Rp7949
sS'W1'
p7950
g4
((lp7951
S'scaffold13284_cov147'
p7952
aS'scaffold23977_cov68'
p7953
atp7954
Rp7955
ssS'OG0000974'
p7956
(dp7957
S'VW4'
p7958
g4
((lp7959
S'scaffold7609_cov219'
p7960
aS'scaffold34374_cov269'
p7961
atp7962
Rp7963
sS'Mare'
p7964
g4
((lp7965
S'scaffold46707_cov161'
p7966
aS'scaffold43299_cov444'
p7967
atp7968
Rp7969
sS'W1'
p7970
g4
((lp7971
S'scaffold113721_cov145'
p7972
atp7973
Rp7974
ssS'OG0002593'
p7975
(dp7976
S'VW4'
p7977
g4
((lp7978
S'scaffold12570_cov377'
p7979
aS'scaffold1045_cov153'
p7980
atp7981
Rp7982
sS'Mare'
p7983
g4
((lp7984
S'scaffold9935_cov102'
p7985
aS'scaffold15216_cov95'
p7986
atp7987
Rp7988
sS'W1'
p7989
g4
((lp7990
g759
aS'scaffold3741_cov108'
p7991
atp7992
Rp7993
ssS'OG0002596'
p7994
(dp7995
S'VW4'
p7996
g4
((lp7997
S'scaffold4976_cov263'
p7998
aS'scaffold35400_cov183'
p7999
atp8000
Rp8001
sS'Mare'
p8002
g4
((lp8003
S'scaffold10044_cov75'
p8004
atp8005
Rp8006
sS'W1'
p8007
g4
((lp8008
S'scaffold14224_cov62'
p8009
ag3672
atp8010
Rp8011
ssS'OG0002594'
p8012
(dp8013
S'VW4'
p8014
g4
((lp8015
S'scaffold6820_cov173'
p8016
aS'scaffold22541_cov161'
p8017
atp8018
Rp8019
sS'Mare'
p8020
g4
((lp8021
S'scaffold9959_cov130'
p8022
aS'scaffold16604_cov60'
p8023
atp8024
Rp8025
sS'W1'
p8026
g4
((lp8027
S'scaffold3738_cov114'
p8028
aS'scaffold11440_cov66'
p8029
atp8030
Rp8031
ssS'OG0002598'
p8032
(dp8033
S'VW4'
p8034
g4
((lp8035
S'scaffold607_cov179'
p8036
aS'scaffold1766_cov198'
p8037
atp8038
Rp8039
sS'Mare'
p8040
g4
((lp8041
S'scaffold10095_cov71'
p8042
aS'scaffold33586_cov59'
p8043
atp8044
Rp8045
sS'W1'
p8046
g4
((lp8047
S'scaffold9757_cov95'
p8048
aS'scaffold35435_cov126'
p8049
atp8050
Rp8051
ssS'OG0002614'
p8052
(dp8053
S'VW4'
p8054
g4
((lp8055
S'scaffold520_cov225'
p8056
aS'scaffold11220_cov221'
p8057
atp8058
Rp8059
sS'Mare'
p8060
g4
((lp8061
S'scaffold33286_cov88'
p8062
aS'scaffold10537_cov54'
p8063
atp8064
Rp8065
sS'W1'
p8066
g4
((lp8067
S'scaffold7224_cov118'
p8068
aS'scaffold775_cov72'
p8069
atp8070
Rp8071
ssS'OG0002615'
p8072
(dp8073
S'VW4'
p8074
g4
((lp8075
S'scaffold12737_cov227'
p8076
aS'scaffold5303_cov242'
p8077
atp8078
Rp8079
sS'Mare'
p8080
g4
((lp8081
g8063
aS'scaffold29404_cov53'
p8082
atp8083
Rp8084
sS'W1'
p8085
g4
((lp8086
S'scaffold45626_cov132'
p8087
aS'scaffold26610_cov67'
p8088
atp8089
Rp8090
ssS'OG0002616'
p8091
(dp8092
S'VW4'
p8093
g4
((lp8094
S'scaffold9617_cov360'
p8095
atp8096
Rp8097
sS'Mare'
p8098
g4
((lp8099
S'scaffold10544_cov101'
p8100
aS'scaffold28093_cov50'
p8101
atp8102
Rp8103
sS'W1'
p8104
g4
((lp8105
S'scaffold6701_cov95'
p8106
aS'scaffold167399_cov102'
p8107
atp8108
Rp8109
ssS'OG0002751'
p8110
(dp8111
S'VW4'
p8112
g4
((lp8113
S'scaffold9413_cov298'
p8114
atp8115
Rp8116
sS'Mare'
p8117
g4
((lp8118
S'scaffold22731_cov131'
p8119
aS'scaffold17045_cov51'
p8120
atp8121
Rp8122
sS'W1'
p8123
g4
((lp8124
S'scaffold3916_cov70'
p8125
aS'scaffold28788_cov139'
p8126
atp8127
Rp8128
ssS'OG0002757'
p8129
(dp8130
S'VW4'
p8131
g4
((lp8132
S'scaffold91_cov238'
p8133
aS'scaffold35009_cov245'
p8134
atp8135
Rp8136
sS'Mare'
p8137
g4
((lp8138
S'scaffold17489_cov70'
p8139
aS'scaffold36821_cov56'
p8140
atp8141
Rp8142
sS'W1'
p8143
g4
((lp8144
S'scaffold9996_cov69'
p8145
aS'scaffold29312_cov132'
p8146
atp8147
Rp8148
ssS'OG0002759'
p8149
(dp8150
S'VW4'
p8151
g4
((lp8152
S'scaffold44794_cov431'
p8153
aS'scaffold6834_cov378'
p8154
atp8155
Rp8156
sS'Mare'
p8157
g4
((lp8158
S'scaffold17682_cov112'
p8159
aS'scaffold17681_cov51'
p8160
atp8161
Rp8162
sS'W1'
p8163
g4
((lp8164
S'scaffold29178_cov132'
p8165
atp8166
Rp8167
ssS'OG0002025'
p8168
(dp8169
S'VW4'
p8170
g4
((lp8171
S'scaffold7790_cov228'
p8172
aS'scaffold5502_cov291'
p8173
atp8174
Rp8175
sS'Mare'
p8176
g4
((lp8177
S'scaffold1850_cov129'
p8178
ag1823
atp8179
Rp8180
sS'W1'
p8181
g4
((lp8182
g1828
ag741
atp8183
Rp8184
ssS'OG0002023'
p8185
(dp8186
S'VW4'
p8187
g4
((lp8188
S'scaffold3541_cov180'
p8189
aS'scaffold441_cov213'
p8190
atp8191
Rp8192
sS'Mare'
p8193
g4
((lp8194
S'scaffold1835_cov54'
p8195
aS'scaffold14755_cov58'
p8196
atp8197
Rp8198
sS'W1'
p8199
g4
((lp8200
S'scaffold47647_cov69'
p8201
aS'scaffold7129_cov63'
p8202
atp8203
Rp8204
ssS'OG0001715'
p8205
(dp8206
S'VW4'
p8207
g4
((lp8208
S'scaffold3824_cov240'
p8209
aS'scaffold5144_cov205'
p8210
atp8211
Rp8212
sS'Mare'
p8213
g4
((lp8214
S'scaffold14170_cov69'
p8215
aS'scaffold47_cov51'
p8216
atp8217
Rp8218
sS'W1'
p8219
g4
((lp8220
S'scaffold14197_cov99'
p8221
ag7202
atp8222
Rp8223
ssS'OG0001716'
p8224
(dp8225
S'VW4'
p8226
g4
((lp8227
g8209
ag8210
atp8228
Rp8229
sS'Mare'
p8230
g4
((lp8231
g8216
aS'scaffold13368_cov73'
p8232
atp8233
Rp8234
sS'W1'
p8235
g4
((lp8236
g8221
ag7202
atp8237
Rp8238
ssS'OG0001718'
p8239
(dp8240
S'VW4'
p8241
g4
((lp8242
S'scaffold12547_cov300'
p8243
aS'scaffold2376_cov165'
p8244
atp8245
Rp8246
sS'Mare'
p8247
g4
((lp8248
S'scaffold57_cov62'
p8249
aS'scaffold10002_cov126'
p8250
atp8251
Rp8252
sS'W1'
p8253
g4
((lp8254
S'scaffold167486_cov93'
p8255
aS'scaffold32268_cov68'
p8256
atp8257
Rp8258
ssS'OG0001538'
p8259
(dp8260
S'VW4'
p8261
g4
((lp8262
S'scaffold12362_cov417'
p8263
atp8264
Rp8265
sS'Mare'
p8266
g4
((lp8267
g1319
aS'scaffold8299_cov149'
p8268
atp8269
Rp8270
sS'W1'
p8271
g4
((lp8272
S'scaffold99037_cov167'
p8273
aS'scaffold99038_cov70'
p8274
atp8275
Rp8276
ssS'OG0001652'
p8277
(dp8278
S'VW4'
p8279
g4
((lp8280
S'scaffold1597_cov224'
p8281
aS'scaffold9502_cov268'
p8282
atp8283
Rp8284
sS'Mare'
p8285
g4
((lp8286
S'scaffold34300_cov62'
p8287
atp8288
Rp8289
sS'W1'
p8290
g4
((lp8291
g5443
aS'scaffold9675_cov72'
p8292
atp8293
Rp8294
ssS'OG0001657'
p8295
(dp8296
S'VW4'
p8297
g4
((lp8298
S'scaffold34857_cov194'
p8299
aS'scaffold7531_cov165'
p8300
atp8301
Rp8302
sS'Mare'
p8303
g4
((lp8304
S'scaffold37465_cov88'
p8305
aS'scaffold26594_cov57'
p8306
atp8307
Rp8308
sS'W1'
p8309
g4
((lp8310
S'scaffold15646_cov79'
p8311
atp8312
Rp8313
ssS'OG0001539'
p8314
(dp8315
S'VW4'
p8316
g4
((lp8317
S'scaffold6436_cov182'
p8318
atp8319
Rp8320
sS'Mare'
p8321
g4
((lp8322
S'scaffold17478_cov94'
p8323
aS'scaffold8405_cov68'
p8324
atp8325
Rp8326
sS'W1'
p8327
g4
((lp8328
S'scaffold167587_cov73'
p8329
aS'scaffold8240_cov103'
p8330
atp8331
Rp8332
ssS'OG0001126'
p8333
(dp8334
S'VW4'
p8335
g4
((lp8336
S'scaffold7526_cov240'
p8337
aS'scaffold8195_cov213'
p8338
atp8339
Rp8340
sS'Mare'
p8341
g4
((lp8342
S'scaffold1101_cov58'
p8343
aS'scaffold3915_cov75'
p8344
atp8345
Rp8346
sS'W1'
p8347
g4
((lp8348
S'scaffold9403_cov96'
p8349
aS'scaffold23269_cov69'
p8350
atp8351
Rp8352
ssS'OG0001534'
p8353
(dp8354
S'VW4'
p8355
g4
((lp8356
S'scaffold2688_cov189'
p8357
aS'scaffold34993_cov283'
p8358
atp8359
Rp8360
sS'Mare'
p8361
g4
((lp8362
S'scaffold21076_cov99'
p8363
ag7892
atp8364
Rp8365
sS'W1'
p8366
g4
((lp8367
S'scaffold14528_cov66'
p8368
ag7898
atp8369
Rp8370
ssS'OG0001535'
p8371
(dp8372
S'VW4'
p8373
g4
((lp8374
g8357
aS'scaffold4386_cov298'
p8375
atp8376
Rp8377
sS'Mare'
p8378
g4
((lp8379
S'scaffold30712_cov54'
p8380
ag7892
atp8381
Rp8382
sS'W1'
p8383
g4
((lp8384
g8368
ag7898
atp8385
Rp8386
ssS'OG0001537'
p8387
(dp8388
S'VW4'
p8389
g4
((lp8390
S'scaffold7254_cov167'
p8391
aS'scaffold7001_cov246'
p8392
atp8393
Rp8394
sS'Mare'
p8395
g4
((lp8396
S'scaffold10875_cov63'
p8397
aS'scaffold8249_cov77'
p8398
atp8399
Rp8400
sS'W1'
p8401
g4
((lp8402
g504
atp8403
Rp8404
ssS'OG0001530'
p8405
(dp8406
S'VW4'
p8407
g4
((lp8408
g2548
ag2549
atp8409
Rp8410
sS'Mare'
p8411
g4
((lp8412
S'scaffold17719_cov52'
p8413
aS'scaffold7882_cov53'
p8414
atp8415
Rp8416
sS'W1'
p8417
g4
((lp8418
g2560
ag2561
atp8419
Rp8420
ssS'OG0002509'
p8421
(dp8422
S'VW4'
p8423
g4
((lp8424
S'scaffold1636_cov295'
p8425
aS'scaffold1637_cov206'
p8426
atp8427
Rp8428
sS'Mare'
p8429
g4
((lp8430
S'scaffold7703_cov52'
p8431
aS'scaffold14528_cov78'
p8432
atp8433
Rp8434
sS'W1'
p8435
g4
((lp8436
S'scaffold3954_cov94'
p8437
aS'scaffold73744_cov62'
p8438
atp8439
Rp8440
ssS'OG0002504'
p8441
(dp8442
S'VW4'
p8443
g4
((lp8444
S'scaffold8201_cov210'
p8445
ag4179
atp8446
Rp8447
sS'Mare'
p8448
g4
((lp8449
S'scaffold7572_cov84'
p8450
aS'scaffold7573_cov53'
p8451
atp8452
Rp8453
sS'W1'
p8454
g4
((lp8455
S'scaffold19315_cov107'
p8456
aS'scaffold7113_cov70'
p8457
atp8458
Rp8459
ssS'OG0001431'
p8460
(dp8461
S'VW4'
p8462
g4
((lp8463
S'scaffold14255_cov253'
p8464
aS'scaffold2270_cov160'
p8465
atp8466
Rp8467
sS'Mare'
p8468
g4
((lp8469
S'scaffold15336_cov60'
p8470
aS'scaffold5295_cov55'
p8471
atp8472
Rp8473
sS'W1'
p8474
g4
((lp8475
g1658
ag1657
atp8476
Rp8477
ssS'OG0002501'
p8478
(dp8479
S'VW4'
p8480
g4
((lp8481
S'scaffold35052_cov183'
p8482
aS'scaffold327_cov234'
p8483
atp8484
Rp8485
sS'Mare'
p8486
g4
((lp8487
S'scaffold7570_cov67'
p8488
aS'scaffold16598_cov60'
p8489
atp8490
Rp8491
sS'W1'
p8492
g4
((lp8493
S'scaffold30256_cov94'
p8494
atp8495
Rp8496
ssS'OG0002502'
p8497
(dp8498
S'VW4'
p8499
g4
((lp8500
S'scaffold137_cov184'
p8501
aS'scaffold16859_cov151'
p8502
atp8503
Rp8504
sS'Mare'
p8505
g4
((lp8506
g8488
atp8507
Rp8508
sS'W1'
p8509
g4
((lp8510
S'scaffold10642_cov107'
p8511
aS'scaffold53912_cov68'
p8512
atp8513
Rp8514
ssS'OG0002503'
p8515
(dp8516
S'VW4'
p8517
g4
((lp8518
g8445
ag4179
atp8519
Rp8520
sS'Mare'
p8521
g4
((lp8522
g8450
ag8451
atp8523
Rp8524
sS'W1'
p8525
g4
((lp8526
g8456
ag8457
atp8527
Rp8528
ssS'OG0002845'
p8529
(dp8530
S'VW4'
p8531
g4
((lp8532
S'scaffold34893_cov219'
p8533
aS'scaffold11923_cov205'
p8534
atp8535
Rp8536
sS'Mare'
p8537
g4
((lp8538
S'scaffold44933_cov138'
p8539
aS'scaffold34976_cov99'
p8540
atp8541
Rp8542
sS'W1'
p8543
g4
((lp8544
S'scaffold158_cov68'
p8545
aS'scaffold11842_cov94'
p8546
atp8547
Rp8548
ssS'OG0002844'
p8549
(dp8550
S'VW4'
p8551
g4
((lp8552
S'scaffold47216_cov641'
p8553
aS'scaffold48986_cov305'
p8554
atp8555
Rp8556
sS'Mare'
p8557
g4
((lp8558
S'scaffold34534_cov105'
p8559
atp8560
Rp8561
sS'W1'
p8562
g4
((lp8563
S'scaffold193858_cov408'
p8564
aS'scaffold630_cov118'
p8565
atp8566
Rp8567
ssS'OG0002846'
p8568
(dp8569
S'VW4'
p8570
g4
((lp8571
S'scaffold1911_cov231'
p8572
aS'scaffold2955_cov235'
p8573
atp8574
Rp8575
sS'Mare'
p8576
g4
((lp8577
S'scaffold35021_cov83'
p8578
aS'scaffold43367_cov115'
p8579
atp8580
Rp8581
sS'W1'
p8582
g4
((lp8583
S'scaffold18584_cov139'
p8584
ag703
atp8585
Rp8586
ssS'OG0002841'
p8587
(dp8588
S'VW4'
p8589
g4
((lp8590
S'scaffold11838_cov280'
p8591
aS'scaffold3183_cov273'
p8592
atp8593
Rp8594
sS'Mare'
p8595
g4
((lp8596
S'scaffold39009_cov103'
p8597
aS'scaffold34231_cov91'
p8598
atp8599
Rp8600
sS'W1'
p8601
g4
((lp8602
S'scaffold3533_cov68'
p8603
ag5807
atp8604
Rp8605
ssS'OG0001878'
p8606
(dp8607
S'VW4'
p8608
g4
((lp8609
S'scaffold8289_cov180'
p8610
aS'scaffold4798_cov206'
p8611
atp8612
Rp8613
sS'Mare'
p8614
g4
((lp8615
S'scaffold878_cov66'
p8616
aS'scaffold37758_cov123'
p8617
atp8618
Rp8619
sS'W1'
p8620
g4
((lp8621
S'scaffold20825_cov153'
p8622
aS'scaffold24052_cov69'
p8623
atp8624
Rp8625
ssS'OG0001875'
p8626
(dp8627
S'VW4'
p8628
g4
((lp8629
S'scaffold6071_cov156'
p8630
aS'scaffold276_cov267'
p8631
atp8632
Rp8633
sS'Mare'
p8634
g4
((lp8635
S'scaffold874_cov68'
p8636
aS'scaffold6317_cov51'
p8637
atp8638
Rp8639
sS'W1'
p8640
g4
((lp8641
S'scaffold27354_cov105'
p8642
aS'scaffold16165_cov73'
p8643
atp8644
Rp8645
ssS'OG0001874'
p8646
(dp8647
S'VW4'
p8648
g4
((lp8649
S'scaffold35170_cov289'
p8650
ag7886
atp8651
Rp8652
sS'Mare'
p8653
g4
((lp8654
S'scaffold872_cov49'
p8655
aS'scaffold8270_cov118'
p8656
atp8657
Rp8658
sS'W1'
p8659
g4
((lp8660
g6906
atp8661
Rp8662
ssS'OG0001877'
p8663
(dp8664
S'VW4'
p8665
g4
((lp8666
g6015
aS'scaffold9574_cov228'
p8667
atp8668
Rp8669
sS'Mare'
p8670
g4
((lp8671
g8616
aS'scaffold6200_cov128'
p8672
atp8673
Rp8674
sS'W1'
p8675
g4
((lp8676
g8622
aS'scaffold20824_cov72'
p8677
atp8678
Rp8679
ssS'OG0001978'
p8680
(dp8681
S'VW4'
p8682
g4
((lp8683
S'scaffold709_cov247'
p8684
aS'scaffold5394_cov155'
p8685
atp8686
Rp8687
sS'Mare'
p8688
g4
((lp8689
S'scaffold4097_cov96'
p8690
aS'scaffold1525_cov58'
p8691
atp8692
Rp8693
sS'W1'
p8694
g4
((lp8695
S'scaffold6305_cov69'
p8696
aS'scaffold6306_cov146'
p8697
atp8698
Rp8699
ssS'OG0001870'
p8700
(dp8701
S'VW4'
p8702
g4
((lp8703
S'scaffold34854_cov183'
p8704
aS'scaffold10029_cov156'
p8705
atp8706
Rp8707
sS'Mare'
p8708
g4
((lp8709
S'scaffold861_cov54'
p8710
aS'scaffold6110_cov55'
p8711
atp8712
Rp8713
sS'W1'
p8714
g4
((lp8715
S'scaffold166708_cov122'
p8716
aS'scaffold697_cov68'
p8717
atp8718
Rp8719
ssS'OG0001873'
p8720
(dp8721
S'VW4'
p8722
g4
((lp8723
g8650
ag7886
atp8724
Rp8725
sS'Mare'
p8726
g4
((lp8727
g8655
ag8656
atp8728
Rp8729
sS'W1'
p8730
g4
((lp8731
g6905
ag6906
atp8732
Rp8733
ssS'OG0002373'
p8734
(dp8735
S'VW4'
p8736
g4
((lp8737
S'scaffold3666_cov227'
p8738
ag4946
atp8739
Rp8740
sS'Mare'
p8741
g4
((lp8742
S'scaffold21582_cov121'
p8743
aS'scaffold5370_cov101'
p8744
atp8745
Rp8746
sS'W1'
p8747
g4
((lp8748
S'scaffold2832_cov75'
p8749
ag4958
atp8750
Rp8751
ssS'OG0002372'
p8752
(dp8753
S'VW4'
p8754
g4
((lp8755
S'scaffold965_cov205'
p8756
aS'scaffold51278_cov326'
p8757
atp8758
Rp8759
sS'Mare'
p8760
g4
((lp8761
S'scaffold5357_cov53'
p8762
aS'scaffold23886_cov86'
p8763
atp8764
Rp8765
sS'W1'
p8766
g4
((lp8767
g6356
aS'scaffold33427_cov79'
p8768
atp8769
Rp8770
ssS'OG0000985'
p8771
(dp8772
S'VW4'
p8773
g4
((lp8774
S'scaffold2836_cov225'
p8775
aS'scaffold4074_cov180'
p8776
atp8777
Rp8778
sS'Mare'
p8779
g4
((lp8780
S'scaffold4080_cov54'
p8781
aS'scaffold18_cov68'
p8782
atp8783
Rp8784
sS'W1'
p8785
g4
((lp8786
S'scaffold3701_cov67'
p8787
aS'scaffold23999_cov72'
p8788
atp8789
Rp8790
ssS'OG0001224'
p8791
(dp8792
S'VW4'
p8793
g4
((lp8794
S'scaffold10361_cov204'
p8795
ag6981
atp8796
Rp8797
sS'Mare'
p8798
g4
((lp8799
S'scaffold21479_cov41'
p8800
aS'scaffold2088_cov50'
p8801
atp8802
Rp8803
sS'W1'
p8804
g4
((lp8805
g6994
ag6993
atp8806
Rp8807
ssS'OG0001225'
p8808
(dp8809
S'VW4'
p8810
g4
((lp8811
g6981
aS'scaffold39711_cov284'
p8812
atp8813
Rp8814
sS'Mare'
p8815
g4
((lp8816
g8801
atp8817
Rp8818
sS'W1'
p8819
g4
((lp8820
S'scaffold3403_cov135'
p8821
ag6994
atp8822
Rp8823
ssS'OG0002375'
p8824
(dp8825
S'VW4'
p8826
g4
((lp8827
S'scaffold35536_cov308'
p8828
aS'scaffold2461_cov367'
p8829
atp8830
Rp8831
sS'Mare'
p8832
g4
((lp8833
S'scaffold5390_cov106'
p8834
aS'scaffold12415_cov95'
p8835
atp8836
Rp8837
sS'W1'
p8838
g4
((lp8839
S'scaffold10742_cov153'
p8840
atp8841
Rp8842
ssS'OG0002470'
p8843
(dp8844
S'VW4'
p8845
g4
((lp8846
S'scaffold4879_cov249'
p8847
aS'scaffold916_cov197'
p8848
atp8849
Rp8850
sS'Mare'
p8851
g4
((lp8852
S'scaffold52619_cov115'
p8853
aS'scaffold6959_cov64'
p8854
atp8855
Rp8856
sS'W1'
p8857
g4
((lp8858
S'scaffold2699_cov70'
p8859
aS'scaffold1978_cov92'
p8860
atp8861
Rp8862
ssS'OG0002578'
p8863
(dp8864
S'VW4'
p8865
g4
((lp8866
S'scaffold8306_cov244'
p8867
atp8868
Rp8869
sS'Mare'
p8870
g4
((lp8871
S'scaffold9539_cov64'
p8872
aS'scaffold36826_cov61'
p8873
atp8874
Rp8875
sS'W1'
p8876
g4
((lp8877
S'scaffold17943_cov128'
p8878
aS'scaffold4289_cov69'
p8879
atp8880
Rp8881
ssS'OG0002472'
p8882
(dp8883
S'VW4'
p8884
g4
((lp8885
S'scaffold5402_cov179'
p8886
aS'scaffold13538_cov239'
p8887
atp8888
Rp8889
sS'Mare'
p8890
g4
((lp8891
g2574
aS'scaffold6977_cov64'
p8892
atp8893
Rp8894
sS'W1'
p8895
g4
((lp8896
S'scaffold2213_cov74'
p8897
ag2579
atp8898
Rp8899
ssS'OG0001542'
p8900
(dp8901
S'VW4'
p8902
g4
((lp8903
S'scaffold2983_cov165'
p8904
aS'scaffold3082_cov287'
p8905
atp8906
Rp8907
sS'Mare'
p8908
g4
((lp8909
S'scaffold8576_cov64'
p8910
aS'scaffold14804_cov81'
p8911
atp8912
Rp8913
sS'W1'
p8914
g4
((lp8915
S'scaffold11928_cov70'
p8916
aS'scaffold46909_cov63'
p8917
atp8918
Rp8919
ssS'OG0002476'
p8920
(dp8921
S'VW4'
p8922
g4
((lp8923
S'scaffold4703_cov265'
p8924
aS'scaffold14801_cov267'
p8925
atp8926
Rp8927
sS'Mare'
p8928
g4
((lp8929
S'scaffold11306_cov90'
p8930
aS'scaffold7154_cov101'
p8931
atp8932
Rp8933
sS'W1'
p8934
g4
((lp8935
S'scaffold4957_cov147'
p8936
aS'scaffold2304_cov67'
p8937
atp8938
Rp8939
ssS'OG0001546'
p8940
(dp8941
S'VW4'
p8942
g4
((lp8943
g3443
aS'scaffold38603_cov305'
p8944
atp8945
Rp8946
sS'Mare'
p8947
g4
((lp8948
g7273
ag3450
atp8949
Rp8950
sS'W1'
p8951
g4
((lp8952
S'scaffold18351_cov137'
p8953
ag3456
atp8954
Rp8955
ssS'OG0001549'
p8956
(dp8957
S'VW4'
p8958
g4
((lp8959
S'scaffold10810_cov211'
p8960
atp8961
Rp8962
sS'Mare'
p8963
g4
((lp8964
S'scaffold37414_cov75'
p8965
aS'scaffold8748_cov52'
p8966
atp8967
Rp8968
sS'W1'
p8969
g4
((lp8970
S'scaffold2871_cov100'
p8971
atp8972
Rp8973
ssS'OG0002479'
p8974
(dp8975
S'VW4'
p8976
g4
((lp8977
S'scaffold5205_cov172'
p8978
aS'scaffold2554_cov143'
p8979
atp8980
Rp8981
sS'Mare'
p8982
g4
((lp8983
S'scaffold9352_cov77'
p8984
aS'scaffold7181_cov86'
p8985
atp8986
Rp8987
sS'W1'
p8988
g4
((lp8989
S'scaffold6580_cov70'
p8990
aS'scaffold36738_cov76'
p8991
atp8992
Rp8993
ssS'OG0002572'
p8994
(dp8995
S'VW4'
p8996
g4
((lp8997
S'scaffold7950_cov259'
p8998
aS'scaffold5161_cov275'
p8999
atp9000
Rp9001
sS'Mare'
p9002
g4
((lp9003
S'scaffold21998_cov99'
p9004
aS'scaffold9393_cov55'
p9005
atp9006
Rp9007
sS'W1'
p9008
g4
((lp9009
S'scaffold66858_cov84'
p9010
atp9011
Rp9012
ssS'OG0002574'
p9013
(dp9014
S'VW4'
p9015
g4
((lp9016
S'scaffold938_cov210'
p9017
atp9018
Rp9019
sS'Mare'
p9020
g4
((lp9021
S'scaffold34180_cov51'
p9022
aS'scaffold9396_cov52'
p9023
atp9024
Rp9025
sS'W1'
p9026
g4
((lp9027
S'scaffold27107_cov66'
p9028
aS'scaffold167476_cov69'
p9029
atp9030
Rp9031
ssS'OG0002812'
p9032
(dp9033
S'VW4'
p9034
g4
((lp9035
g6112
aS'scaffold41363_cov389'
p9036
atp9037
Rp9038
sS'Mare'
p9039
g4
((lp9040
S'scaffold26402_cov46'
p9041
aS'scaffold26400_cov107'
p9042
atp9043
Rp9044
sS'W1'
p9045
g4
((lp9046
g6124
aS'scaffold165573_cov134'
p9047
atp9048
Rp9049
ssS'OG0002216'
p9050
(dp9051
S'VW4'
p9052
g4
((lp9053
S'scaffold5373_cov204'
p9054
aS'scaffold34969_cov237'
p9055
atp9056
Rp9057
sS'Mare'
p9058
g4
((lp9059
S'scaffold11820_cov72'
p9060
aS'scaffold3429_cov57'
p9061
atp9062
Rp9063
sS'W1'
p9064
g4
((lp9065
S'scaffold10713_cov124'
p9066
ag7579
atp9067
Rp9068
ssS'OG0001902'
p9069
(dp9070
S'VW4'
p9071
g4
((lp9072
S'scaffold2614_cov197'
p9073
aS'scaffold7824_cov334'
p9074
atp9075
Rp9076
sS'Mare'
p9077
g4
((lp9078
S'scaffold1016_cov133'
p9079
aS'scaffold47478_cov107'
p9080
atp9081
Rp9082
sS'W1'
p9083
g4
((lp9084
S'scaffold53777_cov105'
p9085
atp9086
Rp9087
ssS'OG0001904'
p9088
(dp9089
S'VW4'
p9090
g4
((lp9091
g6325
ag6326
atp9092
Rp9093
sS'Mare'
p9094
g4
((lp9095
g6331
aS'scaffold5066_cov51'
p9096
atp9097
Rp9098
sS'W1'
p9099
g4
((lp9100
g6337
ag6338
atp9101
Rp9102
ssS'OG0001907'
p9103
(dp9104
S'VW4'
p9105
g4
((lp9106
S'scaffold4451_cov223'
p9107
aS'scaffold53889_cov315'
p9108
atp9109
Rp9110
sS'Mare'
p9111
g4
((lp9112
S'scaffold1040_cov63'
p9113
aS'scaffold2393_cov71'
p9114
atp9115
Rp9116
sS'W1'
p9117
g4
((lp9118
S'scaffold2939_cov64'
p9119
aS'scaffold17051_cov101'
p9120
atp9121
Rp9122
ssS'OG0001906'
p9123
(dp9124
S'VW4'
p9125
g4
((lp9126
S'scaffold4664_cov169'
p9127
atp9128
Rp9129
sS'Mare'
p9130
g4
((lp9131
S'scaffold15444_cov87'
p9132
aS'scaffold1038_cov52'
p9133
atp9134
Rp9135
sS'W1'
p9136
g4
((lp9137
S'scaffold278_cov71'
p9138
aS'scaffold8900_cov76'
p9139
atp9140
Rp9141
ssS'OG0001908'
p9142
(dp9143
S'VW4'
p9144
g4
((lp9145
S'scaffold40802_cov284'
p9146
ag5102
atp9147
Rp9148
sS'Mare'
p9149
g4
((lp9150
S'scaffold7097_cov101'
p9151
aS'scaffold1054_cov57'
p9152
atp9153
Rp9154
sS'W1'
p9155
g4
((lp9156
g5113
ag5114
atp9157
Rp9158
ssS'OG0002122'
p9159
(dp9160
S'VW4'
p9161
g4
((lp9162
S'scaffold358_cov300'
p9163
atp9164
Rp9165
sS'Mare'
p9166
g4
((lp9167
S'scaffold27107_cov81'
p9168
ag3550
atp9169
Rp9170
sS'W1'
p9171
g4
((lp9172
S'scaffold21511_cov72'
p9173
aS'scaffold21509_cov64'
p9174
atp9175
Rp9176
ssS'OG0002218'
p9177
(dp9178
S'VW4'
p9179
g4
((lp9180
S'scaffold4196_cov169'
p9181
atp9182
Rp9183
sS'Mare'
p9184
g4
((lp9185
S'scaffold3462_cov62'
p9186
aS'scaffold21861_cov63'
p9187
atp9188
Rp9189
sS'W1'
p9190
g4
((lp9191
S'scaffold40543_cov64'
p9192
aS'scaffold3249_cov80'
p9193
atp9194
Rp9195
ssS'OG0001625'
p9196
(dp9197
S'VW4'
p9198
g4
((lp9199
S'scaffold14835_cov172'
p9200
ag4853
atp9201
Rp9202
sS'Mare'
p9203
g4
((lp9204
S'scaffold36775_cov68'
p9205
aS'scaffold15690_cov108'
p9206
atp9207
Rp9208
sS'W1'
p9209
g4
((lp9210
S'scaffold165461_cov100'
p9211
ag4865
atp9212
Rp9213
ssS'OG0001315'
p9214
(dp9215
S'VW4'
p9216
g4
((lp9217
g3968
aS'scaffold13790_cov193'
p9218
atp9219
Rp9220
sS'Mare'
p9221
g4
((lp9222
g3973
ag3609
atp9223
Rp9224
sS'W1'
p9225
g4
((lp9226
g3614
ag3978
atp9227
Rp9228
ssS'OG0001313'
p9229
(dp9230
S'VW4'
p9231
g4
((lp9232
S'scaffold11307_cov229'
p9233
aS'scaffold6551_cov161'
p9234
atp9235
Rp9236
sS'Mare'
p9237
g4
((lp9238
S'scaffold3106_cov64'
p9239
aS'scaffold10343_cov61'
p9240
atp9241
Rp9242
sS'W1'
p9243
g4
((lp9244
S'scaffold24500_cov65'
p9245
aS'scaffold57197_cov90'
p9246
atp9247
Rp9248
ssS'OG0002654'
p9249
(dp9250
S'VW4'
p9251
g4
((lp9252
g6131
aS'scaffold15191_cov325'
p9253
atp9254
Rp9255
sS'Mare'
p9256
g4
((lp9257
S'scaffold11755_cov82'
p9258
aS'scaffold11756_cov46'
p9259
atp9260
Rp9261
sS'W1'
p9262
g4
((lp9263
g6143
atp9264
Rp9265
ssS'OG0002656'
p9266
(dp9267
S'VW4'
p9268
g4
((lp9269
S'scaffold1746_cov212'
p9270
aS'scaffold743_cov228'
p9271
atp9272
Rp9273
sS'Mare'
p9274
g4
((lp9275
S'scaffold25653_cov54'
p9276
aS'scaffold11819_cov105'
p9277
atp9278
Rp9279
sS'W1'
p9280
g4
((lp9281
S'scaffold165434_cov141'
p9282
aS'scaffold29886_cov66'
p9283
atp9284
Rp9285
ssS'OG0002657'
p9286
(dp9287
S'VW4'
p9288
g4
((lp9289
S'scaffold6283_cov179'
p9290
ag9054
atp9291
Rp9292
sS'Mare'
p9293
g4
((lp9294
S'scaffold14510_cov60'
p9295
ag9060
atp9296
Rp9297
sS'W1'
p9298
g4
((lp9299
g9066
ag7579
atp9300
Rp9301
ssS'OG0002719'
p9302
(dp9303
S'VW4'
p9304
g4
((lp9305
S'scaffold4966_cov298'
p9306
ag4660
atp9307
Rp9308
sS'Mare'
p9309
g4
((lp9310
S'scaffold17539_cov88'
p9311
aS'scaffold14622_cov56'
p9312
atp9313
Rp9314
sS'W1'
p9315
g4
((lp9316
S'scaffold7146_cov65'
p9317
ag6374
atp9318
Rp9319
ssS'OG0002718'
p9320
(dp9321
S'VW4'
p9322
g4
((lp9323
g925
aS'scaffold35134_cov241'
p9324
atp9325
Rp9326
sS'Mare'
p9327
g4
((lp9328
S'scaffold14596_cov132'
p9329
aS'scaffold36584_cov77'
p9330
atp9331
Rp9332
sS'W1'
p9333
g4
((lp9334
S'scaffold10461_cov66'
p9335
ag938
atp9336
Rp9337
ssS'OG0002715'
p9338
(dp9339
S'VW4'
p9340
g4
((lp9341
S'scaffold34240_cov291'
p9342
aS'scaffold43247_cov305'
p9343
atp9344
Rp9345
sS'Mare'
p9346
g4
((lp9347
S'scaffold37571_cov118'
p9348
aS'scaffold14485_cov58'
p9349
atp9350
Rp9351
sS'W1'
p9352
g4
((lp9353
S'scaffold1760_cov96'
p9354
aS'scaffold1762_cov75'
p9355
atp9356
Rp9357
ssS'OG0002716'
p9358
(dp9359
S'VW4'
p9360
g4
((lp9361
S'scaffold6227_cov210'
p9362
ag9342
atp9363
Rp9364
sS'Mare'
p9365
g4
((lp9366
g9348
ag9349
atp9367
Rp9368
sS'W1'
p9369
g4
((lp9370
g9354
ag9355
atp9371
Rp9372
ssS'OG0002713'
p9373
(dp9374
S'VW4'
p9375
g4
((lp9376
S'scaffold4643_cov233'
p9377
aS'scaffold7882_cov228'
p9378
atp9379
Rp9380
sS'Mare'
p9381
g4
((lp9382
S'scaffold14430_cov83'
p9383
aS'scaffold24509_cov66'
p9384
atp9385
Rp9386
sS'W1'
p9387
g4
((lp9388
S'scaffold167467_cov101'
p9389
aS'scaffold67159_cov68'
p9390
atp9391
Rp9392
ssS'OG0002060'
p9393
(dp9394
S'VW4'
p9395
g4
((lp9396
g8795
ag6981
atp9397
Rp9398
sS'Mare'
p9399
g4
((lp9400
S'scaffold10310_cov117'
p9401
ag8801
atp9402
Rp9403
sS'W1'
p9404
g4
((lp9405
g6994
ag6993
atp9406
Rp9407
ssS'OG0001759'
p9408
(dp9409
S'VW4'
p9410
g4
((lp9411
g5603
ag5604
atp9412
Rp9413
sS'Mare'
p9414
g4
((lp9415
S'scaffold306_cov97'
p9416
ag5610
atp9417
Rp9418
sS'W1'
p9419
g4
((lp9420
S'scaffold30167_cov70'
p9421
ag5616
atp9422
Rp9423
ssS'OG0002064'
p9424
(dp9425
S'VW4'
p9426
g4
((lp9427
S'scaffold8772_cov153'
p9428
aS'scaffold2759_cov181'
p9429
atp9430
Rp9431
sS'Mare'
p9432
g4
((lp9433
S'scaffold9907_cov91'
p9434
aS'scaffold2126_cov70'
p9435
atp9436
Rp9437
sS'W1'
p9438
g4
((lp9439
S'scaffold5203_cov76'
p9440
aS'scaffold22882_cov105'
p9441
atp9442
Rp9443
ssS'OG0002100'
p9444
(dp9445
S'VW4'
p9446
g4
((lp9447
S'scaffold4220_cov209'
p9448
aS'scaffold11665_cov274'
p9449
atp9450
Rp9451
sS'Mare'
p9452
g4
((lp9453
S'scaffold3013_cov87'
p9454
aS'scaffold2494_cov73'
p9455
atp9456
Rp9457
sS'W1'
p9458
g4
((lp9459
S'scaffold2849_cov95'
p9460
aS'scaffold165441_cov141'
p9461
atp9462
Rp9463
ssS'OG0001757'
p9464
(dp9465
S'VW4'
p9466
g4
((lp9467
S'scaffold3120_cov189'
p9468
aS'scaffold11791_cov336'
p9469
atp9470
Rp9471
sS'Mare'
p9472
g4
((lp9473
S'scaffold289_cov71'
p9474
aS'scaffold3757_cov64'
p9475
atp9476
Rp9477
sS'W1'
p9478
g4
((lp9479
S'scaffold8101_cov85'
p9480
aS'scaffold11271_cov65'
p9481
atp9482
Rp9483
ssS'OG0002104'
p9484
(dp9485
S'VW4'
p9486
g4
((lp9487
S'scaffold4464_cov185'
p9488
aS'scaffold5058_cov197'
p9489
atp9490
Rp9491
sS'Mare'
p9492
g4
((lp9493
S'scaffold12036_cov77'
p9494
aS'scaffold2530_cov71'
p9495
atp9496
Rp9497
sS'W1'
p9498
g4
((lp9499
S'scaffold1497_cov69'
p9500
aS'scaffold167515_cov69'
p9501
atp9502
Rp9503
ssS'OG0001751'
p9504
(dp9505
S'VW4'
p9506
g4
((lp9507
S'scaffold35835_cov299'
p9508
aS'scaffold15165_cov249'
p9509
atp9510
Rp9511
sS'Mare'
p9512
g4
((lp9513
S'scaffold255_cov58'
p9514
aS'scaffold32858_cov151'
p9515
atp9516
Rp9517
sS'W1'
p9518
g4
((lp9519
S'scaffold11225_cov146'
p9520
aS'scaffold33238_cov67'
p9521
atp9522
Rp9523
ssS'OG0001752'
p9524
(dp9525
S'VW4'
p9526
g4
((lp9527
S'scaffold9615_cov205'
p9528
aS'scaffold635_cov190'
p9529
atp9530
Rp9531
sS'Mare'
p9532
g4
((lp9533
S'scaffold277_cov59'
p9534
aS'scaffold3874_cov50'
p9535
atp9536
Rp9537
sS'W1'
p9538
g4
((lp9539
S'scaffold166781_cov143'
p9540
atp9541
Rp9542
ssS'OG0001753'
p9543
(dp9544
S'VW4'
p9545
g4
((lp9546
S'scaffold3145_cov178'
p9547
aS'scaffold4565_cov201'
p9548
atp9549
Rp9550
sS'Mare'
p9551
g4
((lp9552
g9534
aS'scaffold10462_cov56'
p9553
atp9554
Rp9555
sS'W1'
p9556
g4
((lp9557
S'scaffold45866_cov89'
p9558
atp9559
Rp9560
ssS'OG0001615'
p9561
(dp9562
S'VW4'
p9563
g4
((lp9564
S'scaffold19757_cov388'
p9565
ag1235
atp9566
Rp9567
sS'Mare'
p9568
g4
((lp9569
S'scaffold37624_cov98'
p9570
aS'scaffold14365_cov55'
p9571
atp9572
Rp9573
sS'W1'
p9574
g4
((lp9575
S'scaffold1491_cov109'
p9576
aS'scaffold3256_cov68'
p9577
atp9578
Rp9579
ssS'OG0001169'
p9580
(dp9581
S'VW4'
p9582
g4
((lp9583
S'scaffold467_cov263'
p9584
aS'scaffold7247_cov286'
p9585
atp9586
Rp9587
sS'Mare'
p9588
g4
((lp9589
S'scaffold7086_cov54'
p9590
ag6464
atp9591
Rp9592
sS'W1'
p9593
g4
((lp9594
S'scaffold178103_cov209'
p9595
aS'scaffold16632_cov63'
p9596
atp9597
Rp9598
ssS'OG0001999'
p9599
(dp9600
S'VW4'
p9601
g4
((lp9602
S'scaffold11614_cov255'
p9603
aS'scaffold1073_cov267'
p9604
atp9605
Rp9606
sS'Mare'
p9607
g4
((lp9608
S'scaffold35197_cov159'
p9609
ag4898
atp9610
Rp9611
sS'W1'
p9612
g4
((lp9613
S'scaffold1518_cov144'
p9614
aS'scaffold7273_cov73'
p9615
atp9616
Rp9617
ssS'OG0002264'
p9618
(dp9619
S'VW4'
p9620
g4
((lp9621
S'scaffold1083_cov222'
p9622
aS'scaffold1081_cov253'
p9623
atp9624
Rp9625
sS'Mare'
p9626
g4
((lp9627
g1980
aS'scaffold7406_cov97'
p9628
atp9629
Rp9630
sS'W1'
p9631
g4
((lp9632
S'scaffold4036_cov142'
p9633
aS'scaffold10658_cov62'
p9634
atp9635
Rp9636
ssS'OG0002269'
p9637
(dp9638
S'VW4'
p9639
g4
((lp9640
S'scaffold34141_cov184'
p9641
aS'scaffold6166_cov218'
p9642
atp9643
Rp9644
sS'Mare'
p9645
g4
((lp9646
S'scaffold4081_cov103'
p9647
aS'scaffold4410_cov60'
p9648
atp9649
Rp9650
sS'W1'
p9651
g4
((lp9652
S'scaffold4421_cov66'
p9653
aS'scaffold2658_cov137'
p9654
atp9655
Rp9656
ssS'OG0001161'
p9657
(dp9658
S'VW4'
p9659
g4
((lp9660
S'scaffold1253_cov168'
p9661
aS'scaffold849_cov247'
p9662
atp9663
Rp9664
sS'Mare'
p9665
g4
((lp9666
S'scaffold16656_cov56'
p9667
aS'scaffold1461_cov54'
p9668
atp9669
Rp9670
sS'W1'
p9671
g4
((lp9672
S'scaffold122299_cov139'
p9673
aS'scaffold122298_cov65'
p9674
atp9675
Rp9676
ssS'OG0001160'
p9677
(dp9678
S'VW4'
p9679
g4
((lp9680
S'scaffold24073_cov287'
p9681
aS'scaffold36462_cov152'
p9682
atp9683
Rp9684
sS'Mare'
p9685
g4
((lp9686
S'scaffold8021_cov59'
p9687
aS'scaffold1455_cov53'
p9688
atp9689
Rp9690
sS'W1'
p9691
g4
((lp9692
S'scaffold29165_cov60'
p9693
aS'scaffold561_cov86'
p9694
atp9695
Rp9696
ssS'OG0001996'
p9697
(dp9698
S'VW4'
p9699
g4
((lp9700
g6287
ag6288
atp9701
Rp9702
sS'Mare'
p9703
g4
((lp9704
g6293
aS'scaffold1651_cov81'
p9705
atp9706
Rp9707
sS'W1'
p9708
g4
((lp9709
S'scaffold192192_cov171'
p9710
ag6299
atp9711
Rp9712
ssS'OG0001997'
p9713
(dp9714
S'VW4'
p9715
g4
((lp9716
S'scaffold534_cov297'
p9717
aS'scaffold532_cov244'
p9718
atp9719
Rp9720
sS'Mare'
p9721
g4
((lp9722
S'scaffold1667_cov55'
p9723
aS'scaffold6209_cov128'
p9724
atp9725
Rp9726
sS'W1'
p9727
g4
((lp9728
S'scaffold8279_cov69'
p9729
aS'scaffold8282_cov147'
p9730
atp9731
Rp9732
ssS'OG0001995'
p9733
(dp9734
S'VW4'
p9735
g4
((lp9736
S'scaffold12609_cov286'
p9737
aS'scaffold3427_cov261'
p9738
atp9739
Rp9740
sS'Mare'
p9741
g4
((lp9742
S'scaffold1645_cov55'
p9743
aS'scaffold15110_cov149'
p9744
atp9745
Rp9746
sS'W1'
p9747
g4
((lp9748
S'scaffold1649_cov91'
p9749
aS'scaffold165507_cov120'
p9750
atp9751
Rp9752
ssS'OG0001368'
p9753
(dp9754
S'VW4'
p9755
g4
((lp9756
S'scaffold35912_cov193'
p9757
aS'scaffold1607_cov239'
p9758
atp9759
Rp9760
sS'Mare'
p9761
g4
((lp9762
S'scaffold3966_cov89'
p9763
aS'scaffold33587_cov72'
p9764
atp9765
Rp9766
sS'W1'
p9767
g4
((lp9768
S'scaffold91295_cov60'
p9769
aS'scaffold5348_cov143'
p9770
atp9771
Rp9772
ssS'OG0001004'
p9773
(dp9774
S'VW4'
p9775
g4
((lp9776
g2209
ag2321
atp9777
Rp9778
sS'Mare'
p9779
g4
((lp9780
S'scaffold14496_cov57'
p9781
ag2215
atp9782
Rp9783
sS'W1'
p9784
g4
((lp9785
S'scaffold6379_cov64'
p9786
aS'scaffold6378_cov134'
p9787
atp9788
Rp9789
ssS'OG0001007'
p9790
(dp9791
S'VW4'
p9792
g4
((lp9793
S'scaffold7758_cov177'
p9794
aS'scaffold34054_cov214'
p9795
atp9796
Rp9797
sS'Mare'
p9798
g4
((lp9799
S'scaffold159_cov87'
p9800
aS'scaffold19164_cov60'
p9801
atp9802
Rp9803
sS'W1'
p9804
g4
((lp9805
g5133
aS'scaffold89446_cov79'
p9806
atp9807
Rp9808
ssS'OG0001008'
p9809
(dp9810
S'VW4'
p9811
g4
((lp9812
S'scaffold10585_cov239'
p9813
aS'scaffold14002_cov262'
p9814
atp9815
Rp9816
sS'Mare'
p9817
g4
((lp9818
S'scaffold161_cov85'
p9819
aS'scaffold6173_cov81'
p9820
atp9821
Rp9822
sS'W1'
p9823
g4
((lp9824
S'scaffold23731_cov68'
p9825
aS'scaffold15386_cov80'
p9826
atp9827
Rp9828
ssS'OG0001979'
p9829
(dp9830
S'VW4'
p9831
g4
((lp9832
g8684
aS'scaffold5198_cov234'
p9833
atp9834
Rp9835
sS'Mare'
p9836
g4
((lp9837
S'scaffold16447_cov76'
p9838
ag8691
atp9839
Rp9840
sS'W1'
p9841
g4
((lp9842
S'scaffold1637_cov151'
p9843
aS'scaffold20670_cov68'
p9844
atp9845
Rp9846
ssS'OG0002621'
p9847
(dp9848
S'VW4'
p9849
g4
((lp9850
S'scaffold10712_cov160'
p9851
aS'scaffold7000_cov165'
p9852
atp9853
Rp9854
sS'Mare'
p9855
g4
((lp9856
S'scaffold10762_cov74'
p9857
atp9858
Rp9859
sS'W1'
p9860
g4
((lp9861
S'scaffold9990_cov80'
p9862
aS'scaffold1102_cov103'
p9863
atp9864
Rp9865
ssS'OG0002625'
p9866
(dp9867
S'VW4'
p9868
g4
((lp9869
S'scaffold4391_cov207'
p9870
aS'scaffold9452_cov208'
p9871
atp9872
Rp9873
sS'Mare'
p9874
g4
((lp9875
S'scaffold33183_cov87'
p9876
aS'scaffold10858_cov54'
p9877
atp9878
Rp9879
sS'W1'
p9880
g4
((lp9881
S'scaffold3745_cov115'
p9882
aS'scaffold7430_cov66'
p9883
atp9884
Rp9885
ssS'OG0002627'
p9886
(dp9887
S'VW4'
p9888
g4
((lp9889
S'scaffold1655_cov200'
p9890
aS'scaffold205_cov231'
p9891
atp9892
Rp9893
sS'Mare'
p9894
g4
((lp9895
S'scaffold10894_cov83'
p9896
aS'scaffold33155_cov116'
p9897
atp9898
Rp9899
sS'W1'
p9900
g4
((lp9901
S'scaffold3586_cov72'
p9902
aS'scaffold8966_cov109'
p9903
atp9904
Rp9905
ssS'OG0001643'
p9906
(dp9907
S'VW4'
p9908
g4
((lp9909
S'scaffold44320_cov326'
p9910
aS'scaffold14683_cov158'
p9911
atp9912
Rp9913
sS'Mare'
p9914
g4
((lp9915
S'scaffold20366_cov68'
p9916
atp9917
Rp9918
sS'W1'
p9919
g4
((lp9920
S'scaffold5034_cov140'
p9921
aS'scaffold7259_cov121'
p9922
atp9923
Rp9924
ssS'OG0002628'
p9925
(dp9926
S'VW4'
p9927
g4
((lp9928
S'scaffold12929_cov154'
p9929
aS'scaffold22557_cov165'
p9930
atp9931
Rp9932
sS'Mare'
p9933
g4
((lp9934
S'scaffold10929_cov72'
p9935
atp9936
Rp9937
sS'W1'
p9938
g4
((lp9939
g1637
aS'scaffold14185_cov75'
p9940
atp9941
Rp9942
ssS'OG0002786'
p9943
(dp9944
S'VW4'
p9945
g4
((lp9946
S'scaffold34137_cov246'
p9947
aS'scaffold3440_cov274'
p9948
atp9949
Rp9950
sS'Mare'
p9951
g4
((lp9952
S'scaffold21127_cov131'
p9953
atp9954
Rp9955
sS'W1'
p9956
g4
((lp9957
S'scaffold27689_cov138'
p9958
aS'scaffold120_cov99'
p9959
atp9960
Rp9961
ssS'OG0002780'
p9962
(dp9963
S'VW4'
p9964
g4
((lp9965
S'scaffold5697_cov266'
p9966
aS'scaffold3738_cov179'
p9967
atp9968
Rp9969
sS'Mare'
p9970
g4
((lp9971
S'scaffold38360_cov207'
p9972
aS'scaffold20375_cov54'
p9973
atp9974
Rp9975
sS'W1'
p9976
g4
((lp9977
S'scaffold22793_cov63'
p9978
aS'scaffold22791_cov67'
p9979
atp9980
Rp9981
ssS'OG0002327'
p9982
(dp9983
S'VW4'
p9984
g4
((lp9985
S'scaffold6911_cov202'
p9986
aS'scaffold25113_cov199'
p9987
atp9988
Rp9989
sS'Mare'
p9990
g4
((lp9991
S'scaffold9125_cov84'
p9992
aS'scaffold4874_cov72'
p9993
atp9994
Rp9995
sS'W1'
p9996
g4
((lp9997
S'scaffold14003_cov64'
p9998
aS'scaffold5399_cov135'
p9999
atp10000
Rp10001
ssS'OG0001726'
p10002
(dp10003
S'VW4'
p10004
g4
((lp10005
S'scaffold34780_cov223'
p10006
aS'scaffold2666_cov188'
p10007
atp10008
Rp10009
sS'Mare'
p10010
g4
((lp10011
S'scaffold20873_cov79'
p10012
aS'scaffold85_cov56'
p10013
atp10014
Rp10015
sS'W1'
p10016
g4
((lp10017
S'scaffold3630_cov66'
p10018
ag8048
atp10019
Rp10020
ssS'OG0001219'
p10021
(dp10022
S'VW4'
p10023
g4
((lp10024
S'scaffold34455_cov418'
p10025
aS'scaffold34968_cov196'
p10026
atp10027
Rp10028
sS'Mare'
p10029
g4
((lp10030
S'scaffold9707_cov86'
p10031
aS'scaffold2016_cov55'
p10032
atp10033
Rp10034
sS'W1'
p10035
g4
((lp10036
S'scaffold114629_cov63'
p10037
aS'scaffold15395_cov68'
p10038
atp10039
Rp10040
ssS'OG0002019'
p10041
(dp10042
S'VW4'
p10043
g4
((lp10044
S'scaffold150_cov215'
p10045
aS'scaffold146_cov214'
p10046
atp10047
Rp10048
sS'Mare'
p10049
g4
((lp10050
S'scaffold1810_cov50'
p10051
atp10052
Rp10053
sS'W1'
p10054
g4
((lp10055
S'scaffold5320_cov68'
p10056
aS'scaffold10305_cov139'
p10057
atp10058
Rp10059
ssS'OG0001264'
p10060
(dp10061
S'VW4'
p10062
g4
((lp10063
S'scaffold636_cov192'
p10064
aS'scaffold2751_cov176'
p10065
atp10066
Rp10067
sS'Mare'
p10068
g4
((lp10069
S'scaffold9591_cov85'
p10070
aS'scaffold2541_cov64'
p10071
atp10072
Rp10073
sS'W1'
p10074
g4
((lp10075
S'scaffold12899_cov60'
p10076
aS'scaffold167494_cov111'
p10077
atp10078
Rp10079
ssS'OG0001266'
p10080
(dp10081
S'VW4'
p10082
g4
((lp10083
S'scaffold6319_cov169'
p10084
aS'scaffold2864_cov140'
p10085
atp10086
Rp10087
sS'Mare'
p10088
g4
((lp10089
S'scaffold27216_cov96'
p10090
aS'scaffold2571_cov70'
p10091
atp10092
Rp10093
sS'W1'
p10094
g4
((lp10095
S'scaffold4122_cov62'
p10096
aS'scaffold1435_cov93'
p10097
atp10098
Rp10099
ssS'OG0002438'
p10100
(dp10101
S'VW4'
p10102
g4
((lp10103
S'scaffold4397_cov206'
p10104
aS'scaffold4974_cov194'
p10105
atp10106
Rp10107
sS'Mare'
p10108
g4
((lp10109
S'scaffold6235_cov66'
p10110
atp10111
Rp10112
sS'W1'
p10113
g4
((lp10114
S'scaffold8786_cov71'
p10115
aS'scaffold40102_cov66'
p10116
atp10117
Rp10118
ssS'OG0001263'
p10119
(dp10120
S'VW4'
p10121
g4
((lp10122
S'scaffold6575_cov192'
p10123
aS'scaffold17188_cov256'
p10124
atp10125
Rp10126
sS'Mare'
p10127
g4
((lp10128
S'scaffold4287_cov88'
p10129
ag9495
atp10130
Rp10131
sS'W1'
p10132
g4
((lp10133
S'scaffold19827_cov125'
p10134
ag9501
atp10135
Rp10136
ssS'OG0002435'
p10137
(dp10138
S'VW4'
p10139
g4
((lp10140
S'scaffold3674_cov258'
p10141
ag512
atp10142
Rp10143
sS'Mare'
p10144
g4
((lp10145
S'scaffold6201_cov79'
p10146
ag518
atp10147
Rp10148
sS'W1'
p10149
g4
((lp10150
g523
ag524
atp10151
Rp10152
ssS'OG0001502'
p10153
(dp10154
S'VW4'
p10155
g4
((lp10156
S'scaffold3960_cov215'
p10157
ag5122
atp10158
Rp10159
sS'Mare'
p10160
g4
((lp10161
S'scaffold6757_cov85'
p10162
ag5127
atp10163
Rp10164
sS'W1'
p10165
g4
((lp10166
g5133
aS'scaffold16294_cov110'
p10167
atp10168
Rp10169
ssS'OG0002535'
p10170
(dp10171
S'VW4'
p10172
g4
((lp10173
S'scaffold4516_cov167'
p10174
aS'scaffold8270_cov370'
p10175
atp10176
Rp10177
sS'Mare'
p10178
g4
((lp10179
S'scaffold8348_cov53'
p10180
aS'scaffold13053_cov58'
p10181
atp10182
Rp10183
sS'W1'
p10184
g4
((lp10185
S'scaffold6806_cov92'
p10186
atp10187
Rp10188
ssS'OG0001460'
p10189
(dp10190
S'VW4'
p10191
g4
((lp10192
S'scaffold5073_cov227'
p10193
aS'scaffold3911_cov285'
p10194
atp10195
Rp10196
sS'Mare'
p10197
g4
((lp10198
S'scaffold8765_cov54'
p10199
aS'scaffold5841_cov52'
p10200
atp10201
Rp10202
sS'W1'
p10203
g4
((lp10204
S'scaffold25513_cov91'
p10205
aS'scaffold92575_cov70'
p10206
atp10207
Rp10208
ssS'OG0002533'
p10209
(dp10210
S'VW4'
p10211
g4
((lp10212
S'scaffold34763_cov140'
p10213
aS'scaffold1234_cov222'
p10214
atp10215
Rp10216
sS'Mare'
p10217
g4
((lp10218
S'scaffold8329_cov54'
p10219
aS'scaffold12434_cov50'
p10220
atp10221
Rp10222
sS'W1'
p10223
g4
((lp10224
S'scaffold7717_cov65'
p10225
aS'scaffold29230_cov135'
p10226
atp10227
Rp10228
ssS'OG0002377'
p10229
(dp10230
S'VW4'
p10231
g4
((lp10232
S'scaffold5237_cov236'
p10233
atp10234
Rp10235
sS'Mare'
p10236
g4
((lp10237
S'scaffold5408_cov58'
p10238
aS'scaffold6349_cov61'
p10239
atp10240
Rp10241
sS'W1'
p10242
g4
((lp10243
S'scaffold50325_cov156'
p10244
aS'scaffold585_cov97'
p10245
atp10246
Rp10247
ssS'OG0002539'
p10248
(dp10249
S'VW4'
p10250
g4
((lp10251
S'scaffold14082_cov171'
p10252
atp10253
Rp10254
sS'Mare'
p10255
g4
((lp10256
S'scaffold8717_cov87'
p10257
aS'scaffold8384_cov61'
p10258
atp10259
Rp10260
sS'W1'
p10261
g4
((lp10262
S'scaffold87033_cov71'
p10263
aS'scaffold13616_cov120'
p10264
atp10265
Rp10266
ssS'OG0000983'
p10267
(dp10268
S'VW4'
p10269
g4
((lp10270
S'scaffold4758_cov346'
p10271
ag7980
atp10272
Rp10273
sS'Mare'
p10274
g4
((lp10275
S'scaffold14_cov100'
p10276
aS'scaffold8499_cov57'
p10277
atp10278
Rp10279
sS'W1'
p10280
g4
((lp10281
g759
ag760
atp10282
Rp10283
ssS'OG0002089'
p10284
(dp10285
S'VW4'
p10286
g4
((lp10287
S'scaffold12391_cov201'
p10288
aS'scaffold114_cov204'
p10289
atp10290
Rp10291
sS'Mare'
p10292
g4
((lp10293
S'scaffold2388_cov79'
p10294
aS'scaffold3457_cov55'
p10295
atp10296
Rp10297
sS'W1'
p10298
g4
((lp10299
S'scaffold46295_cov125'
p10300
aS'scaffold4678_cov116'
p10301
atp10302
Rp10303
ssS'OG0002081'
p10304
(dp10305
S'VW4'
p10306
g4
((lp10307
S'scaffold3194_cov316'
p10308
aS'scaffold12171_cov160'
p10309
atp10310
Rp10311
sS'Mare'
p10312
g4
((lp10313
S'scaffold12169_cov151'
p10314
aS'scaffold2317_cov61'
p10315
atp10316
Rp10317
sS'W1'
p10318
g4
((lp10319
S'scaffold3719_cov67'
p10320
aS'scaffold3722_cov135'
p10321
atp10322
Rp10323
ssS'OG0002082'
p10324
(dp10325
S'VW4'
p10326
g4
((lp10327
g10308
aS'scaffold3195_cov270'
p10328
atp10329
Rp10330
sS'Mare'
p10331
g4
((lp10332
g10315
aS'scaffold40182_cov165'
p10333
atp10334
Rp10335
sS'W1'
p10336
g4
((lp10337
S'scaffold10858_cov149'
p10338
aS'scaffold10857_cov70'
p10339
atp10340
Rp10341
ssS'OG0002085'
p10342
(dp10343
S'VW4'
p10344
g4
((lp10345
S'scaffold4448_cov182'
p10346
aS'scaffold1356_cov245'
p10347
atp10348
Rp10349
sS'Mare'
p10350
g4
((lp10351
S'scaffold2353_cov73'
p10352
aS'scaffold11446_cov63'
p10353
atp10354
Rp10355
sS'W1'
p10356
g4
((lp10357
S'scaffold159606_cov60'
p10358
atp10359
Rp10360
ssS'OG0002086'
p10361
(dp10362
S'VW4'
p10363
g4
((lp10364
g5141
aS'scaffold52004_cov305'
p10365
atp10366
Rp10367
sS'Mare'
p10368
g4
((lp10369
S'scaffold2355_cov59'
p10370
ag5147
atp10371
Rp10372
sS'W1'
p10373
g4
((lp10374
g5152
aS'scaffold56728_cov119'
p10375
atp10376
Rp10377
ssS'OG0002579'
p10378
(dp10379
S'VW4'
p10380
g4
((lp10381
g5794
aS'scaffold34181_cov257'
p10382
atp10383
Rp10384
sS'Mare'
p10385
g4
((lp10386
S'scaffold9543_cov100'
p10387
aS'scaffold11533_cov113'
p10388
atp10389
Rp10390
sS'W1'
p10391
g4
((lp10392
g5806
aS'scaffold12706_cov81'
p10393
atp10394
Rp10395
ssS'OG0002818'
p10396
(dp10397
S'VW4'
p10398
g4
((lp10399
S'scaffold36055_cov189'
p10400
aS'scaffold10411_cov164'
p10401
atp10402
Rp10403
sS'Mare'
p10404
g4
((lp10405
S'scaffold54186_cov103'
p10406
aS'scaffold28599_cov95'
p10407
atp10408
Rp10409
sS'W1'
p10410
g4
((lp10411
S'scaffold22010_cov97'
p10412
aS'scaffold401_cov67'
p10413
atp10414
Rp10415
ssS'OG0002819'
p10416
(dp10417
S'VW4'
p10418
g4
((lp10419
S'scaffold11990_cov204'
p10420
aS'scaffold15595_cov207'
p10421
atp10422
Rp10423
sS'Mare'
p10424
g4
((lp10425
S'scaffold28625_cov54'
p10426
aS'scaffold51283_cov119'
p10427
atp10428
Rp10429
sS'W1'
p10430
g4
((lp10431
S'scaffold73411_cov102'
p10432
aS'scaffold25947_cov73'
p10433
atp10434
Rp10435
ssS'OG0001945'
p10436
(dp10437
S'VW4'
p10438
g4
((lp10439
S'scaffold3693_cov252'
p10440
aS'scaffold35708_cov182'
p10441
atp10442
Rp10443
sS'Mare'
p10444
g4
((lp10445
S'scaffold33702_cov55'
p10446
aS'scaffold1281_cov80'
p10447
atp10448
Rp10449
sS'W1'
p10450
g4
((lp10451
S'scaffold9838_cov70'
p10452
aS'scaffold27512_cov124'
p10453
atp10454
Rp10455
ssS'OG0001946'
p10456
(dp10457
S'VW4'
p10458
g4
((lp10459
S'scaffold7135_cov385'
p10460
aS'scaffold2547_cov148'
p10461
atp10462
Rp10463
sS'Mare'
p10464
g4
((lp10465
S'scaffold1778_cov83'
p10466
aS'scaffold1307_cov71'
p10467
atp10468
Rp10469
sS'W1'
p10470
g4
((lp10471
S'scaffold18411_cov77'
p10472
aS'scaffold3448_cov89'
p10473
atp10474
Rp10475
ssS'OG0002816'
p10476
(dp10477
S'VW4'
p10478
g4
((lp10479
S'scaffold12793_cov183'
p10480
aS'scaffold12226_cov185'
p10481
atp10482
Rp10483
sS'Mare'
p10484
g4
((lp10485
S'scaffold32065_cov59'
p10486
aS'scaffold28048_cov54'
p10487
atp10488
Rp10489
sS'W1'
p10490
g4
((lp10491
S'scaffold63014_cov63'
p10492
aS'scaffold35689_cov78'
p10493
atp10494
Rp10495
ssS'OG0001940'
p10496
(dp10497
S'VW4'
p10498
g4
((lp10499
g7980
aS'scaffold21_cov335'
p10500
atp10501
Rp10502
sS'Mare'
p10503
g4
((lp10504
S'scaffold1231_cov53'
p10505
aS'scaffold15012_cov64'
p10506
atp10507
Rp10508
sS'W1'
p10509
g4
((lp10510
S'scaffold10298_cov88'
p10511
aS'scaffold12318_cov65'
p10512
atp10513
Rp10514
ssS'OG0002815'
p10515
(dp10516
S'VW4'
p10517
g4
((lp10518
S'scaffold20444_cov436'
p10519
aS'scaffold13149_cov173'
p10520
atp10521
Rp10522
sS'Mare'
p10523
g4
((lp10524
S'scaffold58002_cov168'
p10525
aS'scaffold27769_cov112'
p10526
atp10527
Rp10528
sS'W1'
p10529
g4
((lp10530
S'scaffold6615_cov72'
p10531
ag740
atp10532
Rp10533
ssS'OG0001822'
p10534
(dp10535
S'VW4'
p10536
g4
((lp10537
S'scaffold3060_cov247'
p10538
aS'scaffold3487_cov182'
p10539
atp10540
Rp10541
sS'Mare'
p10542
g4
((lp10543
S'scaffold11940_cov99'
p10544
aS'scaffold607_cov59'
p10545
atp10546
Rp10547
sS'W1'
p10548
g4
((lp10549
S'scaffold28224_cov147'
p10550
aS'scaffold166774_cov71'
p10551
atp10552
Rp10553
ssS'OG0001823'
p10554
(dp10555
S'VW4'
p10556
g4
((lp10557
g4985
ag4986
atp10558
Rp10559
sS'Mare'
p10560
g4
((lp10561
g4991
aS'scaffold3051_cov52'
p10562
atp10563
Rp10564
sS'W1'
p10565
g4
((lp10566
S'scaffold27148_cov73'
p10567
ag4998
atp10568
Rp10569
ssS'OG0001820'
p10570
(dp10571
S'VW4'
p10572
g4
((lp10573
S'scaffold1386_cov242'
p10574
atp10575
Rp10576
sS'Mare'
p10577
g4
((lp10578
S'scaffold589_cov44'
p10579
aS'scaffold3625_cov51'
p10580
atp10581
Rp10582
sS'W1'
p10583
g4
((lp10584
S'scaffold31301_cov62'
p10585
aS'scaffold5151_cov90'
p10586
atp10587
Rp10588
ssS'OG0002288'
p10589
(dp10590
S'VW4'
p10591
g4
((lp10592
S'scaffold3227_cov180'
p10593
aS'scaffold3367_cov255'
p10594
atp10595
Rp10596
sS'Mare'
p10597
g4
((lp10598
S'scaffold4278_cov90'
p10599
aS'scaffold12774_cov55'
p10600
atp10601
Rp10602
sS'W1'
p10603
g4
((lp10604
S'scaffold31627_cov123'
p10605
aS'scaffold1614_cov71'
p10606
atp10607
Rp10608
ssS'OG0001826'
p10609
(dp10610
S'VW4'
p10611
g4
((lp10612
S'scaffold33895_cov180'
p10613
aS'scaffold4790_cov191'
p10614
atp10615
Rp10616
sS'Mare'
p10617
g4
((lp10618
S'scaffold33884_cov75'
p10619
aS'scaffold645_cov79'
p10620
atp10621
Rp10622
sS'W1'
p10623
g4
((lp10624
S'scaffold49078_cov128'
p10625
aS'scaffold54587_cov60'
p10626
atp10627
Rp10628
ssS'OG0001829'
p10629
(dp10630
S'VW4'
p10631
g4
((lp10632
S'scaffold4734_cov186'
p10633
aS'scaffold10520_cov256'
p10634
atp10635
Rp10636
sS'Mare'
p10637
g4
((lp10638
S'scaffold663_cov79'
p10639
aS'scaffold2057_cov66'
p10640
atp10641
Rp10642
sS'W1'
p10643
g4
((lp10644
S'scaffold167503_cov98'
p10645
aS'scaffold7473_cov63'
p10646
atp10647
Rp10648
ssS'OG0002320'
p10649
(dp10650
S'VW4'
p10651
g4
((lp10652
S'scaffold8424_cov338'
p10653
aS'scaffold6022_cov150'
p10654
atp10655
Rp10656
sS'Mare'
p10657
g4
((lp10658
S'scaffold4763_cov78'
p10659
aS'scaffold7160_cov71'
p10660
atp10661
Rp10662
sS'W1'
p10663
g4
((lp10664
S'scaffold3951_cov67'
p10665
atp10666
Rp10667
ssS'OG0002382'
p10668
(dp10669
S'VW4'
p10670
g4
((lp10671
S'scaffold4560_cov350'
p10672
aS'scaffold2640_cov197'
p10673
atp10674
Rp10675
sS'Mare'
p10676
g4
((lp10677
S'scaffold10112_cov50'
p10678
aS'scaffold5491_cov58'
p10679
atp10680
Rp10681
sS'W1'
p10682
g4
((lp10683
S'scaffold21633_cov84'
p10684
aS'scaffold4019_cov99'
p10685
atp10686
Rp10687
ssS'OG0001212'
p10688
(dp10689
S'VW4'
p10690
g4
((lp10691
S'scaffold8181_cov267'
p10692
aS'scaffold4564_cov155'
p10693
atp10694
Rp10695
sS'Mare'
p10696
g4
((lp10697
g6483
aS'scaffold2587_cov45'
p10698
atp10699
Rp10700
sS'W1'
p10701
g4
((lp10702
g6489
aS'scaffold10670_cov88'
p10703
atp10704
Rp10705
ssS'OG0001216'
p10706
(dp10707
S'VW4'
p10708
g4
((lp10709
g3424
atp10710
Rp10711
sS'Mare'
p10712
g4
((lp10713
g3430
aS'scaffold36790_cov68'
p10714
atp10715
Rp10716
sS'W1'
p10717
g4
((lp10718
S'scaffold306_cov104'
p10719
ag3436
atp10720
Rp10721
ssS'OG0002328'
p10722
(dp10723
S'VW4'
p10724
g4
((lp10725
g9986
aS'scaffold4867_cov158'
p10726
atp10727
Rp10728
sS'Mare'
p10729
g4
((lp10730
S'scaffold7806_cov72'
p10731
ag9993
atp10732
Rp10733
sS'W1'
p10734
g4
((lp10735
S'scaffold8409_cov62'
p10736
ag9999
atp10737
Rp10738
ssS'OG0002443'
p10739
(dp10740
S'VW4'
p10741
g4
((lp10742
S'scaffold6964_cov214'
p10743
ag9890
atp10744
Rp10745
sS'Mare'
p10746
g4
((lp10747
S'scaffold6384_cov82'
p10748
ag9897
atp10749
Rp10750
sS'W1'
p10751
g4
((lp10752
S'scaffold6620_cov103'
p10753
aS'scaffold7907_cov67'
p10754
atp10755
Rp10756
ssS'OG0002444'
p10757
(dp10758
S'VW4'
p10759
g4
((lp10760
S'scaffold1520_cov232'
p10761
aS'scaffold5829_cov226'
p10762
atp10763
Rp10764
sS'Mare'
p10765
g4
((lp10766
S'scaffold23544_cov102'
p10767
aS'scaffold6429_cov65'
p10768
atp10769
Rp10770
sS'W1'
p10771
g4
((lp10772
g6239
ag6240
atp10773
Rp10774
ssS'OG0002447'
p10775
(dp10776
S'VW4'
p10777
g4
((lp10778
S'scaffold6112_cov148'
p10779
aS'scaffold19797_cov164'
p10780
atp10781
Rp10782
sS'Mare'
p10783
g4
((lp10784
g4647
aS'scaffold16314_cov97'
p10785
atp10786
Rp10787
sS'W1'
p10788
g4
((lp10789
g4652
aS'scaffold8983_cov110'
p10790
atp10791
Rp10792
ssS'OG0002446'
p10793
(dp10794
S'VW4'
p10795
g4
((lp10796
S'scaffold8360_cov206'
p10797
aS'scaffold499_cov259'
p10798
atp10799
Rp10800
sS'Mare'
p10801
g4
((lp10802
S'scaffold36776_cov56'
p10803
aS'scaffold6457_cov56'
p10804
atp10805
Rp10806
sS'W1'
p10807
g4
((lp10808
S'scaffold57805_cov71'
p10809
aS'scaffold166809_cov123'
p10810
atp10811
Rp10812
ssS'OG0002478'
p10813
(dp10814
S'VW4'
p10815
g4
((lp10816
S'scaffold5358_cov160'
p10817
aS'scaffold1828_cov217'
p10818
atp10819
Rp10820
sS'Mare'
p10821
g4
((lp10822
S'scaffold42461_cov100'
p10823
aS'scaffold7156_cov63'
p10824
atp10825
Rp10826
sS'W1'
p10827
g4
((lp10828
S'scaffold1461_cov134'
p10829
aS'scaffold13020_cov66'
p10830
atp10831
Rp10832
ssS'OG0002885'
p10833
(dp10834
S'VW4'
p10835
g4
((lp10836
S'scaffold589_cov183'
p10837
aS'scaffold8505_cov269'
p10838
atp10839
Rp10840
sS'Mare'
p10841
g4
((lp10842
S'scaffold49869_cov103'
p10843
atp10844
Rp10845
sS'W1'
p10846
g4
((lp10847
S'scaffold28409_cov79'
p10848
ag2521
atp10849
Rp10850
ssS'OG0002888'
p10851
(dp10852
S'VW4'
p10853
g4
((lp10854
S'scaffold8652_cov194'
p10855
aS'scaffold5478_cov267'
p10856
atp10857
Rp10858
sS'Mare'
p10859
g4
((lp10860
S'scaffold53704_cov107'
p10861
atp10862
Rp10863
sS'W1'
p10864
g4
((lp10865
S'scaffold20571_cov70'
p10866
aS'scaffold3888_cov146'
p10867
atp10868
Rp10869
ssS'OG0001952'
p10870
(dp10871
S'VW4'
p10872
g4
((lp10873
S'scaffold35222_cov195'
p10874
aS'scaffold17142_cov215'
p10875
atp10876
Rp10877
sS'Mare'
p10878
g4
((lp10879
S'scaffold1343_cov77'
p10880
aS'scaffold34185_cov69'
p10881
atp10882
Rp10883
sS'W1'
p10884
g4
((lp10885
S'scaffold33079_cov127'
p10886
aS'scaffold21398_cov73'
p10887
atp10888
Rp10889
ss.