(dp0
S'VW4'
p1
c__builtin__
set
p2
((lp3
S'scaffold2688_cov189~scaffold4386_cov298'
p4
aS'scaffold3626_cov240~scaffold4811_cov246'
p5
aS'scaffold5383_cov228~scaffold6260_cov182'
p6
aS'scaffold2503_cov151~scaffold3984_cov353'
p7
aS'scaffold3363_cov220~scaffold4931_cov207'
p8
aS'scaffold35469_cov250~scaffold5757_cov278'
p9
aS'scaffold11220_cov221~scaffold520_cov225'
p10
aS'scaffold4564_cov155~scaffold8181_cov267'
p11
aS'scaffold11291_cov250~scaffold3627_cov265'
p12
aS'scaffold34876_cov153~scaffold6784_cov373'
p13
aS'scaffold1032_cov163~scaffold8707_cov275'
p14
aS'scaffold4886_cov351~scaffold987_cov149'
p15
aS'scaffold421_cov166~scaffold5780_cov292'
p16
aS'scaffold1708_cov257~scaffold2991_cov233'
p17
aS'scaffold4798_cov206~scaffold8289_cov180'
p18
aS'scaffold47935_cov305~scaffold774_cov229'
p19
aS'scaffold467_cov263~scaffold7247_cov286'
p20
aS'scaffold1469_cov209~scaffold3829_cov235'
p21
aS'scaffold3994_cov307~scaffold78_cov298'
p22
aS'scaffold14087_cov206~scaffold4385_cov239'
p23
aS'scaffold19250_cov205~scaffold8056_cov196'
p24
aS'scaffold18648_cov147~scaffold4480_cov293'
p25
aS'scaffold126_cov233~scaffold34997_cov218'
p26
aS'scaffold499_cov259~scaffold8360_cov206'
p27
aS'scaffold35708_cov182~scaffold3693_cov252'
p28
aS'scaffold35009_cov245~scaffold91_cov238'
p29
aS'scaffold11346_cov240~scaffold7912_cov254'
p30
aS'scaffold1511_cov206~scaffold1767_cov191'
p31
aS'scaffold2519_cov239~scaffold33999_cov278'
p32
aS'scaffold10091_cov218~scaffold8128_cov148'
p33
aS'scaffold2747_cov252~scaffold35860_cov272'
p34
aS'scaffold1766_cov198~scaffold607_cov179'
p35
aS'scaffold10294_cov190~scaffold40391_cov315'
p36
aS'scaffold5198_cov234~scaffold709_cov247'
p37
aS'scaffold2099_cov316~scaffold52810_cov589'
p38
aS'scaffold13906_cov172~scaffold6504_cov303'
p39
aS'scaffold275_cov215~scaffold387_cov149'
p40
aS'scaffold1607_cov239~scaffold35912_cov193'
p41
aS'scaffold15165_cov249~scaffold35835_cov299'
p42
aS'scaffold14007_cov270~scaffold181_cov231'
p43
aS'scaffold51278_cov326~scaffold965_cov205'
p44
aS'scaffold13730_cov260~scaffold53022_cov294'
p45
aS'scaffold2338_cov238~scaffold2516_cov204'
p46
aS'scaffold3089_cov153~scaffold6588_cov297'
p47
aS'scaffold11037_cov149~scaffold11638_cov181'
p48
aS'scaffold3738_cov179~scaffold5697_cov266'
p49
aS'scaffold12689_cov256~scaffold7460_cov152'
p50
aS'scaffold2175_cov210~scaffold3666_cov227'
p51
aS'scaffold2640_cov197~scaffold4560_cov350'
p52
aS'scaffold14139_cov184~scaffold34901_cov222'
p53
aS'scaffold1435_cov176~scaffold7695_cov182'
p54
aS'scaffold5724_cov219~scaffold8613_cov250'
p55
aS'scaffold1876_cov202~scaffold6223_cov242'
p56
aS'scaffold14855_cov234~scaffold34047_cov174'
p57
aS'scaffold2702_cov266~scaffold432_cov233'
p58
aS'scaffold11028_cov263~scaffold3310_cov167'
p59
aS'scaffold343_cov157~scaffold5897_cov436'
p60
aS'scaffold2547_cov148~scaffold7135_cov385'
p61
aS'scaffold36255_cov269~scaffold42378_cov315'
p62
aS'scaffold5373_cov204~scaffold6283_cov179'
p63
aS'scaffold2237_cov233~scaffold34835_cov215'
p64
aS'scaffold10188_cov228~scaffold1228_cov289'
p65
aS'scaffold2751_cov176~scaffold636_cov192'
p66
aS'scaffold1228_cov289~scaffold18802_cov239'
p67
aS'scaffold34878_cov239~scaffold6446_cov191'
p68
aS'scaffold6205_cov227~scaffold858_cov242'
p69
aS'scaffold34894_cov238~scaffold424_cov173'
p70
aS'scaffold2468_cov231~scaffold4243_cov244'
p71
aS'scaffold2531_cov161~scaffold3883_cov286'
p72
aS'scaffold19485_cov191~scaffold19486_cov306'
p73
aS'scaffold13299_cov272~scaffold13790_cov193'
p74
aS'scaffold2120_cov226~scaffold5979_cov159'
p75
aS'scaffold1792_cov186~scaffold30587_cov247'
p76
aS'scaffold3511_cov209~scaffold383_cov198'
p77
aS'scaffold1747_cov293~scaffold34100_cov244'
p78
aS'scaffold1599_cov246~scaffold34016_cov157'
p79
aS'scaffold4404_cov204~scaffold53165_cov284'
p80
aS'scaffold16908_cov201~scaffold4051_cov206'
p81
aS'scaffold27882_cov209~scaffold36175_cov226'
p82
aS'scaffold15598_cov210~scaffold5017_cov219'
p83
aS'scaffold2656_cov192~scaffold28966_cov241'
p84
aS'scaffold11791_cov336~scaffold3120_cov189'
p85
aS'scaffold11428_cov295~scaffold42512_cov294'
p86
aS'scaffold1893_cov262~scaffold35334_cov163'
p87
aS'scaffold2157_cov220~scaffold5589_cov166'
p88
aS'scaffold10585_cov239~scaffold14002_cov262'
p89
aS'scaffold7588_cov337~scaffold9757_cov155'
p90
aS'scaffold35943_cov295~scaffold7990_cov217'
p91
aS'scaffold3083_cov378~scaffold34652_cov210'
p92
aS'scaffold1019_cov183~scaffold1203_cov294'
p93
aS'scaffold1045_cov153~scaffold4758_cov346'
p94
aS'scaffold3813_cov275~scaffold6764_cov231'
p95
aS'scaffold355_cov233~scaffold5164_cov209'
p96
aS'scaffold10417_cov197~scaffold4396_cov166'
p97
aS'scaffold12108_cov159~scaffold3883_cov286'
p98
aS'scaffold16317_cov210~scaffold6713_cov225'
p99
aS'scaffold11324_cov225~scaffold9508_cov196'
p100
aS'scaffold24073_cov287~scaffold36462_cov152'
p101
aS'scaffold1404_cov156~scaffold5051_cov291'
p102
aS'scaffold3249_cov179~scaffold3476_cov276'
p103
aS'scaffold299_cov290~scaffold4971_cov235'
p104
aS'scaffold23838_cov109~scaffold34756_cov262'
p105
aS'scaffold276_cov267~scaffold6071_cov156'
p106
aS'scaffold343_cov157~scaffold38974_cov463'
p107
aS'scaffold14255_cov253~scaffold2270_cov160'
p108
aS'scaffold2105_cov193~scaffold4704_cov190'
p109
aS'scaffold19913_cov154~scaffold35508_cov210'
p110
aS'scaffold34240_cov291~scaffold43247_cov305'
p111
aS'scaffold6415_cov250~scaffold6724_cov185'
p112
aS'scaffold1746_cov212~scaffold743_cov228'
p113
aS'scaffold34969_cov237~scaffold5373_cov204'
p114
aS'scaffold22860_cov185~scaffold6721_cov174'
p115
aS'scaffold1871_cov212~scaffold3028_cov204'
p116
aS'scaffold4813_cov177~scaffold9334_cov225'
p117
aS'scaffold2155_cov181~scaffold54209_cov305'
p118
aS'scaffold12582_cov223~scaffold3805_cov206'
p119
aS'scaffold625_cov187~scaffold8957_cov170'
p120
aS'scaffold193_cov232~scaffold51921_cov294'
p121
aS'scaffold1302_cov140~scaffold622_cov424'
p122
aS'scaffold3060_cov247~scaffold3487_cov182'
p123
aS'scaffold1045_cov153~scaffold21_cov335'
p124
aS'scaffold2666_cov188~scaffold34780_cov223'
p125
aS'scaffold1828_cov217~scaffold5358_cov160'
p126
aS'scaffold36286_cov261~scaffold8587_cov157'
p127
aS'scaffold5178_cov237~scaffold6699_cov179'
p128
aS'scaffold3911_cov285~scaffold5073_cov227'
p129
aS'scaffold34141_cov184~scaffold6166_cov218'
p130
aS'scaffold532_cov244~scaffold534_cov297'
p131
aS'scaffold34572_cov182~scaffold47198_cov463'
p132
aS'scaffold103_cov152~scaffold2985_cov221'
p133
aS'scaffold12226_cov185~scaffold12793_cov183'
p134
aS'scaffold1234_cov222~scaffold34763_cov140'
p135
aS'scaffold14736_cov203~scaffold3901_cov329'
p136
aS'scaffold1488_cov177~scaffold7765_cov174'
p137
aS'scaffold23025_cov260~scaffold34181_cov257'
p138
aS'scaffold34579_cov226~scaffold34935_cov228'
p139
aS'scaffold21112_cov305~scaffold22738_cov154'
p140
aS'scaffold2695_cov200~scaffold34946_cov233'
p141
aS'scaffold4226_cov183~scaffold4227_cov149'
p142
aS'scaffold12541_cov206~scaffold1867_cov235'
p143
aS'scaffold417_cov219~scaffold7776_cov261'
p144
aS'scaffold34652_cov210~scaffold35170_cov289'
p145
aS'scaffold15270_cov133~scaffold65_cov217'
p146
aS'scaffold2334_cov190~scaffold35361_cov259'
p147
aS'scaffold34904_cov288~scaffold5809_cov177'
p148
aS'scaffold3425_cov288~scaffold4454_cov228'
p149
aS'scaffold10654_cov169~scaffold5155_cov170'
p150
aS'scaffold4643_cov233~scaffold7882_cov228'
p151
aS'scaffold20237_cov146~scaffold21569_cov380'
p152
aS'scaffold13538_cov239~scaffold5402_cov179'
p153
aS'scaffold3656_cov164~scaffold7174_cov157'
p154
aS'scaffold6699_cov179~scaffold6948_cov274'
p155
aS'scaffold35739_cov310~scaffold36798_cov326'
p156
aS'scaffold5059_cov217~scaffold7462_cov213'
p157
aS'scaffold5535_cov217~scaffold6808_cov251'
p158
aS'scaffold114_cov204~scaffold12391_cov201'
p159
aS'scaffold13539_cov223~scaffold2054_cov174'
p160
aS'scaffold14835_cov172~scaffold3075_cov156'
p161
aS'scaffold2058_cov324~scaffold6925_cov364'
p162
aS'scaffold1507_cov164~scaffold34923_cov148'
p163
aS'scaffold487_cov180~scaffold8201_cov210'
p164
aS'scaffold2864_cov140~scaffold6319_cov169'
p165
aS'scaffold2297_cov206~scaffold4936_cov217'
p166
aS'scaffold978_cov183~scaffold979_cov154'
p167
aS'scaffold14550_cov277~scaffold1760_cov210'
p168
aS'scaffold40132_cov484~scaffold7849_cov260'
p169
aS'scaffold3342_cov163~scaffold41363_cov389'
p170
aS'scaffold19757_cov388~scaffold1999_cov166'
p171
aS'scaffold3342_cov163~scaffold3845_cov316'
p172
aS'scaffold1058_cov270~scaffold8732_cov275'
p173
aS'scaffold12700_cov150~scaffold3674_cov258'
p174
aS'scaffold2311_cov232~scaffold34052_cov286'
p175
aS'scaffold4391_cov207~scaffold9452_cov208'
p176
aS'scaffold5502_cov291~scaffold7790_cov228'
p177
aS'scaffold1208_cov229~scaffold1508_cov264'
p178
aS'scaffold3310_cov167~scaffold7198_cov282'
p179
aS'scaffold11822_cov236~scaffold34659_cov215'
p180
aS'scaffold29092_cov411~scaffold3158_cov165'
p181
aS'scaffold5287_cov211~scaffold6822_cov208'
p182
aS'scaffold2260_cov157~scaffold23025_cov260'
p183
aS'scaffold6544_cov240~scaffold8921_cov268'
p184
aS'scaffold4981_cov255~scaffold5141_cov149'
p185
aS'scaffold1798_cov239~scaffold35134_cov241'
p186
aS'scaffold1141_cov217~scaffold9518_cov247'
p187
aS'scaffold11665_cov274~scaffold4220_cov209'
p188
aS'scaffold35079_cov288~scaffold35849_cov287'
p189
aS'scaffold4673_cov163~scaffold50233_cov936'
p190
aS'scaffold11990_cov204~scaffold15595_cov207'
p191
aS'scaffold11324_cov225~scaffold52004_cov305'
p192
aS'scaffold11923_cov205~scaffold34893_cov219'
p193
aS'scaffold1512_cov178~scaffold7068_cov172'
p194
aS'scaffold3486_cov238~scaffold9550_cov156'
p195
aS'scaffold13758_cov189~scaffold7307_cov224'
p196
aS'scaffold292_cov203~scaffold4488_cov207'
p197
aS'scaffold11481_cov169~scaffold21751_cov240'
p198
aS'scaffold11838_cov280~scaffold3183_cov273'
p199
aS'scaffold1561_cov271~scaffold1811_cov234'
p200
aS'scaffold2246_cov240~scaffold4949_cov266'
p201
aS'scaffold13712_cov247~scaffold3898_cov165'
p202
aS'scaffold2301_cov209~scaffold3444_cov244'
p203
aS'scaffold1073_cov267~scaffold11614_cov255'
p204
aS'scaffold39652_cov294~scaffold6762_cov212'
p205
aS'scaffold1655_cov200~scaffold205_cov231'
p206
aS'scaffold2082_cov195~scaffold5796_cov292'
p207
aS'scaffold2115_cov223~scaffold4466_cov187'
p208
aS'scaffold4640_cov176~scaffold6032_cov173'
p209
aS'scaffold12547_cov300~scaffold2376_cov165'
p210
aS'scaffold10369_cov160~scaffold13299_cov272'
p211
aS'scaffold288_cov182~scaffold35026_cov310'
p212
aS'scaffold2395_cov243~scaffold3285_cov233'
p213
aS'scaffold6144_cov377~scaffold6254_cov268'
p214
aS'scaffold19797_cov164~scaffold6112_cov148'
p215
aS'scaffold2983_cov165~scaffold3082_cov287'
p216
aS'scaffold22036_cov148~scaffold7912_cov254'
p217
aS'scaffold4631_cov169~scaffold5249_cov206'
p218
aS'scaffold30714_cov262~scaffold40802_cov284'
p219
aS'scaffold1948_cov236~scaffold3201_cov239'
p220
aS'scaffold11329_cov238~scaffold3410_cov258'
p221
aS'scaffold32879_cov158~scaffold6504_cov303'
p222
aS'scaffold1636_cov295~scaffold1637_cov206'
p223
aS'scaffold17188_cov256~scaffold6575_cov192'
p224
aS'scaffold13565_cov263~scaffold25159_cov143'
p225
aS'scaffold1134_cov233~scaffold9743_cov237'
p226
aS'scaffold22748_cov150~scaffold2939_cov159'
p227
aS'scaffold16898_cov268~scaffold42181_cov294'
p228
aS'scaffold662_cov282~scaffold663_cov256'
p229
aS'scaffold2254_cov207~scaffold3033_cov182'
p230
aS'scaffold19777_cov232~scaffold4838_cov202'
p231
aS'scaffold7242_cov266~scaffold7661_cov288'
p232
aS'scaffold12609_cov286~scaffold3427_cov261'
p233
aS'scaffold21079_cov185~scaffold34580_cov232'
p234
aS'scaffold11307_cov229~scaffold6551_cov161'
p235
aS'scaffold34240_cov291~scaffold6227_cov210'
p236
aS'scaffold1520_cov232~scaffold5829_cov226'
p237
aS'scaffold34786_cov228~scaffold7998_cov239'
p238
aS'scaffold2764_cov248~scaffold35902_cov179'
p239
aS'scaffold4870_cov219~scaffold7504_cov226'
p240
aS'scaffold5560_cov257~scaffold8732_cov275'
p241
aS'scaffold2730_cov266~scaffold3415_cov306'
p242
aS'scaffold10988_cov149~scaffold5533_cov227'
p243
aS'scaffold1952_cov217~scaffold6035_cov288'
p244
aS'scaffold2688_cov189~scaffold34993_cov283'
p245
aS'scaffold2015_cov427~scaffold843_cov157'
p246
aS'scaffold16937_cov241~scaffold1798_cov239'
p247
aS'scaffold14801_cov267~scaffold4703_cov265'
p248
aS'scaffold1047_cov391~scaffold1999_cov166'
p249
aS'scaffold2018_cov229~scaffold3622_cov247'
p250
aS'scaffold10308_cov219~scaffold48640_cov294'
p251
aS'scaffold3282_cov224~scaffold35925_cov172'
p252
aS'scaffold15715_cov311~scaffold34618_cov281'
p253
aS'scaffold3895_cov206~scaffold3960_cov215'
p254
aS'scaffold42388_cov305~scaffold5495_cov293'
p255
aS'scaffold2836_cov225~scaffold4074_cov180'
p256
aS'scaffold13021_cov287~scaffold3989_cov265'
p257
aS'scaffold18434_cov227~scaffold8280_cov208'
p258
aS'scaffold6880_cov163~scaffold8291_cov270'
p259
aS'scaffold1629_cov253~scaffold3436_cov196'
p260
aS'scaffold35822_cov215~scaffold5242_cov262'
p261
aS'scaffold25113_cov199~scaffold6911_cov202'
p262
aS'scaffold34455_cov418~scaffold34968_cov196'
p263
aS'scaffold35711_cov297~scaffold6027_cov281'
p264
aS'scaffold1969_cov172~scaffold7259_cov286'
p265
aS'scaffold44578_cov315~scaffold585_cov234'
p266
aS'scaffold1106_cov224~scaffold16517_cov275'
p267
aS'scaffold343_cov157~scaffold6196_cov437'
p268
aS'scaffold1559_cov231~scaffold204_cov205'
p269
aS'scaffold33716_cov277~scaffold58_cov215'
p270
aS'scaffold3562_cov182~scaffold7038_cov214'
p271
aS'scaffold4867_cov158~scaffold6911_cov202'
p272
aS'scaffold4451_cov223~scaffold53889_cov315'
p273
aS'scaffold36011_cov302~scaffold40654_cov315'
p274
aS'scaffold2246_cov240~scaffold9574_cov228'
p275
aS'scaffold2554_cov143~scaffold5205_cov172'
p276
aS'scaffold12171_cov160~scaffold3194_cov316'
p277
aS'scaffold2328_cov197~scaffold8399_cov190'
p278
aS'scaffold10396_cov149~scaffold13470_cov212'
p279
aS'scaffold10657_cov306~scaffold4178_cov282'
p280
aS'scaffold38603_cov305~scaffold7912_cov254'
p281
aS'scaffold30714_cov262~scaffold3621_cov266'
p282
aS'scaffold1041_cov212~scaffold6560_cov168'
p283
aS'scaffold25510_cov231~scaffold8365_cov240'
p284
aS'scaffold10029_cov156~scaffold34854_cov183'
p285
aS'scaffold28262_cov431~scaffold343_cov157'
p286
aS'scaffold33895_cov180~scaffold4790_cov191'
p287
aS'scaffold10400_cov191~scaffold674_cov219'
p288
aS'scaffold3824_cov240~scaffold5144_cov205'
p289
aS'scaffold34811_cov176~scaffold8081_cov244'
p290
aS'scaffold10_cov225~scaffold2901_cov252'
p291
aS'scaffold10173_cov150~scaffold10174_cov324'
p292
aS'scaffold1253_cov168~scaffold849_cov247'
p293
aS'scaffold34183_cov209~scaffold3590_cov237'
p294
aS'scaffold1655_cov200~scaffold6964_cov214'
p295
aS'scaffold33647_cov137~scaffold6177_cov155'
p296
aS'scaffold2759_cov181~scaffold8772_cov153'
p297
aS'scaffold4464_cov185~scaffold5058_cov197'
p298
aS'scaffold3010_cov208~scaffold35824_cov247'
p299
aS'scaffold3485_cov257~scaffold5461_cov213'
p300
aS'scaffold3428_cov197~scaffold5523_cov227'
p301
aS'scaffold11878_cov196~scaffold1436_cov280'
p302
aS'scaffold4654_cov204~scaffold6978_cov264'
p303
aS'scaffold10939_cov235~scaffold16909_cov171'
p304
aS'scaffold34992_cov298~scaffold428_cov197'
p305
aS'scaffold5221_cov193~scaffold5271_cov299'
p306
aS'scaffold3325_cov214~scaffold5976_cov266'
p307
aS'scaffold1042_cov233~scaffold20788_cov116'
p308
aS'scaffold1999_cov166~scaffold6403_cov387'
p309
aS'scaffold13364_cov176~scaffold13641_cov196'
p310
aS'scaffold5917_cov146~scaffold8573_cov422'
p311
aS'scaffold34868_cov282~scaffold8469_cov191'
p312
aS'scaffold2659_cov200~scaffold7260_cov230'
p313
aS'scaffold1412_cov235~scaffold29217_cov317'
p314
aS'scaffold22541_cov161~scaffold6820_cov173'
p315
aS'scaffold14897_cov267~scaffold5330_cov257'
p316
aS'scaffold854_cov247~scaffold9044_cov264'
p317
aS'scaffold1044_cov225~scaffold21510_cov192'
p318
aS'scaffold10673_cov201~scaffold3680_cov185'
p319
aS'scaffold5708_cov422~scaffold5917_cov146'
p320
aS'scaffold35051_cov180~scaffold869_cov236'
p321
aS'scaffold5700_cov293~scaffold5813_cov245'
p322
aS'scaffold4573_cov200~scaffold9482_cov230'
p323
aS'scaffold36090_cov308~scaffold4008_cov147'
p324
aS'scaffold10547_cov289~scaffold11428_cov295'
p325
aS'scaffold12700_cov150~scaffold38236_cov294'
p326
aS'scaffold10361_cov204~scaffold11037_cov149'
p327
aS'scaffold3194_cov316~scaffold3195_cov270'
p328
aS'scaffold1081_cov253~scaffold1083_cov222'
p329
aS'scaffold1911_cov231~scaffold2955_cov235'
p330
aS'scaffold5394_cov155~scaffold709_cov247'
p331
aS'scaffold2531_cov161~scaffold4184_cov249'
p332
aS'scaffold1898_cov190~scaffold2596_cov234'
p333
aS'scaffold14276_cov161~scaffold6422_cov190'
p334
aS'scaffold3671_cov181~scaffold9505_cov197'
p335
aS'scaffold3188_cov246~scaffold36473_cov268'
p336
aS'scaffold10232_cov153~scaffold6461_cov208'
p337
aS'scaffold3709_cov220~scaffold9550_cov156'
p338
aS'scaffold5690_cov178~scaffold8992_cov141'
p339
aS'scaffold35491_cov284~scaffold6922_cov210'
p340
aS'scaffold13149_cov173~scaffold20444_cov436'
p341
aS'scaffold13440_cov161~scaffold9528_cov287'
p342
aS'scaffold3054_cov300~scaffold9545_cov229'
p343
aS'scaffold6105_cov252~scaffold6855_cov172'
p344
aS'scaffold15331_cov173~scaffold4093_cov203'
p345
aS'scaffold1795_cov197~scaffold3646_cov176'
p346
aS'scaffold35739_cov310~scaffold9147_cov314'
p347
aS'scaffold4879_cov249~scaffold916_cov197'
p348
aS'scaffold3541_cov180~scaffold441_cov213'
p349
aS'scaffold3075_cov156~scaffold6945_cov182'
p350
aS'scaffold10089_cov244~scaffold11805_cov225'
p351
aS'scaffold19598_cov155~scaffold3188_cov246'
p352
aS'scaffold4966_cov298~scaffold5238_cov294'
p353
aS'scaffold2691_cov437~scaffold843_cov157'
p354
aS'scaffold314_cov314~scaffold315_cov308'
p355
aS'scaffold31451_cov239~scaffold644_cov199'
p356
aS'scaffold54_cov186~scaffold6744_cov389'
p357
aS'scaffold3062_cov254~scaffold34957_cov248'
p358
aS'scaffold18214_cov222~scaffold3250_cov209'
p359
aS'scaffold11228_cov232~scaffold14602_cov161'
p360
aS'scaffold36852_cov305~scaffold4188_cov191'
p361
aS'scaffold914_cov157~scaffold915_cov207'
p362
aS'scaffold29908_cov147~scaffold663_cov256'
p363
aS'scaffold12737_cov227~scaffold5303_cov242'
p364
aS'scaffold2251_cov300~scaffold5494_cov202'
p365
aS'scaffold279_cov300~scaffold888_cov152'
p366
aS'scaffold642_cov217~scaffold7855_cov227'
p367
aS'scaffold2497_cov220~scaffold9204_cov285'
p368
aS'scaffold428_cov197~scaffold47223_cov305'
p369
aS'scaffold3227_cov180~scaffold3367_cov255'
p370
aS'scaffold4452_cov272~scaffold7051_cov276'
p371
aS'scaffold1226_cov199~scaffold3246_cov212'
p372
aS'scaffold17142_cov215~scaffold35222_cov195'
p373
aS'scaffold35800_cov215~scaffold7468_cov213'
p374
aS'scaffold4382_cov182~scaffold50853_cov294'
p375
aS'scaffold6035_cov288~scaffold8301_cov160'
p376
aS'scaffold33985_cov263~scaffold383_cov198'
p377
aS'scaffold10520_cov256~scaffold4734_cov186'
p378
aS'scaffold3158_cov165~scaffold51910_cov463'
p379
aS'scaffold1343_cov240~scaffold219_cov217'
p380
aS'scaffold1045_cov153~scaffold12570_cov377'
p381
aS'scaffold4548_cov238~scaffold8091_cov211'
p382
aS'scaffold305_cov293~scaffold437_cov301'
p383
aS'scaffold6221_cov149~scaffold902_cov223'
p384
aS'scaffold12881_cov242~scaffold36279_cov207'
p385
aS'scaffold3622_cov247~scaffold45254_cov315'
p386
aS'scaffold12136_cov215~scaffold5344_cov146'
p387
aS'scaffold34054_cov214~scaffold7758_cov177'
p388
aS'scaffold11669_cov179~scaffold2323_cov224'
p389
aS'scaffold7526_cov240~scaffold8195_cov213'
p390
aS'scaffold34753_cov325~scaffold78_cov298'
p391
aS'scaffold5645_cov270~scaffold8590_cov218'
p392
aS'scaffold34809_cov225~scaffold34892_cov211'
p393
aS'scaffold1792_cov186~scaffold50320_cov305'
p394
aS'scaffold10366_cov326~scaffold17512_cov158'
p395
aS'scaffold10121_cov202~scaffold6871_cov206'
p396
aS'scaffold10411_cov164~scaffold36055_cov189'
p397
aS'scaffold1228_cov289~scaffold294_cov265'
p398
aS'scaffold3310_cov167~scaffold9918_cov286'
p399
aS'scaffold18738_cov241~scaffold2942_cov228'
p400
aS'scaffold35969_cov266~scaffold5160_cov248'
p401
aS'scaffold16272_cov418~scaffold343_cov157'
p402
aS'scaffold3956_cov265~scaffold4654_cov204'
p403
atp404
Rp405
sS'Mare'
p406
g2
((lp407
S'scaffold2285_cov92~scaffold34413_cov63'
p408
aS'scaffold361_cov52~scaffold362_cov88'
p409
aS'scaffold6010_cov62~scaffold6032_cov86'
p410
aS'scaffold14_cov100~scaffold8499_cov57'
p411
aS'scaffold23346_cov53~scaffold37470_cov151'
p412
aS'scaffold19386_cov101~scaffold34060_cov96'
p413
aS'scaffold1467_cov54~scaffold3293_cov67'
p414
aS'scaffold32_cov80~scaffold9366_cov65'
p415
aS'scaffold5664_cov97~scaffold8637_cov48'
p416
aS'scaffold15216_cov95~scaffold9935_cov102'
p417
aS'scaffold1307_cov71~scaffold1778_cov83'
p418
aS'scaffold146_cov83~scaffold6515_cov62'
p419
aS'scaffold42461_cov100~scaffold7156_cov63'
p420
aS'scaffold37339_cov109~scaffold7846_cov55'
p421
aS'scaffold3183_cov139~scaffold3621_cov101'
p422
aS'scaffold18737_cov72~scaffold38243_cov111'
p423
aS'scaffold12434_cov50~scaffold8329_cov54'
p424
aS'scaffold5118_cov85~scaffold5119_cov50'
p425
aS'scaffold1036_cov100~scaffold174_cov95'
p426
aS'scaffold37758_cov123~scaffold878_cov66'
p427
aS'scaffold2212_cov51~scaffold8360_cov69'
p428
aS'scaffold11244_cov56~scaffold7401_cov60'
p429
aS'scaffold4094_cov85~scaffold4328_cov64'
p430
aS'scaffold11533_cov113~scaffold9543_cov100'
p431
aS'scaffold5823_cov93~scaffold687_cov68'
p432
aS'scaffold6252_cov63~scaffold9548_cov63'
p433
aS'scaffold26400_cov107~scaffold26402_cov46'
p434
aS'scaffold28921_cov145~scaffold41142_cov161'
p435
aS'scaffold5328_cov53~scaffold5663_cov69'
p436
aS'scaffold35984_cov60~scaffold497_cov71'
p437
aS'scaffold1537_cov77~scaffold772_cov56'
p438
aS'scaffold1672_cov57~scaffold1673_cov68'
p439
aS'scaffold10915_cov72~scaffold5164_cov59'
p440
aS'scaffold35008_cov71~scaffold617_cov62'
p441
aS'scaffold13232_cov62~scaffold846_cov98'
p442
aS'scaffold1461_cov54~scaffold16656_cov56'
p443
aS'scaffold10198_cov57~scaffold36443_cov67'
p444
aS'scaffold12036_cov77~scaffold2530_cov71'
p445
aS'scaffold2786_cov74~scaffold39016_cov111'
p446
aS'scaffold10537_cov54~scaffold33286_cov88'
p447
aS'scaffold8961_cov96~scaffold9651_cov60'
p448
aS'scaffold28403_cov55~scaffold3719_cov93'
p449
aS'scaffold20937_cov59~scaffold7528_cov114'
p450
aS'scaffold16506_cov55~scaffold19259_cov55'
p451
aS'scaffold52619_cov115~scaffold6959_cov64'
p452
aS'scaffold32857_cov74~scaffold9215_cov55'
p453
aS'scaffold44255_cov165~scaffold46292_cov180'
p454
aS'scaffold1561_cov50~scaffold1981_cov53'
p455
aS'scaffold5211_cov57~scaffold7470_cov77'
p456
aS'scaffold10002_cov126~scaffold57_cov62'
p457
aS'scaffold2570_cov56~scaffold33937_cov139'
p458
aS'scaffold13919_cov66~scaffold7244_cov53'
p459
aS'scaffold2317_cov61~scaffold40182_cov165'
p460
aS'scaffold138_cov63~scaffold24311_cov69'
p461
aS'scaffold507_cov73~scaffold9133_cov84'
p462
aS'scaffold12788_cov56~scaffold34228_cov83'
p463
aS'scaffold11587_cov65~scaffold3118_cov72'
p464
aS'scaffold33623_cov60~scaffold36090_cov104'
p465
aS'scaffold2297_cov70~scaffold5466_cov54'
p466
aS'scaffold11940_cov99~scaffold607_cov59'
p467
aS'scaffold19517_cov60~scaffold832_cov72'
p468
aS'scaffold3771_cov131~scaffold487_cov56'
p469
aS'scaffold2592_cov100~scaffold466_cov101'
p470
aS'scaffold35981_cov85~scaffold4668_cov92'
p471
aS'scaffold13336_cov75~scaffold5700_cov54'
p472
aS'scaffold16650_cov62~scaffold1671_cov114'
p473
aS'scaffold23308_cov74~scaffold5768_cov48'
p474
aS'scaffold17489_cov70~scaffold36821_cov56'
p475
aS'scaffold36583_cov64~scaffold6606_cov160'
p476
aS'scaffold2786_cov74~scaffold2945_cov79'
p477
aS'scaffold7572_cov84~scaffold7573_cov53'
p478
aS'scaffold6021_cov51~scaffold9331_cov54'
p479
aS'scaffold480_cov57~scaffold5817_cov105'
p480
aS'scaffold15659_cov85~scaffold713_cov67'
p481
aS'scaffold10095_cov71~scaffold33586_cov59'
p482
aS'scaffold27913_cov149~scaffold565_cov58'
p483
aS'scaffold1828_cov67~scaffold608_cov87'
p484
aS'scaffold10188_cov85~scaffold3646_cov69'
p485
aS'scaffold1040_cov63~scaffold2393_cov71'
p486
aS'scaffold15420_cov62~scaffold6640_cov57'
p487
aS'scaffold17407_cov65~scaffold9695_cov86'
p488
aS'scaffold35877_cov69~scaffold5395_cov50'
p489
aS'scaffold22352_cov39~scaffold37380_cov122'
p490
aS'scaffold14528_cov78~scaffold7703_cov52'
p491
aS'scaffold1670_cov61~scaffold35197_cov159'
p492
aS'scaffold3247_cov88~scaffold33782_cov98'
p493
aS'scaffold1281_cov80~scaffold33702_cov55'
p494
aS'scaffold4034_cov67~scaffold866_cov53'
p495
aS'scaffold34231_cov91~scaffold39009_cov103'
p496
aS'scaffold34360_cov143~scaffold35_cov50'
p497
aS'scaffold30472_cov70~scaffold4544_cov85'
p498
aS'scaffold5777_cov82~scaffold6784_cov56'
p499
aS'scaffold10910_cov53~scaffold23743_cov66'
p500
aS'scaffold15690_cov108~scaffold36775_cov68'
p501
aS'scaffold1933_cov76~scaffold826_cov79'
p502
aS'scaffold14170_cov69~scaffold47_cov51'
p503
aS'scaffold35970_cov109~scaffold7217_cov99'
p504
aS'scaffold16801_cov94~scaffold2603_cov89'
p505
aS'scaffold3365_cov65~scaffold827_cov76'
p506
aS'scaffold1201_cov53~scaffold8487_cov70'
p507
aS'scaffold14596_cov132~scaffold36584_cov77'
p508
aS'scaffold1740_cov88~scaffold19477_cov64'
p509
aS'scaffold6317_cov51~scaffold874_cov68'
p510
aS'scaffold3440_cov56~scaffold582_cov57'
p511
aS'scaffold2946_cov99~scaffold8059_cov49'
p512
aS'scaffold4048_cov55~scaffold7406_cov97'
p513
aS'scaffold10506_cov79~scaffold5498_cov103'
p514
aS'scaffold5487_cov69~scaffold7228_cov62'
p515
aS'scaffold23473_cov56~scaffold34278_cov88'
p516
aS'scaffold11517_cov58~scaffold11518_cov107'
p517
aS'scaffold11140_cov73~scaffold5096_cov57'
p518
aS'scaffold33884_cov75~scaffold645_cov79'
p519
aS'scaffold1774_cov51~scaffold707_cov65'
p520
aS'scaffold10758_cov137~scaffold1943_cov61'
p521
aS'scaffold23544_cov102~scaffold6429_cov65'
p522
aS'scaffold3688_cov96~scaffold8941_cov89'
p523
aS'scaffold35963_cov95~scaffold36297_cov113'
p524
aS'scaffold22301_cov147~scaffold28236_cov103'
p525
aS'scaffold16639_cov75~scaffold2248_cov58'
p526
aS'scaffold29903_cov123~scaffold33612_cov72'
p527
aS'scaffold34976_cov99~scaffold44933_cov138'
p528
aS'scaffold21922_cov80~scaffold34278_cov88'
p529
aS'scaffold37745_cov103~scaffold9100_cov54'
p530
aS'scaffold35156_cov134~scaffold720_cov51'
p531
aS'scaffold34199_cov83~scaffold886_cov63'
p532
aS'scaffold7766_cov56~scaffold8073_cov71'
p533
aS'scaffold10866_cov51~scaffold34599_cov98'
p534
aS'scaffold7200_cov64~scaffold8638_cov55'
p535
aS'scaffold1950_cov58~scaffold2587_cov45'
p536
aS'scaffold3303_cov130~scaffold4478_cov57'
p537
aS'scaffold1455_cov53~scaffold8021_cov59'
p538
aS'scaffold16314_cov97~scaffold6478_cov57'
p539
aS'scaffold2211_cov55~scaffold3443_cov80'
p540
aS'scaffold36789_cov57~scaffold7965_cov102'
p541
aS'scaffold32906_cov106~scaffold683_cov92'
p542
aS'scaffold13833_cov52~scaffold5955_cov136'
p543
aS'scaffold35021_cov83~scaffold43367_cov115'
p544
aS'scaffold2016_cov55~scaffold9707_cov86'
p545
aS'scaffold11579_cov94~scaffold14662_cov55'
p546
aS'scaffold12811_cov99~scaffold8082_cov74'
p547
aS'scaffold1670_cov61~scaffold2676_cov98'
p548
aS'scaffold144_cov60~scaffold36050_cov70'
p549
aS'scaffold161_cov85~scaffold6173_cov81'
p550
aS'scaffold10735_cov120~scaffold15562_cov57'
p551
aS'scaffold12766_cov71~scaffold5970_cov74'
p552
aS'scaffold20490_cov67~scaffold767_cov66'
p553
aS'scaffold14430_cov83~scaffold24509_cov66'
p554
aS'scaffold17734_cov54~scaffold4093_cov55'
p555
aS'scaffold1525_cov58~scaffold4097_cov96'
p556
aS'scaffold1651_cov81~scaffold2084_cov95'
p557
aS'scaffold25903_cov62~scaffold5688_cov67'
p558
aS'scaffold33949_cov53~scaffold55_cov132'
p559
aS'scaffold9665_cov44~scaffold9666_cov95'
p560
aS'scaffold21076_cov99~scaffold8059_cov49'
p561
aS'scaffold28625_cov54~scaffold51283_cov119'
p562
aS'scaffold35940_cov79~scaffold5213_cov135'
p563
aS'scaffold2355_cov59~scaffold33245_cov72'
p564
aS'scaffold19735_cov56~scaffold52556_cov103'
p565
aS'scaffold3224_cov53~scaffold9871_cov55'
p566
aS'scaffold1390_cov116~scaffold4621_cov57'
p567
aS'scaffold14725_cov115~scaffold1554_cov54'
p568
aS'scaffold14776_cov55~scaffold36895_cov67'
p569
aS'scaffold18184_cov66~scaffold5184_cov86'
p570
aS'scaffold3014_cov60~scaffold398_cov53'
p571
aS'scaffold12316_cov62~scaffold13613_cov67'
p572
aS'scaffold1036_cov100~scaffold5066_cov51'
p573
aS'scaffold16119_cov63~scaffold311_cov53'
p574
aS'scaffold1680_cov53~scaffold79_cov102'
p575
aS'scaffold5587_cov95~scaffold6763_cov50'
p576
aS'scaffold1156_cov80~scaffold6497_cov85'
p577
aS'scaffold1379_cov53~scaffold5161_cov62'
p578
aS'scaffold154_cov94~scaffold3622_cov63'
p579
aS'scaffold35874_cov101~scaffold36370_cov147'
p580
aS'scaffold10687_cov51~scaffold8496_cov75'
p581
aS'scaffold3130_cov88~scaffold36033_cov68'
p582
aS'scaffold20541_cov54~scaffold5962_cov96'
p583
aS'scaffold1101_cov58~scaffold3915_cov75'
p584
aS'scaffold19950_cov56~scaffold8908_cov58'
p585
aS'scaffold2412_cov121~scaffold37060_cov73'
p586
aS'scaffold33587_cov72~scaffold3966_cov89'
p587
aS'scaffold12774_cov55~scaffold4278_cov90'
p588
aS'scaffold101_cov106~scaffold9445_cov50'
p589
aS'scaffold1402_cov78~scaffold3254_cov78'
p590
aS'scaffold15918_cov54~scaffold5262_cov49'
p591
aS'scaffold12329_cov67~scaffold2853_cov69'
p592
aS'scaffold1554_cov54~scaffold7086_cov54'
p593
aS'scaffold36003_cov57~scaffold4147_cov76'
p594
aS'scaffold2637_cov103~scaffold3877_cov78'
p595
aS'scaffold42399_cov165~scaffold4701_cov56'
p596
aS'scaffold4040_cov52~scaffold9958_cov63'
p597
aS'scaffold19558_cov55~scaffold53087_cov191'
p598
aS'scaffold35995_cov87~scaffold36022_cov58'
p599
aS'scaffold10939_cov60~scaffold1726_cov57'
p600
aS'scaffold1525_cov58~scaffold16447_cov76'
p601
aS'scaffold7181_cov86~scaffold9352_cov77'
p602
aS'scaffold23854_cov126~scaffold34289_cov136'
p603
aS'scaffold15254_cov56~scaffold4050_cov108'
p604
aS'scaffold45026_cov161~scaffold9651_cov60'
p605
aS'scaffold15290_cov65~scaffold426_cov79'
p606
aS'scaffold36919_cov73~scaffold41262_cov172'
p607
aS'scaffold15336_cov60~scaffold5295_cov55'
p608
aS'scaffold6480_cov125~scaffold968_cov57'
p609
aS'scaffold159_cov87~scaffold19164_cov60'
p610
aS'scaffold1007_cov77~scaffold2714_cov57'
p611
aS'scaffold6200_cov128~scaffold878_cov66'
p612
aS'scaffold2530_cov71~scaffold4287_cov88'
p613
aS'scaffold35055_cov91~scaffold9739_cov94'
p614
aS'scaffold5602_cov57~scaffold5604_cov55'
p615
aS'scaffold2428_cov67~scaffold8055_cov67'
p616
aS'scaffold2731_cov57~scaffold35040_cov139'
p617
aS'scaffold34177_cov82~scaffold36499_cov103'
p618
aS'scaffold1231_cov53~scaffold15012_cov64'
p619
aS'scaffold4081_cov103~scaffold4410_cov60'
p620
aS'scaffold33066_cov68~scaffold4048_cov55'
p621
aS'scaffold4874_cov72~scaffold9125_cov84'
p622
aS'scaffold33314_cov52~scaffold6612_cov63'
p623
aS'scaffold5185_cov80~scaffold5186_cov71'
p624
aS'scaffold4089_cov52~scaffold44657_cov149'
p625
aS'scaffold13650_cov74~scaffold54888_cov107'
p626
aS'scaffold3582_cov122~scaffold720_cov51'
p627
aS'scaffold2683_cov54~scaffold36509_cov117'
p628
aS'scaffold16604_cov60~scaffold9959_cov130'
p629
aS'scaffold5176_cov58~scaffold56598_cov161'
p630
aS'scaffold34682_cov108~scaffold411_cov59'
p631
aS'scaffold24304_cov59~scaffold359_cov50'
p632
aS'scaffold16801_cov94~scaffold20051_cov88'
p633
aS'scaffold14721_cov66~scaffold17264_cov49'
p634
aS'scaffold1727_cov50~scaffold4369_cov78'
p635
aS'scaffold2164_cov100~scaffold6159_cov60'
p636
aS'scaffold2998_cov77~scaffold9604_cov73'
p637
aS'scaffold5146_cov52~scaffold53971_cov161'
p638
aS'scaffold1207_cov107~scaffold5065_cov145'
p639
aS'scaffold10894_cov83~scaffold33155_cov116'
p640
aS'scaffold2390_cov64~scaffold8942_cov56'
p641
aS'scaffold12489_cov66~scaffold12509_cov75'
p642
aS'scaffold25181_cov79~scaffold7198_cov59'
p643
aS'scaffold19626_cov63~scaffold2637_cov103'
p644
aS'scaffold10711_cov58~scaffold7920_cov76'
p645
aS'scaffold33560_cov76~scaffold8879_cov52'
p646
aS'scaffold7234_cov93~scaffold7575_cov56'
p647
aS'scaffold7874_cov52~scaffold7875_cov69'
p648
aS'scaffold22301_cov147~scaffold6472_cov101'
p649
aS'scaffold50891_cov398~scaffold909_cov73'
p650
aS'scaffold14622_cov56~scaffold17539_cov88'
p651
aS'scaffold33263_cov56~scaffold3742_cov92'
p652
aS'scaffold33082_cov85~scaffold41869_cov103'
p653
aS'scaffold19063_cov80~scaffold3937_cov54'
p654
aS'scaffold34270_cov89~scaffold5071_cov113'
p655
aS'scaffold34177_cov82~scaffold35974_cov80'
p656
aS'scaffold13494_cov55~scaffold444_cov67'
p657
aS'scaffold3051_cov52~scaffold617_cov62'
p658
aS'scaffold53939_cov149~scaffold8942_cov56'
p659
aS'scaffold1432_cov55~scaffold306_cov97'
p660
aS'scaffold10112_cov50~scaffold5491_cov58'
p661
aS'scaffold3432_cov48~scaffold4550_cov107'
p662
aS'scaffold11820_cov72~scaffold3429_cov57'
p663
aS'scaffold13550_cov68~scaffold8803_cov55'
p664
aS'scaffold13367_cov89~scaffold37302_cov74'
p665
aS'scaffold570_cov75~scaffold6452_cov95'
p666
aS'scaffold28599_cov95~scaffold54186_cov103'
p667
aS'scaffold289_cov71~scaffold3757_cov64'
p668
aS'scaffold11190_cov116~scaffold12855_cov52'
p669
aS'scaffold1972_cov88~scaffold33248_cov88'
p670
aS'scaffold23375_cov83~scaffold32491_cov104'
p671
aS'scaffold14859_cov92~scaffold34162_cov105'
p672
aS'scaffold1175_cov49~scaffold4917_cov59'
p673
aS'scaffold21487_cov54~scaffold4313_cov91'
p674
aS'scaffold28521_cov53~scaffold5310_cov60'
p675
aS'scaffold33155_cov116~scaffold6384_cov82'
p676
aS'scaffold14844_cov71~scaffold985_cov66'
p677
aS'scaffold34289_cov136~scaffold4085_cov106'
p678
aS'scaffold27769_cov112~scaffold58002_cov168'
p679
aS'scaffold3418_cov60~scaffold35910_cov137'
p680
aS'scaffold33201_cov53~scaffold7428_cov49'
p681
aS'scaffold12642_cov74~scaffold1985_cov52'
p682
aS'scaffold2494_cov73~scaffold3013_cov87'
p683
aS'scaffold13115_cov55~scaffold6977_cov64'
p684
aS'scaffold3175_cov115~scaffold733_cov57'
p685
aS'scaffold2900_cov54~scaffold53186_cov165'
p686
aS'scaffold17628_cov108~scaffold1969_cov52'
p687
aS'scaffold13474_cov57~scaffold4565_cov62'
p688
aS'scaffold7133_cov53~scaffold8457_cov52'
p689
aS'scaffold331_cov56~scaffold4178_cov79'
p690
aS'scaffold18_cov68~scaffold4080_cov54'
p691
aS'scaffold15333_cov101~scaffold36026_cov97'
p692
aS'scaffold2126_cov70~scaffold9907_cov91'
p693
aS'scaffold4391_cov53~scaffold50244_cov161'
p694
aS'scaffold24718_cov103~scaffold26220_cov52'
p695
aS'scaffold200_cov51~scaffold5829_cov52'
p696
aS'scaffold20375_cov54~scaffold38360_cov207'
p697
aS'scaffold3401_cov49~scaffold931_cov102'
p698
aS'scaffold10310_cov117~scaffold2088_cov50'
p699
aS'scaffold30712_cov54~scaffold8059_cov49'
p700
aS'scaffold11819_cov105~scaffold25653_cov54'
p701
aS'scaffold11537_cov147~scaffold37592_cov59'
p702
aS'scaffold2245_cov55~scaffold344_cov95'
p703
aS'scaffold38060_cov100~scaffold4757_cov67'
p704
aS'scaffold14343_cov60~scaffold33284_cov157'
p705
aS'scaffold2248_cov58~scaffold25369_cov123'
p706
aS'scaffold8270_cov118~scaffold872_cov49'
p707
aS'scaffold37745_cov103~scaffold756_cov60'
p708
aS'scaffold2541_cov64~scaffold9591_cov85'
p709
aS'scaffold1054_cov57~scaffold7097_cov101'
p710
aS'scaffold1776_cov57~scaffold3846_cov88'
p711
aS'scaffold17701_cov112~scaffold7423_cov56'
p712
aS'scaffold10360_cov60~scaffold6609_cov59'
p713
aS'scaffold143_cov57~scaffold5382_cov123'
p714
aS'scaffold34267_cov108~scaffold643_cov63'
p715
aS'scaffold1111_cov107~scaffold479_cov51'
p716
aS'scaffold34175_cov92~scaffold35057_cov143'
p717
aS'scaffold5454_cov72~scaffold5517_cov53'
p718
aS'scaffold19720_cov60~scaffold8038_cov51'
p719
aS'scaffold5562_cov105~scaffold6247_cov68'
p720
aS'scaffold15508_cov90~scaffold36032_cov131'
p721
aS'scaffold33248_cov88~scaffold8659_cov78'
p722
aS'scaffold3248_cov70~scaffold37060_cov73'
p723
aS'scaffold10343_cov61~scaffold3106_cov64'
p724
aS'scaffold18525_cov53~scaffold3769_cov71'
p725
aS'scaffold39987_cov111~scaffold7461_cov76'
p726
aS'scaffold25106_cov104~scaffold55592_cov107'
p727
aS'scaffold1103_cov83~scaffold1104_cov68'
p728
aS'scaffold21958_cov101~scaffold2626_cov102'
p729
aS'scaffold14610_cov136~scaffold2598_cov61'
p730
aS'scaffold10405_cov56~scaffold33245_cov72'
p731
aS'scaffold2694_cov89~scaffold36033_cov68'
p732
aS'scaffold17143_cov73~scaffold18659_cov51'
p733
aS'scaffold255_cov58~scaffold32858_cov151'
p734
aS'scaffold1667_cov55~scaffold6209_cov128'
p735
aS'scaffold36009_cov57~scaffold40047_cov153'
p736
aS'scaffold2804_cov64~scaffold4668_cov92'
p737
aS'scaffold13368_cov73~scaffold47_cov51'
p738
aS'scaffold10361_cov51~scaffold462_cov72'
p739
aS'scaffold2786_cov74~scaffold6624_cov86'
p740
aS'scaffold11516_cov50~scaffold13738_cov105'
p741
aS'scaffold33440_cov107~scaffold7192_cov111'
p742
aS'scaffold15562_cov57~scaffold17331_cov117'
p743
aS'scaffold18040_cov61~scaffold4891_cov78'
p744
aS'scaffold18560_cov75~scaffold46285_cov153'
p745
aS'scaffold1364_cov77~scaffold2830_cov52'
p746
aS'scaffold2388_cov79~scaffold3457_cov55'
p747
aS'scaffold14804_cov81~scaffold8576_cov64'
p748
aS'scaffold18868_cov79~scaffold5284_cov102'
p749
aS'scaffold14485_cov58~scaffold37571_cov118'
p750
aS'scaffold1151_cov99~scaffold5881_cov87'
p751
aS'scaffold14755_cov58~scaffold1835_cov54'
p752
aS'scaffold1082_cov61~scaffold8217_cov58'
p753
aS'scaffold34989_cov66~scaffold5980_cov50'
p754
aS'scaffold6018_cov72~scaffold7261_cov132'
p755
aS'scaffold4874_cov72~scaffold7806_cov72'
p756
aS'scaffold15567_cov64~scaffold5760_cov53'
p757
aS'scaffold25187_cov99~scaffold3835_cov72'
p758
aS'scaffold16649_cov90~scaffold33204_cov76'
p759
aS'scaffold2088_cov50~scaffold21479_cov41'
p760
aS'scaffold14030_cov122~scaffold350_cov52'
p761
aS'scaffold10114_cov67~scaffold6757_cov85'
p762
aS'scaffold8357_cov58~scaffold8823_cov89'
p763
aS'scaffold21582_cov121~scaffold5370_cov101'
p764
aS'scaffold34332_cov81~scaffold4339_cov63'
p765
aS'scaffold3128_cov90~scaffold570_cov75'
p766
aS'scaffold36145_cov66~scaffold5517_cov53'
p767
aS'scaffold23886_cov86~scaffold5357_cov53'
p768
aS'scaffold4606_cov54~scaffold4816_cov61'
p769
aS'scaffold36466_cov115~scaffold6807_cov54'
p770
aS'scaffold33612_cov72~scaffold34367_cov119'
p771
aS'scaffold10858_cov54~scaffold33183_cov87'
p772
aS'scaffold3077_cov95~scaffold5136_cov47'
p773
aS'scaffold6110_cov55~scaffold861_cov54'
p774
aS'scaffold2790_cov71~scaffold5283_cov61'
p775
aS'scaffold33204_cov76~scaffold6201_cov79'
p776
aS'scaffold14887_cov139~scaffold7284_cov54'
p777
aS'scaffold14365_cov55~scaffold37624_cov98'
p778
aS'scaffold5841_cov52~scaffold8765_cov54'
p779
aS'scaffold18342_cov147~scaffold5966_cov74'
p780
aS'scaffold12169_cov151~scaffold2317_cov61'
p781
aS'scaffold2697_cov65~scaffold3230_cov72'
p782
aS'scaffold34162_cov105~scaffold4290_cov94'
p783
aS'scaffold10508_cov75~scaffold5982_cov55'
p784
aS'scaffold12063_cov48~scaffold2637_cov103'
p785
aS'scaffold35419_cov111~scaffold6807_cov54'
p786
aS'scaffold5049_cov79~scaffold9910_cov51'
p787
aS'scaffold11306_cov90~scaffold7154_cov101'
p788
aS'scaffold11820_cov72~scaffold14510_cov60'
p789
aS'scaffold17719_cov52~scaffold7882_cov53'
p790
aS'scaffold11052_cov59~scaffold2304_cov65'
p791
aS'scaffold1343_cov77~scaffold34185_cov69'
p792
aS'scaffold2057_cov66~scaffold663_cov79'
p793
aS'scaffold11818_cov100~scaffold8668_cov57'
p794
aS'scaffold14496_cov57~scaffold154_cov94'
p795
aS'scaffold1902_cov64~scaffold4418_cov65'
p796
aS'scaffold11042_cov64~scaffold18292_cov125'
p797
aS'scaffold28048_cov54~scaffold32065_cov59'
p798
aS'scaffold2571_cov70~scaffold27216_cov96'
p799
aS'scaffold20331_cov77~scaffold3358_cov56'
p800
aS'scaffold18278_cov58~scaffold2739_cov53'
p801
aS'scaffold10187_cov86~scaffold10455_cov70'
p802
aS'scaffold1432_cov55~scaffold4918_cov110'
p803
aS'scaffold23746_cov60~scaffold9750_cov109'
p804
aS'scaffold36776_cov56~scaffold6457_cov56'
p805
aS'scaffold20873_cov79~scaffold85_cov56'
p806
aS'scaffold9240_cov92~scaffold952_cov71'
p807
aS'scaffold1850_cov129~scaffold4085_cov106'
p808
aS'scaffold21109_cov47~scaffold5518_cov59'
p809
aS'scaffold1680_cov53~scaffold3753_cov79'
p810
aS'scaffold10537_cov54~scaffold29404_cov53'
p811
aS'scaffold15110_cov149~scaffold1645_cov55'
p812
aS'scaffold14767_cov109~scaffold32828_cov78'
p813
aS'scaffold10374_cov51~scaffold37747_cov56'
p814
atp815
Rp816
sS'W1'
p817
g2
((lp818
S'scaffold167486_cov93~scaffold32268_cov68'
p819
aS'scaffold3954_cov94~scaffold73744_cov62'
p820
aS'scaffold13284_cov147~scaffold23977_cov68'
p821
aS'scaffold35435_cov126~scaffold9757_cov95'
p822
aS'scaffold10148_cov99~scaffold6498_cov76'
p823
aS'scaffold2658_cov137~scaffold4421_cov66'
p824
aS'scaffold5572_cov101~scaffold7298_cov66'
p825
aS'scaffold160792_cov138~scaffold90278_cov81'
p826
aS'scaffold5476_cov91~scaffold6934_cov101'
p827
aS'scaffold167467_cov101~scaffold67159_cov68'
p828
aS'scaffold1043_cov70~scaffold13631_cov149'
p829
aS'scaffold5722_cov65~scaffold8983_cov110'
p830
aS'scaffold1076_cov67~scaffold4095_cov147'
p831
aS'scaffold20004_cov62~scaffold4610_cov62'
p832
aS'scaffold2076_cov75~scaffold26651_cov113'
p833
aS'scaffold37943_cov120~scaffold39367_cov97'
p834
aS'scaffold11627_cov72~scaffold11629_cov141'
p835
aS'scaffold2520_cov73~scaffold2522_cov147'
p836
aS'scaffold16169_cov72~scaffold3257_cov146'
p837
aS'scaffold11974_cov67~scaffold33358_cov122'
p838
aS'scaffold17315_cov142~scaffold17316_cov65'
p839
aS'scaffold27512_cov124~scaffold9838_cov70'
p840
aS'scaffold1868_cov136~scaffold7102_cov63'
p841
aS'scaffold19614_cov87~scaffold74444_cov64'
p842
aS'scaffold12422_cov71~scaffold165401_cov148'
p843
aS'scaffold107_cov67~scaffold108_cov145'
p844
aS'scaffold3943_cov70~scaffold96847_cov139'
p845
aS'scaffold47647_cov69~scaffold7129_cov63'
p846
aS'scaffold6388_cov146~scaffold8779_cov66'
p847
aS'scaffold132398_cov66~scaffold167512_cov105'
p848
aS'scaffold90278_cov81~scaffold90279_cov161'
p849
aS'scaffold2677_cov108~scaffold6974_cov73'
p850
aS'scaffold33112_cov67~scaffold33753_cov69'
p851
aS'scaffold166740_cov68~scaffold167477_cov80'
p852
aS'scaffold1391_cov96~scaffold46961_cov69'
p853
aS'scaffold11627_cov72~scaffold56728_cov119'
p854
aS'scaffold50322_cov70~scaffold50494_cov83'
p855
aS'scaffold2722_cov84~scaffold8397_cov125'
p856
aS'scaffold2416_cov137~scaffold2417_cov66'
p857
aS'scaffold114_cov72~scaffold20419_cov113'
p858
aS'scaffold6305_cov69~scaffold6306_cov146'
p859
aS'scaffold27148_cov73~scaffold860_cov64'
p860
aS'scaffold4513_cov135~scaffold59029_cov68'
p861
aS'scaffold39105_cov66~scaffold406_cov110'
p862
aS'scaffold11821_cov67~scaffold16084_cov74'
p863
aS'scaffold1716_cov94~scaffold45397_cov62'
p864
aS'scaffold11225_cov146~scaffold33238_cov67'
p865
aS'scaffold100812_cov62~scaffold1158_cov100'
p866
aS'scaffold10658_cov62~scaffold4036_cov142'
p867
aS'scaffold12686_cov61~scaffold12688_cov135'
p868
aS'scaffold16231_cov68~scaffold9676_cov145'
p869
aS'scaffold1171_cov70~scaffold180_cov107'
p870
aS'scaffold29230_cov135~scaffold7717_cov65'
p871
aS'scaffold166708_cov122~scaffold697_cov68'
p872
aS'scaffold6658_cov76~scaffold860_cov64'
p873
aS'scaffold53892_cov107~scaffold57838_cov69'
p874
aS'scaffold10313_cov102~scaffold21316_cov65'
p875
aS'scaffold5667_cov96~scaffold8355_cov67'
p876
aS'scaffold167496_cov97~scaffold29206_cov81'
p877
aS'scaffold26582_cov78~scaffold5481_cov69'
p878
aS'scaffold1491_cov109~scaffold3256_cov68'
p879
aS'scaffold40887_cov133~scaffold46748_cov73'
p880
aS'scaffold165520_cov190~scaffold59464_cov122'
p881
aS'scaffold4555_cov123~scaffold65460_cov69'
p882
aS'scaffold21633_cov84~scaffold4019_cov99'
p883
aS'scaffold20825_cov153~scaffold24052_cov69'
p884
aS'scaffold14473_cov147~scaffold33229_cov65'
p885
aS'scaffold11599_cov105~scaffold61789_cov64'
p886
aS'scaffold192192_cov171~scaffold8532_cov71'
p887
aS'scaffold13917_cov148~scaffold28422_cov65'
p888
aS'scaffold25755_cov75~scaffold53875_cov130'
p889
aS'scaffold16609_cov69~scaffold52798_cov134'
p890
aS'scaffold6054_cov102~scaffold661_cov69'
p891
aS'scaffold23999_cov72~scaffold3701_cov67'
p892
aS'scaffold15237_cov73~scaffold24301_cov102'
p893
aS'scaffold22882_cov105~scaffold5203_cov76'
p894
aS'scaffold16120_cov143~scaffold9901_cov65'
p895
aS'scaffold15124_cov63~scaffold22339_cov108'
p896
aS'scaffold15763_cov140~scaffold7011_cov67'
p897
aS'scaffold3674_cov106~scaffold57150_cov68'
p898
aS'scaffold14197_cov99~scaffold6524_cov65'
p899
aS'scaffold166685_cov152~scaffold2832_cov75'
p900
aS'scaffold1840_cov66~scaffold903_cov126'
p901
aS'scaffold12706_cov81~scaffold16044_cov69'
p902
aS'scaffold1333_cov60~scaffold34941_cov134'
p903
aS'scaffold15975_cov67~scaffold4413_cov63'
p904
aS'scaffold29165_cov60~scaffold561_cov86'
p905
aS'scaffold6818_cov67~scaffold6820_cov103'
p906
aS'scaffold2702_cov92~scaffold4931_cov109'
p907
aS'scaffold30966_cov62~scaffold3133_cov141'
p908
aS'scaffold6620_cov103~scaffold7907_cov67'
p909
aS'scaffold95366_cov79~scaffold95367_cov139'
p910
aS'scaffold1143_cov170~scaffold1145_cov65'
p911
aS'scaffold25513_cov91~scaffold92575_cov70'
p912
aS'scaffold166345_cov136~scaffold367_cov102'
p913
aS'scaffold28864_cov67~scaffold9131_cov93'
p914
aS'scaffold167515_cov69~scaffold19827_cov125'
p915
aS'scaffold2979_cov71~scaffold5296_cov115'
p916
aS'scaffold35735_cov102~scaffold4162_cov69'
p917
aS'scaffold32923_cov104~scaffold36202_cov116'
p918
aS'scaffold14189_cov153~scaffold2637_cov71'
p919
aS'scaffold1394_cov148~scaffold1395_cov70'
p920
aS'scaffold165441_cov141~scaffold2849_cov95'
p921
aS'scaffold21927_cov117~scaffold6252_cov71'
p922
aS'scaffold3586_cov72~scaffold8966_cov109'
p923
aS'scaffold1143_cov170~scaffold185565_cov204'
p924
aS'scaffold2213_cov74~scaffold514_cov77'
p925
aS'scaffold8548_cov121~scaffold9073_cov65'
p926
aS'scaffold14924_cov62~scaffold3987_cov100'
p927
aS'scaffold2987_cov88~scaffold4224_cov73'
p928
aS'scaffold164974_cov139~scaffold2833_cov61'
p929
aS'scaffold10061_cov67~scaffold3477_cov108'
p930
aS'scaffold47796_cov64~scaffold6481_cov91'
p931
aS'scaffold42838_cov68~scaffold48176_cov76'
p932
aS'scaffold3719_cov67~scaffold3722_cov135'
p933
aS'scaffold10491_cov66~scaffold165461_cov100'
p934
aS'scaffold1125_cov68~scaffold14267_cov83'
p935
aS'scaffold20061_cov80~scaffold32619_cov118'
p936
aS'scaffold11440_cov66~scaffold3738_cov114'
p937
aS'scaffold11968_cov142~scaffold3404_cov63'
p938
aS'scaffold2304_cov67~scaffold4957_cov147'
p939
aS'scaffold117137_cov65~scaffold17627_cov105'
p940
aS'scaffold165395_cov77~scaffold42402_cov68'
p941
aS'scaffold12770_cov157~scaffold21646_cov62'
p942
aS'scaffold16788_cov63~scaffold2416_cov137'
p943
aS'scaffold167565_cov117~scaffold893_cov66'
p944
aS'scaffold10462_cov135~scaffold49558_cov135'
p945
aS'scaffold25651_cov100~scaffold46961_cov69'
p946
aS'scaffold29989_cov70~scaffold66329_cov132'
p947
aS'scaffold14527_cov64~scaffold14528_cov66'
p948
aS'scaffold18411_cov77~scaffold3448_cov89'
p949
aS'scaffold17015_cov140~scaffold4528_cov69'
p950
aS'scaffold8279_cov69~scaffold8282_cov147'
p951
aS'scaffold900_cov65~scaffold903_cov126'
p952
aS'scaffold12557_cov77~scaffold167464_cov86'
p953
aS'scaffold13891_cov62~scaffold26778_cov137'
p954
aS'scaffold6437_cov66~scaffold7194_cov116'
p955
aS'scaffold3122_cov145~scaffold3123_cov67'
p956
aS'scaffold1498_cov63~scaffold33427_cov79'
p957
aS'scaffold34357_cov65~scaffold70862_cov124'
p958
aS'scaffold8135_cov71~scaffold8694_cov129'
p959
aS'scaffold15073_cov71~scaffold15885_cov116'
p960
aS'scaffold3009_cov66~scaffold3010_cov130'
p961
aS'scaffold10321_cov72~scaffold34740_cov99'
p962
aS'scaffold26610_cov67~scaffold45626_cov132'
p963
aS'scaffold19276_cov115~scaffold33185_cov125'
p964
aS'scaffold13917_cov148~scaffold5199_cov65'
p965
aS'scaffold166706_cov72~scaffold4489_cov91'
p966
aS'scaffold23696_cov107~scaffold46569_cov79'
p967
aS'scaffold14010_cov120~scaffold9558_cov65'
p968
aS'scaffold6615_cov72~scaffold7174_cov138'
p969
aS'scaffold38959_cov135~scaffold57178_cov79'
p970
aS'scaffold1649_cov91~scaffold165507_cov120'
p971
aS'scaffold7146_cov65~scaffold7147_cov103'
p972
aS'scaffold166767_cov133~scaffold166788_cov64'
p973
aS'scaffold14010_cov120~scaffold20924_cov70'
p974
aS'scaffold14968_cov70~scaffold5208_cov124'
p975
aS'scaffold21398_cov73~scaffold33079_cov127'
p976
aS'scaffold45339_cov132~scaffold5542_cov64'
p977
aS'scaffold37263_cov117~scaffold4202_cov67'
p978
aS'scaffold41553_cov82~scaffold62223_cov138'
p979
aS'scaffold167537_cov112~scaffold540_cov68'
p980
aS'scaffold1030_cov88~scaffold20924_cov70'
p981
aS'scaffold5059_cov70~scaffold5060_cov136'
p982
aS'scaffold3018_cov62~scaffold9303_cov137'
p983
aS'scaffold166774_cov71~scaffold28224_cov147'
p984
aS'scaffold1323_cov67~scaffold165413_cov124'
p985
aS'scaffold1637_cov151~scaffold20670_cov68'
p986
aS'scaffold10421_cov69~scaffold36067_cov121'
p987
aS'scaffold7705_cov77~scaffold9037_cov132'
p988
aS'scaffold38008_cov141~scaffold5960_cov65'
p989
aS'scaffold2501_cov70~scaffold7174_cov138'
p990
aS'scaffold10275_cov68~scaffold7264_cov122'
p991
aS'scaffold2061_cov67~scaffold90706_cov103'
p992
aS'scaffold20641_cov90~scaffold8011_cov68'
p993
aS'scaffold25660_cov79~scaffold25662_cov161'
p994
aS'scaffold3559_cov143~scaffold9683_cov69'
p995
aS'scaffold24079_cov69~scaffold25492_cov142'
p996
aS'scaffold167535_cov101~scaffold18420_cov96'
p997
aS'scaffold39128_cov65~scaffold51750_cov85'
p998
aS'scaffold166756_cov71~scaffold9703_cov100'
p999
aS'scaffold12601_cov106~scaffold12765_cov63'
p1000
aS'scaffold29738_cov68~scaffold4941_cov130'
p1001
aS'scaffold9324_cov148~scaffold9325_cov63'
p1002
aS'scaffold2398_cov98~scaffold2617_cov76'
p1003
aS'scaffold29312_cov132~scaffold9996_cov69'
p1004
aS'scaffold17051_cov101~scaffold2939_cov64'
p1005
aS'scaffold5399_cov135~scaffold8409_cov62'
p1006
aS'scaffold43497_cov152~scaffold48022_cov63'
p1007
aS'scaffold15895_cov77~scaffold49814_cov72'
p1008
aS'scaffold3002_cov145~scaffold32103_cov132'
p1009
aS'scaffold542_cov70~scaffold6824_cov114'
p1010
aS'scaffold10713_cov124~scaffold4604_cov80'
p1011
aS'scaffold21338_cov100~scaffold8647_cov65'
p1012
aS'scaffold16862_cov66~scaffold18416_cov135'
p1013
aS'scaffold17874_cov144~scaffold38164_cov70'
p1014
aS'scaffold10385_cov64~scaffold19924_cov91'
p1015
aS'scaffold31513_cov82~scaffold5259_cov70'
p1016
aS'scaffold167598_cov96~scaffold7183_cov82'
p1017
aS'scaffold3807_cov105~scaffold3967_cov66'
p1018
aS'scaffold12335_cov66~scaffold8993_cov67'
p1019
aS'scaffold182819_cov255~scaffold2675_cov72'
p1020
aS'scaffold1354_cov130~scaffold8335_cov68'
p1021
aS'scaffold10215_cov75~scaffold16998_cov67'
p1022
aS'scaffold15785_cov113~scaffold66380_cov110'
p1023
aS'scaffold43353_cov68~scaffold77207_cov117'
p1024
aS'scaffold36663_cov134~scaffold75670_cov64'
p1025
aS'scaffold182_cov83~scaffold3533_cov68'
p1026
aS'scaffold843_cov127~scaffold844_cov69'
p1027
aS'scaffold23269_cov69~scaffold9403_cov96'
p1028
aS'scaffold10670_cov88~scaffold7453_cov60'
p1029
aS'scaffold18912_cov140~scaffold18914_cov65'
p1030
aS'scaffold3349_cov142~scaffold5670_cov74'
p1031
aS'scaffold11081_cov88~scaffold26032_cov70'
p1032
aS'scaffold2048_cov125~scaffold7977_cov71'
p1033
aS'scaffold11204_cov106~scaffold30140_cov63'
p1034
aS'scaffold167504_cov85~scaffold17931_cov63'
p1035
aS'scaffold14572_cov90~scaffold4478_cov68'
p1036
aS'scaffold6426_cov139~scaffold6427_cov67'
p1037
aS'scaffold165417_cov143~scaffold16672_cov63'
p1038
aS'scaffold30167_cov70~scaffold36663_cov134'
p1039
aS'scaffold15986_cov63~scaffold18584_cov139'
p1040
aS'scaffold25947_cov73~scaffold73411_cov102'
p1041
aS'scaffold14567_cov126~scaffold42400_cov69'
p1042
aS'scaffold6524_cov65~scaffold6704_cov127'
p1043
aS'scaffold18457_cov115~scaffold32162_cov89'
p1044
aS'scaffold56505_cov129~scaffold60_cov119'
p1045
aS'scaffold1978_cov92~scaffold2699_cov70'
p1046
aS'scaffold43863_cov126~scaffold7672_cov74'
p1047
aS'scaffold22010_cov97~scaffold401_cov67'
p1048
aS'scaffold4107_cov90~scaffold6409_cov65'
p1049
aS'scaffold165573_cov134~scaffold6928_cov65'
p1050
aS'scaffold720_cov79~scaffold721_cov134'
p1051
aS'scaffold3630_cov66~scaffold9757_cov95'
p1052
aS'scaffold18542_cov139~scaffold26015_cov66'
p1053
aS'scaffold4321_cov104~scaffold9387_cov68'
p1054
aS'scaffold167650_cov100~scaffold21768_cov66'
p1055
aS'scaffold18396_cov65~scaffold34203_cov139'
p1056
aS'scaffold3745_cov115~scaffold7430_cov66'
p1057
aS'scaffold181240_cov148~scaffold59620_cov74'
p1058
aS'scaffold16165_cov73~scaffold27354_cov105'
p1059
aS'scaffold11928_cov70~scaffold46909_cov63'
p1060
aS'scaffold11499_cov143~scaffold19165_cov65'
p1061
aS'scaffold166682_cov143~scaffold374_cov71'
p1062
aS'scaffold4585_cov69~scaffold6268_cov78'
p1063
aS'scaffold1497_cov69~scaffold167515_cov69'
p1064
aS'scaffold11274_cov111~scaffold2804_cov69'
p1065
aS'scaffold5775_cov75~scaffold73058_cov93'
p1066
aS'scaffold1929_cov135~scaffold9933_cov110'
p1067
aS'scaffold3566_cov79~scaffold4610_cov62'
p1068
aS'scaffold12892_cov134~scaffold47938_cov75'
p1069
aS'scaffold34203_cov139~scaffold4395_cov68'
p1070
aS'scaffold13862_cov109~scaffold8878_cov69'
p1071
aS'scaffold2507_cov119~scaffold414_cov67'
p1072
aS'scaffold14578_cov124~scaffold14579_cov112'
p1073
aS'scaffold15686_cov66~scaffold26431_cov130'
p1074
aS'scaffold9115_cov70~scaffold9117_cov151'
p1075
aS'scaffold1003_cov64~scaffold1006_cov111'
p1076
aS'scaffold10431_cov72~scaffold8528_cov135'
p1077
aS'scaffold6378_cov134~scaffold6379_cov64'
p1078
aS'scaffold12870_cov60~scaffold19598_cov123'
p1079
aS'scaffold166809_cov123~scaffold57805_cov71'
p1080
aS'scaffold20513_cov68~scaffold25966_cov129'
p1081
aS'scaffold19927_cov67~scaffold6206_cov112'
p1082
aS'scaffold1808_cov87~scaffold18178_cov78'
p1083
aS'scaffold46295_cov125~scaffold4678_cov116'
p1084
aS'scaffold3133_cov141~scaffold3135_cov68'
p1085
aS'scaffold195195_cov811~scaffold5496_cov92'
p1086
aS'scaffold16044_cov69~scaffold182_cov83'
p1087
aS'scaffold20824_cov72~scaffold20825_cov153'
p1088
aS'scaffold11692_cov72~scaffold94664_cov148'
p1089
aS'scaffold15386_cov80~scaffold23731_cov68'
p1090
aS'scaffold45518_cov71~scaffold45520_cov151'
p1091
aS'scaffold1071_cov92~scaffold49421_cov62'
p1092
aS'scaffold3406_cov67~scaffold3432_cov123'
p1093
aS'scaffold12001_cov141~scaffold12003_cov68'
p1094
aS'scaffold5456_cov152~scaffold67160_cov58'
p1095
aS'scaffold165425_cov72~scaffold166729_cov102'
p1096
aS'scaffold21531_cov67~scaffold21534_cov145'
p1097
aS'scaffold35511_cov69~scaffold9312_cov104'
p1098
aS'scaffold55111_cov144~scaffold55112_cov70'
p1099
aS'scaffold19109_cov84~scaffold25594_cov137'
p1100
aS'scaffold10491_cov66~scaffold12903_cov71'
p1101
aS'scaffold33902_cov94~scaffold8504_cov71'
p1102
aS'scaffold16554_cov65~scaffold27219_cov142'
p1103
aS'scaffold165434_cov141~scaffold29886_cov66'
p1104
aS'scaffold1435_cov93~scaffold4122_cov62'
p1105
aS'scaffold2350_cov77~scaffold95123_cov91'
p1106
aS'scaffold11842_cov94~scaffold158_cov68'
p1107
aS'scaffold34153_cov147~scaffold48213_cov76'
p1108
aS'scaffold141950_cov79~scaffold9327_cov109'
p1109
aS'scaffold7481_cov74~scaffold89446_cov79'
p1110
aS'scaffold14003_cov64~scaffold5399_cov135'
p1111
aS'scaffold19197_cov73~scaffold4030_cov67'
p1112
aS'scaffold35689_cov78~scaffold63014_cov63'
p1113
aS'scaffold117332_cov60~scaffold16608_cov151'
p1114
aS'scaffold165470_cov102~scaffold48928_cov92'
p1115
aS'scaffold4791_cov68~scaffold5433_cov148'
p1116
aS'scaffold16606_cov107~scaffold42581_cov70'
p1117
aS'scaffold166331_cov132~scaffold8565_cov73'
p1118
aS'scaffold14527_cov64~scaffold1873_cov63'
p1119
aS'scaffold36738_cov76~scaffold6580_cov70'
p1120
aS'scaffold26715_cov65~scaffold27251_cov134'
p1121
aS'scaffold104_cov67~scaffold34705_cov67'
p1122
aS'scaffold7224_cov118~scaffold775_cov72'
p1123
aS'scaffold5995_cov84~scaffold6502_cov73'
p1124
aS'scaffold30423_cov65~scaffold6055_cov140'
p1125
aS'scaffold1760_cov96~scaffold1762_cov75'
p1126
aS'scaffold13885_cov142~scaffold213265_cov125'
p1127
aS'scaffold16632_cov63~scaffold178103_cov209'
p1128
aS'scaffold36163_cov117~scaffold6928_cov65'
p1129
aS'scaffold279_cov75~scaffold7438_cov111'
p1130
aS'scaffold167503_cov98~scaffold7473_cov63'
p1131
aS'scaffold1316_cov119~scaffold5085_cov79'
p1132
aS'scaffold17086_cov103~scaffold17615_cov61'
p1133
aS'scaffold14104_cov135~scaffold22906_cov63'
p1134
aS'scaffold107606_cov134~scaffold107607_cov79'
p1135
aS'scaffold164980_cov146~scaffold3955_cov67'
p1136
aS'scaffold114629_cov63~scaffold15395_cov68'
p1137
aS'scaffold21352_cov62~scaffold78461_cov65'
p1138
aS'scaffold22791_cov67~scaffold22793_cov63'
p1139
aS'scaffold21004_cov60~scaffold5694_cov90'
p1140
aS'scaffold10298_cov88~scaffold12318_cov65'
p1141
aS'scaffold23855_cov65~scaffold8620_cov63'
p1142
aS'scaffold1518_cov144~scaffold7273_cov73'
p1143
aS'scaffold7098_cov89~scaffold8421_cov73'
p1144
aS'scaffold3714_cov147~scaffold3718_cov71'
p1145
aS'scaffold20332_cov97~scaffold7080_cov68'
p1146
aS'scaffold49078_cov128~scaffold54587_cov60'
p1147
aS'scaffold10474_cov65~scaffold10475_cov143'
p1148
aS'scaffold10275_cov68~scaffold62474_cov113'
p1149
aS'scaffold1865_cov101~scaffold58306_cov63'
p1150
aS'scaffold11499_cov143~scaffold11874_cov70'
p1151
aS'scaffold15986_cov63~scaffold34203_cov139'
p1152
aS'scaffold4585_cov69~scaffold4589_cov98'
p1153
aS'scaffold2767_cov75~scaffold9955_cov79'
p1154
aS'scaffold2129_cov167~scaffold92330_cov67'
p1155
aS'scaffold4939_cov152~scaffold4940_cov72'
p1156
aS'scaffold4052_cov74~scaffold5847_cov85'
p1157
aS'scaffold10574_cov127~scaffold11171_cov138'
p1158
aS'scaffold5348_cov143~scaffold91295_cov60'
p1159
aS'scaffold22815_cov69~scaffold22816_cov146'
p1160
aS'scaffold122298_cov65~scaffold122299_cov139'
p1161
aS'scaffold16169_cov72~scaffold18351_cov137'
p1162
aS'scaffold15731_cov124~scaffold1701_cov70'
p1163
aS'scaffold1170_cov146~scaffold69771_cov67'
p1164
aS'scaffold2061_cov67~scaffold3741_cov108'
p1165
aS'scaffold13020_cov66~scaffold1461_cov134'
p1166
aS'scaffold16201_cov125~scaffold51827_cov73'
p1167
aS'scaffold10337_cov80~scaffold21068_cov65'
p1168
aS'scaffold5058_cov63~scaffold6532_cov126'
p1169
aS'scaffold6014_cov96~scaffold69980_cov67'
p1170
aS'scaffold17601_cov135~scaffold1994_cov63'
p1171
aS'scaffold16294_cov110~scaffold7481_cov74'
p1172
aS'scaffold1614_cov71~scaffold31627_cov123'
p1173
aS'scaffold10857_cov70~scaffold10858_cov149'
p1174
aS'scaffold4604_cov80~scaffold4605_cov69'
p1175
aS'scaffold13624_cov94~scaffold72210_cov77'
p1176
aS'scaffold19315_cov107~scaffold7113_cov70'
p1177
aS'scaffold165629_cov145~scaffold33634_cov72'
p1178
aS'scaffold183201_cov134~scaffold6997_cov65'
p1179
aS'scaffold10581_cov98~scaffold17516_cov69'
p1180
aS'scaffold21453_cov86~scaffold4784_cov67'
p1181
aS'scaffold13852_cov94~scaffold7585_cov68'
p1182
aS'scaffold11271_cov65~scaffold8101_cov85'
p1183
aS'scaffold165420_cov139~scaffold27291_cov70'
p1184
aS'scaffold476_cov90~scaffold8782_cov64'
p1185
aS'scaffold2501_cov70~scaffold9044_cov136'
p1186
aS'scaffold2562_cov78~scaffold60916_cov101'
p1187
aS'scaffold5694_cov90~scaffold6452_cov96'
p1188
aS'scaffold4116_cov143~scaffold6097_cov70'
p1189
aS'scaffold449_cov70~scaffold451_cov146'
p1190
aS'scaffold167824_cov153~scaffold540_cov68'
p1191
aS'scaffold12899_cov60~scaffold167494_cov111'
p1192
aS'scaffold166714_cov62~scaffold3456_cov132'
p1193
aS'scaffold29941_cov91~scaffold37213_cov79'
p1194
aS'scaffold183613_cov153~scaffold5720_cov71'
p1195
aS'scaffold7005_cov65~scaffold7006_cov83'
p1196
aS'scaffold10461_cov66~scaffold10462_cov135'
p1197
aS'scaffold5046_cov63~scaffold5049_cov88'
p1198
aS'scaffold19586_cov139~scaffold30711_cov65'
p1199
aS'scaffold24500_cov65~scaffold57197_cov90'
p1200
atp1201
Rp1202
s.