(dp0
S'triploids'
p1
(dp2
S'down'
p3
(lp4
(lp5
S'scaffold4386_cov298'
p6
aS'scaffold2688_cov189'
p7
a(lp8
I1
a(lp9
F0.473118
aaI93
aaa(lp10
S'scaffold5383_cov228'
p11
aS'scaffold6260_cov182'
p12
a(lp13
I1
a(lp14
F0.313253
aaI83
aa(lp15
I1
a(lp16
F0.222222
aaI45
aa(lp17
I1
a(lp18
F0.208333
aaI48
aaa(lp19
S'scaffold34997_cov218'
p20
aS'scaffold126_cov233'
p21
aa(lp22
S'scaffold3363_cov220'
p23
aS'scaffold4931_cov207'
p24
a(lp25
I1
a(lp26
F0.481132
aaI106
aa(lp27
I1
a(lp28
F0.26087
aaI69
aaa(lp29
S'scaffold520_cov225'
p30
aS'scaffold11220_cov221'
p31
a(lp32
I1
a(lp33
F0.283951
aaI81
aa(lp34
I1
a(lp35
F0.317073
aaI82
aa(lp36
I1
a(lp37
F0.333333
aaI84
aa(lp38
I1
a(lp39
F0.21875
aaI64
aa(lp40
I1
a(lp41
F0.30303
aaI66
aa(lp42
I1
a(lp43
F0.328125
aaI64
aaa(lp44
S'scaffold8181_cov267'
p45
aS'scaffold4564_cov155'
p46
aa(lp47
S'scaffold6784_cov373'
p48
aS'scaffold34876_cov153'
p49
a(lp50
I1
a(lp51
F0.341176
aaI85
aaa(lp52
S'scaffold8707_cov275'
p53
aS'scaffold1032_cov163'
p54
a(lp55
I1
a(lp56
F0.277778
aaI72
aa(lp57
I1
a(lp58
F0.297297
aaI74
aa(lp59
I1
a(lp60
F0.260274
aaI73
aa(lp61
I1
a(lp62
F0.242857
aaI70
aa(lp63
I1
a(lp64
F0.293333
aaI75
aa(lp65
I1
a(lp66
F0.311111
aaI90
aa(lp67
I1
a(lp68
F0.418182
aaI110
aaa(lp69
S'scaffold4886_cov351'
p70
aS'scaffold987_cov149'
p71
aa(lp72
S'scaffold5780_cov292'
p73
aS'scaffold421_cov166'
p74
a(lp75
I1
a(lp76
F0.278689
aaI61
aa(lp77
I1
a(lp78
F0.216867
aaI83
aaa(lp79
S'scaffold8289_cov180'
p80
aS'scaffold4798_cov206'
p81
a(lp82
I1
a(lp83
F0.458716
aaI109
aa(lp84
I1
a(lp85
F0.292683
aaI82
aa(lp86
I1
a(lp87
F0.487179
aaI78
aa(lp88
I1
a(lp89
F0.214286
aaI112
aaa(lp90
S'scaffold467_cov263'
p91
aS'scaffold7247_cov286'
p92
aa(lp93
S'scaffold1469_cov209'
p94
aS'scaffold3829_cov235'
p95
a(lp96
I1
a(lp97
F0.433628
aaI113
aa(lp98
I1
a(lp99
F0.225352
aaI142
aaa(lp100
S'scaffold14087_cov206'
p101
aS'scaffold4385_cov239'
p102
a(lp103
I1
a(lp104
F0.268293
aaI82
aa(lp105
I1
a(lp106
F0.31746
aaI63
aa(lp107
I1
a(lp108
F0.381579
aaI76
aaa(lp109
S'scaffold19250_cov205'
p110
aS'scaffold8056_cov196'
p111
aa(lp112
S'scaffold4480_cov293'
p113
aS'scaffold18648_cov147'
p114
aa(lp115
S'scaffold3984_cov353'
p116
aS'scaffold2503_cov151'
p117
a(lp118
I1
a(lp119
F0.291667
aaI72
aaa(lp120
S'scaffold3693_cov252'
p121
aS'scaffold35708_cov182'
p122
a(lp123
I1
a(lp124
F0.20339
aaI59
aa(lp125
I1
a(lp126
F0.206897
aaI58
aa(lp127
I1
a(lp128
F0.206897
aaI58
aa(lp129
I1
a(lp130
F0.214286
aaI56
aa(lp131
I1
a(lp132
F0.258621
aaI58
aaa(lp133
S'scaffold35009_cov245'
p134
aS'scaffold91_cov238'
p135
a(lp136
I1
a(lp137
F0.413333
aaI75
aa(lp138
I1
a(lp139
F0.491071
aaI112
aa(lp140
I1
a(lp141
F0.444444
aaI117
aa(lp142
I1
a(lp143
F0.514851
aaI101
aa(lp144
I1
a(lp145
F0.25974
aaI77
aa(lp146
I1
a(lp147
F0.402597
aaI77
aa(lp148
I1
a(lp149
F0.5
aaI58
aa(lp150
I1
a(lp151
F0.241935
aaI62
aa(lp152
I1
a(lp153
F0.224138
aaI58
aaa(lp154
S'scaffold1767_cov191'
p155
aS'scaffold1511_cov206'
p156
a(lp157
I1
a(lp158
F0.472527
aaI91
aa(lp159
I1
a(lp160
F0.305085
aaI59
aa(lp161
I1
a(lp162
F0.20339
aaI59
aa(lp163
I1
a(lp164
F0.25
aaI56
aa(lp165
I1
a(lp166
F0.369231
aaI65
aa(lp167
I1
a(lp168
F0.244898
aaI49
aa(lp169
I1
a(lp170
F0.26087
aaI46
aa(lp171
I1
a(lp172
F0.26
aaI50
aa(lp173
I1
a(lp174
F0.2
aaI50
aa(lp175
I1
a(lp176
F0.236842
aaI76
aa(lp177
I1
a(lp178
F0.387755
aaI98
aaa(lp179
S'scaffold10091_cov218'
p180
aS'scaffold8128_cov148'
p181
aa(lp182
S'scaffold40391_cov315'
p183
aS'scaffold10294_cov190'
p184
aa(lp185
S'scaffold709_cov247'
p186
aS'scaffold5198_cov234'
p187
aa(lp188
S'scaffold52810_cov589'
p189
aS'scaffold2099_cov316'
p190
aa(lp191
S'scaffold6504_cov303'
p192
aS'scaffold13906_cov172'
p193
aa(lp194
S'scaffold275_cov215'
p195
aS'scaffold387_cov149'
p196
aa(lp197
S'scaffold1607_cov239'
p198
aS'scaffold35912_cov193'
p199
a(lp200
I1
a(lp201
F0.2
aaI60
aa(lp202
I1
a(lp203
F0.24
aaI75
aa(lp204
I1
a(lp205
F0.238095
aaI63
aa(lp206
I1
a(lp207
F0.254237
aaI59
aa(lp208
I1
a(lp209
F0.227273
aaI66
aa(lp210
I1
a(lp211
F0.208333
aaI48
aa(lp212
I1
a(lp213
F0.22973
aaI74
aaa(lp214
S'scaffold35835_cov299'
p215
aS'scaffold15165_cov249'
p216
aa(lp217
S'scaffold3960_cov215'
p218
aS'scaffold3895_cov206'
p219
a(lp220
I1
a(lp221
F0.233766
aaI77
aa(lp222
I1
a(lp223
F0.219178
aaI73
aa(lp224
I1
a(lp225
F0.22973
aaI74
aa(lp226
I1
a(lp227
F0.435897
aaI78
aa(lp228
I1
a(lp229
F0.445783
aaI83
aa(lp230
I1
a(lp231
F0.464286
aaI84
aa(lp232
I1
a(lp233
F0.494382
aaI89
aa(lp234
I1
a(lp235
F0.425287
aaI87
aa(lp236
I1
a(lp237
F0.32
aaI75
aaa(lp238
S'scaffold2468_cov231'
p239
aS'scaffold4243_cov244'
p240
aa(lp241
S'scaffold2338_cov238'
p242
aS'scaffold2516_cov204'
p243
a(lp244
I1
a(lp245
F0.258621
aaI58
aa(lp246
I1
a(lp247
F0.333333
aaI57
aa(lp248
I1
a(lp249
F0.338983
aaI59
aa(lp250
I1
a(lp251
F0.298701
aaI77
aa(lp252
I1
a(lp253
F0.294872
aaI78
aa(lp254
I1
a(lp255
F0.310811
aaI74
aa(lp256
I1
a(lp257
F0.211268
aaI71
aa(lp258
I1
a(lp259
F0.232877
aaI73
aa(lp260
I1
a(lp261
F0.242857
aaI70
aa(lp262
I1
a(lp263
F0.217949
aaI78
aa(lp264
I1
a(lp265
F0.412844
aaI109
aa(lp266
I1
a(lp267
F0.453488
aaI86
aa(lp268
I1
a(lp269
F0.243902
aaI41
aa(lp270
I1
a(lp271
F0.22449
aaI49
aa(lp272
I1
a(lp273
F0.31746
aaI63
aa(lp274
I1
a(lp275
F0.388235
aaI85
aaa(lp276
S'scaffold6588_cov297'
p277
aS'scaffold3089_cov153'
p278
a(lp279
I1
a(lp280
F0.523256
aaI86
aa(lp281
I1
a(lp282
F0.337662
aaI77
aaa(lp283
S'scaffold11638_cov181'
p284
aS'scaffold11037_cov149'
p285
aa(lp286
S'scaffold5697_cov266'
p287
aS'scaffold3738_cov179'
p288
a(lp289
I1
a(lp290
F0.322034
aaI59
aa(lp291
I1
a(lp292
F0.350649
aaI77
aa(lp293
I1
a(lp294
F0.274194
aaI62
aa(lp295
I1
a(lp296
F0.295082
aaI61
aa(lp297
I1
a(lp298
F0.316667
aaI60
aa(lp299
I1
a(lp300
F0.35
aaI60
aa(lp301
I1
a(lp302
F0.35
aaI60
aa(lp303
I1
a(lp304
F0.327273
aaI55
aa(lp305
I1
a(lp306
F0.311111
aaI45
aa(lp307
I1
a(lp308
F0.255319
aaI47
aa(lp309
I1
a(lp310
F0.310345
aaI58
aa(lp311
I1
a(lp312
F0.298701
aaI77
aa(lp313
I1
a(lp314
F0.333333
aaI90
aa(lp315
I1
a(lp316
F0.371795
aaI78
aa(lp317
I1
a(lp318
F0.457831
aaI83
aa(lp319
I1
a(lp320
F0.481481
aaI108
aa(lp321
I1
a(lp322
F0.455446
aaI101
aa(lp323
I1
a(lp324
F0.304348
aaI69
aa(lp325
I1
a(lp326
F0.297297
aaI74
aa(lp327
I1
a(lp328
F0.302632
aaI76
aa(lp329
I1
a(lp330
F0.328947
aaI76
aa(lp331
I1
a(lp332
F0.230769
aaI65
aa(lp333
I1
a(lp334
F0.318182
aaI66
aa(lp335
I1
a(lp336
F0.381579
aaI76
aa(lp337
I1
a(lp338
F0.291667
aaI72
aa(lp339
I1
a(lp340
F0.44186
aaI86
aa(lp341
I1
a(lp342
F0.323077
aaI65
aa(lp343
I1
a(lp344
F0.352941
aaI68
aa(lp345
I1
a(lp346
F0.338235
aaI68
aaa(lp347
S'scaffold12689_cov256'
p348
aS'scaffold7460_cov152'
p349
aa(lp350
S'scaffold3666_cov227'
p351
aS'scaffold2175_cov210'
p352
aa(lp353
S'scaffold4560_cov350'
p354
aS'scaffold2640_cov197'
p355
aa(lp356
S'scaffold34901_cov222'
p357
aS'scaffold14139_cov184'
p358
a(lp359
I1
a(lp360
F0.210526
aaI76
aa(lp361
I1
a(lp362
F0.415929
aaI113
aa(lp363
I1
a(lp364
F0.421687
aaI83
aa(lp365
I1
a(lp366
F0.25974
aaI77
aa(lp367
I1
a(lp368
F0.224138
aaI58
aaa(lp369
S'scaffold35491_cov284'
p370
aS'scaffold6922_cov210'
p371
a(lp372
I1
a(lp373
F0.352273
aaI88
aa(lp374
I1
a(lp375
F0.329545
aaI88
aa(lp376
I1
a(lp377
F0.298701
aaI77
aa(lp378
I1
a(lp379
F0.39759
aaI83
aa(lp380
I1
a(lp381
F0.505747
aaI87
aa(lp382
I1
a(lp383
F0.291139
aaI79
aa(lp384
I1
a(lp385
F0.291139
aaI79
aa(lp386
I1
a(lp387
F0.305882
aaI85
aa(lp388
I1
a(lp389
F0.27381
aaI84
aa(lp390
I1
a(lp391
F0.303371
aaI89
aa(lp392
I1
a(lp393
F0.40625
aaI96
aa(lp394
I1
a(lp395
F0.395604
aaI91
aa(lp396
I1
a(lp397
F0.369863
aaI73
aa(lp398
I1
a(lp399
F0.328358
aaI67
aaa(lp400
S'scaffold5724_cov219'
p401
aS'scaffold8613_cov250'
p402
a(lp403
I1
a(lp404
F0.328358
aaI67
aa(lp405
I1
a(lp406
F0.328571
aaI70
aa(lp407
I1
a(lp408
F0.287671
aaI73
aa(lp409
I1
a(lp410
F0.371795
aaI78
aa(lp411
I1
a(lp412
F0.45283
aaI106
aa(lp413
I1
a(lp414
F0.354839
aaI62
aa(lp415
I1
a(lp416
F0.413793
aaI87
aa(lp417
I1
a(lp418
F0.444444
aaI90
aa(lp419
I1
a(lp420
F0.486111
aaI72
aa(lp421
I1
a(lp422
F0.453488
aaI86
aa(lp423
I1
a(lp424
F0.420455
aaI88
aa(lp425
I1
a(lp426
F0.28169
aaI71
aa(lp427
I1
a(lp428
F0.438202
aaI89
aa(lp429
I1
a(lp430
F0.328358
aaI67
aa(lp431
I1
a(lp432
F0.325301
aaI83
aa(lp433
I1
a(lp434
F0.320988
aaI81
aa(lp435
I1
a(lp436
F0.271186
aaI59
aa(lp437
I1
a(lp438
F0.227273
aaI66
aa(lp439
I1
a(lp440
F0.360656
aaI61
aa(lp441
I1
a(lp442
F0.43956
aaI91
aa(lp443
I1
a(lp444
F0.51087
aaI92
aa(lp445
I1
a(lp446
F0.431579
aaI95
aa(lp447
I1
a(lp448
F0.409091
aaI88
aa(lp449
I1
a(lp450
F0.37931
aaI87
aa(lp451
I1
a(lp452
F0.317647
aaI85
aa(lp453
I1
a(lp454
F0.283582
aaI67
aaa(lp455
S'scaffold6223_cov242'
p456
aS'scaffold1876_cov202'
p457
aa(lp458
S'scaffold34047_cov174'
p459
aS'scaffold14855_cov234'
p460
a(lp461
I1
a(lp462
F0.383929
aaI112
aa(lp463
I1
a(lp464
F0.359223
aaI103
aa(lp465
I1
a(lp466
F0.349515
aaI103
aa(lp467
I1
a(lp468
F0.418367
aaI98
aaa(lp469
S'scaffold2702_cov266'
p470
aS'scaffold432_cov233'
p471
a(lp472
I1
a(lp473
F0.222222
aaI63
aa(lp474
I1
a(lp475
F0.474227
aaI97
aa(lp476
I1
a(lp477
F0.45
aaI100
aa(lp478
I1
a(lp479
F0.318966
aaI116
aa(lp480
I1
a(lp481
F0.28125
aaI64
aa(lp482
I1
a(lp483
F0.462687
aaI67
aa(lp484
I1
a(lp485
F0.211538
aaI52
aa(lp486
I1
a(lp487
F0.255814
aaI43
aaa(lp488
S'scaffold11028_cov263'
p489
aS'scaffold3310_cov167'
p490
a(lp491
I1
a(lp492
F0.40625
aaI96
aa(lp493
I1
a(lp494
F0.463636
aaI110
aa(lp495
I1
a(lp496
F0.476636
aaI107
aaa(lp497
S'scaffold5897_cov436'
p498
aS'scaffold343_cov157'
p499
aa(lp500
S'scaffold6105_cov252'
p501
aS'scaffold6855_cov172'
p502
a(lp503
I1
a(lp504
F0.313253
aaI83
aaa(lp505
S'scaffold36255_cov269'
p506
aS'scaffold42378_cov315'
p507
aa(lp508
S'scaffold2237_cov233'
p509
aS'scaffold34835_cov215'
p510
a(lp511
I1
a(lp512
F0.451923
aaI104
aaa(lp513
S'scaffold2751_cov176'
p514
aS'scaffold636_cov192'
p515
aa(lp516
S'scaffold1228_cov289'
p517
aS'scaffold18802_cov239'
p518
aa(lp519
S'scaffold6446_cov191'
p520
aS'scaffold34878_cov239'
p521
aa(lp522
S'scaffold6205_cov227'
p523
aS'scaffold858_cov242'
p524
a(lp525
I1
a(lp526
F0.515152
aaI99
aa(lp527
I1
a(lp528
F0.554455
aaI101
aa(lp529
I1
a(lp530
F0.5
aaI76
aa(lp531
I1
a(lp532
F0.313253
aaI83
aaa(lp533
S'scaffold34894_cov238'
p534
aS'scaffold424_cov173'
p535
a(lp536
I1
a(lp537
F0.290698
aaI86
aa(lp538
I1
a(lp539
F0.4625
aaI80
aaa(lp540
S'scaffold13730_cov260'
p541
aS'scaffold53022_cov294'
p542
a(lp543
I1
a(lp544
F0.480769
aaI104
aa(lp545
I1
a(lp546
F0.50495
aaI101
aaa(lp547
S'scaffold3883_cov286'
p548
aS'scaffold2531_cov161'
p549
aa(lp550
S'scaffold19486_cov306'
p551
aS'scaffold19485_cov191'
p552
aa(lp553
S'scaffold13299_cov272'
p554
aS'scaffold13790_cov193'
p555
a(lp556
I1
a(lp557
F0.449438
aaI89
aa(lp558
I1
a(lp559
F0.472527
aaI91
aa(lp560
I1
a(lp561
F0.279412
aaI68
aaa(lp562
S'scaffold2120_cov226'
p563
aS'scaffold5979_cov159'
p564
aa(lp565
S'scaffold30587_cov247'
p566
aS'scaffold1792_cov186'
p567
a(lp568
I1
a(lp569
F0.246753
aaI77
aa(lp570
I1
a(lp571
F0.216216
aaI74
aaa(lp572
S'scaffold3511_cov209'
p573
aS'scaffold383_cov198'
p574
a(lp575
I1
a(lp576
F0.256757
aaI74
aa(lp577
I1
a(lp578
F0.350649
aaI77
aa(lp579
I1
a(lp580
F0.243243
aaI74
aa(lp581
I1
a(lp582
F0.514851
aaI101
aa(lp583
I1
a(lp584
F0.231884
aaI69
aaa(lp585
S'scaffold1747_cov293'
p586
aS'scaffold34100_cov244'
p587
a(lp588
I1
a(lp589
F0.202703
aaI74
aa(lp590
I1
a(lp591
F0.384615
aaI65
aa(lp592
I1
a(lp593
F0.39726
aaI73
aa(lp594
I1
a(lp595
F0.352113
aaI71
aa(lp596
I1
a(lp597
F0.415584
aaI77
aa(lp598
I1
a(lp599
F0.305263
aaI95
aaa(lp600
S'scaffold1599_cov246'
p601
aS'scaffold34016_cov157'
p602
aa(lp603
S'scaffold53165_cov284'
p604
aS'scaffold4404_cov204'
p605
aa(lp606
S'scaffold16908_cov201'
p607
aS'scaffold4051_cov206'
p608
a(lp609
I1
a(lp610
F0.2
aaI60
aa(lp611
I1
a(lp612
F0.37037
aaI81
aa(lp613
I1
a(lp614
F0.367347
aaI49
aaa(lp615
S'scaffold15598_cov210'
p616
aS'scaffold5017_cov219'
p617
a(lp618
I1
a(lp619
F0.337662
aaI77
aa(lp620
I1
a(lp621
F0.283333
aaI60
aa(lp622
I1
a(lp623
F0.347222
aaI72
aa(lp624
I1
a(lp625
F0.211268
aaI71
aa(lp626
I1
a(lp627
F0.314286
aaI70
aa(lp628
I1
a(lp629
F0.307692
aaI78
aa(lp630
I1
a(lp631
F0.484127
aaI126
aa(lp632
I1
a(lp633
F0.410714
aaI112
aa(lp634
I1
a(lp635
F0.33
aaI100
aa(lp636
I1
a(lp637
F0.350515
aaI97
aa(lp638
I1
a(lp639
F0.350515
aaI97
aa(lp640
I1
a(lp641
F0.373333
aaI75
aa(lp642
I1
a(lp643
F0.361446
aaI83
aaa(lp644
S'scaffold11791_cov336'
p645
aS'scaffold3120_cov189'
p646
a(lp647
I1
a(lp648
F0.232143
aaI56
aaa(lp649
S'scaffold1893_cov262'
p650
aS'scaffold35334_cov163'
p651
aa(lp652
S'scaffold2157_cov220'
p653
aS'scaffold5589_cov166'
p654
aa(lp655
S'scaffold7588_cov337'
p656
aS'scaffold9757_cov155'
p657
aa(lp658
S'scaffold3083_cov378'
p659
aS'scaffold34652_cov210'
p660
a(lp661
I1
a(lp662
F0.327586
aaI58
aa(lp663
I1
a(lp664
F0.302632
aaI76
aa(lp665
I1
a(lp666
F0.219512
aaI82
aa(lp667
I1
a(lp668
F0.214286
aaI56
aaa(lp669
S'scaffold1203_cov294'
p670
aS'scaffold1019_cov183'
p671
aa(lp672
S'scaffold4758_cov346'
p673
aS'scaffold1045_cov153'
p674
a(lp675
I1
a(lp676
F0.265625
aaI64
aa(lp677
I1
a(lp678
F0.406977
aaI86
aa(lp679
I1
a(lp680
F0.305882
aaI85
aa(lp681
I1
a(lp682
F0.297619
aaI84
aa(lp683
I1
a(lp684
F0.285714
aaI91
aaa(lp685
S'scaffold355_cov233'
p686
aS'scaffold5164_cov209'
p687
a(lp688
I1
a(lp689
F0.367089
aaI79
aa(lp690
I1
a(lp691
F0.460674
aaI89
aa(lp692
I1
a(lp693
F0.338462
aaI65
aa(lp694
I1
a(lp695
F0.43617
aaI94
aa(lp696
I1
a(lp697
F0.41
aaI100
aa(lp698
I1
a(lp699
F0.438596
aaI114
aaa(lp700
S'scaffold10417_cov197'
p701
aS'scaffold4396_cov166'
p702
aa(lp703
S'scaffold3883_cov286'
p704
aS'scaffold12108_cov159'
p705
aa(lp706
S'scaffold16317_cov210'
p707
aS'scaffold6713_cov225'
p708
a(lp709
I1
a(lp710
F0.256098
aaI82
aa(lp711
I1
a(lp712
F0.363636
aaI77
aa(lp713
I1
a(lp714
F0.428571
aaI77
aa(lp715
I1
a(lp716
F0.373626
aaI91
aa(lp717
I1
a(lp718
F0.329412
aaI85
aa(lp719
I1
a(lp720
F0.505051
aaI99
aaa(lp721
S'scaffold9508_cov196'
p722
aS'scaffold11324_cov225'
p723
a(lp724
I1
a(lp725
F0.285714
aaI63
aaa(lp726
S'scaffold24073_cov287'
p727
aS'scaffold36462_cov152'
p728
aa(lp729
S'scaffold5051_cov291'
p730
aS'scaffold1404_cov156'
p731
aa(lp732
S'scaffold3476_cov276'
p733
aS'scaffold3249_cov179'
p734
a(lp735
I1
a(lp736
F0.473684
aaI95
aa(lp737
I1
a(lp738
F0.391892
aaI74
aaa(lp739
S'scaffold299_cov290'
p740
aS'scaffold4971_cov235'
p741
aa(lp742
S'scaffold34756_cov262'
p743
aS'scaffold23838_cov109'
p744
aa(lp745
S'scaffold276_cov267'
p746
aS'scaffold6071_cov156'
p747
aa(lp748
S'scaffold38974_cov463'
p749
aS'scaffold343_cov157'
p750
aa(lp751
S'scaffold14255_cov253'
p752
aS'scaffold2270_cov160'
p753
a(lp754
I1
a(lp755
F0.245283
aaI53
aa(lp756
I1
a(lp757
F0.22
aaI50
aa(lp758
I1
a(lp759
F0.267857
aaI56
aa(lp760
I1
a(lp761
F0.203125
aaI64
aa(lp762
I1
a(lp763
F0.466667
aaI90
aaa(lp764
S'scaffold19913_cov154'
p765
aS'scaffold35508_cov210'
p766
aa(lp767
S'scaffold34240_cov291'
p768
aS'scaffold43247_cov305'
p769
aa(lp770
S'scaffold6415_cov250'
p771
aS'scaffold6724_cov185'
p772
a(lp773
I1
a(lp774
F0.277778
aaI72
aa(lp775
I1
a(lp776
F0.298507
aaI67
aaa(lp777
S'scaffold34969_cov237'
p778
aS'scaffold5373_cov204'
p779
a(lp780
I1
a(lp781
F0.254237
aaI59
aa(lp782
I1
a(lp783
F0.34
aaI100
aa(lp784
I1
a(lp785
F0.483871
aaI93
aa(lp786
I1
a(lp787
F0.306667
aaI75
aa(lp788
I1
a(lp789
F0.324675
aaI77
aa(lp790
I1
a(lp791
F0.380435
aaI92
aa(lp792
I1
a(lp793
F0.358974
aaI78
aa(lp794
I1
a(lp795
F0.333333
aaI78
aa(lp796
I1
a(lp797
F0.395062
aaI81
aa(lp798
I1
a(lp799
F0.2
aaI60
aa(lp800
I1
a(lp801
F0.20339
aaI59
aa(lp802
I1
a(lp803
F0.426667
aaI75
aaa(lp804
S'scaffold22860_cov185'
p805
aS'scaffold6721_cov174'
p806
a(lp807
I1
a(lp808
F0.252033
aaI123
aaa(lp809
S'scaffold1871_cov212'
p810
aS'scaffold3028_cov204'
p811
a(lp812
I1
a(lp813
F0.243902
aaI82
aa(lp814
I1
a(lp815
F0.269231
aaI52
aa(lp816
I1
a(lp817
F0.333333
aaI63
aa(lp818
I1
a(lp819
F0.357143
aaI70
aa(lp820
I1
a(lp821
F0.371429
aaI70
aa(lp822
I1
a(lp823
F0.348485
aaI66
aa(lp824
I1
a(lp825
F0.376812
aaI69
aa(lp826
I1
a(lp827
F0.342105
aaI76
aa(lp828
I1
a(lp829
F0.350649
aaI77
aa(lp830
I1
a(lp831
F0.666667
aaI3
aaa(lp832
S'scaffold9334_cov225'
p833
aS'scaffold4813_cov177'
p834
a(lp835
I1
a(lp836
F0.285714
aaI63
aa(lp837
I1
a(lp838
F0.280488
aaI82
aa(lp839
I1
a(lp840
F0.2
aaI60
aa(lp841
I1
a(lp842
F0.257143
aaI70
aaa(lp843
S'scaffold625_cov187'
p844
aS'scaffold8957_cov170'
p845
a(lp846
I1
a(lp847
F0.308824
aaI68
aa(lp848
I1
a(lp849
F0.22449
aaI49
aa(lp850
I1
a(lp851
F0.307692
aaI52
aa(lp852
I1
a(lp853
F0.435484
aaI62
aa(lp854
I1
a(lp855
F0.410526
aaI95
aa(lp856
I1
a(lp857
F0.442308
aaI104
aa(lp858
I1
a(lp859
F0.545455
aaI99
aa(lp860
I1
a(lp861
F0.329114
aaI79
aa(lp862
I1
a(lp863
F0.26506
aaI83
aa(lp864
I1
a(lp865
F0.339806
aaI103
aa(lp866
I1
a(lp867
F0.33
aaI100
aa(lp868
I1
a(lp869
F0.3125
aaI96
aa(lp870
I1
a(lp871
F0.3
aaI100
aa(lp872
I1
a(lp873
F0.246575
aaI73
aa(lp874
I1
a(lp875
F0.276316
aaI76
aa(lp876
I1
a(lp877
F0.25974
aaI77
aa(lp878
I1
a(lp879
F0.285714
aaI63
aaa(lp880
S'scaffold193_cov232'
p881
aS'scaffold51921_cov294'
p882
aa(lp883
S'scaffold622_cov424'
p884
aS'scaffold1302_cov140'
p885
aa(lp886
S'scaffold3060_cov247'
p887
aS'scaffold3487_cov182'
p888
aa(lp889
S'scaffold21_cov335'
p890
aS'scaffold1045_cov153'
p891
aa(lp892
S'scaffold13299_cov272'
p893
aS'scaffold10369_cov160'
p894
a(lp895
I1
a(lp896
F0.269231
aaI78
aa(lp897
I1
a(lp898
F0.405405
aaI37
aaa(lp899
S'scaffold1828_cov217'
p900
aS'scaffold5358_cov160'
p901
a(lp902
I1
a(lp903
F0.494845
aaI97
aa(lp904
I1
a(lp905
F0.474747
aaI99
aa(lp906
I1
a(lp907
F0.235294
aaI68
aaa(lp908
S'scaffold36286_cov261'
p909
aS'scaffold8587_cov157'
p910
aa(lp911
S'scaffold5178_cov237'
p912
aS'scaffold6699_cov179'
p913
aa(lp914
S'scaffold3911_cov285'
p915
aS'scaffold5073_cov227'
p916
a(lp917
I1
a(lp918
F0.534653
aaI101
aa(lp919
I1
a(lp920
F0.306306
aaI111
aa(lp921
I1
a(lp922
F0.252252
aaI111
aa(lp923
I1
a(lp924
F0.27193
aaI114
aa(lp925
I1
a(lp926
F0.424242
aaI99
aa(lp927
I1
a(lp928
F0.235294
aaI102
aa(lp929
I1
a(lp930
F0.255102
aaI98
aa(lp931
I1
a(lp932
F0.242857
aaI70
aa(lp933
I1
a(lp934
F0.328571
aaI70
aa(lp935
I1
a(lp936
F0.328358
aaI67
aa(lp937
I1
a(lp938
F0.428571
aaI70
aa(lp939
I1
a(lp940
F0.434211
aaI76
aaa(lp941
S'scaffold6166_cov218'
p942
aS'scaffold34141_cov184'
p943
a(lp944
I1
a(lp945
F0.404255
aaI94
aaa(lp946
S'scaffold3082_cov287'
p947
aS'scaffold2983_cov165'
p948
a(lp949
I1
a(lp950
F0.508475
aaI118
aa(lp951
I1
a(lp952
F0.375
aaI80
aaa(lp953
S'scaffold47198_cov463'
p954
aS'scaffold34572_cov182'
p955
a(lp956
I1
a(lp957
F0.607143
aaI112
aa(lp958
I1
a(lp959
F0.349398
aaI83
aa(lp960
I1
a(lp961
F0.355263
aaI76
aa(lp962
I1
a(lp963
F0.482143
aaI56
aaa(lp964
S'scaffold2985_cov221'
p965
aS'scaffold103_cov152'
p966
a(lp967
I1
a(lp968
F0.25
aaI148
aa(lp969
I1
a(lp970
F0.441379
aaI145
aaa(lp971
S'scaffold12793_cov183'
p972
aS'scaffold12226_cov185'
p973
aa(lp974
S'scaffold1234_cov222'
p975
aS'scaffold34763_cov140'
p976
aa(lp977
S'scaffold3901_cov329'
p978
aS'scaffold14736_cov203'
p979
aa(lp980
S'scaffold34579_cov226'
p981
aS'scaffold34935_cov228'
p982
a(lp983
I1
a(lp984
F0.240602
aaI133
aa(lp985
I1
a(lp986
F0.361963
aaI163
aaa(lp987
S'scaffold21112_cov305'
p988
aS'scaffold22738_cov154'
p989
aa(lp990
S'scaffold34946_cov233'
p991
aS'scaffold2695_cov200'
p992
a(lp993
I1
a(lp994
F0.43956
aaI91
aa(lp995
I1
a(lp996
F0.43
aaI100
aa(lp997
I1
a(lp998
F0.275362
aaI69
aa(lp999
I1
a(lp1000
F0.346154
aaI78
aa(lp1001
I1
a(lp1002
F0.3125
aaI96
aa(lp1003
I1
a(lp1004
F0.534884
aaI86
aa(lp1005
I1
a(lp1006
F0.53211
aaI109
aa(lp1007
I1
a(lp1008
F0.568627
aaI102
aa(lp1009
I1
a(lp1010
F0.488372
aaI86
aa(lp1011
I1
a(lp1012
F0.428571
aaI84
aa(lp1013
I1
a(lp1014
F0.4
aaI75
aa(lp1015
I1
a(lp1016
F0.285714
aaI77
aa(lp1017
I1
a(lp1018
F0.305556
aaI72
aa(lp1019
I1
a(lp1020
F0.259259
aaI81
aa(lp1021
I1
a(lp1022
F0.308176
aaI159
aa(lp1023
I1
a(lp1024
F0.323529
aaI102
aa(lp1025
I1
a(lp1026
F0.307692
aaI39
aa(lp1027
I1
a(lp1028
F0.365079
aaI63
aaa(lp1029
S'scaffold4226_cov183'
p1030
aS'scaffold4227_cov149'
p1031
aa(lp1032
S'scaffold7776_cov261'
p1033
aS'scaffold417_cov219'
p1034
a(lp1035
I1
a(lp1036
F0.3375
aaI80
aa(lp1037
I1
a(lp1038
F0.366667
aaI60
aa(lp1039
I1
a(lp1040
F0.392857
aaI84
aa(lp1041
I1
a(lp1042
F0.383562
aaI73
aa(lp1043
I1
a(lp1044
F0.352941
aaI68
aa(lp1045
I1
a(lp1046
F0.223881
aaI67
aa(lp1047
I1
a(lp1048
F0.328358
aaI67
aa(lp1049
I1
a(lp1050
F0.305085
aaI59
aa(lp1051
I1
a(lp1052
F0.304348
aaI69
aa(lp1053
I1
a(lp1054
F0.2875
aaI80
aa(lp1055
I1
a(lp1056
F0.289157
aaI83
aa(lp1057
I1
a(lp1058
F0.285714
aaI84
aa(lp1059
I1
a(lp1060
F0.321839
aaI87
aa(lp1061
I1
a(lp1062
F0.205479
aaI73
aa(lp1063
I1
a(lp1064
F0.2875
aaI80
aa(lp1065
I1
a(lp1066
F0.257576
aaI66
aa(lp1067
I1
a(lp1068
F0.298701
aaI77
aa(lp1069
I1
a(lp1070
F0.234375
aaI64
aa(lp1071
I1
a(lp1072
F0.234375
aaI64
aa(lp1073
I1
a(lp1074
F0.375
aaI88
aa(lp1075
I1
a(lp1076
F0.453333
aaI75
aa(lp1077
I1
a(lp1078
F0.403226
aaI62
aa(lp1079
I1
a(lp1080
F0.416667
aaI60
aa(lp1081
I1
a(lp1082
F0.25
aaI56
aaa(lp1083
S'scaffold35170_cov289'
p1084
aS'scaffold34652_cov210'
p1085
a(lp1086
I1
a(lp1087
F0.211268
aaI71
aa(lp1088
I1
a(lp1089
F0.277778
aaI54
aa(lp1090
I1
a(lp1091
F0.327586
aaI58
aa(lp1092
I1
a(lp1093
F0.242857
aaI70
aa(lp1094
I1
a(lp1095
F0.316456
aaI79
aa(lp1096
I1
a(lp1097
F0.29703
aaI101
aa(lp1098
I1
a(lp1099
F0.303571
aaI56
aa(lp1100
I1
a(lp1101
F0.275862
aaI58
aa(lp1102
I1
a(lp1103
F0.245614
aaI57
aa(lp1104
I1
a(lp1105
F0.216667
aaI60
aa(lp1106
I1
a(lp1107
F0.253731
aaI67
aa(lp1108
I1
a(lp1109
F0.212121
aaI66
aa(lp1110
I1
a(lp1111
F0.228571
aaI70
aa(lp1112
I1
a(lp1113
F0.222222
aaI72
aa(lp1114
I1
a(lp1115
F0.215385
aaI65
aa(lp1116
I1
a(lp1117
F0.557692
aaI104
aa(lp1118
I1
a(lp1119
F0.47191
aaI89
aa(lp1120
I1
a(lp1121
F0.226415
aaI53
aa(lp1122
I1
a(lp1123
F0.24
aaI50
aa(lp1124
I1
a(lp1125
F0.310345
aaI58
aa(lp1126
I1
a(lp1127
F0.369863
aaI73
aa(lp1128
I1
a(lp1129
F0.459184
aaI98
aa(lp1130
I1
a(lp1131
F0.234375
aaI64
aa(lp1132
I1
a(lp1133
F0.205882
aaI68
aa(lp1134
I1
a(lp1135
F0.246154
aaI65
aa(lp1136
I1
a(lp1137
F0.320988
aaI81
aa(lp1138
I1
a(lp1139
F0.329268
aaI82
aa(lp1140
I1
a(lp1141
F0.328947
aaI76
aa(lp1142
I1
a(lp1143
F0.376344
aaI93
aa(lp1144
I1
a(lp1145
F0.36
aaI75
aa(lp1146
I1
a(lp1147
F0.375
aaI72
aa(lp1148
I1
a(lp1149
F0.352113
aaI71
aa(lp1150
I1
a(lp1151
F0.361111
aaI72
aa(lp1152
I1
a(lp1153
F0.363636
aaI55
aa(lp1154
I1
a(lp1155
F0.311475
aaI61
aa(lp1156
I1
a(lp1157
F0.31746
aaI63
aa(lp1158
I1
a(lp1159
F0.448718
aaI78
aa(lp1160
I1
a(lp1161
F0.479167
aaI48
aa(lp1162
I1
a(lp1163
F0.395062
aaI81
aa(lp1164
I1
a(lp1165
F0.373494
aaI83
aa(lp1166
I1
a(lp1167
F0.361702
aaI94
aa(lp1168
I1
a(lp1169
F0.443038
aaI79
aa(lp1170
I1
a(lp1171
F0.362069
aaI58
aa(lp1172
I1
a(lp1173
F0.338462
aaI65
aa(lp1174
I1
a(lp1175
F0.288462
aaI52
aa(lp1176
I1
a(lp1177
F0.294118
aaI51
aa(lp1178
I1
a(lp1179
F0.254237
aaI59
aa(lp1180
I1
a(lp1181
F0.420455
aaI88
aa(lp1182
I1
a(lp1183
F0.455556
aaI90
aa(lp1184
I1
a(lp1185
F0.402778
aaI72
aa(lp1186
I1
a(lp1187
F0.348485
aaI66
aa(lp1188
I1
a(lp1189
F0.39604
aaI101
aa(lp1190
I1
a(lp1191
F0.0
aaI65
aa(lp1192
I1
a(lp1193
F0.552083
aaI96
aa(lp1194
I1
a(lp1195
F0.202532
aaI79
aa(lp1196
I1
a(lp1197
F0.298246
aaI57
aa(lp1198
I1
a(lp1199
F0.391304
aaI92
aa(lp1200
I1
a(lp1201
F0.439024
aaI82
aa(lp1202
I1
a(lp1203
F0.253731
aaI67
aaa(lp1204
S'scaffold65_cov217'
p1205
aS'scaffold15270_cov133'
p1206
aa(lp1207
S'scaffold35361_cov259'
p1208
aS'scaffold2334_cov190'
p1209
aa(lp1210
S'scaffold34904_cov288'
p1211
aS'scaffold5809_cov177'
p1212
aa(lp1213
S'scaffold5287_cov211'
p1214
aS'scaffold6822_cov208'
p1215
a(lp1216
I1
a(lp1217
F0.389474
aaI95
aaa(lp1218
S'scaffold21569_cov380'
p1219
aS'scaffold20237_cov146'
p1220
aa(lp1221
S'scaffold13538_cov239'
p1222
aS'scaffold5402_cov179'
p1223
a(lp1224
I1
a(lp1225
F0.295775
aaI71
aaa(lp1226
S'scaffold6948_cov274'
p1227
aS'scaffold6699_cov179'
p1228
aa(lp1229
S'scaffold5796_cov292'
p1230
aS'scaffold2082_cov195'
p1231
a(lp1232
I1
a(lp1233
F0.292308
aaI65
aa(lp1234
I1
a(lp1235
F0.338235
aaI68
aa(lp1236
I1
a(lp1237
F0.220588
aaI68
aa(lp1238
I1
a(lp1239
F0.369231
aaI65
aa(lp1240
I1
a(lp1241
F0.344262
aaI61
aa(lp1242
I1
a(lp1243
F0.245902
aaI61
aa(lp1244
I1
a(lp1245
F0.213115
aaI61
aa(lp1246
I1
a(lp1247
F0.377778
aaI90
aa(lp1248
I1
a(lp1249
F0.3125
aaI64
aa(lp1250
I1
a(lp1251
F0.279412
aaI68
aa(lp1252
I1
a(lp1253
F0.204545
aaI44
aa(lp1254
I1
a(lp1255
F0.210526
aaI57
aa(lp1256
I1
a(lp1257
F0.472
aaI125
aa(lp1258
I1
a(lp1259
F0.552632
aaI114
aa(lp1260
I1
a(lp1261
F0.536
aaI125
aa(lp1262
I1
a(lp1263
F0.481481
aaI108
aa(lp1264
I1
a(lp1265
F0.435644
aaI101
aa(lp1266
I1
a(lp1267
F0.370787
aaI89
aa(lp1268
I1
a(lp1269
F0.397959
aaI98
aa(lp1270
I1
a(lp1271
F0.410526
aaI95
aaa(lp1272
S'scaffold5059_cov217'
p1273
aS'scaffold7462_cov213'
p1274
aa(lp1275
S'scaffold6808_cov251'
p1276
aS'scaffold5535_cov217'
p1277
aa(lp1278
S'scaffold12391_cov201'
p1279
aS'scaffold114_cov204'
p1280
a(lp1281
I1
a(lp1282
F0.309091
aaI55
aa(lp1283
I1
a(lp1284
F0.269231
aaI52
aa(lp1285
I1
a(lp1286
F0.208333
aaI48
aa(lp1287
I1
a(lp1288
F0.287879
aaI66
aa(lp1289
I1
a(lp1290
F0.276923
aaI65
aa(lp1291
I1
a(lp1292
F0.447154
aaI123
aa(lp1293
I1
a(lp1294
F0.457143
aaI70
aa(lp1295
I1
a(lp1296
F0.333333
aaI54
aaa(lp1297
S'scaffold13539_cov223'
p1298
aS'scaffold2054_cov174'
p1299
aa(lp1300
S'scaffold14835_cov172'
p1301
aS'scaffold3075_cov156'
p1302
aa(lp1303
S'scaffold6925_cov364'
p1304
aS'scaffold2058_cov324'
p1305
aa(lp1306
S'scaffold2297_cov206'
p1307
aS'scaffold4936_cov217'
p1308
a(lp1309
I1
a(lp1310
F0.425743
aaI101
aa(lp1311
I1
a(lp1312
F0.425743
aaI101
aa(lp1313
I1
a(lp1314
F0.421053
aaI114
aa(lp1315
I1
a(lp1316
F0.287879
aaI66
aa(lp1317
I1
a(lp1318
F0.25
aaI60
aa(lp1319
I1
a(lp1320
F0.273973
aaI73
aa(lp1321
I1
a(lp1322
F0.378049
aaI82
aa(lp1323
I1
a(lp1324
F0.243243
aaI74
aa(lp1325
I1
a(lp1326
F0.202703
aaI74
aa(lp1327
I1
a(lp1328
F0.403226
aaI62
aa(lp1329
I1
a(lp1330
F0.517241
aaI58
aa(lp1331
I1
a(lp1332
F0.410959
aaI73
aa(lp1333
I1
a(lp1334
F0.223881
aaI67
aaa(lp1335
S'scaffold25113_cov199'
p1336
aS'scaffold6911_cov202'
p1337
aa(lp1338
S'scaffold14550_cov277'
p1339
aS'scaffold1760_cov210'
p1340
aa(lp1341
S'scaffold40132_cov484'
p1342
aS'scaffold7849_cov260'
p1343
a(lp1344
I1
a(lp1345
F0.520661
aaI121
aaa(lp1346
S'scaffold19757_cov388'
p1347
aS'scaffold1999_cov166'
p1348
aa(lp1349
S'scaffold3845_cov316'
p1350
aS'scaffold3342_cov163'
p1351
aa(lp1352
S'scaffold3674_cov258'
p1353
aS'scaffold12700_cov150'
p1354
aa(lp1355
S'scaffold34052_cov286'
p1356
aS'scaffold2311_cov232'
p1357
a(lp1358
I1
a(lp1359
F0.66129
aaI124
aa(lp1360
I1
a(lp1361
F0.349593
aaI123
aa(lp1362
I1
a(lp1363
F0.448598
aaI107
aa(lp1364
I1
a(lp1365
F0.214286
aaI70
aaa(lp1366
S'scaffold13470_cov212'
p1367
aS'scaffold10396_cov149'
p1368
aa(lp1369
S'scaffold7198_cov282'
p1370
aS'scaffold3310_cov167'
p1371
a(lp1372
I1
a(lp1373
F0.0
aaI72
aa(lp1374
I1
a(lp1375
F0.424528
aaI106
aa(lp1376
I1
a(lp1377
F0.386139
aaI101
aaa(lp1378
S'scaffold29092_cov411'
p1379
aS'scaffold3158_cov165'
p1380
aa(lp1381
S'scaffold5141_cov149'
p1382
aS'scaffold4981_cov255'
p1383
a(lp1384
I1
a(lp1385
F0.256757
aaI74
aa(lp1386
I1
a(lp1387
F0.37037
aaI81
aa(lp1388
I1
a(lp1389
F0.402174
aaI92
aaa(lp1390
S'scaffold35134_cov241'
p1391
aS'scaffold1798_cov239'
p1392
a(lp1393
I1
a(lp1394
F0.218182
aaI55
aa(lp1395
I1
a(lp1396
F0.230769
aaI52
aa(lp1397
I1
a(lp1398
F0.296296
aaI54
aa(lp1399
I1
a(lp1400
F0.216667
aaI60
aa(lp1401
I1
a(lp1402
F0.484848
aaI99
aa(lp1403
I1
a(lp1404
F0.234848
aaI132
aaa(lp1405
S'scaffold9518_cov247'
p1406
aS'scaffold1141_cov217'
p1407
a(lp1408
I1
a(lp1409
F0.317647
aaI85
aa(lp1410
I1
a(lp1411
F0.315217
aaI92
aa(lp1412
I1
a(lp1413
F0.240964
aaI83
aa(lp1414
I1
a(lp1415
F0.243902
aaI82
aa(lp1416
I1
a(lp1417
F0.27027
aaI111
aa(lp1418
I1
a(lp1419
F0.256
aaI125
aa(lp1420
I1
a(lp1421
F0.446429
aaI112
aa(lp1422
I1
a(lp1423
F0.4375
aaI112
aa(lp1424
I1
a(lp1425
F0.361446
aaI83
aa(lp1426
I1
a(lp1427
F0.336957
aaI92
aa(lp1428
I1
a(lp1429
F0.369048
aaI84
aa(lp1430
I1
a(lp1431
F0.454545
aaI121
aa(lp1432
I1
a(lp1433
F0.333333
aaI72
aaa(lp1434
S'scaffold11665_cov274'
p1435
aS'scaffold4220_cov209'
p1436
a(lp1437
I1
a(lp1438
F0.207792
aaI77
aa(lp1439
I1
a(lp1440
F0.247059
aaI85
aa(lp1441
I1
a(lp1442
F0.448598
aaI107
aa(lp1443
I1
a(lp1444
F0.439252
aaI107
aa(lp1445
I1
a(lp1446
F0.22973
aaI74
aa(lp1447
I1
a(lp1448
F0.216216
aaI74
aa(lp1449
I1
a(lp1450
F0.257143
aaI70
aa(lp1451
I1
a(lp1452
F0.0
aaI62
aa(lp1453
I1
a(lp1454
F0.48
aaI100
aaa(lp1455
S'scaffold50233_cov936'
p1456
aS'scaffold4673_cov163'
p1457
aa(lp1458
S'scaffold52004_cov305'
p1459
aS'scaffold11324_cov225'
p1460
a(lp1461
I1
a(lp1462
F0.277778
aaI90
aa(lp1463
I1
a(lp1464
F0.223529
aaI85
aa(lp1465
I1
a(lp1466
F0.24359
aaI78
aa(lp1467
I1
a(lp1468
F0.218391
aaI87
aa(lp1469
I1
a(lp1470
F0.272727
aaI88
aa(lp1471
I1
a(lp1472
F0.352273
aaI88
aa(lp1473
I1
a(lp1474
F0.352273
aaI88
aa(lp1475
I1
a(lp1476
F0.233333
aaI90
aaa(lp1477
S'scaffold11923_cov205'
p1478
aS'scaffold34893_cov219'
p1479
aa(lp1480
S'scaffold1512_cov178'
p1481
aS'scaffold7068_cov172'
p1482
aa(lp1483
S'scaffold9550_cov156'
p1484
aS'scaffold3486_cov238'
p1485
aa(lp1486
S'scaffold3183_cov273'
p1487
aS'scaffold11838_cov280'
p1488
a(lp1489
I1
a(lp1490
F0.253521
aaI71
aa(lp1491
I1
a(lp1492
F0.2
aaI55
aa(lp1493
I1
a(lp1494
F0.515152
aaI99
aaa(lp1495
S'scaffold2251_cov300'
p1496
aS'scaffold5494_cov202'
p1497
a(lp1498
I1
a(lp1499
F0.5
aaI122
aa(lp1500
I1
a(lp1501
F0.402299
aaI87
aa(lp1502
I1
a(lp1503
F0.425532
aaI94
aa(lp1504
I1
a(lp1505
F0.35
aaI80
aa(lp1506
I1
a(lp1507
F0.270588
aaI85
aa(lp1508
I1
a(lp1509
F0.274194
aaI62
aa(lp1510
I1
a(lp1511
F0.43617
aaI94
aa(lp1512
I1
a(lp1513
F0.423423
aaI111
aaa(lp1514
S'scaffold10174_cov324'
p1515
aS'scaffold10173_cov150'
p1516
aa(lp1517
S'scaffold13712_cov247'
p1518
aS'scaffold3898_cov165'
p1519
a(lp1520
I1
a(lp1521
F0.211538
aaI52
aa(lp1522
I1
a(lp1523
F0.209677
aaI62
aaa(lp1524
S'scaffold3444_cov244'
p1525
aS'scaffold2301_cov209'
p1526
a(lp1527
I1
a(lp1528
F0.391892
aaI74
aa(lp1529
I1
a(lp1530
F0.356164
aaI73
aa(lp1531
I1
a(lp1532
F0.397059
aaI68
aa(lp1533
I1
a(lp1534
F0.371429
aaI70
aa(lp1535
I1
a(lp1536
F0.361446
aaI83
aa(lp1537
I1
a(lp1538
F0.358209
aaI67
aa(lp1539
I1
a(lp1540
F0.38961
aaI77
aaa(lp1541
S'scaffold1073_cov267'
p1542
aS'scaffold11614_cov255'
p1543
a(lp1544
I1
a(lp1545
F0.220339
aaI59
aa(lp1546
I1
a(lp1547
F0.246377
aaI69
aa(lp1548
I1
a(lp1549
F0.235294
aaI68
aa(lp1550
I1
a(lp1551
F0.243243
aaI74
aa(lp1552
I1
a(lp1553
F0.226667
aaI75
aa(lp1554
I1
a(lp1555
F0.613636
aaI132
aa(lp1556
I1
a(lp1557
F0.625
aaI88
aa(lp1558
I1
a(lp1559
F0.467213
aaI122
aaa(lp1560
S'scaffold205_cov231'
p1561
aS'scaffold1655_cov200'
p1562
a(lp1563
I1
a(lp1564
F0.232558
aaI86
aa(lp1565
I1
a(lp1566
F0.310811
aaI74
aaa(lp1567
S'scaffold12547_cov300'
p1568
aS'scaffold2376_cov165'
p1569
a(lp1570
I1
a(lp1571
F0.303797
aaI79
aa(lp1572
I1
a(lp1573
F0.25
aaI68
aa(lp1574
I1
a(lp1575
F0.222222
aaI63
aa(lp1576
I1
a(lp1577
F0.228571
aaI70
aa(lp1578
I1
a(lp1579
F0.297297
aaI74
aa(lp1580
I1
a(lp1581
F0.418182
aaI110
aa(lp1582
I1
a(lp1583
F0.440367
aaI109
aa(lp1584
I1
a(lp1585
F0.424528
aaI106
aa(lp1586
I1
a(lp1587
F0.429907
aaI107
aa(lp1588
I1
a(lp1589
F0.413462
aaI104
aa(lp1590
I1
a(lp1591
F0.346667
aaI75
aa(lp1592
I1
a(lp1593
F0.328571
aaI70
aa(lp1594
I1
a(lp1595
F0.338462
aaI65
aa(lp1596
I1
a(lp1597
F0.552381
aaI105
aaa(lp1598
S'scaffold34780_cov223'
p1599
aS'scaffold2666_cov188'
p1600
aa(lp1601
S'scaffold7855_cov227'
p1602
aS'scaffold642_cov217'
p1603
a(lp1604
I1
a(lp1605
F0.5
aaI102
aa(lp1606
I1
a(lp1607
F0.211111
aaI90
aa(lp1608
I1
a(lp1609
F0.23913
aaI92
aa(lp1610
I1
a(lp1611
F0.346667
aaI75
aa(lp1612
I1
a(lp1613
F0.559524
aaI84
aa(lp1614
I1
a(lp1615
F0.422222
aaI90
aa(lp1616
I1
a(lp1617
F0.406977
aaI86
aa(lp1618
I1
a(lp1619
F0.457143
aaI70
aa(lp1620
I1
a(lp1621
F0.410256
aaI78
aa(lp1622
I1
a(lp1623
F0.513514
aaI74
aa(lp1624
I1
a(lp1625
F0.535211
aaI71
aa(lp1626
I1
a(lp1627
F0.45
aaI80
aa(lp1628
I1
a(lp1629
F0.27907
aaI43
aaa(lp1630
S'scaffold2395_cov243'
p1631
aS'scaffold3285_cov233'
p1632
a(lp1633
I1
a(lp1634
F0.283333
aaI60
aa(lp1635
I1
a(lp1636
F0.24
aaI50
aa(lp1637
I1
a(lp1638
F0.465116
aaI86
aa(lp1639
I1
a(lp1640
F0.239437
aaI71
aa(lp1641
I1
a(lp1642
F0.567308
aaI104
aa(lp1643
I1
a(lp1644
F0.243902
aaI41
aaa(lp1645
S'scaffold6144_cov377'
p1646
aS'scaffold6254_cov268'
p1647
aa(lp1648
S'scaffold19797_cov164'
p1649
aS'scaffold6112_cov148'
p1650
aa(lp1651
S'scaffold534_cov297'
p1652
aS'scaffold532_cov244'
p1653
aa(lp1654
S'scaffold7912_cov254'
p1655
aS'scaffold22036_cov148'
p1656
aa(lp1657
S'scaffold5249_cov206'
p1658
aS'scaffold4631_cov169'
p1659
a(lp1660
I1
a(lp1661
F0.246154
aaI65
aa(lp1662
I1
a(lp1663
F0.409836
aaI61
aa(lp1664
I1
a(lp1665
F0.315789
aaI57
aa(lp1666
I1
a(lp1667
F0.354839
aaI62
aa(lp1668
I1
a(lp1669
F0.290323
aaI93
aa(lp1670
I1
a(lp1671
F0.389474
aaI95
aa(lp1672
I1
a(lp1673
F0.386364
aaI88
aa(lp1674
I1
a(lp1675
F0.444444
aaI108
aa(lp1676
I1
a(lp1677
F0.246154
aaI65
aa(lp1678
I1
a(lp1679
F0.366197
aaI71
aa(lp1680
I1
a(lp1681
F0.208955
aaI67
aaa(lp1682
S'scaffold35739_cov310'
p1683
aS'scaffold36798_cov326'
p1684
aa(lp1685
S'scaffold40802_cov284'
p1686
aS'scaffold30714_cov262'
p1687
aa(lp1688
S'scaffold3201_cov239'
p1689
aS'scaffold1948_cov236'
p1690
aa(lp1691
S'scaffold6504_cov303'
p1692
aS'scaffold32879_cov158'
p1693
aa(lp1694
S'scaffold1636_cov295'
p1695
aS'scaffold1637_cov206'
p1696
a(lp1697
I1
a(lp1698
F0.354167
aaI96
aa(lp1699
I1
a(lp1700
F0.316456
aaI79
aa(lp1701
I1
a(lp1702
F0.285714
aaI70
aa(lp1703
I1
a(lp1704
F0.215385
aaI65
aa(lp1705
I1
a(lp1706
F0.261905
aaI84
aa(lp1707
I1
a(lp1708
F0.2375
aaI80
aa(lp1709
I1
a(lp1710
F0.333333
aaI90
aa(lp1711
I1
a(lp1712
F0.402985
aaI67
aa(lp1713
I1
a(lp1714
F0.426667
aaI75
aaa(lp1715
S'scaffold17188_cov256'
p1716
aS'scaffold6575_cov192'
p1717
a(lp1718
I1
a(lp1719
F0.225
aaI80
aa(lp1720
I1
a(lp1721
F0.202703
aaI74
aa(lp1722
I1
a(lp1723
F0.227848
aaI79
aa(lp1724
I1
a(lp1725
F0.233766
aaI77
aa(lp1726
I1
a(lp1727
F0.333333
aaI72
aa(lp1728
I1
a(lp1729
F0.333333
aaI96
aa(lp1730
I1
a(lp1731
F0.276316
aaI76
aa(lp1732
I1
a(lp1733
F0.306818
aaI88
aa(lp1734
I1
a(lp1735
F0.261905
aaI84
aa(lp1736
I1
a(lp1737
F0.205128
aaI78
aa(lp1738
I1
a(lp1739
F0.205128
aaI78
aa(lp1740
I1
a(lp1741
F0.236364
aaI55
aa(lp1742
I1
a(lp1743
F0.213115
aaI61
aa(lp1744
I1
a(lp1745
F0.311475
aaI61
aa(lp1746
I1
a(lp1747
F0.261538
aaI65
aa(lp1748
I1
a(lp1749
F0.243243
aaI74
aa(lp1750
I1
a(lp1751
F0.26087
aaI69
aa(lp1752
I1
a(lp1753
F0.275362
aaI69
aa(lp1754
I1
a(lp1755
F0.253968
aaI63
aa(lp1756
I1
a(lp1757
F0.246154
aaI65
aa(lp1758
I1
a(lp1759
F0.241935
aaI62
aa(lp1760
I1
a(lp1761
F0.309859
aaI71
aa(lp1762
I1
a(lp1763
F0.261905
aaI84
aa(lp1764
I1
a(lp1765
F0.290698
aaI86
aa(lp1766
I1
a(lp1767
F0.25974
aaI77
aaa(lp1768
S'scaffold13565_cov263'
p1769
aS'scaffold25159_cov143'
p1770
aa(lp1771
S'scaffold1134_cov233'
p1772
aS'scaffold9743_cov237'
p1773
aa(lp1774
S'scaffold22748_cov150'
p1775
aS'scaffold2939_cov159'
p1776
aa(lp1777
S'scaffold16898_cov268'
p1778
aS'scaffold42181_cov294'
p1779
aa(lp1780
S'scaffold3033_cov182'
p1781
aS'scaffold2254_cov207'
p1782
aa(lp1783
S'scaffold19777_cov232'
p1784
aS'scaffold4838_cov202'
p1785
aa(lp1786
S'scaffold7242_cov266'
p1787
aS'scaffold7661_cov288'
p1788
aa(lp1789
S'scaffold21079_cov185'
p1790
aS'scaffold34580_cov232'
p1791
aa(lp1792
S'scaffold11307_cov229'
p1793
aS'scaffold6551_cov161'
p1794
a(lp1795
I1
a(lp1796
F0.318182
aaI66
aaa(lp1797
S'scaffold34240_cov291'
p1798
aS'scaffold6227_cov210'
p1799
a(lp1800
I1
a(lp1801
F0.420455
aaI88
aa(lp1802
I1
a(lp1803
F0.375
aaI80
aaa(lp1804
S'scaffold7998_cov239'
p1805
aS'scaffold34786_cov228'
p1806
a(lp1807
I1
a(lp1808
F0.3125
aaI96
aa(lp1809
I1
a(lp1810
F0.333333
aaI96
aa(lp1811
I1
a(lp1812
F0.236364
aaI55
aa(lp1813
I1
a(lp1814
F0.465909
aaI88
aa(lp1815
I1
a(lp1816
F0.431373
aaI102
aa(lp1817
I1
a(lp1818
F0.208955
aaI67
aa(lp1819
I1
a(lp1820
F0.222222
aaI72
aa(lp1821
I1
a(lp1822
F0.468468
aaI111
aa(lp1823
I1
a(lp1824
F0.424242
aaI99
aa(lp1825
I1
a(lp1826
F0.357143
aaI70
aaa(lp1827
S'scaffold2764_cov248'
p1828
aS'scaffold35902_cov179'
p1829
a(lp1830
I1
a(lp1831
F0.246154
aaI65
aa(lp1832
I1
a(lp1833
F0.220588
aaI68
aa(lp1834
I1
a(lp1835
F0.382022
aaI89
aa(lp1836
I1
a(lp1837
F0.318182
aaI66
aa(lp1838
I1
a(lp1839
F0.373134
aaI67
aa(lp1840
I1
a(lp1841
F0.290323
aaI62
aaa(lp1842
S'scaffold5533_cov227'
p1843
aS'scaffold10988_cov149'
p1844
aa(lp1845
S'scaffold6035_cov288'
p1846
aS'scaffold1952_cov217'
p1847
aa(lp1848
S'scaffold34993_cov283'
p1849
aS'scaffold2688_cov189'
p1850
a(lp1851
I1
a(lp1852
F0.48
aaI75
aa(lp1853
I1
a(lp1854
F0.405063
aaI79
aa(lp1855
I1
a(lp1856
F0.354839
aaI62
aa(lp1857
I1
a(lp1858
F0.305085
aaI59
aa(lp1859
I1
a(lp1860
F0.391304
aaI92
aaa(lp1861
S'scaffold2015_cov427'
p1862
aS'scaffold843_cov157'
p1863
aa(lp1864
S'scaffold16937_cov241'
p1865
aS'scaffold1798_cov239'
p1866
aa(lp1867
S'scaffold1047_cov391'
p1868
aS'scaffold1999_cov166'
p1869
aa(lp1870
S'scaffold2018_cov229'
p1871
aS'scaffold3622_cov247'
p1872
a(lp1873
I1
a(lp1874
F0.553398
aaI103
aa(lp1875
I1
a(lp1876
F0.456311
aaI103
aa(lp1877
I1
a(lp1878
F0.462264
aaI106
aa(lp1879
I1
a(lp1880
F0.427184
aaI103
aaa(lp1881
S'scaffold48640_cov294'
p1882
aS'scaffold10308_cov219'
p1883
aa(lp1884
S'scaffold3282_cov224'
p1885
aS'scaffold35925_cov172'
p1886
a(lp1887
I1
a(lp1888
F0.273973
aaI73
aa(lp1889
I1
a(lp1890
F0.246377
aaI69
aa(lp1891
I1
a(lp1892
F0.257576
aaI66
aa(lp1893
I1
a(lp1894
F0.431373
aaI102
aa(lp1895
I1
a(lp1896
F0.38961
aaI77
aa(lp1897
I1
a(lp1898
F0.333333
aaI69
aa(lp1899
I1
a(lp1900
F0.319444
aaI72
aa(lp1901
I1
a(lp1902
F0.265625
aaI64
aa(lp1903
I1
a(lp1904
F0.269841
aaI63
aa(lp1905
I1
a(lp1906
F0.288136
aaI59
aa(lp1907
I1
a(lp1908
F0.0
aaI83
aa(lp1909
I1
a(lp1910
F0.253333
aaI75
aa(lp1911
I1
a(lp1912
F0.25
aaI120
aa(lp1913
I1
a(lp1914
F0.217949
aaI78
aaa(lp1915
S'scaffold15715_cov311'
p1916
aS'scaffold34618_cov281'
p1917
aa(lp1918
S'scaffold2836_cov225'
p1919
aS'scaffold4074_cov180'
p1920
a(lp1921
I1
a(lp1922
F0.233333
aaI60
aa(lp1923
I1
a(lp1924
F0.3
aaI70
aa(lp1925
I1
a(lp1926
F0.315068
aaI73
aa(lp1927
I1
a(lp1928
F0.328947
aaI76
aa(lp1929
I1
a(lp1930
F0.291139
aaI79
aa(lp1931
I1
a(lp1932
F0.283784
aaI74
aa(lp1933
I1
a(lp1934
F0.236111
aaI72
aa(lp1935
I1
a(lp1936
F0.478723
aaI94
aa(lp1937
I1
a(lp1938
F0.205128
aaI39
aa(lp1939
I1
a(lp1940
F0.306122
aaI49
aa(lp1941
I1
a(lp1942
F0.306122
aaI49
aa(lp1943
I1
a(lp1944
F0.3125
aaI16
aaa(lp1945
S'scaffold8201_cov210'
p1946
aS'scaffold487_cov180'
p1947
a(lp1948
I1
a(lp1949
F0.275
aaI80
aa(lp1950
I1
a(lp1951
F0.306667
aaI75
aa(lp1952
I1
a(lp1953
F0.283784
aaI74
aa(lp1954
I1
a(lp1955
F0.260274
aaI73
aa(lp1956
I1
a(lp1957
F0.253968
aaI63
aa(lp1958
I1
a(lp1959
F0.230769
aaI65
aaa(lp1960
S'scaffold8280_cov208'
p1961
aS'scaffold18434_cov227'
p1962
a(lp1963
I1
a(lp1964
F0.864341
aaI258
aaa(lp1965
S'scaffold8291_cov270'
p1966
aS'scaffold6880_cov163'
p1967
aa(lp1968
S'scaffold3436_cov196'
p1969
aS'scaffold1629_cov253'
p1970
a(lp1971
I1
a(lp1972
F0.428571
aaI63
aa(lp1973
I1
a(lp1974
F0.387097
aaI62
aa(lp1975
I1
a(lp1976
F0.366197
aaI71
aaa(lp1977
S'scaffold5242_cov262'
p1978
aS'scaffold35822_cov215'
p1979
a(lp1980
I1
a(lp1981
F0.241379
aaI58
aa(lp1982
I1
a(lp1983
F0.435294
aaI85
aa(lp1984
I1
a(lp1985
F0.245902
aaI61
aa(lp1986
I1
a(lp1987
F0.245902
aaI61
aa(lp1988
I1
a(lp1989
F0.241379
aaI87
aa(lp1990
I1
a(lp1991
F0.301075
aaI93
aa(lp1992
I1
a(lp1993
F0.289157
aaI83
aa(lp1994
I1
a(lp1995
F0.419643
aaI112
aaa(lp1996
S'scaffold34455_cov418'
p1997
aS'scaffold34968_cov196'
p1998
a(lp1999
I1
a(lp2000
F0.2
aaI60
aa(lp2001
I1
a(lp2002
F0.520833
aaI96
aaa(lp2003
S'scaffold7259_cov286'
p2004
aS'scaffold1969_cov172'
p2005
a(lp2006
I1
a(lp2007
F0.265625
aaI64
aa(lp2008
I1
a(lp2009
F0.257576
aaI66
aa(lp2010
I1
a(lp2011
F0.255319
aaI94
aa(lp2012
I1
a(lp2013
F0.386667
aaI75
aa(lp2014
I1
a(lp2015
F0.39759
aaI83
aaa(lp2016
S'scaffold16517_cov275'
p2017
aS'scaffold1106_cov224'
p2018
a(lp2019
I1
a(lp2020
F0.333333
aaI78
aa(lp2021
I1
a(lp2022
F0.269841
aaI63
aa(lp2023
I1
a(lp2024
F0.298507
aaI67
aa(lp2025
I1
a(lp2026
F0.246575
aaI73
aa(lp2027
I1
a(lp2028
F0.214286
aaI70
aa(lp2029
I1
a(lp2030
F0.275362
aaI69
aa(lp2031
I1
a(lp2032
F0.26506
aaI83
aa(lp2033
I1
a(lp2034
F0.258824
aaI85
aa(lp2035
I1
a(lp2036
F0.205128
aaI78
aa(lp2037
I1
a(lp2038
F0.457143
aaI70
aa(lp2039
I1
a(lp2040
F0.44
aaI100
aa(lp2041
I1
a(lp2042
F0.285714
aaI91
aa(lp2043
I1
a(lp2044
F0.518182
aaI110
aaa(lp2045
S'scaffold6196_cov437'
p2046
aS'scaffold343_cov157'
p2047
a(lp2048
I1
a(lp2049
F0.623077
aaI130
aa(lp2050
I1
a(lp2051
F0.453704
aaI108
aa(lp2052
I1
a(lp2053
F0.444444
aaI99
aa(lp2054
I1
a(lp2055
F0.44898
aaI98
aa(lp2056
I1
a(lp2057
F0.618421
aaI152
aa(lp2058
I1
a(lp2059
F0.564815
aaI108
aa(lp2060
I1
a(lp2061
F0.44898
aaI98
aa(lp2062
I1
a(lp2063
F0.383721
aaI86
aa(lp2064
I1
a(lp2065
F0.246753
aaI77
aa(lp2066
I1
a(lp2067
F0.233766
aaI77
aa(lp2068
I1
a(lp2069
F0.412371
aaI97
aa(lp2070
I1
a(lp2071
F0.292683
aaI82
aa(lp2072
I1
a(lp2073
F0.43956
aaI91
aa(lp2074
I1
a(lp2075
F0.27027
aaI74
aa(lp2076
I1
a(lp2077
F0.279661
aaI354
aa(lp2078
I1
a(lp2079
F0.743003
aaI393
aaa(lp2080
S'scaffold1559_cov231'
p2081
aS'scaffold204_cov205'
p2082
a(lp2083
I1
a(lp2084
F0.412281
aaI114
aa(lp2085
I1
a(lp2086
F0.468468
aaI111
aa(lp2087
I1
a(lp2088
F0.25
aaI68
aa(lp2089
I1
a(lp2090
F0.0
aaI49
aaa(lp2091
S'scaffold33716_cov277'
p2092
aS'scaffold58_cov215'
p2093
a(lp2094
I1
a(lp2095
F0.337209
aaI86
aa(lp2096
I1
a(lp2097
F0.203125
aaI64
aa(lp2098
I1
a(lp2099
F0.223881
aaI67
aa(lp2100
I1
a(lp2101
F0.318182
aaI66
aa(lp2102
I1
a(lp2103
F0.364706
aaI85
aaa(lp2104
S'scaffold7038_cov214'
p2105
aS'scaffold3562_cov182'
p2106
a(lp2107
I1
a(lp2108
F0.277778
aaI54
aa(lp2109
I1
a(lp2110
F0.295775
aaI71
aa(lp2111
I1
a(lp2112
F0.267442
aaI86
aa(lp2113
I1
a(lp2114
F0.247423
aaI97
aa(lp2115
I1
a(lp2116
F0.361111
aaI72
aa(lp2117
I1
a(lp2118
F0.4
aaI65
aaa(lp2119
S'scaffold6911_cov202'
p2120
aS'scaffold4867_cov158'
p2121
aa(lp2122
S'scaffold53889_cov315'
p2123
aS'scaffold4451_cov223'
p2124
aa(lp2125
S'scaffold36011_cov302'
p2126
aS'scaffold40654_cov315'
p2127
aa(lp2128
S'scaffold9574_cov228'
p2129
aS'scaffold2246_cov240'
p2130
a(lp2131
I1
a(lp2132
F0.206107
aaI131
aa(lp2133
I1
a(lp2134
F0.219048
aaI105
aa(lp2135
I1
a(lp2136
F0.226667
aaI75
aa(lp2137
I1
a(lp2138
F0.207407
aaI135
aa(lp2139
I1
a(lp2140
F0.625899
aaI139
aa(lp2141
I1
a(lp2142
F0.458716
aaI109
aa(lp2143
I1
a(lp2144
F0.219858
aaI141
aa(lp2145
I1
a(lp2146
F0.338235
aaI136
aa(lp2147
I1
a(lp2148
F0.39823
aaI113
aa(lp2149
I1
a(lp2150
F0.448276
aaI87
aaa(lp2151
S'scaffold5205_cov172'
p2152
aS'scaffold2554_cov143'
p2153
aa(lp2154
S'scaffold3194_cov316'
p2155
aS'scaffold12171_cov160'
p2156
aa(lp2157
S'scaffold30714_cov262'
p2158
aS'scaffold3621_cov266'
p2159
aa(lp2160
S'scaffold1041_cov212'
p2161
aS'scaffold6560_cov168'
p2162
a(lp2163
I1
a(lp2164
F0.317647
aaI85
aaa(lp2165
S'scaffold34854_cov183'
p2166
aS'scaffold10029_cov156'
p2167
a(lp2168
I1
a(lp2169
F0.610778
aaI334
aa(lp2170
I1
a(lp2171
F0.305085
aaI59
aaa(lp2172
S'scaffold28262_cov431'
p2173
aS'scaffold343_cov157'
p2174
aa(lp2175
S'scaffold4790_cov191'
p2176
aS'scaffold33895_cov180'
p2177
aa(lp2178
S'scaffold674_cov219'
p2179
aS'scaffold10400_cov191'
p2180
a(lp2181
I1
a(lp2182
F0.391892
aaI74
aa(lp2183
I1
a(lp2184
F0.238095
aaI63
aa(lp2185
I1
a(lp2186
F0.276923
aaI65
aa(lp2187
I1
a(lp2188
F0.283582
aaI67
aa(lp2189
I1
a(lp2190
F0.285714
aaI70
aa(lp2191
I1
a(lp2192
F0.2
aaI65
aa(lp2193
I1
a(lp2194
F0.295082
aaI61
aa(lp2195
I1
a(lp2196
F0.439024
aaI82
aa(lp2197
I1
a(lp2198
F0.307692
aaI39
aa(lp2199
I1
a(lp2200
F0.203704
aaI54
aa(lp2201
I1
a(lp2202
F0.28169
aaI71
aa(lp2203
I1
a(lp2204
F0.28125
aaI64
aa(lp2205
I1
a(lp2206
F0.232143
aaI56
aa(lp2207
I1
a(lp2208
F0.472222
aaI72
aaa(lp2209
S'scaffold3824_cov240'
p2210
aS'scaffold5144_cov205'
p2211
a(lp2212
I1
a(lp2213
F0.254237
aaI59
aa(lp2214
I1
a(lp2215
F0.222222
aaI54
aaa(lp2216
S'scaffold8081_cov244'
p2217
aS'scaffold34811_cov176'
p2218
a(lp2219
I1
a(lp2220
F0.348837
aaI86
aa(lp2221
I1
a(lp2222
F0.3625
aaI80
aa(lp2223
I1
a(lp2224
F0.256098
aaI82
aa(lp2225
I1
a(lp2226
F0.456522
aaI92
aa(lp2227
I1
a(lp2228
F0.460674
aaI89
aa(lp2229
I1
a(lp2230
F0.418367
aaI98
aa(lp2231
I1
a(lp2232
F0.333333
aaI93
aaa(lp2233
S'scaffold849_cov247'
p2234
aS'scaffold1253_cov168'
p2235
a(lp2236
I1
a(lp2237
F0.320513
aaI78
aa(lp2238
I1
a(lp2239
F0.303797
aaI79
aa(lp2240
I1
a(lp2241
F0.325843
aaI89
aa(lp2242
I1
a(lp2243
F0.32
aaI75
aa(lp2244
I1
a(lp2245
F0.305556
aaI72
aa(lp2246
I1
a(lp2247
F0.225352
aaI71
aa(lp2248
I1
a(lp2249
F0.24
aaI75
aa(lp2250
I1
a(lp2251
F0.324675
aaI77
aa(lp2252
I1
a(lp2253
F0.2
aaI70
aa(lp2254
I1
a(lp2255
F0.230769
aaI78
aaa(lp2256
S'scaffold3590_cov237'
p2257
aS'scaffold34183_cov209'
p2258
aa(lp2259
S'scaffold6964_cov214'
p2260
aS'scaffold1655_cov200'
p2261
a(lp2262
I1
a(lp2263
F0.297872
aaI94
aa(lp2264
I1
a(lp2265
F0.260274
aaI146
aa(lp2266
I1
a(lp2267
F0.271429
aaI140
aa(lp2268
I1
a(lp2269
F0.263158
aaI152
aaa(lp2270
S'scaffold6177_cov155'
p2271
aS'scaffold33647_cov137'
p2272
aa(lp2273
S'scaffold41363_cov389'
p2274
aS'scaffold3342_cov163'
p2275
aa(lp2276
S'scaffold5058_cov197'
p2277
aS'scaffold4464_cov185'
p2278
a(lp2279
I1
a(lp2280
F0.261538
aaI65
aa(lp2281
I1
a(lp2282
F0.263158
aaI57
aa(lp2283
I1
a(lp2284
F0.307692
aaI78
aa(lp2285
I1
a(lp2286
F0.358025
aaI81
aaa(lp2287
S'scaffold35824_cov247'
p2288
aS'scaffold3010_cov208'
p2289
a(lp2290
I1
a(lp2291
F0.487805
aaI82
aa(lp2292
I1
a(lp2293
F0.373737
aaI99
aa(lp2294
I1
a(lp2295
F0.267857
aaI56
aa(lp2296
I1
a(lp2297
F0.241935
aaI62
aa(lp2298
I1
a(lp2299
F0.469136
aaI81
aa(lp2300
I1
a(lp2301
F0.468354
aaI79
aa(lp2302
I1
a(lp2303
F0.45679
aaI81
aa(lp2304
I1
a(lp2305
F0.441558
aaI77
aa(lp2306
I1
a(lp2307
F0.352941
aaI68
aa(lp2308
I1
a(lp2309
F0.322034
aaI59
aa(lp2310
I1
a(lp2311
F0.375
aaI64
aa(lp2312
I1
a(lp2313
F0.315789
aaI76
aa(lp2314
I1
a(lp2315
F0.341463
aaI82
aa(lp2316
I1
a(lp2317
F0.329268
aaI82
aa(lp2318
I1
a(lp2319
F0.285714
aaI70
aa(lp2320
I1
a(lp2321
F0.30303
aaI66
aa(lp2322
I1
a(lp2323
F0.258621
aaI58
aa(lp2324
I1
a(lp2325
F0.282051
aaI78
aa(lp2326
I1
a(lp2327
F0.478261
aaI69
aa(lp2328
I1
a(lp2329
F0.526882
aaI93
aa(lp2330
I1
a(lp2331
F0.261905
aaI84
aa(lp2332
I1
a(lp2333
F0.215909
aaI88
aa(lp2334
I1
a(lp2335
F0.259259
aaI81
aa(lp2336
I1
a(lp2337
F0.342466
aaI73
aa(lp2338
I1
a(lp2339
F0.391304
aaI69
aa(lp2340
I1
a(lp2341
F0.246377
aaI69
aa(lp2342
I1
a(lp2343
F0.285714
aaI56
aaa(lp2344
S'scaffold5523_cov227'
p2345
aS'scaffold3428_cov197'
p2346
a(lp2347
I1
a(lp2348
F0.2
aaI55
aaa(lp2349
S'scaffold1436_cov280'
p2350
aS'scaffold11878_cov196'
p2351
a(lp2352
I1
a(lp2353
F0.408602
aaI93
aa(lp2354
I1
a(lp2355
F0.394737
aaI76
aa(lp2356
I1
a(lp2357
F0.230769
aaI78
aa(lp2358
I1
a(lp2359
F0.306818
aaI88
aa(lp2360
I1
a(lp2361
F0.293333
aaI75
aaa(lp2362
S'scaffold6978_cov264'
p2363
aS'scaffold4654_cov204'
p2364
a(lp2365
I1
a(lp2366
F0.25
aaI68
aa(lp2367
I1
a(lp2368
F0.272727
aaI66
aa(lp2369
I1
a(lp2370
F0.318841
aaI69
aa(lp2371
I1
a(lp2372
F0.346154
aaI78
aa(lp2373
I1
a(lp2374
F0.3875
aaI80
aa(lp2375
I1
a(lp2376
F0.363636
aaI88
aa(lp2377
I1
a(lp2378
F0.37931
aaI87
aa(lp2379
I1
a(lp2380
F0.510417
aaI96
aa(lp2381
I1
a(lp2382
F0.452174
aaI115
aa(lp2383
I1
a(lp2384
F0.433735
aaI83
aa(lp2385
I1
a(lp2386
F0.220588
aaI68
aa(lp2387
I1
a(lp2388
F0.235294
aaI68
aa(lp2389
I1
a(lp2390
F0.231884
aaI69
aaa(lp2391
S'scaffold16909_cov171'
p2392
aS'scaffold10939_cov235'
p2393
a(lp2394
I1
a(lp2395
F0.493827
aaI81
aaa(lp2396
S'scaffold34992_cov298'
p2397
aS'scaffold428_cov197'
p2398
a(lp2399
I1
a(lp2400
F0.395604
aaI91
aa(lp2401
I1
a(lp2402
F0.264151
aaI53
aa(lp2403
I1
a(lp2404
F0.269231
aaI52
aa(lp2405
I1
a(lp2406
F0.278481
aaI79
aa(lp2407
I1
a(lp2408
F0.293333
aaI75
aa(lp2409
I1
a(lp2410
F0.328571
aaI70
aa(lp2411
I1
a(lp2412
F0.269231
aaI52
aa(lp2413
I1
a(lp2414
F0.285714
aaI77
aa(lp2415
I1
a(lp2416
F0.275
aaI80
aa(lp2417
I1
a(lp2418
F0.259259
aaI54
aa(lp2419
I1
a(lp2420
F0.340909
aaI88
aa(lp2421
I1
a(lp2422
F0.364865
aaI74
aa(lp2423
I1
a(lp2424
F0.289474
aaI76
aaa(lp2425
S'scaffold5271_cov299'
p2426
aS'scaffold5221_cov193'
p2427
aa(lp2428
S'scaffold5976_cov266'
p2429
aS'scaffold3325_cov214'
p2430
a(lp2431
I1
a(lp2432
F0.206349
aaI63
aa(lp2433
I1
a(lp2434
F0.202381
aaI84
aaa(lp2435
S'scaffold1042_cov233'
p2436
aS'scaffold20788_cov116'
p2437
aa(lp2438
S'scaffold6403_cov387'
p2439
aS'scaffold1999_cov166'
p2440
a(lp2441
I1
a(lp2442
F0.245614
aaI57
aa(lp2443
I1
a(lp2444
F0.305882
aaI85
aa(lp2445
I1
a(lp2446
F0.247312
aaI93
aa(lp2447
I1
a(lp2448
F0.392857
aaI84
aa(lp2449
I1
a(lp2450
F0.202899
aaI69
aa(lp2451
I1
a(lp2452
F0.215385
aaI65
aa(lp2453
I1
a(lp2454
F0.45614
aaI114
aa(lp2455
I1
a(lp2456
F0.358025
aaI81
aaa(lp2457
S'scaffold13641_cov196'
p2458
aS'scaffold13364_cov176'
p2459
a(lp2460
I1
a(lp2461
F0.357143
aaI70
aa(lp2462
I1
a(lp2463
F0.321429
aaI56
aa(lp2464
I1
a(lp2465
F0.435484
aaI62
aa(lp2466
I1
a(lp2467
F0.275362
aaI69
aaa(lp2468
S'scaffold854_cov247'
p2469
aS'scaffold9044_cov264'
p2470
a(lp2471
I1
a(lp2472
F0.508333
aaI120
aa(lp2473
I1
a(lp2474
F0.45977
aaI87
aa(lp2475
I1
a(lp2476
F0.465116
aaI86
aa(lp2477
I1
a(lp2478
F0.47619
aaI84
aaa(lp2479
S'scaffold7260_cov230'
p2480
aS'scaffold2659_cov200'
p2481
aa(lp2482
S'scaffold29217_cov317'
p2483
aS'scaffold1412_cov235'
p2484
aa(lp2485
S'scaffold8573_cov422'
p2486
aS'scaffold5917_cov146'
p2487
aa(lp2488
S'scaffold5708_cov422'
p2489
aS'scaffold5917_cov146'
p2490
aa(lp2491
S'scaffold869_cov236'
p2492
aS'scaffold35051_cov180'
p2493
a(lp2494
I1
a(lp2495
F0.355932
aaI59
aa(lp2496
I1
a(lp2497
F0.430233
aaI86
aa(lp2498
I1
a(lp2499
F0.0
aaI70
aa(lp2500
I1
a(lp2501
F0.0
aaI60
aa(lp2502
I1
a(lp2503
F0.241935
aaI62
aa(lp2504
I1
a(lp2505
F0.203704
aaI54
aa(lp2506
I1
a(lp2507
F0.266667
aaI60
aa(lp2508
I1
a(lp2509
F0.224138
aaI58
aa(lp2510
I1
a(lp2511
F0.320513
aaI78
aaa(lp2512
S'scaffold5700_cov293'
p2513
aS'scaffold5813_cov245'
p2514
aa(lp2515
S'scaffold4573_cov200'
p2516
aS'scaffold9482_cov230'
p2517
a(lp2518
I1
a(lp2519
F0.351064
aaI94
aa(lp2520
I1
a(lp2521
F0.225352
aaI71
aa(lp2522
I1
a(lp2523
F0.383721
aaI86
aa(lp2524
I1
a(lp2525
F0.358025
aaI81
aa(lp2526
I1
a(lp2527
F0.350649
aaI77
aa(lp2528
I1
a(lp2529
F0.355263
aaI76
aa(lp2530
I1
a(lp2531
F0.349398
aaI83
aa(lp2532
I1
a(lp2533
F0.256757
aaI74
aaa(lp2534
S'scaffold36090_cov308'
p2535
aS'scaffold4008_cov147'
p2536
a(lp2537
I1
a(lp2538
F0.5375
aaI80
aa(lp2539
I1
a(lp2540
F0.342105
aaI76
aa(lp2541
I1
a(lp2542
F0.237288
aaI59
aa(lp2543
I1
a(lp2544
F0.333333
aaI51
aaa(lp2545
S'scaffold38236_cov294'
p2546
aS'scaffold12700_cov150'
p2547
aa(lp2548
S'scaffold10361_cov204'
p2549
aS'scaffold11037_cov149'
p2550
aa(lp2551
S'scaffold22541_cov161'
p2552
aS'scaffold6820_cov173'
p2553
aa(lp2554
S'scaffold1081_cov253'
p2555
aS'scaffold1083_cov222'
p2556
a(lp2557
I1
a(lp2558
F0.238095
aaI63
aa(lp2559
I1
a(lp2560
F0.277778
aaI72
aa(lp2561
I1
a(lp2562
F0.41573
aaI89
aa(lp2563
I1
a(lp2564
F0.43617
aaI94
aa(lp2565
I1
a(lp2566
F0.328571
aaI70
aa(lp2567
I1
a(lp2568
F0.3875
aaI80
aa(lp2569
I1
a(lp2570
F0.452381
aaI84
aa(lp2571
I1
a(lp2572
F0.469027
aaI113
aa(lp2573
I1
a(lp2574
F0.340426
aaI94
aa(lp2575
I1
a(lp2576
F0.295775
aaI71
aa(lp2577
I1
a(lp2578
F0.314286
aaI70
aa(lp2579
I1
a(lp2580
F0.342857
aaI70
aa(lp2581
I1
a(lp2582
F0.3
aaI70
aa(lp2583
I1
a(lp2584
F0.394495
aaI109
aa(lp2585
I1
a(lp2586
F0.3
aaI70
aa(lp2587
I1
a(lp2588
F0.313433
aaI67
aa(lp2589
I1
a(lp2590
F0.227273
aaI66
aa(lp2591
I1
a(lp2592
F0.20339
aaI59
aa(lp2593
I1
a(lp2594
F0.5
aaI92
aaa(lp2595
S'scaffold1911_cov231'
p2596
aS'scaffold2955_cov235'
p2597
a(lp2598
I1
a(lp2599
F0.254902
aaI51
aa(lp2600
I1
a(lp2601
F0.40625
aaI64
aa(lp2602
I1
a(lp2603
F0.222222
aaI63
aa(lp2604
I1
a(lp2605
F0.208955
aaI67
aa(lp2606
I1
a(lp2607
F0.275862
aaI58
aa(lp2608
I1
a(lp2609
F0.226415
aaI53
aa(lp2610
I1
a(lp2611
F0.276923
aaI65
aa(lp2612
I1
a(lp2613
F0.348485
aaI66
aa(lp2614
I1
a(lp2615
F0.315789
aaI76
aaa(lp2616
S'scaffold709_cov247'
p2617
aS'scaffold5394_cov155'
p2618
aa(lp2619
S'scaffold4184_cov249'
p2620
aS'scaffold2531_cov161'
p2621
aa(lp2622
S'scaffold2596_cov234'
p2623
aS'scaffold1898_cov190'
p2624
a(lp2625
I1
a(lp2626
F0.307692
aaI104
aa(lp2627
I1
a(lp2628
F0.426829
aaI82
aa(lp2629
I1
a(lp2630
F0.4125
aaI80
aa(lp2631
I1
a(lp2632
F0.447368
aaI76
aa(lp2633
I1
a(lp2634
F0.454545
aaI77
aa(lp2635
I1
a(lp2636
F0.227848
aaI79
aa(lp2637
I1
a(lp2638
F0.220588
aaI68
aaa(lp2639
S'scaffold6422_cov190'
p2640
aS'scaffold14276_cov161'
p2641
aa(lp2642
S'scaffold9505_cov197'
p2643
aS'scaffold3671_cov181'
p2644
a(lp2645
I1
a(lp2646
F0.798883
aaI179
aaa(lp2647
S'scaffold36473_cov268'
p2648
aS'scaffold3188_cov246'
p2649
a(lp2650
I1
a(lp2651
F0.360825
aaI97
aa(lp2652
I1
a(lp2653
F0.353535
aaI99
aa(lp2654
I1
a(lp2655
F0.381443
aaI97
aa(lp2656
I1
a(lp2657
F0.369048
aaI84
aa(lp2658
I1
a(lp2659
F0.376344
aaI93
aa(lp2660
I1
a(lp2661
F0.537037
aaI108
aa(lp2662
I1
a(lp2663
F0.469027
aaI113
aa(lp2664
I1
a(lp2665
F0.371901
aaI121
aa(lp2666
I1
a(lp2667
F0.538462
aaI104
aaa(lp2668
S'scaffold6461_cov208'
p2669
aS'scaffold10232_cov153'
p2670
a(lp2671
I1
a(lp2672
F0.209302
aaI43
aa(lp2673
I1
a(lp2674
F0.214286
aaI84
aa(lp2675
I1
a(lp2676
F0.566372
aaI113
aa(lp2677
I1
a(lp2678
F0.494382
aaI89
aa(lp2679
I1
a(lp2680
F0.33913
aaI115
aa(lp2681
I1
a(lp2682
F0.430894
aaI123
aa(lp2683
I1
a(lp2684
F0.516949
aaI118
aa(lp2685
I1
a(lp2686
F0.579439
aaI107
aaa(lp2687
S'scaffold3709_cov220'
p2688
aS'scaffold9550_cov156'
p2689
aa(lp2690
S'scaffold1435_cov176'
p2691
aS'scaffold7695_cov182'
p2692
a(lp2693
I1
a(lp2694
F0.243902
aaI82
aa(lp2695
I1
a(lp2696
F0.22807
aaI57
aaa(lp2697
S'scaffold20444_cov436'
p2698
aS'scaffold13149_cov173'
p2699
a(lp2700
I1
a(lp2701
F0.371681
aaI113
aa(lp2702
I1
a(lp2703
F0.39823
aaI113
aa(lp2704
I1
a(lp2705
F0.386139
aaI101
aa(lp2706
I1
a(lp2707
F0.297297
aaI74
aa(lp2708
I1
a(lp2709
F0.373134
aaI67
aa(lp2710
I1
a(lp2711
F0.294118
aaI51
aa(lp2712
I1
a(lp2713
F0.363636
aaI55
aa(lp2714
I1
a(lp2715
F0.4
aaI55
aaa(lp2716
S'scaffold9528_cov287'
p2717
aS'scaffold13440_cov161'
p2718
aa(lp2719
S'scaffold3054_cov300'
p2720
aS'scaffold9545_cov229'
p2721
aa(lp2722
S'scaffold7135_cov385'
p2723
aS'scaffold2547_cov148'
p2724
aa(lp2725
S'scaffold4093_cov203'
p2726
aS'scaffold15331_cov173'
p2727
aa(lp2728
S'scaffold4879_cov249'
p2729
aS'scaffold916_cov197'
p2730
a(lp2731
I1
a(lp2732
F0.258065
aaI62
aaa(lp2733
S'scaffold441_cov213'
p2734
aS'scaffold3541_cov180'
p2735
aa(lp2736
S'scaffold6945_cov182'
p2737
aS'scaffold3075_cov156'
p2738
a(lp2739
I1
a(lp2740
F0.236111
aaI72
aaa(lp2741
S'scaffold2691_cov437'
p2742
aS'scaffold843_cov157'
p2743
aa(lp2744
S'scaffold6744_cov389'
p2745
aS'scaffold54_cov186'
p2746
aa(lp2747
S'scaffold3062_cov254'
p2748
aS'scaffold34957_cov248'
p2749
a(lp2750
I1
a(lp2751
F0.351852
aaI54
aa(lp2752
I1
a(lp2753
F0.230769
aaI52
aa(lp2754
I1
a(lp2755
F0.0
aaI54
aaa(lp2756
S'scaffold11228_cov232'
p2757
aS'scaffold14602_cov161'
p2758
a(lp2759
I1
a(lp2760
F0.304348
aaI69
aa(lp2761
I1
a(lp2762
F0.204545
aaI44
aa(lp2763
I1
a(lp2764
F0.227273
aaI44
aa(lp2765
I1
a(lp2766
F0.207547
aaI53
aa(lp2767
I1
a(lp2768
F0.224138
aaI58
aaa(lp2769
S'scaffold36852_cov305'
p2770
aS'scaffold4188_cov191'
p2771
aa(lp2772
S'scaffold915_cov207'
p2773
aS'scaffold914_cov157'
p2774
a(lp2775
I1
a(lp2776
F0.43956
aaI91
aa(lp2777
I1
a(lp2778
F0.682836
aaI268
aa(lp2779
I1
a(lp2780
F0.436893
aaI309
aa(lp2781
I1
a(lp2782
F0.4375
aaI240
aa(lp2783
I1
a(lp2784
F0.322581
aaI62
aa(lp2785
I1
a(lp2786
F0.357143
aaI70
aaa(lp2787
S'scaffold663_cov256'
p2788
aS'scaffold29908_cov147'
p2789
aa(lp2790
S'scaffold1561_cov271'
p2791
aS'scaffold1811_cov234'
p2792
a(lp2793
I1
a(lp2794
F0.233333
aaI60
aa(lp2795
I1
a(lp2796
F0.203704
aaI54
aa(lp2797
I1
a(lp2798
F0.315068
aaI73
aa(lp2799
I1
a(lp2800
F0.272727
aaI77
aa(lp2801
I1
a(lp2802
F0.394737
aaI76
aa(lp2803
I1
a(lp2804
F0.410959
aaI73
aa(lp2805
I1
a(lp2806
F0.41791
aaI67
aa(lp2807
I1
a(lp2808
F0.208955
aaI67
aa(lp2809
I1
a(lp2810
F0.345794
aaI107
aa(lp2811
I1
a(lp2812
F0.205882
aaI68
aa(lp2813
I1
a(lp2814
F0.285714
aaI70
aa(lp2815
I1
a(lp2816
F0.272727
aaI77
aa(lp2817
I1
a(lp2818
F0.246753
aaI77
aa(lp2819
I1
a(lp2820
F0.404762
aaI84
aa(lp2821
I1
a(lp2822
F0.333333
aaI84
aaa(lp2823
S'scaffold279_cov300'
p2824
aS'scaffold888_cov152'
p2825
a(lp2826
I1
a(lp2827
F0.373134
aaI67
aa(lp2828
I1
a(lp2829
F0.31746
aaI63
aaa(lp2830
S'scaffold35026_cov310'
p2831
aS'scaffold288_cov182'
p2832
a(lp2833
I1
a(lp2834
F0.244444
aaI45
aa(lp2835
I1
a(lp2836
F0.366667
aaI90
aa(lp2837
I1
a(lp2838
F0.220588
aaI68
aa(lp2839
I1
a(lp2840
F0.246377
aaI69
aa(lp2841
I1
a(lp2842
F0.258824
aaI85
aa(lp2843
I1
a(lp2844
F0.282051
aaI78
aa(lp2845
I1
a(lp2846
F0.282051
aaI78
aa(lp2847
I1
a(lp2848
F0.2625
aaI80
aa(lp2849
I1
a(lp2850
F0.269231
aaI78
aa(lp2851
I1
a(lp2852
F0.233577
aaI137
aa(lp2853
I1
a(lp2854
F0.4
aaI100
aa(lp2855
I1
a(lp2856
F0.210526
aaI19
aa(lp2857
I1
a(lp2858
F0.206349
aaI63
aa(lp2859
I1
a(lp2860
F0.285714
aaI70
aa(lp2861
I1
a(lp2862
F0.254902
aaI51
aa(lp2863
I1
a(lp2864
F0.222222
aaI54
aa(lp2865
I1
a(lp2866
F0.226415
aaI53
aa(lp2867
I1
a(lp2868
F0.253968
aaI63
aa(lp2869
I1
a(lp2870
F0.261538
aaI65
aa(lp2871
I1
a(lp2872
F0.208955
aaI67
aa(lp2873
I1
a(lp2874
F0.227273
aaI66
aa(lp2875
I1
a(lp2876
F0.220588
aaI68
aa(lp2877
I1
a(lp2878
F0.222222
aaI63
aa(lp2879
I1
a(lp2880
F0.215385
aaI65
aaa(lp2881
S'scaffold9204_cov285'
p2882
aS'scaffold2497_cov220'
p2883
a(lp2884
I1
a(lp2885
F0.445652
aaI92
aaa(lp2886
S'scaffold47223_cov305'
p2887
aS'scaffold428_cov197'
p2888
a(lp2889
I1
a(lp2890
F0.204082
aaI49
aaa(lp2891
S'scaffold3367_cov255'
p2892
aS'scaffold3227_cov180'
p2893
a(lp2894
I1
a(lp2895
F0.515789
aaI95
aa(lp2896
I1
a(lp2897
F0.531746
aaI126
aa(lp2898
I1
a(lp2899
F0.642202
aaI109
aaa(lp2900
S'scaffold1226_cov199'
p2901
aS'scaffold3246_cov212'
p2902
a(lp2903
I1
a(lp2904
F0.309524
aaI84
aa(lp2905
I1
a(lp2906
F0.386667
aaI75
aa(lp2907
I1
a(lp2908
F0.417722
aaI79
aa(lp2909
I1
a(lp2910
F0.220339
aaI59
aa(lp2911
I1
a(lp2912
F0.347826
aaI69
aaa(lp2913
S'scaffold17142_cov215'
p2914
aS'scaffold35222_cov195'
p2915
a(lp2916
I1
a(lp2917
F0.31746
aaI63
aa(lp2918
I1
a(lp2919
F0.304878
aaI82
aa(lp2920
I1
a(lp2921
F0.220588
aaI68
aa(lp2922
I1
a(lp2923
F0.409091
aaI110
aaa(lp2924
S'scaffold35800_cov215'
p2925
aS'scaffold7468_cov213'
p2926
a(lp2927
I1
a(lp2928
F0.255319
aaI47
aa(lp2929
I1
a(lp2930
F0.25
aaI56
aa(lp2931
I1
a(lp2932
F0.348315
aaI89
aa(lp2933
I1
a(lp2934
F0.366667
aaI90
aa(lp2935
I1
a(lp2936
F0.392405
aaI79
aa(lp2937
I1
a(lp2938
F0.3
aaI70
aa(lp2939
I1
a(lp2940
F0.295775
aaI71
aa(lp2941
I1
a(lp2942
F0.306818
aaI88
aa(lp2943
I1
a(lp2944
F0.230769
aaI78
aa(lp2945
I1
a(lp2946
F0.289855
aaI69
aa(lp2947
I1
a(lp2948
F0.215385
aaI65
aa(lp2949
I1
a(lp2950
F0.298507
aaI67
aa(lp2951
I1
a(lp2952
F0.343284
aaI67
aa(lp2953
I1
a(lp2954
F0.204082
aaI49
aa(lp2955
I1
a(lp2956
F0.359551
aaI89
aa(lp2957
I1
a(lp2958
F0.323529
aaI68
aa(lp2959
I1
a(lp2960
F0.291667
aaI72
aa(lp2961
I1
a(lp2962
F0.337079
aaI89
aa(lp2963
I1
a(lp2964
F0.386364
aaI88
aa(lp2965
I1
a(lp2966
F0.220779
aaI77
aa(lp2967
I1
a(lp2968
F0.316667
aaI60
aa(lp2969
I1
a(lp2970
F0.293103
aaI58
aa(lp2971
I1
a(lp2972
F0.3625
aaI80
aa(lp2973
I1
a(lp2974
F0.378049
aaI82
aaa(lp2975
S'scaffold50853_cov294'
p2976
aS'scaffold4382_cov182'
p2977
a(lp2978
I1
a(lp2979
F0.0
aaI76
aa(lp2980
I1
a(lp2981
F0.279412
aaI68
aa(lp2982
I1
a(lp2983
F0.346667
aaI75
aa(lp2984
I1
a(lp2985
F0.303797
aaI79
aaa(lp2986
S'scaffold6035_cov288'
p2987
aS'scaffold8301_cov160'
p2988
aa(lp2989
S'scaffold33985_cov263'
p2990
aS'scaffold383_cov198'
p2991
a(lp2992
I1
a(lp2993
F0.22973
aaI74
aa(lp2994
I1
a(lp2995
F0.21519
aaI79
aa(lp2996
I1
a(lp2997
F0.44898
aaI98
aa(lp2998
I1
a(lp2999
F0.206897
aaI58
aa(lp3000
I1
a(lp3001
F0.240741
aaI54
aa(lp3002
I1
a(lp3003
F0.25
aaI52
aa(lp3004
I1
a(lp3005
F0.24
aaI50
aa(lp3006
I1
a(lp3007
F0.25
aaI48
aa(lp3008
I1
a(lp3009
F0.295082
aaI61
aa(lp3010
I1
a(lp3011
F0.348624
aaI109
aa(lp3012
I1
a(lp3013
F0.414286
aaI70
aa(lp3014
I1
a(lp3015
F0.456897
aaI116
aa(lp3016
I1
a(lp3017
F0.2
aaI75
aa(lp3018
I1
a(lp3019
F0.25
aaI80
aa(lp3020
I1
a(lp3021
F0.266667
aaI75
aa(lp3022
I1
a(lp3023
F0.358209
aaI67
aa(lp3024
I1
a(lp3025
F0.378378
aaI74
aa(lp3026
I1
a(lp3027
F0.347826
aaI69
aa(lp3028
I1
a(lp3029
F0.39759
aaI83
aa(lp3030
I1
a(lp3031
F0.290323
aaI62
aa(lp3032
I1
a(lp3033
F0.24359
aaI78
aa(lp3034
I1
a(lp3035
F0.267606
aaI71
aa(lp3036
I1
a(lp3037
F0.325301
aaI83
aa(lp3038
I1
a(lp3039
F0.293333
aaI75
aa(lp3040
I1
a(lp3041
F0.22973
aaI74
aa(lp3042
I1
a(lp3043
F0.25
aaI68
aa(lp3044
I1
a(lp3045
F0.2
aaI60
aa(lp3046
I1
a(lp3047
F0.272727
aaI55
aa(lp3048
I1
a(lp3049
F0.313725
aaI51
aa(lp3050
I1
a(lp3051
F0.285714
aaI63
aa(lp3052
I1
a(lp3053
F0.272727
aaI66
aa(lp3054
I1
a(lp3055
F0.253521
aaI71
aa(lp3056
I1
a(lp3057
F0.28125
aaI64
aa(lp3058
I1
a(lp3059
F0.482353
aaI85
aaa(lp3060
S'scaffold51910_cov463'
p3061
aS'scaffold3158_cov165'
p3062
aa(lp3063
S'scaffold1343_cov240'
p3064
aS'scaffold219_cov217'
p3065
a(lp3066
I1
a(lp3067
F0.304348
aaI69
aa(lp3068
I1
a(lp3069
F0.423913
aaI92
aa(lp3070
I1
a(lp3071
F0.415842
aaI101
aa(lp3072
I1
a(lp3073
F0.449438
aaI89
aa(lp3074
I1
a(lp3075
F0.378378
aaI74
aa(lp3076
I1
a(lp3077
F0.350649
aaI77
aa(lp3078
I1
a(lp3079
F0.391892
aaI74
aa(lp3080
I1
a(lp3081
F0.397436
aaI78
aa(lp3082
I1
a(lp3083
F0.267442
aaI86
aa(lp3084
I1
a(lp3085
F0.282353
aaI85
aa(lp3086
I1
a(lp3087
F0.241935
aaI62
aa(lp3088
I1
a(lp3089
F0.626984
aaI126
aa(lp3090
I1
a(lp3091
F0.632812
aaI128
aa(lp3092
I1
a(lp3093
F0.788546
aaI227
aa(lp3094
I1
a(lp3095
F0.520833
aaI192
aa(lp3096
I1
a(lp3097
F0.0
aaI545
aa(lp3098
I1
a(lp3099
F0.24359
aaI78
aaa(lp3100
S'scaffold12570_cov377'
p3101
aS'scaffold1045_cov153'
p3102
aa(lp3103
S'scaffold902_cov223'
p3104
aS'scaffold6221_cov149'
p3105
a(lp3106
I1
a(lp3107
F0.271186
aaI59
aa(lp3108
I1
a(lp3109
F0.254237
aaI59
aa(lp3110
I1
a(lp3111
F0.245614
aaI57
aa(lp3112
I1
a(lp3113
F0.289157
aaI83
aa(lp3114
I1
a(lp3115
F0.202899
aaI69
aaa(lp3116
S'scaffold12881_cov242'
p3117
aS'scaffold36279_cov207'
p3118
a(lp3119
I1
a(lp3120
F0.28
aaI75
aa(lp3121
I1
a(lp3122
F0.358209
aaI67
aa(lp3123
I1
a(lp3124
F0.25
aaI64
aa(lp3125
I1
a(lp3126
F0.358025
aaI81
aa(lp3127
I1
a(lp3128
F0.373626
aaI91
aa(lp3129
I1
a(lp3130
F0.453488
aaI86
aa(lp3131
I1
a(lp3132
F0.3
aaI70
aa(lp3133
I1
a(lp3134
F0.343284
aaI67
aa(lp3135
I1
a(lp3136
F0.457831
aaI83
aaa(lp3137
S'scaffold10585_cov239'
p3138
aS'scaffold14002_cov262'
p3139
a(lp3140
I1
a(lp3141
F0.43038
aaI79
aa(lp3142
I1
a(lp3143
F0.544554
aaI101
aa(lp3144
I1
a(lp3145
F0.536082
aaI97
aaa(lp3146
S'scaffold12136_cov215'
p3147
aS'scaffold5344_cov146'
p3148
a(lp3149
I1
a(lp3150
F0.637931
aaI58
aa(lp3151
I1
a(lp3152
F0.46988
aaI83
aa(lp3153
I1
a(lp3154
F0.504505
aaI111
aaa(lp3155
S'scaffold7758_cov177'
p3156
aS'scaffold34054_cov214'
p3157
a(lp3158
I1
a(lp3159
F0.241379
aaI58
aa(lp3160
I1
a(lp3161
F0.245283
aaI53
aa(lp3162
I1
a(lp3163
F0.295082
aaI61
aaa(lp3164
S'scaffold2323_cov224'
p3165
aS'scaffold11669_cov179'
p3166
a(lp3167
I1
a(lp3168
F0.230769
aaI78
aaa(lp3169
S'scaffold7526_cov240'
p3170
aS'scaffold8195_cov213'
p3171
a(lp3172
I1
a(lp3173
F0.468354
aaI79
aa(lp3174
I1
a(lp3175
F0.441558
aaI77
aa(lp3176
I1
a(lp3177
F0.45
aaI80
aa(lp3178
I1
a(lp3179
F0.377358
aaI53
aa(lp3180
I1
a(lp3181
F0.222222
aaI72
aa(lp3182
I1
a(lp3183
F0.241379
aaI87
aa(lp3184
I1
a(lp3185
F0.482759
aaI116
aa(lp3186
I1
a(lp3187
F0.205479
aaI73
aa(lp3188
I1
a(lp3189
F0.213333
aaI75
aa(lp3190
I1
a(lp3191
F0.208333
aaI72
aaa(lp3192
S'scaffold5645_cov270'
p3193
aS'scaffold8590_cov218'
p3194
aa(lp3195
S'scaffold50320_cov305'
p3196
aS'scaffold1792_cov186'
p3197
aa(lp3198
S'scaffold10366_cov326'
p3199
aS'scaffold17512_cov158'
p3200
aa(lp3201
S'scaffold6871_cov206'
p3202
aS'scaffold10121_cov202'
p3203
aa(lp3204
S'scaffold9918_cov286'
p3205
aS'scaffold3310_cov167'
p3206
a(lp3207
I1
a(lp3208
F0.205479
aaI73
aa(lp3209
I1
a(lp3210
F0.207317
aaI82
aa(lp3211
I1
a(lp3212
F0.202381
aaI84
aa(lp3213
I1
a(lp3214
F0.0
aaI33
aa(lp3215
I1
a(lp3216
F0.30719
aaI153
aaa(lp3217
S'scaffold2942_cov228'
p3218
aS'scaffold18738_cov241'
p3219
aa(lp3220
S'scaffold10654_cov169'
p3221
aS'scaffold5155_cov170'
p3222
a(lp3223
I1
a(lp3224
F0.285714
aaI63
aa(lp3225
I1
a(lp3226
F0.269663
aaI89
aa(lp3227
I1
a(lp3228
F0.32
aaI75
aa(lp3229
I1
a(lp3230
F0.373494
aaI83
aa(lp3231
I1
a(lp3232
F0.4375
aaI64
aaa(lp3233
S'scaffold16272_cov418'
p3234
aS'scaffold343_cov157'
p3235
aa(lp3236
S'scaffold3956_cov265'
p3237
aS'scaffold4654_cov204'
p3238
ag2387
a(lp3239
I1
a(lp3240
F0.356164
aaI73
aa(lp3241
I1
a(lp3242
F0.337838
aaI74
aa(lp3243
I1
a(lp3244
F0.0
aaI63
aa(lp3245
I1
a(lp3246
F0.0
aaI49
aa(lp3247
I1
a(lp3248
F0.395833
aaI96
aa(lp3249
I1
a(lp3250
F0.317073
aaI82
aaasS'up'
p3251
(lp3252
(lp3253
g6
ag7
aa(lp3254
g11
ag12
a(lp3255
I1
a(lp3256
F0.24
aaI75
aa(lp3257
I1
a(lp3258
F0.339623
aaI53
aa(lp3259
I1
a(lp3260
F0.410714
aaI56
aa(lp3261
I1
a(lp3262
F0.289855
aaI69
aa(lp3263
I1
a(lp3264
F0.337209
aaI86
aa(lp3265
I1
a(lp3266
F0.388889
aaI90
aa(lp3267
I1
a(lp3268
F0.377778
aaI90
aa(lp3269
I1
a(lp3270
F0.443038
aaI79
aa(lp3271
I1
a(lp3272
F0.333333
aaI60
aa(lp3273
I1
a(lp3274
F0.322581
aaI62
aa(lp3275
I1
a(lp3276
F0.318841
aaI69
aa(lp3277
I1
a(lp3278
F0.455357
aaI112
aa(lp3279
I1
a(lp3280
F0.396825
aaI63
aa(lp3281
I1
a(lp3282
F0.428571
aaI70
aa(lp3283
I1
a(lp3284
F0.222222
aaI99
aa(lp3285
I1
a(lp3286
F0.333333
aaI96
aa(lp3287
I1
a(lp3288
F0.326733
aaI101
aa(lp3289
I1
a(lp3290
F0.340206
aaI97
aa(lp3291
I1
a(lp3292
F0.35
aaI100
aa(lp3293
I1
a(lp3294
F0.3875
aaI80
aa(lp3295
I1
a(lp3296
F0.358025
aaI81
aa(lp3297
I1
a(lp3298
F0.263158
aaI76
aa(lp3299
I1
a(lp3300
F0.325
aaI80
aa(lp3301
I1
a(lp3302
F0.4375
aaI96
aa(lp3303
I1
a(lp3304
F0.413043
aaI92
aa(lp3305
I1
a(lp3306
F0.211864
aaI118
aa(lp3307
I1
a(lp3308
F0.319328
aaI119
aaa(lp3309
g20
ag21
a(lp3310
I1
a(lp3311
F0.298701
aaI77
aa(lp3312
I1
a(lp3313
F0.329268
aaI82
aaa(lp3314
g23
ag24
aa(lp3315
g30
ag31
a(lp3316
I1
a(lp3317
F0.206349
aaI63
aa(lp3318
I1
a(lp3319
F0.290323
aaI62
aa(lp3320
I1
a(lp3321
F0.367925
aaI106
aaa(lp3322
g45
ag46
aa(lp3323
g48
ag49
aa(lp3324
g53
ag54
a(lp3325
I1
a(lp3326
F0.550459
aaI109
aa(lp3327
I1
a(lp3328
F0.408163
aaI98
aa(lp3329
I1
a(lp3330
F0.505747
aaI87
aa(lp3331
I1
a(lp3332
F0.232143
aaI56
aa(lp3333
I1
a(lp3334
F0.222222
aaI72
aa(lp3335
I1
a(lp3336
F0.22973
aaI74
aa(lp3337
I1
a(lp3338
F0.404494
aaI89
aa(lp3339
I1
a(lp3340
F0.386364
aaI88
aa(lp3341
I1
a(lp3342
F0.447059
aaI85
aa(lp3343
I1
a(lp3344
F0.459459
aaI74
aa(lp3345
I1
a(lp3346
F0.510417
aaI96
aa(lp3347
I1
a(lp3348
F0.369565
aaI92
aaa(lp3349
g70
ag71
aa(lp3350
g73
ag74
aa(lp3351
g80
ag81
a(lp3352
I1
a(lp3353
F0.346667
aaI75
aa(lp3354
I1
a(lp3355
F0.3
aaI80
aa(lp3356
I1
a(lp3357
F0.349398
aaI83
aa(lp3358
I1
a(lp3359
F0.505263
aaI95
aa(lp3360
I1
a(lp3361
F0.234043
aaI94
aa(lp3362
I1
a(lp3363
F0.201923
aaI104
aaa(lp3364
g91
ag92
a(lp3365
I1
a(lp3366
F0.49
aaI100
aa(lp3367
I1
a(lp3368
F0.428571
aaI84
aa(lp3369
I1
a(lp3370
F0.402299
aaI87
aa(lp3371
I1
a(lp3372
F0.413793
aaI87
aa(lp3373
I1
a(lp3374
F0.373494
aaI83
aa(lp3375
I1
a(lp3376
F0.415842
aaI101
aa(lp3377
I1
a(lp3378
F0.222222
aaI63
aa(lp3379
I1
a(lp3380
F0.406977
aaI86
aa(lp3381
I1
a(lp3382
F0.423913
aaI92
aa(lp3383
I1
a(lp3384
F0.391304
aaI92
aa(lp3385
I1
a(lp3386
F0.32967
aaI91
aa(lp3387
I1
a(lp3388
F0.292929
aaI99
aa(lp3389
I1
a(lp3390
F0.273684
aaI95
aa(lp3391
I1
a(lp3392
F0.235955
aaI89
aaa(lp3393
g94
ag95
a(lp3394
I1
a(lp3395
F0.457447
aaI94
aa(lp3396
I1
a(lp3397
F0.424242
aaI66
aa(lp3398
I1
a(lp3399
F0.432432
aaI74
aa(lp3400
I1
a(lp3401
F0.454545
aaI88
aaa(lp3402
g101
ag102
aa(lp3403
g110
ag111
aa(lp3404
g113
ag114
aa(lp3405
g116
ag117
aa(lp3406
g121
ag122
aa(lp3407
g134
ag135
a(lp3408
I1
a(lp3409
F0.313131
aaI99
aa(lp3410
I1
a(lp3411
F0.406977
aaI86
aa(lp3412
I1
a(lp3413
F0.305882
aaI170
aa(lp3414
I1
a(lp3415
F0.311688
aaI154
aa(lp3416
I1
a(lp3417
F0.384615
aaI104
aa(lp3418
I1
a(lp3419
F0.5
aaI106
aa(lp3420
I1
a(lp3421
F0.30303
aaI66
aaa(lp3422
g155
ag156
a(lp3423
I1
a(lp3424
F0.428571
aaI70
aa(lp3425
I1
a(lp3426
F0.467532
aaI77
aa(lp3427
I1
a(lp3428
F0.269231
aaI104
aaa(lp3429
g180
ag181
a(lp3430
I1
a(lp3431
F0.381443
aaI97
aaa(lp3432
g183
ag184
aa(lp3433
g186
ag187
a(lp3434
I1
a(lp3435
F0.42268
aaI97
aa(lp3436
I1
a(lp3437
F0.313953
aaI86
aa(lp3438
I1
a(lp3439
F0.317647
aaI85
aa(lp3440
I1
a(lp3441
F0.382979
aaI94
aa(lp3442
I1
a(lp3443
F0.411765
aaI102
aa(lp3444
I1
a(lp3445
F0.348315
aaI89
aa(lp3446
I1
a(lp3447
F0.357143
aaI84
aa(lp3448
I1
a(lp3449
F0.309524
aaI84
aa(lp3450
I1
a(lp3451
F0.368421
aaI76
aa(lp3452
I1
a(lp3453
F0.333333
aaI81
aa(lp3454
I1
a(lp3455
F0.446809
aaI94
aa(lp3456
I1
a(lp3457
F0.24
aaI75
aa(lp3458
I1
a(lp3459
F0.219178
aaI73
aa(lp3460
I1
a(lp3461
F0.205479
aaI73
aa(lp3462
I1
a(lp3463
F0.289474
aaI76
aa(lp3464
I1
a(lp3465
F0.424242
aaI99
aa(lp3466
I1
a(lp3467
F0.385417
aaI96
aaa(lp3468
g189
ag190
aa(lp3469
g192
ag193
a(lp3470
I1
a(lp3471
F0.333333
aaI150
aa(lp3472
I1
a(lp3473
F0.302013
aaI149
aa(lp3474
I1
a(lp3475
F0.265625
aaI128
aaa(lp3476
g195
ag196
a(lp3477
I1
a(lp3478
F0.376238
aaI101
aa(lp3479
I1
a(lp3480
F0.292308
aaI65
aa(lp3481
I1
a(lp3482
F0.208955
aaI67
aa(lp3483
I1
a(lp3484
F0.208955
aaI67
aa(lp3485
I1
a(lp3486
F0.243243
aaI74
aa(lp3487
I1
a(lp3488
F0.458333
aaI96
aa(lp3489
I1
a(lp3490
F0.462264
aaI106
aa(lp3491
I1
a(lp3492
F0.44
aaI100
aa(lp3493
I1
a(lp3494
F0.387755
aaI98
aa(lp3495
I1
a(lp3496
F0.391753
aaI97
aa(lp3497
I1
a(lp3498
F0.404494
aaI89
aa(lp3499
I1
a(lp3500
F0.392857
aaI84
aa(lp3501
I1
a(lp3502
F0.341772
aaI79
aa(lp3503
I1
a(lp3504
F0.203125
aaI64
aa(lp3505
I1
a(lp3506
F0.25
aaI20
aaa(lp3507
g198
ag199
a(lp3508
I1
a(lp3509
F0.372549
aaI102
aa(lp3510
I1
a(lp3511
F0.357143
aaI84
aa(lp3512
I1
a(lp3513
F0.337079
aaI89
aa(lp3514
I1
a(lp3515
F0.301205
aaI83
aa(lp3516
I1
a(lp3517
F0.208955
aaI67
aa(lp3518
I1
a(lp3519
F0.2625
aaI80
aa(lp3520
I1
a(lp3521
F0.373737
aaI99
aa(lp3522
I1
a(lp3523
F0.364865
aaI74
aaa(lp3524
g215
ag216
aa(lp3525
g218
ag219
a(lp3526
I1
a(lp3527
F0.380952
aaI84
aa(lp3528
I1
a(lp3529
F0.349398
aaI83
aa(lp3530
I1
a(lp3531
F0.380952
aaI84
aa(lp3532
I1
a(lp3533
F0.484211
aaI95
aa(lp3534
I1
a(lp3535
F0.468085
aaI94
aa(lp3536
I1
a(lp3537
F0.380952
aaI63
aa(lp3538
I1
a(lp3539
F0.516854
aaI89
aa(lp3540
I1
a(lp3541
F0.515152
aaI99
aa(lp3542
I1
a(lp3543
F0.53271
aaI107
aaa(lp3544
g239
ag240
a(lp3545
I1
a(lp3546
F0.382979
aaI94
aa(lp3547
I1
a(lp3548
F0.303797
aaI79
aaa(lp3549
g242
ag243
a(lp3550
I1
a(lp3551
F0.25641
aaI78
aa(lp3552
I1
a(lp3553
F0.214286
aaI56
aa(lp3554
I1
a(lp3555
F0.53012
aaI83
aa(lp3556
I1
a(lp3557
F0.491228
aaI114
aa(lp3558
I1
a(lp3559
F0.449541
aaI109
aa(lp3560
I1
a(lp3561
F0.453782
aaI119
aa(lp3562
I1
a(lp3563
F0.4375
aaI96
aa(lp3564
I1
a(lp3565
F0.27027
aaI74
aa(lp3566
I1
a(lp3567
F0.435897
aaI78
aa(lp3568
I1
a(lp3569
F0.442623
aaI122
aa(lp3570
I1
a(lp3571
F0.474227
aaI97
aa(lp3572
I1
a(lp3573
F0.390625
aaI64
aa(lp3574
I1
a(lp3575
F0.402778
aaI72
aa(lp3576
I1
a(lp3577
F0.227273
aaI66
aa(lp3578
I1
a(lp3579
F0.217391
aaI69
aa(lp3580
I1
a(lp3581
F0.212121
aaI66
aa(lp3582
I1
a(lp3583
F0.274194
aaI62
aa(lp3584
I1
a(lp3585
F0.285714
aaI70
aa(lp3586
I1
a(lp3587
F0.32
aaI75
aa(lp3588
I1
a(lp3589
F0.324324
aaI74
aa(lp3590
I1
a(lp3591
F0.203704
aaI54
aa(lp3592
I1
a(lp3593
F0.349206
aaI63
aa(lp3594
I1
a(lp3595
F0.467213
aaI122
aa(lp3596
I1
a(lp3597
F0.443038
aaI79
aa(lp3598
I1
a(lp3599
F0.392523
aaI107
aaa(lp3600
g277
ag278
aa(lp3601
g284
ag285
aa(lp3602
g287
ag288
a(lp3603
I1
a(lp3604
F0.445455
aaI110
aa(lp3605
I1
a(lp3606
F0.265625
aaI64
aa(lp3607
I1
a(lp3608
F0.296875
aaI64
aa(lp3609
I1
a(lp3610
F0.415584
aaI77
aaa(lp3611
g348
ag349
aa(lp3612
g351
ag352
aa(lp3613
g354
ag355
aa(lp3614
g357
ag358
a(lp3615
I1
a(lp3616
F0.271186
aaI59
aa(lp3617
I1
a(lp3618
F0.505882
aaI85
aa(lp3619
I1
a(lp3620
F0.445545
aaI101
aa(lp3621
I1
a(lp3622
F0.411111
aaI90
aa(lp3623
I1
a(lp3624
F0.411765
aaI51
aa(lp3625
I1
a(lp3626
F0.260274
aaI73
aa(lp3627
I1
a(lp3628
F0.490196
aaI102
aa(lp3629
I1
a(lp3630
F0.203704
aaI54
aa(lp3631
I1
a(lp3632
F0.536585
aaI123
aa(lp3633
I1
a(lp3634
F0.416
aaI125
aa(lp3635
I1
a(lp3636
F0.228571
aaI105
aa(lp3637
I1
a(lp3638
F0.561905
aaI105
aa(lp3639
I1
a(lp3640
F0.567797
aaI118
aa(lp3641
I1
a(lp3642
F0.336634
aaI101
aa(lp3643
I1
a(lp3644
F0.354167
aaI96
aa(lp3645
I1
a(lp3646
F0.379747
aaI79
aaa(lp3647
g370
ag371
aa(lp3648
g401
ag402
a(lp3649
I1
a(lp3650
F0.233333
aaI60
aa(lp3651
I1
a(lp3652
F0.254545
aaI55
aa(lp3653
I1
a(lp3654
F0.25
aaI60
aa(lp3655
I1
a(lp3656
F0.265625
aaI64
aa(lp3657
I1
a(lp3658
F0.257576
aaI66
aa(lp3659
I1
a(lp3660
F0.287879
aaI66
aa(lp3661
I1
a(lp3662
F0.333333
aaI57
aa(lp3663
I1
a(lp3664
F0.25
aaI52
aa(lp3665
I1
a(lp3666
F0.232143
aaI56
aa(lp3667
I1
a(lp3668
F0.245614
aaI57
aa(lp3669
I1
a(lp3670
F0.285714
aaI56
aa(lp3671
I1
a(lp3672
F0.245614
aaI57
aa(lp3673
I1
a(lp3674
F0.220779
aaI77
aa(lp3675
I1
a(lp3676
F0.246914
aaI81
aa(lp3677
I1
a(lp3678
F0.454545
aaI121
aaa(lp3679
g456
ag457
a(lp3680
I1
a(lp3681
F0.432836
aaI67
aa(lp3682
I1
a(lp3683
F0.367647
aaI68
aa(lp3684
I1
a(lp3685
F0.442308
aaI104
aaa(lp3686
g459
ag460
a(lp3687
I1
a(lp3688
F0.222222
aaI72
aaa(lp3689
g470
ag471
a(lp3690
I1
a(lp3691
F0.290323
aaI124
aa(lp3692
I1
a(lp3693
F0.355932
aaI59
aaa(lp3694
g489
ag490
aa(lp3695
g498
ag499
aa(lp3696
g501
ag502
a(lp3697
I1
a(lp3698
F0.474747
aaI99
aa(lp3699
I1
a(lp3700
F0.427273
aaI110
aa(lp3701
I1
a(lp3702
F0.393258
aaI89
aaa(lp3703
g506
ag507
a(lp3704
I1
a(lp3705
F0.242857
aaI70
aaa(lp3706
g509
ag510
a(lp3707
I1
a(lp3708
F0.25
aaI60
aaa(lp3709
g514
ag515
a(lp3710
I1
a(lp3711
F0.230769
aaI65
aaa(lp3712
g517
ag518
aa(lp3713
g520
ag521
aa(lp3714
g523
ag524
a(lp3715
I1
a(lp3716
F0.48913
aaI92
aaa(lp3717
g534
ag535
a(lp3718
I1
a(lp3719
F0.2
aaI90
aa(lp3720
I1
a(lp3721
F0.376238
aaI101
aa(lp3722
I1
a(lp3723
F0.473684
aaI76
aa(lp3724
I1
a(lp3725
F0.391753
aaI97
aa(lp3726
I1
a(lp3727
F0.384615
aaI78
aa(lp3728
I1
a(lp3729
F0.342105
aaI76
aa(lp3730
I1
a(lp3731
F0.601852
aaI108
aa(lp3732
I1
a(lp3733
F0.353535
aaI99
aa(lp3734
I1
a(lp3735
F0.218182
aaI110
aa(lp3736
I1
a(lp3737
F0.587719
aaI114
aaa(lp3738
g541
ag542
aa(lp3739
g548
ag549
aa(lp3740
g551
ag552
aa(lp3741
g554
ag555
a(lp3742
I1
a(lp3743
F0.367816
aaI87
aa(lp3744
I1
a(lp3745
F0.392405
aaI79
aa(lp3746
I1
a(lp3747
F0.405063
aaI79
aa(lp3748
I1
a(lp3749
F0.382716
aaI81
aa(lp3750
I1
a(lp3751
F0.479339
aaI121
aa(lp3752
I1
a(lp3753
F0.25
aaI72
aa(lp3754
I1
a(lp3755
F0.257143
aaI70
aa(lp3756
I1
a(lp3757
F0.264706
aaI68
aa(lp3758
I1
a(lp3759
F0.26087
aaI69
aa(lp3760
I1
a(lp3761
F0.261538
aaI65
aa(lp3762
I1
a(lp3763
F0.419355
aaI93
aa(lp3764
I1
a(lp3765
F0.428571
aaI91
aa(lp3766
I1
a(lp3767
F0.476744
aaI86
aaa(lp3768
g563
ag564
aa(lp3769
g566
ag567
aa(lp3770
g573
ag574
a(lp3771
I1
a(lp3772
F0.275862
aaI58
aa(lp3773
I1
a(lp3774
F0.428571
aaI91
aa(lp3775
I1
a(lp3776
F0.452381
aaI84
aa(lp3777
I1
a(lp3778
F0.4125
aaI80
aa(lp3779
I1
a(lp3780
F0.4125
aaI80
aa(lp3781
I1
a(lp3782
F0.417722
aaI79
aa(lp3783
I1
a(lp3784
F0.417722
aaI79
aa(lp3785
I1
a(lp3786
F0.382353
aaI68
aa(lp3787
I1
a(lp3788
F0.376812
aaI69
aa(lp3789
I1
a(lp3790
F0.419355
aaI93
aa(lp3791
I1
a(lp3792
F0.364865
aaI74
aa(lp3793
I1
a(lp3794
F0.348315
aaI89
aa(lp3795
I1
a(lp3796
F0.336735
aaI98
aa(lp3797
I1
a(lp3798
F0.310345
aaI87
aa(lp3799
I1
a(lp3800
F0.439024
aaI82
aa(lp3801
I1
a(lp3802
F0.425287
aaI87
aa(lp3803
I1
a(lp3804
F0.220339
aaI59
aa(lp3805
I1
a(lp3806
F0.216667
aaI60
aa(lp3807
I1
a(lp3808
F0.220339
aaI59
aa(lp3809
I1
a(lp3810
F0.216667
aaI60
aa(lp3811
I1
a(lp3812
F0.224138
aaI58
aa(lp3813
I1
a(lp3814
F0.32
aaI75
aa(lp3815
I1
a(lp3816
F0.253968
aaI63
aaa(lp3817
g586
ag587
aa(lp3818
g601
ag602
a(lp3819
I1
a(lp3820
F0.269231
aaI78
aa(lp3821
I1
a(lp3822
F0.219512
aaI82
aa(lp3823
I1
a(lp3824
F0.261538
aaI65
aa(lp3825
I1
a(lp3826
F0.233766
aaI77
aa(lp3827
I1
a(lp3828
F0.416667
aaI60
aa(lp3829
I1
a(lp3830
F0.41791
aaI67
aa(lp3831
I1
a(lp3832
F0.371429
aaI70
aa(lp3833
I1
a(lp3834
F0.358696
aaI92
aa(lp3835
I1
a(lp3836
F0.597701
aaI87
aa(lp3837
I1
a(lp3838
F0.35
aaI60
aa(lp3839
I1
a(lp3840
F0.516129
aaI93
aa(lp3841
I1
a(lp3842
F0.309859
aaI71
aa(lp3843
I1
a(lp3844
F0.365854
aaI82
aa(lp3845
I1
a(lp3846
F0.278481
aaI79
aa(lp3847
I1
a(lp3848
F0.276316
aaI76
aa(lp3849
I1
a(lp3850
F0.207792
aaI77
aa(lp3851
I1
a(lp3852
F0.222222
aaI72
aa(lp3853
I1
a(lp3854
F0.2
aaI80
aa(lp3855
I1
a(lp3856
F0.263889
aaI72
aa(lp3857
I1
a(lp3858
F0.386667
aaI75
aa(lp3859
I1
a(lp3860
F0.463918
aaI97
aa(lp3861
I1
a(lp3862
F0.375
aaI64
aa(lp3863
I1
a(lp3864
F0.275
aaI80
aaa(lp3865
g604
ag605
aa(lp3866
g607
ag608
aa(lp3867
g616
ag617
a(lp3868
I1
a(lp3869
F0.212766
aaI47
aa(lp3870
I1
a(lp3871
F0.204082
aaI49
aa(lp3872
I1
a(lp3873
F0.246377
aaI69
aa(lp3874
I1
a(lp3875
F0.230769
aaI65
aaa(lp3876
g645
ag646
a(lp3877
I1
a(lp3878
F0.309677
aaI155
aaa(lp3879
g650
ag651
a(lp3880
I1
a(lp3881
F0.402174
aaI92
aaa(lp3882
g653
ag654
a(lp3883
I1
a(lp3884
F0.315789
aaI76
aa(lp3885
I1
a(lp3886
F0.444444
aaI99
aa(lp3887
I1
a(lp3888
F0.432836
aaI67
aa(lp3889
I1
a(lp3890
F0.25
aaI88
aa(lp3891
I1
a(lp3892
F0.367647
aaI68
aaa(lp3893
g656
ag657
a(lp3894
I1
a(lp3895
F0.312977
aaI131
aaa(lp3896
g659
ag660
aa(lp3897
g670
ag671
aa(lp3898
g673
ag674
aa(lp3899
g686
ag687
a(lp3900
I1
a(lp3901
F0.5
aaI88
aa(lp3902
I1
a(lp3903
F0.511111
aaI90
aa(lp3904
I1
a(lp3905
F0.51087
aaI92
aa(lp3906
I1
a(lp3907
F0.425
aaI80
aa(lp3908
I1
a(lp3909
F0.323077
aaI65
aa(lp3910
I1
a(lp3911
F0.39604
aaI101
aaa(lp3912
g701
ag702
a(lp3913
I1
a(lp3914
F0.421053
aaI76
aa(lp3915
I1
a(lp3916
F0.525862
aaI116
aa(lp3917
I1
a(lp3918
F0.5
aaI98
aa(lp3919
I1
a(lp3920
F0.416667
aaI84
aa(lp3921
I1
a(lp3922
F0.428571
aaI84
aa(lp3923
I1
a(lp3924
F0.423529
aaI85
aa(lp3925
I1
a(lp3926
F0.438202
aaI89
aa(lp3927
I1
a(lp3928
F0.264706
aaI68
aa(lp3929
I1
a(lp3930
F0.3
aaI60
aa(lp3931
I1
a(lp3932
F0.333333
aaI54
aa(lp3933
I1
a(lp3934
F0.213115
aaI61
aaa(lp3935
g704
ag705
a(lp3936
I1
a(lp3937
F0.297297
aaI74
aa(lp3938
I1
a(lp3939
F0.435294
aaI85
aa(lp3940
I1
a(lp3941
F0.397436
aaI78
aa(lp3942
I1
a(lp3943
F0.21519
aaI79
aa(lp3944
I1
a(lp3945
F0.485149
aaI101
aaa(lp3946
g707
ag708
a(lp3947
I1
a(lp3948
F0.238095
aaI63
aa(lp3949
I1
a(lp3950
F0.242718
aaI103
aa(lp3951
I1
a(lp3952
F0.276596
aaI94
aa(lp3953
I1
a(lp3954
F0.285714
aaI70
aa(lp3955
I1
a(lp3956
F0.344262
aaI61
aa(lp3957
I1
a(lp3958
F0.34375
aaI64
aa(lp3959
I1
a(lp3960
F0.333333
aaI63
aaa(lp3961
g722
ag723
aa(lp3962
g727
ag728
aa(lp3963
g730
ag731
a(lp3964
I1
a(lp3965
F0.221154
aaI104
aaa(lp3966
g733
ag734
a(lp3967
I1
a(lp3968
F0.383562
aaI73
aa(lp3969
I1
a(lp3970
F0.3875
aaI80
aa(lp3971
I1
a(lp3972
F0.382716
aaI81
aa(lp3973
I1
a(lp3974
F0.402174
aaI92
aa(lp3975
I1
a(lp3976
F0.39604
aaI101
aa(lp3977
I1
a(lp3978
F0.416667
aaI84
aa(lp3979
I1
a(lp3980
F0.402299
aaI87
aaa(lp3981
g740
ag741
a(lp3982
I1
a(lp3983
F0.233871
aaI124
aaa(lp3984
g743
ag744
aa(lp3985
g746
ag747
a(lp3986
I1
a(lp3987
F0.567308
aaI104
aa(lp3988
I1
a(lp3989
F0.591837
aaI98
aa(lp3990
I1
a(lp3991
F0.494845
aaI97
aaa(lp3992
g749
ag750
aa(lp3993
g752
ag753
aa(lp3994
g765
ag766
aa(lp3995
g768
ag769
aa(lp3996
g771
ag772
a(lp3997
I1
a(lp3998
F0.211268
aaI71
aa(lp3999
I1
a(lp4000
F0.320513
aaI78
aa(lp4001
I1
a(lp4002
F0.322034
aaI59
aa(lp4003
I1
a(lp4004
F0.380597
aaI134
aa(lp4005
I1
a(lp4006
F0.451923
aaI104
aa(lp4007
I1
a(lp4008
F0.431373
aaI102
aa(lp4009
I1
a(lp4010
F0.431818
aaI88
aa(lp4011
I1
a(lp4012
F0.5
aaI108
aa(lp4013
I1
a(lp4014
F0.420455
aaI88
aa(lp4015
I1
a(lp4016
F0.425287
aaI87
aa(lp4017
I1
a(lp4018
F0.560976
aaI82
aa(lp4019
I1
a(lp4020
F0.325
aaI80
aa(lp4021
I1
a(lp4022
F0.377778
aaI90
aa(lp4023
I1
a(lp4024
F0.428571
aaI63
aa(lp4025
I1
a(lp4026
F0.45
aaI60
aa(lp4027
I1
a(lp4028
F0.468085
aaI47
aaa(lp4029
g778
ag779
a(lp4030
I1
a(lp4031
F0.418182
aaI110
aa(lp4032
I1
a(lp4033
F0.455556
aaI90
aa(lp4034
I1
a(lp4035
F0.209677
aaI62
aa(lp4036
I1
a(lp4037
F0.243902
aaI82
aa(lp4038
I1
a(lp4039
F0.341772
aaI79
aa(lp4040
I1
a(lp4041
F0.410959
aaI73
aaa(lp4042
g805
ag806
a(lp4043
I1
a(lp4044
F0.328125
aaI64
aa(lp4045
I1
a(lp4046
F0.223881
aaI67
aa(lp4047
I1
a(lp4048
F0.258065
aaI62
aaa(lp4049
g810
ag811
a(lp4050
I1
a(lp4051
F0.3
aaI70
aa(lp4052
I1
a(lp4053
F0.333333
aaI72
aa(lp4054
I1
a(lp4055
F0.308824
aaI68
aa(lp4056
I1
a(lp4057
F0.318182
aaI66
aa(lp4058
I1
a(lp4059
F0.276316
aaI76
aa(lp4060
I1
a(lp4061
F0.414634
aaI82
aa(lp4062
I1
a(lp4063
F0.333333
aaI75
aa(lp4064
I1
a(lp4065
F0.3375
aaI80
aa(lp4066
I1
a(lp4067
F0.353846
aaI65
aa(lp4068
I1
a(lp4069
F0.294872
aaI78
aa(lp4070
I1
a(lp4071
F0.436893
aaI103
aa(lp4072
I1
a(lp4073
F0.261538
aaI65
aa(lp4074
I1
a(lp4075
F0.3
aaI90
aa(lp4076
I1
a(lp4077
F0.291139
aaI79
aa(lp4078
I1
a(lp4079
F0.329545
aaI88
aa(lp4080
I1
a(lp4081
F0.295455
aaI88
aa(lp4082
I1
a(lp4083
F0.323944
aaI71
aa(lp4084
I1
a(lp4085
F0.228571
aaI35
aa(lp4086
I1
a(lp4087
F0.2
aaI75
aa(lp4088
I1
a(lp4089
F0.39759
aaI83
aa(lp4090
I1
a(lp4091
F0.405797
aaI69
aa(lp4092
I1
a(lp4093
F0.52809
aaI89
aa(lp4094
I1
a(lp4095
F0.208955
aaI67
aa(lp4096
I1
a(lp4097
F0.405063
aaI79
aa(lp4098
I1
a(lp4099
F0.425532
aaI94
aa(lp4100
I1
a(lp4101
F0.454545
aaI88
aa(lp4102
I1
a(lp4103
F0.2
aaI75
aa(lp4104
I1
a(lp4105
F0.405063
aaI79
aa(lp4106
I1
a(lp4107
F0.342857
aaI70
aa(lp4108
I1
a(lp4109
F0.38961
aaI77
aa(lp4110
I1
a(lp4111
F0.337662
aaI77
aa(lp4112
I1
a(lp4113
F0.33871
aaI62
aa(lp4114
I1
a(lp4115
F0.314607
aaI89
aa(lp4116
I1
a(lp4117
F0.355263
aaI76
aa(lp4118
I1
a(lp4119
F0.40625
aaI64
aa(lp4120
I1
a(lp4121
F0.215385
aaI65
aa(lp4122
I1
a(lp4123
F0.309524
aaI84
aa(lp4124
I1
a(lp4125
F0.3
aaI80
aa(lp4126
I1
a(lp4127
F0.206897
aaI58
aaa(lp4128
g833
ag834
a(lp4129
I1
a(lp4130
F0.343137
aaI102
aa(lp4131
I1
a(lp4132
F0.4
aaI75
aa(lp4133
I1
a(lp4134
F0.438202
aaI89
aa(lp4135
I1
a(lp4136
F0.48
aaI75
aa(lp4137
I1
a(lp4138
F0.47561
aaI82
aa(lp4139
I1
a(lp4140
F0.306667
aaI75
aa(lp4141
I1
a(lp4142
F0.324675
aaI77
aa(lp4143
I1
a(lp4144
F0.263566
aaI129
aa(lp4145
I1
a(lp4146
F0.205128
aaI117
aa(lp4147
I1
a(lp4148
F0.414894
aaI94
aa(lp4149
I1
a(lp4150
F0.391304
aaI92
aa(lp4151
I1
a(lp4152
F0.515464
aaI97
aaa(lp4153
g844
ag845
a(lp4154
I1
a(lp4155
F0.238095
aaI63
aa(lp4156
I1
a(lp4157
F0.29646
aaI226
aa(lp4158
I1
a(lp4159
F0.469697
aaI66
aa(lp4160
I1
a(lp4161
F0.38961
aaI77
aa(lp4162
I1
a(lp4163
F0.274194
aaI62
aaa(lp4164
g881
ag882
a(lp4165
I1
a(lp4166
F0.428571
aaI91
aa(lp4167
I1
a(lp4168
F0.488095
aaI84
aa(lp4169
I1
a(lp4170
F0.546392
aaI97
aa(lp4171
I1
a(lp4172
F0.548077
aaI104
aa(lp4173
I1
a(lp4174
F0.5
aaI112
aa(lp4175
I1
a(lp4176
F0.471154
aaI104
aaa(lp4177
g884
ag885
aa(lp4178
g887
ag888
a(lp4179
I1
a(lp4180
F0.495413
aaI109
aa(lp4181
I1
a(lp4182
F0.493827
aaI81
aa(lp4183
I1
a(lp4184
F0.453333
aaI75
aa(lp4185
I1
a(lp4186
F0.522936
aaI109
aa(lp4187
I1
a(lp4188
F0.27027
aaI74
aa(lp4189
I1
a(lp4190
F0.225352
aaI71
aaa(lp4191
g890
ag891
aa(lp4192
g893
ag894
a(lp4193
I1
a(lp4194
F0.37931
aaI58
aaa(lp4195
g900
ag901
a(lp4196
I1
a(lp4197
F0.25
aaI56
aa(lp4198
I1
a(lp4199
F0.222222
aaI54
aa(lp4200
I1
a(lp4201
F0.433735
aaI83
aa(lp4202
I1
a(lp4203
F0.297297
aaI74
aa(lp4204
I1
a(lp4205
F0.363636
aaI88
aa(lp4206
I1
a(lp4207
F0.778243
aaI239
aa(lp4208
I1
a(lp4209
F0.280702
aaI57
aa(lp4210
I1
a(lp4211
F0.283019
aaI53
aa(lp4212
I1
a(lp4213
F0.447917
aaI96
aa(lp4214
I1
a(lp4215
F0.428571
aaI112
aa(lp4216
I1
a(lp4217
F0.50495
aaI101
aa(lp4218
I1
a(lp4219
F0.227273
aaI66
aa(lp4220
I1
a(lp4221
F0.240964
aaI83
aa(lp4222
I1
a(lp4223
F0.0
aaI59
aa(lp4224
I1
a(lp4225
F0.22973
aaI74
aa(lp4226
I1
a(lp4227
F0.22973
aaI74
aa(lp4228
I1
a(lp4229
F0.242857
aaI70
aa(lp4230
I1
a(lp4231
F0.236111
aaI72
aa(lp4232
I1
a(lp4233
F0.41791
aaI67
aa(lp4234
I1
a(lp4235
F0.304348
aaI46
aa(lp4236
I1
a(lp4237
F0.290909
aaI55
aa(lp4238
I1
a(lp4239
F0.283019
aaI53
aa(lp4240
I1
a(lp4241
F0.47
aaI100
aaa(lp4242
g909
ag910
a(lp4243
I1
a(lp4244
F0.494737
aaI95
aa(lp4245
I1
a(lp4246
F0.474576
aaI118
aaa(lp4247
g912
ag913
aa(lp4248
g915
ag916
aa(lp4249
g942
ag943
a(lp4250
I1
a(lp4251
F0.463918
aaI97
aa(lp4252
I1
a(lp4253
F0.395062
aaI81
aa(lp4254
I1
a(lp4255
F0.341176
aaI85
aa(lp4256
I1
a(lp4257
F0.325843
aaI89
aa(lp4258
I1
a(lp4259
F0.34
aaI100
aa(lp4260
I1
a(lp4261
F0.245902
aaI61
aa(lp4262
I1
a(lp4263
F0.430233
aaI86
aaa(lp4264
g947
ag948
aa(lp4265
g954
ag955
aa(lp4266
g965
ag966
aa(lp4267
g972
ag973
aa(lp4268
g975
ag976
a(lp4269
I1
a(lp4270
F0.338983
aaI59
aa(lp4271
I1
a(lp4272
F0.541667
aaI96
aa(lp4273
I1
a(lp4274
F0.43299
aaI97
aa(lp4275
I1
a(lp4276
F0.27027
aaI74
aa(lp4277
I1
a(lp4278
F0.280702
aaI57
aaa(lp4279
g978
ag979
aa(lp4280
g981
ag982
a(lp4281
I1
a(lp4282
F0.367925
aaI106
aa(lp4283
I1
a(lp4284
F0.460674
aaI89
aa(lp4285
I1
a(lp4286
F0.599138
aaI232
aa(lp4287
I1
a(lp4288
F0.769547
aaI243
aa(lp4289
I1
a(lp4290
F0.391473
aaI258
aaa(lp4291
g988
ag989
aa(lp4292
g991
ag992
a(lp4293
I1
a(lp4294
F0.237288
aaI59
aa(lp4295
I1
a(lp4296
F0.253521
aaI71
aa(lp4297
I1
a(lp4298
F0.358974
aaI78
aaa(lp4299
g1030
ag1031
a(lp4300
I1
a(lp4301
F0.283333
aaI60
aa(lp4302
I1
a(lp4303
F0.303571
aaI56
aa(lp4304
I1
a(lp4305
F0.305085
aaI59
aa(lp4306
I1
a(lp4307
F0.225352
aaI71
aa(lp4308
I1
a(lp4309
F0.238806
aaI67
aaa(lp4310
g1033
ag1034
a(lp4311
I1
a(lp4312
F0.24
aaI50
aa(lp4313
I1
a(lp4314
F0.265823
aaI79
aa(lp4315
I1
a(lp4316
F0.333333
aaI78
aa(lp4317
I1
a(lp4318
F0.328571
aaI70
aa(lp4319
I1
a(lp4320
F0.309859
aaI71
aa(lp4321
I1
a(lp4322
F0.284672
aaI137
aa(lp4323
I1
a(lp4324
F0.375887
aaI141
aa(lp4325
I1
a(lp4326
F0.391892
aaI74
aaa(lp4327
g1084
ag1085
a(lp4328
I1
a(lp4329
F1.0
aaI5
aa(lp4330
I1
a(lp4331
F0.364706
aaI85
aa(lp4332
I1
a(lp4333
F0.597561
aaI246
aaa(lp4334
g1205
ag1206
aa(lp4335
g1208
ag1209
aa(lp4336
g1211
ag1212
aa(lp4337
g1214
ag1215
aa(lp4338
g1219
ag1220
aa(lp4339
g1222
ag1223
a(lp4340
I1
a(lp4341
F0.0
aaI71
aa(lp4342
I1
a(lp4343
F0.283784
aaI74
aa(lp4344
I1
a(lp4345
F0.301205
aaI83
aa(lp4346
I1
a(lp4347
F0.353846
aaI65
aa(lp4348
I1
a(lp4349
F0.244444
aaI45
aaa(lp4350
g1227
ag1228
a(lp4351
I1
a(lp4352
F0.54955
aaI111
aaa(lp4353
g1230
ag1231
a(lp4354
I1
a(lp4355
F0.275362
aaI138
aa(lp4356
I1
a(lp4357
F0.331169
aaI154
aa(lp4358
I1
a(lp4359
F0.442529
aaI174
aaa(lp4360
g1273
ag1274
a(lp4361
I1
a(lp4362
F0.264151
aaI53
aa(lp4363
I1
a(lp4364
F0.205882
aaI34
aa(lp4365
I1
a(lp4366
F0.265306
aaI98
aa(lp4367
I1
a(lp4368
F0.39
aaI100
aa(lp4369
I1
a(lp4370
F0.39759
aaI83
aa(lp4371
I1
a(lp4372
F0.406593
aaI91
aa(lp4373
I1
a(lp4374
F0.2
aaI70
aa(lp4375
I1
a(lp4376
F0.417219
aaI151
aa(lp4377
I1
a(lp4378
F0.212121
aaI66
aa(lp4379
I1
a(lp4380
F0.256098
aaI82
aaa(lp4381
g1276
ag1277
aa(lp4382
g1279
ag1280
a(lp4383
I1
a(lp4384
F0.348837
aaI86
aaa(lp4385
g1298
ag1299
a(lp4386
I1
a(lp4387
F0.270833
aaI96
aa(lp4388
I1
a(lp4389
F0.438202
aaI89
aa(lp4390
I1
a(lp4391
F0.471264
aaI87
aa(lp4392
I1
a(lp4393
F0.22619
aaI84
aa(lp4394
I1
a(lp4395
F0.618421
aaI76
aaa(lp4396
g1301
ag1302
a(lp4397
I1
a(lp4398
F0.63125
aaI160
aaa(lp4399
g1304
ag1305
aa(lp4400
g1307
ag1308
a(lp4401
I1
a(lp4402
F0.470588
aaI85
aa(lp4403
I1
a(lp4404
F0.37931
aaI87
aa(lp4405
I1
a(lp4406
F0.371795
aaI78
aa(lp4407
I1
a(lp4408
F0.46875
aaI96
aa(lp4409
I1
a(lp4410
F0.49
aaI100
aa(lp4411
I1
a(lp4412
F0.390805
aaI87
aa(lp4413
I1
a(lp4414
F0.21519
aaI79
aa(lp4415
I1
a(lp4416
F0.0
aaI77
aa(lp4417
I1
a(lp4418
F0.327103
aaI107
aa(lp4419
I1
a(lp4420
F0.381579
aaI76
aa(lp4421
I1
a(lp4422
F0.263889
aaI72
aa(lp4423
I1
a(lp4424
F0.381579
aaI76
aa(lp4425
I1
a(lp4426
F0.21519
aaI79
aa(lp4427
I1
a(lp4428
F0.215385
aaI65
aa(lp4429
I1
a(lp4430
F0.294872
aaI78
aa(lp4431
I1
a(lp4432
F0.40404
aaI99
aa(lp4433
I1
a(lp4434
F0.243243
aaI37
aaa(lp4435
g1336
ag1337
aa(lp4436
g1339
ag1340
aa(lp4437
g1342
ag1343
aa(lp4438
g1347
ag1348
aa(lp4439
g1350
ag1351
aa(lp4440
g1353
ag1354
a(lp4441
I1
a(lp4442
F0.426966
aaI89
aa(lp4443
I1
a(lp4444
F0.45977
aaI87
aa(lp4445
I1
a(lp4446
F0.428571
aaI112
aa(lp4447
I1
a(lp4448
F0.417582
aaI91
aa(lp4449
I1
a(lp4450
F0.319444
aaI72
aaa(lp4451
g1356
ag1357
a(lp4452
I1
a(lp4453
F0.407407
aaI54
aa(lp4454
I1
a(lp4455
F0.527473
aaI91
aaa(lp4456
g1367
ag1368
a(lp4457
I1
a(lp4458
F0.22093
aaI86
aa(lp4459
I1
a(lp4460
F0.241935
aaI62
aa(lp4461
I1
a(lp4462
F0.445652
aaI92
aa(lp4463
I1
a(lp4464
F0.464646
aaI99
aa(lp4465
I1
a(lp4466
F0.402367
aaI169
aa(lp4467
I1
a(lp4468
F0.593548
aaI155
aa(lp4469
I1
a(lp4470
F0.387097
aaI155
aa(lp4471
I1
a(lp4472
F0.2625
aaI80
aaa(lp4473
g1370
ag1371
aa(lp4474
g1379
ag1380
aa(lp4475
g1382
ag1383
aa(lp4476
g1391
ag1392
a(lp4477
I1
a(lp4478
F0.435294
aaI85
aaa(lp4479
g1406
ag1407
aa(lp4480
g1435
ag1436
aa(lp4481
g1456
ag1457
aa(lp4482
g1459
ag1460
aa(lp4483
g1478
ag1479
a(lp4484
I1
a(lp4485
F0.425743
aaI101
aa(lp4486
I1
a(lp4487
F0.45
aaI100
aa(lp4488
I1
a(lp4489
F0.520408
aaI98
aa(lp4490
I1
a(lp4491
F0.373333
aaI75
aa(lp4492
I1
a(lp4493
F0.411765
aaI85
aa(lp4494
I1
a(lp4495
F0.397436
aaI78
aa(lp4496
I1
a(lp4497
F0.4125
aaI80
aa(lp4498
I1
a(lp4499
F0.405405
aaI74
aa(lp4500
I1
a(lp4501
F0.485981
aaI107
aa(lp4502
I1
a(lp4503
F0.375
aaI64
aa(lp4504
I1
a(lp4505
F0.352113
aaI71
aa(lp4506
I1
a(lp4507
F0.234375
aaI64
aa(lp4508
I1
a(lp4509
F0.271429
aaI70
aa(lp4510
I1
a(lp4511
F0.293333
aaI75
aa(lp4512
I1
a(lp4513
F0.315789
aaI76
aa(lp4514
I1
a(lp4515
F0.328571
aaI70
aa(lp4516
I1
a(lp4517
F0.323944
aaI71
aaa(lp4518
g1481
ag1482
a(lp4519
I1
a(lp4520
F0.381579
aaI76
aaa(lp4521
g1484
ag1485
aa(lp4522
g1487
ag1488
a(lp4523
I1
a(lp4524
F0.28169
aaI71
aaa(lp4525
g1496
ag1497
a(lp4526
I1
a(lp4527
F0.230769
aaI39
aa(lp4528
I1
a(lp4529
F0.462366
aaI93
aa(lp4530
I1
a(lp4531
F0.47191
aaI89
aa(lp4532
I1
a(lp4533
F0.452381
aaI84
aa(lp4534
I1
a(lp4535
F0.404255
aaI94
aa(lp4536
I1
a(lp4537
F0.45
aaI100
aa(lp4538
I1
a(lp4539
F0.482353
aaI85
aa(lp4540
I1
a(lp4541
F0.361446
aaI83
aa(lp4542
I1
a(lp4543
F0.48
aaI100
aa(lp4544
I1
a(lp4545
F0.387755
aaI98
aa(lp4546
I1
a(lp4547
F0.435897
aaI117
aa(lp4548
I1
a(lp4549
F0.2625
aaI80
aa(lp4550
I1
a(lp4551
F0.295455
aaI88
aa(lp4552
I1
a(lp4553
F0.240506
aaI79
aa(lp4554
I1
a(lp4555
F0.253012
aaI83
aa(lp4556
I1
a(lp4557
F0.446602
aaI103
aa(lp4558
I1
a(lp4559
F0.491667
aaI120
aa(lp4560
I1
a(lp4561
F0.533333
aaI120
aa(lp4562
I1
a(lp4563
F0.50495
aaI101
aa(lp4564
I1
a(lp4565
F0.520408
aaI98
aaa(lp4566
g1515
ag1516
aa(lp4567
g1518
ag1519
a(lp4568
I1
a(lp4569
F0.457831
aaI83
aa(lp4570
I1
a(lp4571
F0.390244
aaI82
aa(lp4572
I1
a(lp4573
F0.425926
aaI108
aa(lp4574
I1
a(lp4575
F0.371795
aaI78
aa(lp4576
I1
a(lp4577
F0.279412
aaI68
aa(lp4578
I1
a(lp4579
F0.328767
aaI73
aa(lp4580
I1
a(lp4581
F0.541667
aaI96
aa(lp4582
I1
a(lp4583
F0.268657
aaI67
aa(lp4584
I1
a(lp4585
F0.25
aaI84
aa(lp4586
I1
a(lp4587
F0.329412
aaI85
aaa(lp4588
g1525
ag1526
a(lp4589
I1
a(lp4590
F0.476744
aaI86
aa(lp4591
I1
a(lp4592
F0.5
aaI78
aa(lp4593
I1
a(lp4594
F0.321429
aaI56
aa(lp4595
I1
a(lp4596
F0.458333
aaI96
aa(lp4597
I1
a(lp4598
F0.237288
aaI59
aa(lp4599
I1
a(lp4600
F0.543478
aaI92
aa(lp4601
I1
a(lp4602
F0.383562
aaI73
aa(lp4603
I1
a(lp4604
F0.341772
aaI79
aaa(lp4605
g1542
ag1543
a(lp4606
I1
a(lp4607
F0.504274
aaI117
aa(lp4608
I1
a(lp4609
F0.525773
aaI194
aa(lp4610
I1
a(lp4611
F0.311111
aaI225
aa(lp4612
I1
a(lp4613
F0.398844
aaI173
aa(lp4614
I1
a(lp4615
F0.377358
aaI159
aa(lp4616
I1
a(lp4617
F0.405229
aaI153
aa(lp4618
I1
a(lp4619
F0.377483
aaI151
aa(lp4620
I1
a(lp4621
F0.518868
aaI106
aa(lp4622
I1
a(lp4623
F0.448
aaI125
aaa(lp4624
g1561
ag1562
a(lp4625
I1
a(lp4626
F0.490385
aaI104
aa(lp4627
I1
a(lp4628
F0.325843
aaI89
aa(lp4629
I1
a(lp4630
F0.0
aaI54
aa(lp4631
I1
a(lp4632
F0.293103
aaI58
aa(lp4633
I1
a(lp4634
F0.306667
aaI75
aaa(lp4635
g1568
ag1569
aa(lp4636
g1599
ag1600
a(lp4637
I1
a(lp4638
F0.468468
aaI111
aa(lp4639
I1
a(lp4640
F0.259259
aaI81
aa(lp4641
I1
a(lp4642
F0.22449
aaI49
aa(lp4643
I1
a(lp4644
F0.327586
aaI58
aa(lp4645
I1
a(lp4646
F0.230769
aaI65
aa(lp4647
I1
a(lp4648
F0.242857
aaI70
aa(lp4649
I1
a(lp4650
F0.455882
aaI68
aa(lp4651
I1
a(lp4652
F0.226087
aaI115
aaa(lp4653
g1602
ag1603
a(lp4654
I1
a(lp4655
F0.436782
aaI87
aa(lp4656
I1
a(lp4657
F0.464646
aaI99
aa(lp4658
I1
a(lp4659
F0.38
aaI100
aa(lp4660
I1
a(lp4661
F0.427184
aaI103
aa(lp4662
I1
a(lp4663
F0.238095
aaI63
aa(lp4664
I1
a(lp4665
F0.215385
aaI65
aa(lp4666
I1
a(lp4667
F0.230769
aaI65
aa(lp4668
I1
a(lp4669
F0.605042
aaI119
aa(lp4670
I1
a(lp4671
F0.773585
aaI212
aa(lp4672
I1
a(lp4673
F0.207792
aaI77
aa(lp4674
I1
a(lp4675
F0.273973
aaI73
aa(lp4676
I1
a(lp4677
F0.212121
aaI66
aa(lp4678
I1
a(lp4679
F0.329412
aaI85
aaa(lp4680
g1631
ag1632
a(lp4681
I1
a(lp4682
F0.523256
aaI86
aa(lp4683
I1
a(lp4684
F0.364706
aaI85
aa(lp4685
I1
a(lp4686
F0.432
aaI125
aa(lp4687
I1
a(lp4688
F0.372093
aaI86
aa(lp4689
I1
a(lp4690
F0.301887
aaI53
aa(lp4691
I1
a(lp4692
F0.2
aaI75
aa(lp4693
I1
a(lp4694
F0.30137
aaI73
aa(lp4695
I1
a(lp4696
F0.426966
aaI89
aa(lp4697
I1
a(lp4698
F0.37931
aaI87
aa(lp4699
I1
a(lp4700
F0.461538
aaI78
aa(lp4701
I1
a(lp4702
F0.442623
aaI61
aa(lp4703
I1
a(lp4704
F0.43299
aaI97
aaa(lp4705
g1646
ag1647
aa(lp4706
g1649
ag1650
aa(lp4707
g1652
ag1653
aa(lp4708
g1655
ag1656
aa(lp4709
g1658
ag1659
a(lp4710
I1
a(lp4711
F0.48
aaI100
aa(lp4712
I1
a(lp4713
F0.23741
aaI139
aa(lp4714
I1
a(lp4715
F0.233083
aaI133
aa(lp4716
I1
a(lp4717
F0.316327
aaI98
aa(lp4718
I1
a(lp4719
F0.434343
aaI99
aa(lp4720
I1
a(lp4721
F0.434783
aaI92
aa(lp4722
I1
a(lp4723
F0.427184
aaI103
aa(lp4724
I1
a(lp4725
F0.268657
aaI67
aa(lp4726
I1
a(lp4727
F0.0
aaI67
aa(lp4728
I1
a(lp4729
F0.0
aaI66
aa(lp4730
I1
a(lp4731
F0.39759
aaI83
aa(lp4732
I1
a(lp4733
F0.366197
aaI71
aa(lp4734
I1
a(lp4735
F0.328571
aaI70
aa(lp4736
I1
a(lp4737
F0.31746
aaI63
aaa(lp4738
g1683
ag1684
aa(lp4739
g1686
ag1687
aa(lp4740
g1689
ag1690
a(lp4741
I1
a(lp4742
F0.358696
aaI92
aa(lp4743
I1
a(lp4744
F0.412371
aaI97
aa(lp4745
I1
a(lp4746
F0.411111
aaI90
aa(lp4747
I1
a(lp4748
F0.505263
aaI95
aa(lp4749
I1
a(lp4750
F0.494118
aaI85
aa(lp4751
I1
a(lp4752
F0.0
aaI59
aa(lp4753
I1
a(lp4754
F0.295455
aaI44
aa(lp4755
I1
a(lp4756
F0.365385
aaI52
aa(lp4757
I1
a(lp4758
F0.421053
aaI57
aa(lp4759
I1
a(lp4760
F0.277778
aaI72
aa(lp4761
I1
a(lp4762
F0.277778
aaI72
aa(lp4763
I1
a(lp4764
F0.306667
aaI75
aa(lp4765
I1
a(lp4766
F0.421488
aaI121
aa(lp4767
I1
a(lp4768
F0.41573
aaI89
aa(lp4769
I1
a(lp4770
F0.557895
aaI95
aaa(lp4771
g1692
ag1693
aa(lp4772
g1695
ag1696
aa(lp4773
g1716
ag1717
a(lp4774
I1
a(lp4775
F0.388889
aaI90
aa(lp4776
I1
a(lp4777
F0.246377
aaI69
aa(lp4778
I1
a(lp4779
F0.268293
aaI82
aa(lp4780
I1
a(lp4781
F0.246753
aaI77
aa(lp4782
I1
a(lp4783
F0.323232
aaI99
aa(lp4784
I1
a(lp4785
F0.205128
aaI78
aa(lp4786
I1
a(lp4787
F0.380952
aaI126
aa(lp4788
I1
a(lp4789
F0.433333
aaI120
aa(lp4790
I1
a(lp4791
F0.495327
aaI107
aa(lp4792
I1
a(lp4793
F0.263889
aaI72
aa(lp4794
I1
a(lp4795
F0.28
aaI75
aa(lp4796
I1
a(lp4797
F0.380952
aaI84
aa(lp4798
I1
a(lp4799
F0.202703
aaI74
aa(lp4800
I1
a(lp4801
F0.421053
aaI95
aa(lp4802
I1
a(lp4803
F0.3
aaI80
aa(lp4804
I1
a(lp4805
F0.42
aaI100
aa(lp4806
I1
a(lp4807
F0.521277
aaI94
aa(lp4808
I1
a(lp4809
F0.518072
aaI83
aa(lp4810
I1
a(lp4811
F0.588235
aaI119
aa(lp4812
I1
a(lp4813
F0.393939
aaI99
aaa(lp4814
g1769
ag1770
a(lp4815
I1
a(lp4816
F0.317647
aaI85
aa(lp4817
I1
a(lp4818
F0.426829
aaI82
aaa(lp4819
g1772
ag1773
a(lp4820
I1
a(lp4821
F0.425926
aaI108
aa(lp4822
I1
a(lp4823
F0.458824
aaI85
aa(lp4824
I1
a(lp4825
F0.423077
aaI78
aa(lp4826
I1
a(lp4827
F0.391304
aaI92
aa(lp4828
I1
a(lp4829
F0.432432
aaI74
aa(lp4830
I1
a(lp4831
F0.421053
aaI76
aa(lp4832
I1
a(lp4833
F0.3875
aaI80
aa(lp4834
I1
a(lp4835
F0.490566
aaI106
aa(lp4836
I1
a(lp4837
F0.4375
aaI64
aa(lp4838
I1
a(lp4839
F0.425532
aaI94
aa(lp4840
I1
a(lp4841
F0.561224
aaI98
aa(lp4842
I1
a(lp4843
F0.222222
aaI63
aa(lp4844
I1
a(lp4845
F0.313953
aaI86
aa(lp4846
I1
a(lp4847
F0.307692
aaI65
aa(lp4848
I1
a(lp4849
F0.305085
aaI59
aa(lp4850
I1
a(lp4851
F0.292308
aaI65
aa(lp4852
I1
a(lp4853
F0.294118
aaI68
aa(lp4854
I1
a(lp4855
F0.294118
aaI68
aa(lp4856
I1
a(lp4857
F0.263158
aaI76
aaa(lp4858
g1775
ag1776
aa(lp4859
g1778
ag1779
aa(lp4860
g1781
ag1782
a(lp4861
I1
a(lp4862
F0.323944
aaI71
aa(lp4863
I1
a(lp4864
F0.3
aaI70
aa(lp4865
I1
a(lp4866
F0.384615
aaI104
aa(lp4867
I1
a(lp4868
F0.45679
aaI81
aa(lp4869
I1
a(lp4870
F0.474747
aaI99
aaa(lp4871
g1784
ag1785
aa(lp4872
g1787
ag1788
a(lp4873
I1
a(lp4874
F0.35
aaI80
aa(lp4875
I1
a(lp4876
F0.293333
aaI75
aa(lp4877
I1
a(lp4878
F0.280488
aaI82
aa(lp4879
I1
a(lp4880
F0.201613
aaI124
aaa(lp4881
g1790
ag1791
aa(lp4882
g1793
ag1794
a(lp4883
I1
a(lp4884
F0.3125
aaI48
aaa(lp4885
g1798
ag1799
a(lp4886
I1
a(lp4887
F0.449153
aaI118
aaa(lp4888
g1805
ag1806
a(lp4889
I1
a(lp4890
F0.425743
aaI101
aa(lp4891
I1
a(lp4892
F0.329114
aaI79
aa(lp4893
I1
a(lp4894
F0.376344
aaI93
aa(lp4895
I1
a(lp4896
F0.474227
aaI97
aa(lp4897
I1
a(lp4898
F0.26506
aaI83
aa(lp4899
I1
a(lp4900
F0.278947
aaI190
aa(lp4901
I1
a(lp4902
F0.324675
aaI77
aa(lp4903
I1
a(lp4904
F0.485437
aaI103
aa(lp4905
I1
a(lp4906
F0.456522
aaI92
aa(lp4907
I1
a(lp4908
F0.555556
aaI99
aa(lp4909
I1
a(lp4910
F0.475248
aaI101
aa(lp4911
I1
a(lp4912
F0.473684
aaI76
aa(lp4913
I1
a(lp4914
F0.482759
aaI87
aa(lp4915
I1
a(lp4916
F0.307692
aaI65
aa(lp4917
I1
a(lp4918
F0.276923
aaI65
aa(lp4919
I1
a(lp4920
F0.234043
aaI47
aa(lp4921
I1
a(lp4922
F0.22449
aaI49
aa(lp4923
I1
a(lp4924
F0.316667
aaI60
aaa(lp4925
g1828
ag1829
a(lp4926
I1
a(lp4927
F0.410714
aaI112
aa(lp4928
I1
a(lp4929
F0.239437
aaI71
aa(lp4930
I1
a(lp4931
F0.262136
aaI103
aa(lp4932
I1
a(lp4933
F0.235849
aaI106
aa(lp4934
I1
a(lp4935
F0.353659
aaI82
aa(lp4936
I1
a(lp4937
F0.352941
aaI85
aa(lp4938
I1
a(lp4939
F0.459677
aaI124
aa(lp4940
I1
a(lp4941
F0.326316
aaI95
aa(lp4942
I1
a(lp4943
F0.554348
aaI92
aa(lp4944
I1
a(lp4945
F0.486726
aaI113
aa(lp4946
I1
a(lp4947
F0.380282
aaI71
aaa(lp4948
g1843
ag1844
a(lp4949
I1
a(lp4950
F0.367647
aaI68
aa(lp4951
I1
a(lp4952
F0.485714
aaI105
aa(lp4953
I1
a(lp4954
F0.340426
aaI47
aa(lp4955
I1
a(lp4956
F0.288136
aaI59
aa(lp4957
I1
a(lp4958
F0.338462
aaI65
aa(lp4959
I1
a(lp4960
F0.288136
aaI59
aa(lp4961
I1
a(lp4962
F0.333333
aaI87
aa(lp4963
I1
a(lp4964
F0.318182
aaI66
aaa(lp4965
g1846
ag1847
a(lp4966
I1
a(lp4967
F0.484472
aaI161
aaa(lp4968
g1849
ag1850
aa(lp4969
g1862
ag1863
aa(lp4970
g1865
ag1866
aa(lp4971
g1868
ag1869
aa(lp4972
g1871
ag1872
a(lp4973
I1
a(lp4974
F0.211538
aaI52
aaa(lp4975
g1882
ag1883
aa(lp4976
g1885
ag1886
a(lp4977
I1
a(lp4978
F0.230769
aaI65
aa(lp4979
I1
a(lp4980
F0.5
aaI122
aa(lp4981
I1
a(lp4982
F0.46729
aaI107
aa(lp4983
I1
a(lp4984
F0.3125
aaI80
aa(lp4985
I1
a(lp4986
F0.273973
aaI73
aa(lp4987
I1
a(lp4988
F0.207317
aaI82
aa(lp4989
I1
a(lp4990
F0.208791
aaI91
aa(lp4991
I1
a(lp4992
F0.445455
aaI110
aa(lp4993
I1
a(lp4994
F0.404762
aaI84
aa(lp4995
I1
a(lp4996
F0.257576
aaI66
aa(lp4997
I1
a(lp4998
F0.261538
aaI65
aa(lp4999
I1
a(lp5000
F0.268657
aaI67
aa(lp5001
I1
a(lp5002
F0.387755
aaI98
aa(lp5003
I1
a(lp5004
F0.247788
aaI113
aa(lp5005
I1
a(lp5006
F0.271845
aaI103
aa(lp5007
I1
a(lp5008
F0.393617
aaI94
aaa(lp5009
g1916
ag1917
aa(lp5010
g1919
ag1920
aa(lp5011
g1946
ag1947
aa(lp5012
g1961
ag1962
a(lp5013
I1
a(lp5014
F0.361111
aaI72
aa(lp5015
I1
a(lp5016
F0.380952
aaI84
aaa(lp5017
g1966
ag1967
a(lp5018
I1
a(lp5019
F0.328767
aaI73
aa(lp5020
I1
a(lp5021
F0.346154
aaI78
aa(lp5022
I1
a(lp5023
F0.411765
aaI85
aa(lp5024
I1
a(lp5025
F0.364865
aaI74
aa(lp5026
I1
a(lp5027
F0.350649
aaI77
aa(lp5028
I1
a(lp5029
F0.350649
aaI77
aaa(lp5030
g1969
ag1970
a(lp5031
I1
a(lp5032
F0.333333
aaI87
aa(lp5033
I1
a(lp5034
F0.337838
aaI74
aa(lp5035
I1
a(lp5036
F0.318841
aaI69
aa(lp5037
I1
a(lp5038
F0.521277
aaI94
aaa(lp5039
g1978
ag1979
a(lp5040
I1
a(lp5041
F0.356164
aaI73
aa(lp5042
I1
a(lp5043
F0.482143
aaI56
aa(lp5044
I1
a(lp5045
F0.411765
aaI51
aa(lp5046
I1
a(lp5047
F0.22
aaI50
aa(lp5048
I1
a(lp5049
F0.287879
aaI66
aa(lp5050
I1
a(lp5051
F0.359375
aaI64
aa(lp5052
I1
a(lp5053
F0.404494
aaI89
aa(lp5054
I1
a(lp5055
F0.451613
aaI93
aa(lp5056
I1
a(lp5057
F0.323529
aaI68
aa(lp5058
I1
a(lp5059
F0.313433
aaI67
aa(lp5060
I1
a(lp5061
F0.505618
aaI89
aa(lp5062
I1
a(lp5063
F0.520833
aaI96
aa(lp5064
I1
a(lp5065
F0.0
aaI52
aa(lp5066
I1
a(lp5067
F0.30303
aaI66
aa(lp5068
I1
a(lp5069
F0.33871
aaI62
aa(lp5070
I1
a(lp5071
F0.290323
aaI62
aa(lp5072
I1
a(lp5073
F0.425287
aaI87
aa(lp5074
I1
a(lp5075
F0.294118
aaI68
aa(lp5076
I1
a(lp5077
F0.208333
aaI48
aa(lp5078
I1
a(lp5079
F0.325581
aaI86
aa(lp5080
I1
a(lp5081
F0.21875
aaI64
aa(lp5082
I1
a(lp5083
F0.405405
aaI111
aa(lp5084
I1
a(lp5085
F0.416667
aaI84
aa(lp5086
I1
a(lp5087
F0.212121
aaI66
aa(lp5088
I1
a(lp5089
F0.285714
aaI70
aa(lp5090
I1
a(lp5091
F0.415385
aaI65
aa(lp5092
I1
a(lp5093
F0.351351
aaI74
aa(lp5094
I1
a(lp5095
F0.380282
aaI71
aa(lp5096
I1
a(lp5097
F0.473684
aaI95
aa(lp5098
I1
a(lp5099
F0.42268
aaI97
aa(lp5100
I1
a(lp5101
F0.387097
aaI93
aa(lp5102
I1
a(lp5103
F0.465909
aaI88
aa(lp5104
I1
a(lp5105
F0.413793
aaI87
aa(lp5106
I1
a(lp5107
F0.290323
aaI93
aaa(lp5108
g1997
ag1998
a(lp5109
I1
a(lp5110
F0.21875
aaI128
aa(lp5111
I1
a(lp5112
F0.314815
aaI162
aaa(lp5113
g2004
ag2005
a(lp5114
I1
a(lp5115
F0.40367
aaI218
aa(lp5116
I1
a(lp5117
F0.536585
aaI123
aaa(lp5118
g2017
ag2018
aa(lp5119
g2046
ag2047
aa(lp5120
g2081
ag2082
a(lp5121
I1
a(lp5122
F0.303797
aaI79
aa(lp5123
I1
a(lp5124
F0.58427
aaI89
aa(lp5125
I1
a(lp5126
F0.382353
aaI68
aa(lp5127
I1
a(lp5128
F0.36
aaI75
aa(lp5129
I1
a(lp5130
F0.337079
aaI89
aa(lp5131
I1
a(lp5132
F0.48
aaI100
aa(lp5133
I1
a(lp5134
F0.438776
aaI98
aa(lp5135
I1
a(lp5136
F0.253521
aaI71
aa(lp5137
I1
a(lp5138
F0.529412
aaI119
aa(lp5139
I1
a(lp5140
F0.456311
aaI103
aa(lp5141
I1
a(lp5142
F0.309859
aaI71
aa(lp5143
I1
a(lp5144
F0.210526
aaI57
aa(lp5145
I1
a(lp5146
F0.27957
aaI93
aa(lp5147
I1
a(lp5148
F0.255814
aaI86
aa(lp5149
I1
a(lp5150
F0.324675
aaI77
aa(lp5151
I1
a(lp5152
F0.333333
aaI84
aa(lp5153
I1
a(lp5154
F0.344828
aaI87
aa(lp5155
I1
a(lp5156
F0.404762
aaI84
aa(lp5157
I1
a(lp5158
F0.369863
aaI73
aa(lp5159
I1
a(lp5160
F0.347222
aaI72
aa(lp5161
I1
a(lp5162
F0.316456
aaI79
aaa(lp5163
g2092
ag2093
aa(lp5164
g2105
ag2106
a(lp5165
I1
a(lp5166
F0.404255
aaI94
aa(lp5167
I1
a(lp5168
F0.294118
aaI51
aa(lp5169
I1
a(lp5170
F0.408163
aaI98
aa(lp5171
I1
a(lp5172
F0.285714
aaI56
aa(lp5173
I1
a(lp5174
F0.409639
aaI83
aa(lp5175
I1
a(lp5176
F0.2875
aaI80
aa(lp5177
I1
a(lp5178
F0.397059
aaI68
aa(lp5179
I1
a(lp5180
F0.338235
aaI68
aa(lp5181
I1
a(lp5182
F0.359551
aaI89
aa(lp5183
I1
a(lp5184
F0.2
aaI55
aaa(lp5185
g2120
ag2121
a(lp5186
I1
a(lp5187
F0.504854
aaI103
aa(lp5188
I1
a(lp5189
F0.232143
aaI56
aaa(lp5190
g2123
ag2124
aa(lp5191
g2126
ag2127
aa(lp5192
g2129
ag2130
aa(lp5193
g2152
ag2153
aa(lp5194
g2155
ag2156
aa(lp5195
g2158
ag2159
a(lp5196
I1
a(lp5197
F0.312977
aaI131
aaa(lp5198
g2161
ag2162
aa(lp5199
g2166
ag2167
aa(lp5200
g2173
ag2174
aa(lp5201
g2176
ag2177
a(lp5202
I1
a(lp5203
F0.305
aaI400
aa(lp5204
I1
a(lp5205
F0.303448
aaI145
aa(lp5206
I1
a(lp5207
F0.246575
aaI73
aa(lp5208
I1
a(lp5209
F0.265957
aaI94
aa(lp5210
I1
a(lp5211
F0.348148
aaI135
aaa(lp5212
g2179
ag2180
a(lp5213
I1
a(lp5214
F0.303571
aaI56
aa(lp5215
I1
a(lp5216
F0.303571
aaI56
aa(lp5217
I1
a(lp5218
F0.27381
aaI84
aa(lp5219
I1
a(lp5220
F0.234375
aaI64
aa(lp5221
I1
a(lp5222
F0.322222
aaI90
aa(lp5223
I1
a(lp5224
F0.457447
aaI94
aa(lp5225
I1
a(lp5226
F0.20339
aaI59
aa(lp5227
I1
a(lp5228
F0.353846
aaI65
aa(lp5229
I1
a(lp5230
F0.352941
aaI68
aa(lp5231
I1
a(lp5232
F0.305556
aaI72
aa(lp5233
I1
a(lp5234
F0.246575
aaI73
aa(lp5235
I1
a(lp5236
F0.217391
aaI69
aa(lp5237
I1
a(lp5238
F0.354839
aaI62
aa(lp5239
I1
a(lp5240
F0.5
aaI96
aa(lp5241
I1
a(lp5242
F0.269231
aaI78
aa(lp5243
I1
a(lp5244
F0.259259
aaI81
aa(lp5245
I1
a(lp5246
F0.263158
aaI57
aa(lp5247
I1
a(lp5248
F0.287671
aaI73
aa(lp5249
I1
a(lp5250
F0.253012
aaI83
aa(lp5251
I1
a(lp5252
F0.407895
aaI76
aa(lp5253
I1
a(lp5254
F0.418367
aaI98
aa(lp5255
I1
a(lp5256
F0.390909
aaI110
aa(lp5257
I1
a(lp5258
F0.402299
aaI87
aa(lp5259
I1
a(lp5260
F0.398148
aaI108
aa(lp5261
I1
a(lp5262
F0.390476
aaI105
aa(lp5263
I1
a(lp5264
F0.404255
aaI94
aa(lp5265
I1
a(lp5266
F0.418367
aaI98
aa(lp5267
I1
a(lp5268
F0.414894
aaI94
aa(lp5269
I1
a(lp5270
F0.44186
aaI86
aa(lp5271
I1
a(lp5272
F0.280488
aaI82
aa(lp5273
I1
a(lp5274
F0.413043
aaI92
aa(lp5275
I1
a(lp5276
F0.395833
aaI48
aa(lp5277
I1
a(lp5278
F0.387755
aaI49
aaa(lp5279
g2210
ag2211
a(lp5280
I1
a(lp5281
F0.4125
aaI80
aa(lp5282
I1
a(lp5283
F0.457447
aaI94
aa(lp5284
I1
a(lp5285
F0.433333
aaI90
aa(lp5286
I1
a(lp5287
F0.44186
aaI86
aa(lp5288
I1
a(lp5289
F0.402439
aaI82
aa(lp5290
I1
a(lp5291
F0.371795
aaI78
aa(lp5292
I1
a(lp5293
F0.445545
aaI101
aa(lp5294
I1
a(lp5295
F0.438776
aaI98
aa(lp5296
I1
a(lp5297
F0.465347
aaI101
aa(lp5298
I1
a(lp5299
F0.445455
aaI110
aa(lp5300
I1
a(lp5301
F0.295775
aaI71
aa(lp5302
I1
a(lp5303
F0.359551
aaI89
aa(lp5304
I1
a(lp5305
F0.238095
aaI84
aa(lp5306
I1
a(lp5307
F0.214286
aaI84
aa(lp5308
I1
a(lp5309
F0.298507
aaI67
aa(lp5310
I1
a(lp5311
F0.2375
aaI80
aa(lp5312
I1
a(lp5313
F0.21519
aaI79
aa(lp5314
I1
a(lp5315
F0.443299
aaI97
aa(lp5316
I1
a(lp5317
F0.392523
aaI107
aaa(lp5318
g2217
ag2218
a(lp5319
I1
a(lp5320
F0.302632
aaI76
aaa(lp5321
g2234
ag2235
aa(lp5322
g2257
ag2258
a(lp5323
I1
a(lp5324
F0.588235
aaI17
aa(lp5325
I1
a(lp5326
F0.333333
aaI84
aa(lp5327
I1
a(lp5328
F0.316667
aaI60
aa(lp5329
I1
a(lp5330
F0.318182
aaI66
aa(lp5331
I1
a(lp5332
F0.318841
aaI69
aa(lp5333
I1
a(lp5334
F0.319444
aaI72
aa(lp5335
I1
a(lp5336
F0.310811
aaI74
aa(lp5337
I1
a(lp5338
F0.304878
aaI82
aa(lp5339
I1
a(lp5340
F0.305882
aaI85
aa(lp5341
I1
a(lp5342
F0.303371
aaI89
aa(lp5343
I1
a(lp5344
F0.292308
aaI65
aa(lp5345
I1
a(lp5346
F0.518072
aaI83
aa(lp5347
I1
a(lp5348
F0.424658
aaI73
aa(lp5349
I1
a(lp5350
F0.39759
aaI83
aaa(lp5351
g2260
ag2261
a(lp5352
I1
a(lp5353
F0.306667
aaI75
aa(lp5354
I1
a(lp5355
F0.351351
aaI74
aa(lp5356
I1
a(lp5357
F0.352113
aaI71
aa(lp5358
I1
a(lp5359
F0.45
aaI80
aa(lp5360
I1
a(lp5361
F0.310345
aaI58
aa(lp5362
I1
a(lp5363
F0.344262
aaI61
aa(lp5364
I1
a(lp5365
F0.333333
aaI63
aa(lp5366
I1
a(lp5367
F0.415385
aaI65
aa(lp5368
I1
a(lp5369
F0.410959
aaI73
aa(lp5370
I1
a(lp5371
F0.239669
aaI121
aa(lp5372
I1
a(lp5373
F0.243243
aaI111
aa(lp5374
I1
a(lp5375
F0.247934
aaI121
aa(lp5376
I1
a(lp5377
F0.390476
aaI105
aa(lp5378
I1
a(lp5379
F0.43617
aaI94
aaa(lp5380
g2271
ag2272
a(lp5381
I1
a(lp5382
F0.464286
aaI84
aa(lp5383
I1
a(lp5384
F0.245902
aaI61
aaa(lp5385
g2274
ag2275
aa(lp5386
g2277
ag2278
a(lp5387
I1
a(lp5388
F0.21875
aaI64
aa(lp5389
I1
a(lp5390
F0.313253
aaI83
aaa(lp5391
g2288
ag2289
aa(lp5392
g2345
ag2346
a(lp5393
I1
a(lp5394
F0.290909
aaI55
aa(lp5395
I1
a(lp5396
F0.229508
aaI61
aa(lp5397
I1
a(lp5398
F0.25
aaI56
aa(lp5399
I1
a(lp5400
F0.315068
aaI73
aa(lp5401
I1
a(lp5402
F0.323529
aaI68
aa(lp5403
I1
a(lp5404
F0.304348
aaI69
aa(lp5405
I1
a(lp5406
F0.333333
aaI72
aa(lp5407
I1
a(lp5408
F0.310811
aaI74
aa(lp5409
I1
a(lp5410
F0.349398
aaI83
aa(lp5411
I1
a(lp5412
F0.424658
aaI73
aa(lp5413
I1
a(lp5414
F0.25
aaI72
aa(lp5415
I1
a(lp5416
F0.43299
aaI97
aa(lp5417
I1
a(lp5418
F0.524752
aaI101
aa(lp5419
I1
a(lp5420
F0.494624
aaI93
aa(lp5421
I1
a(lp5422
F0.516949
aaI118
aa(lp5423
I1
a(lp5424
F0.531915
aaI94
aa(lp5425
I1
a(lp5426
F0.443609
aaI133
aa(lp5427
I1
a(lp5428
F0.459016
aaI122
aa(lp5429
I1
a(lp5430
F0.447059
aaI85
aa(lp5431
I1
a(lp5432
F0.380952
aaI84
aa(lp5433
I1
a(lp5434
F0.489362
aaI94
aa(lp5435
I1
a(lp5436
F0.323529
aaI68
aa(lp5437
I1
a(lp5438
F0.433333
aaI90
aa(lp5439
I1
a(lp5440
F0.467391
aaI92
aa(lp5441
I1
a(lp5442
F0.419753
aaI81
aa(lp5443
I1
a(lp5444
F0.505376
aaI93
aa(lp5445
I1
a(lp5446
F0.443299
aaI97
aa(lp5447
I1
a(lp5448
F0.476744
aaI86
aa(lp5449
I1
a(lp5450
F0.442308
aaI104
aa(lp5451
I1
a(lp5452
F0.372093
aaI86
aa(lp5453
I1
a(lp5454
F0.341176
aaI85
aa(lp5455
I1
a(lp5456
F0.379747
aaI79
aa(lp5457
I1
a(lp5458
F0.35
aaI80
aa(lp5459
I1
a(lp5460
F0.388235
aaI85
aa(lp5461
I1
a(lp5462
F0.397436
aaI78
aa(lp5463
I1
a(lp5464
F0.395062
aaI81
aa(lp5465
I1
a(lp5466
F0.341772
aaI79
aa(lp5467
I1
a(lp5468
F0.350649
aaI77
aa(lp5469
I1
a(lp5470
F0.379747
aaI79
aa(lp5471
I1
a(lp5472
F0.345238
aaI84
aa(lp5473
I1
a(lp5474
F0.328571
aaI70
aa(lp5475
I1
a(lp5476
F0.319444
aaI72
aaa(lp5477
g2350
ag2351
aa(lp5478
g2363
ag2364
a(lp5479
I1
a(lp5480
F0.505263
aaI95
aa(lp5481
I1
a(lp5482
F0.51087
aaI92
aa(lp5483
I1
a(lp5484
F0.476636
aaI107
aa(lp5485
I1
a(lp5486
F0.653333
aaI150
aa(lp5487
I1
a(lp5488
F0.306667
aaI75
aa(lp5489
I1
a(lp5490
F0.411111
aaI90
aa(lp5491
I1
a(lp5492
F0.509434
aaI106
aaa(lp5493
g2392
ag2393
aa(lp5494
g2397
ag2398
a(lp5495
I1
a(lp5496
F0.51
aaI100
aa(lp5497
I1
a(lp5498
F0.434343
aaI99
aaa(lp5499
g2426
ag2427
aa(lp5500
g2429
ag2430
a(lp5501
I1
a(lp5502
F0.416667
aaI96
aa(lp5503
I1
a(lp5504
F0.552632
aaI76
aa(lp5505
I1
a(lp5506
F0.516129
aaI93
aa(lp5507
I1
a(lp5508
F0.338983
aaI59
aa(lp5509
I1
a(lp5510
F0.308824
aaI68
aa(lp5511
I1
a(lp5512
F0.289855
aaI69
aa(lp5513
I1
a(lp5514
F0.382716
aaI81
aa(lp5515
I1
a(lp5516
F0.349206
aaI63
aaa(lp5517
g2436
ag2437
a(lp5518
I1
a(lp5519
F0.453704
aaI108
aa(lp5520
I1
a(lp5521
F0.438202
aaI89
aa(lp5522
I1
a(lp5523
F0.324675
aaI77
aa(lp5524
I1
a(lp5525
F0.333333
aaI78
aa(lp5526
I1
a(lp5527
F0.242424
aaI66
aaa(lp5528
g2439
ag2440
aa(lp5529
g2458
ag2459
a(lp5530
I1
a(lp5531
F0.314286
aaI70
aaa(lp5532
g2469
ag2470
a(lp5533
I1
a(lp5534
F0.4875
aaI80
aa(lp5535
I1
a(lp5536
F0.22807
aaI57
aa(lp5537
I1
a(lp5538
F0.25
aaI56
aa(lp5539
I1
a(lp5540
F0.394366
aaI71
aa(lp5541
I1
a(lp5542
F0.326923
aaI52
aa(lp5543
I1
a(lp5544
F0.258621
aaI58
aa(lp5545
I1
a(lp5546
F0.258621
aaI58
aa(lp5547
I1
a(lp5548
F0.372093
aaI129
aa(lp5549
I1
a(lp5550
F0.39
aaI100
aa(lp5551
I1
a(lp5552
F0.358696
aaI92
aa(lp5553
I1
a(lp5554
F0.318681
aaI91
aa(lp5555
I1
a(lp5556
F0.394737
aaI76
aa(lp5557
I1
a(lp5558
F0.30137
aaI73
aaa(lp5559
g2480
ag2481
a(lp5560
I1
a(lp5561
F0.514706
aaI68
aa(lp5562
I1
a(lp5563
F0.402062
aaI97
aaa(lp5564
g2483
ag2484
aa(lp5565
g2486
ag2487
a(lp5566
I1
a(lp5567
F0.291139
aaI158
aaa(lp5568
g2489
ag2490
a(lp5569
I1
a(lp5570
F0.681481
aaI135
aaa(lp5571
g2492
ag2493
aa(lp5572
g2513
ag2514
aa(lp5573
g2516
ag2517
a(lp5574
I1
a(lp5575
F0.4
aaI60
aa(lp5576
I1
a(lp5577
F0.436364
aaI55
aa(lp5578
I1
a(lp5579
F0.37931
aaI87
aa(lp5580
I1
a(lp5581
F0.406593
aaI91
aa(lp5582
I1
a(lp5583
F0.5
aaI96
aa(lp5584
I1
a(lp5585
F0.495575
aaI113
aa(lp5586
I1
a(lp5587
F0.461538
aaI91
aa(lp5588
I1
a(lp5589
F0.333333
aaI93
aaa(lp5590
g2535
ag2536
aa(lp5591
g2546
ag2547
aa(lp5592
g2549
ag2550
a(lp5593
I1
a(lp5594
F0.223684
aaI76
aaa(lp5595
g2552
ag2553
aa(lp5596
g2555
ag2556
aa(lp5597
g2596
ag2597
aa(lp5598
g2617
ag2618
a(lp5599
I1
a(lp5600
F0.458333
aaI96
aa(lp5601
I1
a(lp5602
F0.45
aaI100
aa(lp5603
I1
a(lp5604
F0.386139
aaI101
aa(lp5605
I1
a(lp5606
F0.329114
aaI79
aaa(lp5607
g2620
ag2621
aa(lp5608
g2623
ag2624
aa(lp5609
g2640
ag2641
a(lp5610
I1
a(lp5611
F0.44086
aaI93
aa(lp5612
I1
a(lp5613
F0.492696
aaI753
aaa(lp5614
g2643
ag2644
a(lp5615
I1
a(lp5616
F0.267606
aaI71
aa(lp5617
I1
a(lp5618
F0.2875
aaI80
aa(lp5619
I1
a(lp5620
F0.293333
aaI75
aa(lp5621
I1
a(lp5622
F0.333333
aaI78
aa(lp5623
I1
a(lp5624
F0.329114
aaI79
aa(lp5625
I1
a(lp5626
F0.402597
aaI77
aa(lp5627
I1
a(lp5628
F0.338235
aaI68
aa(lp5629
I1
a(lp5630
F0.333333
aaI66
aaa(lp5631
g2648
ag2649
a(lp5632
I1
a(lp5633
F0.253012
aaI83
aa(lp5634
I1
a(lp5635
F0.536232
aaI69
aa(lp5636
I1
a(lp5637
F0.308642
aaI81
aa(lp5638
I1
a(lp5639
F0.236364
aaI165
aa(lp5640
I1
a(lp5641
F0.776119
aaI201
aa(lp5642
I1
a(lp5643
F0.795
aaI200
aa(lp5644
I1
a(lp5645
F0.697674
aaI172
aa(lp5646
I1
a(lp5647
F0.260504
aaI119
aa(lp5648
I1
a(lp5649
F0.216
aaI125
aa(lp5650
I1
a(lp5651
F0.343284
aaI134
aaa(lp5652
g2669
ag2670
a(lp5653
I1
a(lp5654
F0.390805
aaI87
aa(lp5655
I1
a(lp5656
F0.587156
aaI109
aa(lp5657
I1
a(lp5658
F0.25
aaI80
aa(lp5659
I1
a(lp5660
F0.277778
aaI72
aa(lp5661
I1
a(lp5662
F0.285714
aaI70
aa(lp5663
I1
a(lp5664
F0.234375
aaI64
aa(lp5665
I1
a(lp5666
F0.577982
aaI109
aaa(lp5667
g2688
ag2689
aa(lp5668
g2691
ag2692
a(lp5669
I1
a(lp5670
F0.283784
aaI74
aa(lp5671
I1
a(lp5672
F0.305882
aaI85
aa(lp5673
I1
a(lp5674
F0.325301
aaI83
aa(lp5675
I1
a(lp5676
F0.321429
aaI84
aa(lp5677
I1
a(lp5678
F0.2
aaI85
aaa(lp5679
g2698
ag2699
aa(lp5680
g2717
ag2718
aa(lp5681
g2720
ag2721
aa(lp5682
g2723
ag2724
aa(lp5683
g2726
ag2727
a(lp5684
I1
a(lp5685
F0.325301
aaI83
aa(lp5686
I1
a(lp5687
F0.373333
aaI75
aa(lp5688
I1
a(lp5689
F0.40678
aaI59
aa(lp5690
I1
a(lp5691
F0.202703
aaI74
aa(lp5692
I1
a(lp5693
F0.333333
aaI78
aa(lp5694
I1
a(lp5695
F0.234375
aaI64
aa(lp5696
I1
a(lp5697
F0.342105
aaI76
aa(lp5698
I1
a(lp5699
F0.301205
aaI83
aa(lp5700
I1
a(lp5701
F0.247059
aaI85
aa(lp5702
I1
a(lp5703
F0.227848
aaI79
aa(lp5704
I1
a(lp5705
F0.271605
aaI81
aa(lp5706
I1
a(lp5707
F0.3
aaI80
aa(lp5708
I1
a(lp5709
F0.294118
aaI68
aa(lp5710
I1
a(lp5711
F0.222222
aaI63
aa(lp5712
I1
a(lp5713
F0.222222
aaI54
aa(lp5714
I1
a(lp5715
F0.5
aaI96
aa(lp5716
I1
a(lp5717
F0.253731
aaI67
aaa(lp5718
g2729
ag2730
a(lp5719
I1
a(lp5720
F0.227273
aaI66
aa(lp5721
I1
a(lp5722
F0.32
aaI75
aa(lp5723
I1
a(lp5724
F0.29703
aaI101
aaa(lp5725
g2734
ag2735
aa(lp5726
g2737
ag2738
a(lp5727
I1
a(lp5728
F0.205128
aaI78
aa(lp5729
I1
a(lp5730
F0.342466
aaI73
aaa(lp5731
g2742
ag2743
aa(lp5732
g2745
ag2746
aa(lp5733
g2748
ag2749
aa(lp5734
g2757
ag2758
a(lp5735
I1
a(lp5736
F0.333333
aaI102
aa(lp5737
I1
a(lp5738
F0.45
aaI100
aa(lp5739
I1
a(lp5740
F0.20339
aaI59
aa(lp5741
I1
a(lp5742
F0.452381
aaI84
aa(lp5743
I1
a(lp5744
F0.397849
aaI93
aa(lp5745
I1
a(lp5746
F0.329412
aaI85
aa(lp5747
I1
a(lp5748
F0.336364
aaI110
aa(lp5749
I1
a(lp5750
F0.479167
aaI96
aa(lp5751
I1
a(lp5752
F0.5
aaI100
aa(lp5753
I1
a(lp5754
F0.5
aaI88
aa(lp5755
I1
a(lp5756
F0.252747
aaI91
aa(lp5757
I1
a(lp5758
F0.268041
aaI97
aa(lp5759
I1
a(lp5760
F0.247706
aaI109
aa(lp5761
I1
a(lp5762
F0.237113
aaI97
aa(lp5763
I1
a(lp5764
F0.228261
aaI92
aa(lp5765
I1
a(lp5766
F0.2625
aaI80
aaa(lp5767
g2770
ag2771
aa(lp5768
g2773
ag2774
a(lp5769
I1
a(lp5770
F0.215686
aaI51
aa(lp5771
I1
a(lp5772
F0.532468
aaI77
aa(lp5773
I1
a(lp5774
F0.311111
aaI90
aa(lp5775
I1
a(lp5776
F0.405405
aaI74
aa(lp5777
I1
a(lp5778
F0.402778
aaI72
aa(lp5779
I1
a(lp5780
F0.380282
aaI71
aa(lp5781
I1
a(lp5782
F0.277108
aaI83
aa(lp5783
I1
a(lp5784
F0.245902
aaI61
aa(lp5785
I1
a(lp5786
F0.309091
aaI55
aaa(lp5787
g2788
ag2789
a(lp5788
I1
a(lp5789
F0.421053
aaI76
aa(lp5790
I1
a(lp5791
F0.277778
aaI90
aa(lp5792
I1
a(lp5793
F0.315789
aaI95
aa(lp5794
I1
a(lp5795
F0.298851
aaI87
aa(lp5796
I1
a(lp5797
F0.323077
aaI65
aaa(lp5798
g2791
ag2792
a(lp5799
I1
a(lp5800
F0.505051
aaI99
aa(lp5801
I1
a(lp5802
F0.388889
aaI90
aa(lp5803
I1
a(lp5804
F0.495495
aaI111
aa(lp5805
I1
a(lp5806
F0.504673
aaI107
aa(lp5807
I1
a(lp5808
F0.413462
aaI104
aa(lp5809
I1
a(lp5810
F0.459184
aaI98
aa(lp5811
I1
a(lp5812
F0.4375
aaI96
aa(lp5813
I1
a(lp5814
F0.479592
aaI98
aa(lp5815
I1
a(lp5816
F0.510204
aaI98
aa(lp5817
I1
a(lp5818
F0.436893
aaI103
aa(lp5819
I1
a(lp5820
F0.443396
aaI106
aa(lp5821
I1
a(lp5822
F0.45098
aaI102
aa(lp5823
I1
a(lp5824
F0.344828
aaI87
aa(lp5825
I1
a(lp5826
F0.409524
aaI105
aa(lp5827
I1
a(lp5828
F0.285714
aaI77
aa(lp5829
I1
a(lp5830
F0.344828
aaI58
aa(lp5831
I1
a(lp5832
F0.470085
aaI117
aa(lp5833
I1
a(lp5834
F0.409639
aaI83
aa(lp5835
I1
a(lp5836
F0.398058
aaI103
aa(lp5837
I1
a(lp5838
F0.455446
aaI101
aa(lp5839
I1
a(lp5840
F0.427273
aaI110
aa(lp5841
I1
a(lp5842
F0.423423
aaI111
aa(lp5843
I1
a(lp5844
F0.446281
aaI121
aa(lp5845
I1
a(lp5846
F0.444444
aaI108
aa(lp5847
I1
a(lp5848
F0.377551
aaI98
aaa(lp5849
g2824
ag2825
a(lp5850
I1
a(lp5851
F0.239437
aaI142
aa(lp5852
I1
a(lp5853
F0.343949
aaI157
aa(lp5854
I1
a(lp5855
F0.320755
aaI159
aaa(lp5856
g2831
ag2832
a(lp5857
I1
a(lp5858
F0.372881
aaI59
aa(lp5859
I1
a(lp5860
F0.333333
aaI66
aa(lp5861
I1
a(lp5862
F0.215385
aaI65
aa(lp5863
I1
a(lp5864
F0.229508
aaI61
aa(lp5865
I1
a(lp5866
F0.241379
aaI58
aa(lp5867
I1
a(lp5868
F0.222222
aaI63
aa(lp5869
I1
a(lp5870
F0.308642
aaI81
aa(lp5871
I1
a(lp5872
F0.33945
aaI109
aa(lp5873
I1
a(lp5874
F0.304348
aaI92
aa(lp5875
I1
a(lp5876
F0.276596
aaI94
aa(lp5877
I1
a(lp5878
F0.342105
aaI76
aa(lp5879
I1
a(lp5880
F0.478632
aaI117
aa(lp5881
I1
a(lp5882
F0.285714
aaI63
aa(lp5883
I1
a(lp5884
F0.290323
aaI62
aa(lp5885
I1
a(lp5886
F0.393258
aaI89
aa(lp5887
I1
a(lp5888
F0.25
aaI68
aa(lp5889
I1
a(lp5890
F0.3125
aaI64
aa(lp5891
I1
a(lp5892
F0.513761
aaI109
aa(lp5893
I1
a(lp5894
F0.48
aaI100
aa(lp5895
I1
a(lp5896
F0.514851
aaI101
aa(lp5897
I1
a(lp5898
F0.505618
aaI89
aa(lp5899
I1
a(lp5900
F0.531646
aaI79
aaa(lp5901
g2882
ag2883
aa(lp5902
g2887
ag2888
aa(lp5903
g2892
ag2893
a(lp5904
I1
a(lp5905
F0.296
aaI125
aaa(lp5906
g2901
ag2902
a(lp5907
I1
a(lp5908
F0.317073
aaI82
aa(lp5909
I1
a(lp5910
F0.465753
aaI73
aa(lp5911
I1
a(lp5912
F0.343284
aaI67
aa(lp5913
I1
a(lp5914
F0.391304
aaI69
aa(lp5915
I1
a(lp5916
F0.45
aaI100
aa(lp5917
I1
a(lp5918
F0.454545
aaI99
aaa(lp5919
g2914
ag2915
aa(lp5920
g2925
ag2926
a(lp5921
I1
a(lp5922
F0.285714
aaI56
aa(lp5923
I1
a(lp5924
F0.221014
aaI276
aa(lp5925
I1
a(lp5926
F0.829365
aaI252
aa(lp5927
I1
a(lp5928
F0.426117
aaI291
aa(lp5929
I1
a(lp5930
F0.214286
aaI42
aa(lp5931
I1
a(lp5932
F0.291667
aaI72
aa(lp5933
I1
a(lp5934
F0.223881
aaI67
aa(lp5935
I1
a(lp5936
F0.226415
aaI53
aa(lp5937
I1
a(lp5938
F0.283582
aaI67
aa(lp5939
I1
a(lp5940
F0.293103
aaI58
aa(lp5941
I1
a(lp5942
F0.273973
aaI73
aa(lp5943
I1
a(lp5944
F0.361111
aaI72
aa(lp5945
I1
a(lp5946
F0.846429
aaI280
aa(lp5947
I1
a(lp5948
F0.817021
aaI235
aa(lp5949
I1
a(lp5950
F0.389474
aaI95
aa(lp5951
I1
a(lp5952
F0.263736
aaI91
aa(lp5953
I1
a(lp5954
F0.42623
aaI61
aa(lp5955
I1
a(lp5956
F0.455696
aaI79
aa(lp5957
I1
a(lp5958
F0.421687
aaI83
aa(lp5959
I1
a(lp5960
F0.431579
aaI95
aa(lp5961
I1
a(lp5962
F0.421053
aaI114
aa(lp5963
I1
a(lp5964
F0.210526
aaI76
aa(lp5965
I1
a(lp5966
F0.220779
aaI77
aa(lp5967
I1
a(lp5968
F0.522222
aaI90
aa(lp5969
I1
a(lp5970
F0.232877
aaI73
aaa(lp5971
g2976
ag2977
aa(lp5972
g2987
ag2988
a(lp5973
I1
a(lp5974
F0.289256
aaI121
aaa(lp5975
g2990
ag2991
aa(lp5976
g3061
ag3062
aa(lp5977
g3064
ag3065
a(lp5978
I1
a(lp5979
F0.423077
aaI182
aa(lp5980
I1
a(lp5981
F0.428571
aaI84
aa(lp5982
I1
a(lp5983
F0.274336
aaI113
aa(lp5984
I1
a(lp5985
F0.432203
aaI118
aa(lp5986
I1
a(lp5987
F0.232558
aaI43
aa(lp5988
I1
a(lp5989
F0.230769
aaI52
aa(lp5990
I1
a(lp5991
F0.461538
aaI91
aaa(lp5992
g3101
ag3102
aa(lp5993
g3104
ag3105
aa(lp5994
g3117
ag3118
aa(lp5995
g3138
ag3139
a(lp5996
I1
a(lp5997
F0.275362
aaI69
aa(lp5998
I1
a(lp5999
F0.268657
aaI67
aa(lp6000
I1
a(lp6001
F0.258065
aaI62
aaa(lp6002
g3147
ag3148
a(lp6003
I1
a(lp6004
F0.532468
aaI77
aa(lp6005
I1
a(lp6006
F0.478261
aaI115
aa(lp6007
I1
a(lp6008
F0.47
aaI100
aa(lp6009
I1
a(lp6010
F0.461538
aaI78
aa(lp6011
I1
a(lp6012
F0.444444
aaI72
aa(lp6013
I1
a(lp6014
F0.487805
aaI82
aa(lp6015
I1
a(lp6016
F0.354167
aaI96
aaa(lp6017
g3156
ag3157
aa(lp6018
g3165
ag3166
aa(lp6019
g3170
ag3171
a(lp6020
I1
a(lp6021
F0.266667
aaI45
aa(lp6022
I1
a(lp6023
F0.212766
aaI47
aa(lp6024
I1
a(lp6025
F0.204082
aaI49
aa(lp6026
I1
a(lp6027
F0.236111
aaI72
aaa(lp6028
g3193
ag3194
a(lp6029
I1
a(lp6030
F0.418803
aaI117
aa(lp6031
I1
a(lp6032
F0.488189
aaI127
aa(lp6033
I1
a(lp6034
F0.452381
aaI84
aa(lp6035
I1
a(lp6036
F0.45098
aaI102
aa(lp6037
I1
a(lp6038
F0.434783
aaI138
aaa(lp6039
g3196
ag3197
aa(lp6040
g3199
ag3200
aa(lp6041
g3202
ag3203
a(lp6042
I1
a(lp6043
F0.392405
aaI79
aa(lp6044
I1
a(lp6045
F0.204082
aaI49
aa(lp6046
I1
a(lp6047
F0.275362
aaI69
aa(lp6048
I1
a(lp6049
F0.227273
aaI66
aaa(lp6050
g3205
ag3206
aa(lp6051
g3218
ag3219
aa(lp6052
g3221
ag3222
aa(lp6053
g3234
ag3235
aa(lp6054
g3237
ag3238
aassS'diploids'
p6055
(dp6056
g3
(lp6057
(lp6058
S'scaffold3626_cov240'
p6059
aS'scaffold4811_cov246'
p6060
a(lp6061
I1
a(lp6062
F0.351351
aaI74
aa(lp6063
I1
a(lp6064
F0.468354
aaI79
aa(lp6065
I1
a(lp6066
F0.322034
aaI59
aa(lp6067
I1
a(lp6068
F0.206897
aaI58
aa(lp6069
I1
a(lp6070
F0.258621
aaI58
aa(lp6071
I1
a(lp6072
F0.277778
aaI72
aaa(lp6073
S'scaffold35469_cov250'
p6074
aS'scaffold5757_cov278'
p6075
a(lp6076
I1
a(lp6077
F0.25
aaI68
aa(lp6078
I1
a(lp6079
F0.311111
aaI90
aa(lp6080
I1
a(lp6081
F0.298851
aaI87
aa(lp6082
I1
a(lp6083
F0.209877
aaI81
aaa(lp6084
S'scaffold11291_cov250'
p6085
aS'scaffold3627_cov265'
p6086
a(lp6087
I1
a(lp6088
F0.321839
aaI87
aa(lp6089
I1
a(lp6090
F0.383562
aaI73
aa(lp6091
I1
a(lp6092
F0.421687
aaI83
aa(lp6093
I1
a(lp6094
F0.45977
aaI87
aa(lp6095
I1
a(lp6096
F0.470588
aaI85
aa(lp6097
I1
a(lp6098
F0.357143
aaI70
aa(lp6099
I1
a(lp6100
F0.348485
aaI66
aa(lp6101
I1
a(lp6102
F0.33871
aaI62
aaa(lp6103
S'scaffold1708_cov257'
p6104
aS'scaffold2991_cov233'
p6105
a(lp6106
I1
a(lp6107
F0.373913
aaI115
aa(lp6108
I1
a(lp6109
F0.375
aaI88
aa(lp6110
I1
a(lp6111
F0.411765
aaI85
aa(lp6112
I1
a(lp6113
F0.3
aaI70
aa(lp6114
I1
a(lp6115
F0.304348
aaI69
aa(lp6116
I1
a(lp6117
F0.314286
aaI70
aa(lp6118
I1
a(lp6119
F0.427184
aaI103
aa(lp6120
I1
a(lp6121
F0.515385
aaI130
aa(lp6122
I1
a(lp6123
F0.283951
aaI81
aa(lp6124
I1
a(lp6125
F0.391753
aaI97
aa(lp6126
I1
a(lp6127
F0.441176
aaI102
aa(lp6128
I1
a(lp6129
F0.344828
aaI87
aa(lp6130
I1
a(lp6131
F0.333333
aaI84
aa(lp6132
I1
a(lp6133
F0.35443
aaI79
aa(lp6134
I1
a(lp6135
F0.208955
aaI67
aa(lp6136
I1
a(lp6137
F0.206349
aaI63
aaa(lp6138
S'scaffold47935_cov305'
p6139
aS'scaffold774_cov229'
p6140
aa(lp6141
S'scaffold3994_cov307'
p6142
aS'scaffold78_cov298'
p6143
aa(lp6144
S'scaffold499_cov259'
p6145
aS'scaffold8360_cov206'
p6146
a(lp6147
I1
a(lp6148
F0.223881
aaI67
aa(lp6149
I1
a(lp6150
F0.202128
aaI94
aa(lp6151
I1
a(lp6152
F0.214286
aaI56
aa(lp6153
I1
a(lp6154
F0.2
aaI60
aa(lp6155
I1
a(lp6156
F0.218182
aaI55
aa(lp6157
I1
a(lp6158
F0.218182
aaI55
aaa(lp6159
S'scaffold11346_cov240'
p6160
aS'scaffold7912_cov254'
p6161
a(lp6162
I1
a(lp6163
F0.426966
aaI89
aa(lp6164
I1
a(lp6165
F0.361702
aaI94
aa(lp6166
I1
a(lp6167
F0.363636
aaI88
aa(lp6168
I1
a(lp6169
F0.482759
aaI116
aa(lp6170
I1
a(lp6171
F0.43956
aaI91
aa(lp6172
I1
a(lp6173
F0.234375
aaI64
aa(lp6174
I1
a(lp6175
F0.329545
aaI88
aa(lp6176
I1
a(lp6177
F0.37931
aaI87
aa(lp6178
I1
a(lp6179
F0.361702
aaI94
aa(lp6180
I1
a(lp6181
F0.275862
aaI58
aa(lp6182
I1
a(lp6183
F0.237288
aaI59
aa(lp6184
I1
a(lp6185
F0.356164
aaI73
aa(lp6186
I1
a(lp6187
F0.529412
aaI102
aaa(lp6188
S'scaffold2519_cov239'
p6189
aS'scaffold33999_cov278'
p6190
aa(lp6191
S'scaffold2747_cov252'
p6192
aS'scaffold35860_cov272'
p6193
a(lp6194
I1
a(lp6195
F0.386139
aaI101
aaa(lp6196
S'scaffold1766_cov198'
p6197
aS'scaffold607_cov179'
p6198
a(lp6199
I1
a(lp6200
F0.0
aaI77
aa(lp6201
I1
a(lp6202
F0.220183
aaI109
aa(lp6203
I1
a(lp6204
F0.410256
aaI78
aa(lp6205
I1
a(lp6206
F0.311475
aaI61
aaa(lp6207
S'scaffold51278_cov326'
p6208
aS'scaffold965_cov205'
p6209
aa(lp6210
S'scaffold5373_cov204'
p6211
aS'scaffold6283_cov179'
p6212
aa(lp6213
S'scaffold10188_cov228'
p6214
aS'scaffold1228_cov289'
p6215
aa(lp6216
S'scaffold27882_cov209'
p6217
aS'scaffold36175_cov226'
p6218
aa(lp6219
S'scaffold2656_cov192'
p6220
aS'scaffold28966_cov241'
p6221
a(lp6222
I1
a(lp6223
F0.745098
aaI255
aa(lp6224
I1
a(lp6225
F0.376471
aaI85
aa(lp6226
I1
a(lp6227
F0.385542
aaI83
aa(lp6228
I1
a(lp6229
F0.628866
aaI97
aa(lp6230
I1
a(lp6231
F0.521127
aaI71
aa(lp6232
I1
a(lp6233
F0.211538
aaI52
aaa(lp6234
S'scaffold11428_cov295'
p6235
aS'scaffold42512_cov294'
p6236
aa(lp6237
S'scaffold35943_cov295'
p6238
aS'scaffold7990_cov217'
p6239
a(lp6240
I1
a(lp6241
F0.441558
aaI77
aa(lp6242
I1
a(lp6243
F0.452381
aaI84
aa(lp6244
I1
a(lp6245
F0.448276
aaI87
aaa(lp6246
S'scaffold3813_cov275'
p6247
aS'scaffold6764_cov231'
p6248
a(lp6249
I1
a(lp6250
F0.337209
aaI86
aa(lp6251
I1
a(lp6252
F0.3625
aaI80
aa(lp6253
I1
a(lp6254
F0.333333
aaI72
aa(lp6255
I1
a(lp6256
F0.486842
aaI76
aa(lp6257
I1
a(lp6258
F0.3
aaI60
aa(lp6259
I1
a(lp6260
F0.442105
aaI95
aa(lp6261
I1
a(lp6262
F0.482759
aaI87
aa(lp6263
I1
a(lp6264
F0.506667
aaI75
aa(lp6265
I1
a(lp6266
F0.0
aaI64
aa(lp6267
I1
a(lp6268
F0.350649
aaI77
aa(lp6269
I1
a(lp6270
F0.253333
aaI75
aa(lp6271
I1
a(lp6272
F0.304878
aaI82
aa(lp6273
I1
a(lp6274
F0.378049
aaI82
aa(lp6275
I1
a(lp6276
F0.531646
aaI79
aaa(lp6277
S'scaffold2105_cov193'
p6278
aS'scaffold4704_cov190'
p6279
aa(lp6280
S'scaffold2155_cov181'
p6281
aS'scaffold54209_cov305'
p6282
a(lp6283
I1
a(lp6284
F0.24359
aaI78
aa(lp6285
I1
a(lp6286
F0.21519
aaI79
aa(lp6287
I1
a(lp6288
F0.21519
aaI79
aa(lp6289
I1
a(lp6290
F0.25
aaI80
aaa(lp6291
S'scaffold12582_cov223'
p6292
aS'scaffold3805_cov206'
p6293
a(lp6294
I1
a(lp6295
F0.28
aaI75
aa(lp6296
I1
a(lp6297
F0.260274
aaI73
aa(lp6298
I1
a(lp6299
F0.387755
aaI98
aa(lp6300
I1
a(lp6301
F0.371134
aaI97
aa(lp6302
I1
a(lp6303
F0.257576
aaI66
aa(lp6304
I1
a(lp6305
F0.427083
aaI96
aa(lp6306
I1
a(lp6307
F0.328947
aaI76
aa(lp6308
I1
a(lp6309
F0.214286
aaI56
aa(lp6310
I1
a(lp6311
F0.285714
aaI70
aaa(lp6312
S'scaffold1488_cov177'
p6313
aS'scaffold7765_cov174'
p6314
a(lp6315
I1
a(lp6316
F0.2
aaI70
aa(lp6317
I1
a(lp6318
F0.413793
aaI58
aa(lp6319
I1
a(lp6320
F0.4
aaI60
aa(lp6321
I1
a(lp6322
F0.403226
aaI62
aa(lp6323
I1
a(lp6324
F0.40625
aaI64
aa(lp6325
I1
a(lp6326
F0.426471
aaI68
aaa(lp6327
S'scaffold23025_cov260'
p6328
aS'scaffold34181_cov257'
p6329
a(lp6330
I1
a(lp6331
F0.464646
aaI99
aa(lp6332
I1
a(lp6333
F0.490196
aaI102
aa(lp6334
I1
a(lp6335
F0.355556
aaI90
aa(lp6336
I1
a(lp6337
F0.370787
aaI89
aa(lp6338
I1
a(lp6339
F0.378049
aaI82
aa(lp6340
I1
a(lp6341
F0.443182
aaI88
aa(lp6342
I1
a(lp6343
F0.4
aaI95
aa(lp6344
I1
a(lp6345
F0.474227
aaI97
aa(lp6346
I1
a(lp6347
F0.457143
aaI105
aa(lp6348
I1
a(lp6349
F0.345455
aaI55
aa(lp6350
I1
a(lp6351
F0.328358
aaI67
aa(lp6352
I1
a(lp6353
F0.378378
aaI74
aa(lp6354
I1
a(lp6355
F0.337349
aaI83
aa(lp6356
I1
a(lp6357
F0.337209
aaI86
aa(lp6358
I1
a(lp6359
F0.364583
aaI96
aa(lp6360
I1
a(lp6361
F0.238636
aaI88
aa(lp6362
I1
a(lp6363
F0.242424
aaI66
aaa(lp6364
S'scaffold12541_cov206'
p6365
aS'scaffold1867_cov235'
p6366
a(lp6367
I1
a(lp6368
F0.441558
aaI77
aa(lp6369
I1
a(lp6370
F0.51
aaI100
aaa(lp6371
S'scaffold3425_cov288'
p6372
aS'scaffold4454_cov228'
p6373
a(lp6374
I1
a(lp6375
F0.457447
aaI94
aa(lp6376
I1
a(lp6377
F0.242857
aaI70
aa(lp6378
I1
a(lp6379
F0.292135
aaI89
aa(lp6380
I1
a(lp6381
F0.257576
aaI132
aa(lp6382
I1
a(lp6383
F0.362319
aaI138
aa(lp6384
I1
a(lp6385
F0.765306
aaI196
aa(lp6386
I1
a(lp6387
F0.232143
aaI112
aa(lp6388
I1
a(lp6389
F0.215385
aaI65
aaa(lp6390
S'scaffold3656_cov164'
p6391
aS'scaffold7174_cov157'
p6392
aa(lp6393
S'scaffold3622_cov247'
p6394
aS'scaffold45254_cov315'
p6395
aa(lp6396
S'scaffold1507_cov164'
p6397
aS'scaffold34923_cov148'
p6398
aa(lp6399
S'scaffold13021_cov287'
p6400
aS'scaffold3989_cov265'
p6401
aa(lp6402
S'scaffold2864_cov140'
p6403
aS'scaffold6319_cov169'
p6404
aa(lp6405
S'scaffold2759_cov181'
p6406
aS'scaffold8772_cov153'
p6407
a(lp6408
I1
a(lp6409
F0.253731
aaI67
aa(lp6410
I1
a(lp6411
F0.268657
aaI67
aa(lp6412
I1
a(lp6413
F0.0
aaI39
aa(lp6414
I1
a(lp6415
F0.227273
aaI44
aaa(lp6416
S'scaffold1058_cov270'
p6417
aS'scaffold8732_cov275'
p6418
a(lp6419
I1
a(lp6420
F0.372549
aaI102
aa(lp6421
I1
a(lp6422
F0.3125
aaI80
aa(lp6423
I1
a(lp6424
F0.329268
aaI82
aa(lp6425
I1
a(lp6426
F0.310811
aaI74
aa(lp6427
I1
a(lp6428
F0.328947
aaI76
aa(lp6429
I1
a(lp6430
F0.340909
aaI88
aa(lp6431
I1
a(lp6432
F0.355556
aaI90
aa(lp6433
I1
a(lp6434
F0.476744
aaI86
aa(lp6435
I1
a(lp6436
F0.390625
aaI64
aa(lp6437
I1
a(lp6438
F0.382353
aaI68
aa(lp6439
I1
a(lp6440
F0.38806
aaI67
aa(lp6441
I1
a(lp6442
F0.384615
aaI91
aa(lp6443
I1
a(lp6444
F0.369565
aaI92
aa(lp6445
I1
a(lp6446
F0.329268
aaI82
aa(lp6447
I1
a(lp6448
F0.35443
aaI79
aa(lp6449
I1
a(lp6450
F0.242424
aaI66
aa(lp6451
I1
a(lp6452
F0.268657
aaI67
aa(lp6453
I1
a(lp6454
F0.447059
aaI85
aa(lp6455
I1
a(lp6456
F0.533981
aaI103
aa(lp6457
I1
a(lp6458
F0.3
aaI90
aaa(lp6459
S'scaffold4391_cov207'
p6460
aS'scaffold9452_cov208'
p6461
a(lp6462
I1
a(lp6463
F0.240506
aaI79
aa(lp6464
I1
a(lp6465
F0.246575
aaI73
aa(lp6466
I1
a(lp6467
F0.220588
aaI68
aa(lp6468
I1
a(lp6469
F0.4
aaI100
aa(lp6470
I1
a(lp6471
F0.246753
aaI77
aa(lp6472
I1
a(lp6473
F0.344086
aaI93
aaa(lp6474
S'scaffold1208_cov229'
p6475
aS'scaffold1508_cov264'
p6476
a(lp6477
I1
a(lp6478
F0.375
aaI88
aa(lp6479
I1
a(lp6480
F0.328947
aaI76
aaa(lp6481
S'scaffold11822_cov236'
p6482
aS'scaffold34659_cov215'
p6483
a(lp6484
I1
a(lp6485
F0.206897
aaI58
aa(lp6486
I1
a(lp6487
F0.258621
aaI58
aa(lp6488
I1
a(lp6489
F0.263158
aaI57
aa(lp6490
I1
a(lp6491
F0.380282
aaI71
aa(lp6492
I1
a(lp6493
F0.391892
aaI74
aa(lp6494
I1
a(lp6495
F0.544554
aaI101
aa(lp6496
I1
a(lp6497
F0.266667
aaI60
aa(lp6498
I1
a(lp6499
F0.241935
aaI62
aa(lp6500
I1
a(lp6501
F0.220588
aaI68
aa(lp6502
I1
a(lp6503
F0.48913
aaI92
aa(lp6504
I1
a(lp6505
F0.329114
aaI79
aa(lp6506
I1
a(lp6507
F0.390909
aaI110
aaa(lp6508
S'scaffold4643_cov233'
p6509
aS'scaffold7882_cov228'
p6510
a(lp6511
I1
a(lp6512
F0.308333
aaI120
aa(lp6513
I1
a(lp6514
F0.22695
aaI141
aa(lp6515
I1
a(lp6516
F0.435185
aaI108
aaa(lp6517
S'scaffold2260_cov157'
p6518
aS'scaffold23025_cov260'
p6519
aa(lp6520
S'scaffold6544_cov240'
p6521
aS'scaffold8921_cov268'
p6522
a(lp6523
I1
a(lp6524
F0.363636
aaI99
aa(lp6525
I1
a(lp6526
F0.505495
aaI91
aaa(lp6527
S'scaffold35079_cov288'
p6528
aS'scaffold35849_cov287'
p6529
a(lp6530
I1
a(lp6531
F0.316456
aaI79
aa(lp6532
I1
a(lp6533
F0.485437
aaI103
aa(lp6534
I1
a(lp6535
F0.46729
aaI107
aa(lp6536
I1
a(lp6537
F0.514493
aaI138
aa(lp6538
I1
a(lp6539
F0.496124
aaI129
aa(lp6540
I1
a(lp6541
F0.520833
aaI48
aa(lp6542
I1
a(lp6543
F0.4375
aaI96
aa(lp6544
I1
a(lp6545
F0.483871
aaI93
aa(lp6546
I1
a(lp6547
F0.402439
aaI82
aa(lp6548
I1
a(lp6549
F0.438202
aaI89
aa(lp6550
I1
a(lp6551
F0.320513
aaI78
aa(lp6552
I1
a(lp6553
F0.337838
aaI74
aa(lp6554
I1
a(lp6555
F0.509259
aaI108
aa(lp6556
I1
a(lp6557
F0.434211
aaI76
aa(lp6558
I1
a(lp6559
F0.454545
aaI99
aa(lp6560
I1
a(lp6561
F0.431818
aaI88
aa(lp6562
I1
a(lp6563
F0.445545
aaI101
aa(lp6564
I1
a(lp6565
F0.5
aaI88
aa(lp6566
I1
a(lp6567
F0.539216
aaI102
aa(lp6568
I1
a(lp6569
F0.407767
aaI103
aa(lp6570
I1
a(lp6571
F0.444444
aaI99
aa(lp6572
I1
a(lp6573
F0.551724
aaI116
aa(lp6574
I1
a(lp6575
F0.559322
aaI118
aa(lp6576
I1
a(lp6577
F0.362637
aaI91
aa(lp6578
I1
a(lp6579
F0.43617
aaI94
aa(lp6580
I1
a(lp6581
F0.518868
aaI106
aa(lp6582
I1
a(lp6583
F0.557522
aaI113
aa(lp6584
I1
a(lp6585
F0.208333
aaI96
aa(lp6586
I1
a(lp6587
F0.227273
aaI88
aaa(lp6588
S'scaffold11990_cov204'
p6589
aS'scaffold15595_cov207'
p6590
aa(lp6591
S'scaffold13758_cov189'
p6592
aS'scaffold7307_cov224'
p6593
a(lp6594
I1
a(lp6595
F0.311688
aaI77
aa(lp6596
I1
a(lp6597
F0.268657
aaI67
aa(lp6598
I1
a(lp6599
F0.288462
aaI52
aa(lp6600
I1
a(lp6601
F0.320755
aaI53
aa(lp6602
I1
a(lp6603
F0.360656
aaI61
aa(lp6604
I1
a(lp6605
F0.381579
aaI76
aa(lp6606
I1
a(lp6607
F0.352113
aaI71
aa(lp6608
I1
a(lp6609
F0.357143
aaI70
aa(lp6610
I1
a(lp6611
F0.402597
aaI77
aa(lp6612
I1
a(lp6613
F0.407407
aaI81
aa(lp6614
I1
a(lp6615
F0.3625
aaI80
aa(lp6616
I1
a(lp6617
F0.328947
aaI76
aa(lp6618
I1
a(lp6619
F0.0
aaI85
aa(lp6620
I1
a(lp6621
F0.848214
aaI224
aaa(lp6622
S'scaffold292_cov203'
p6623
aS'scaffold4488_cov207'
p6624
aa(lp6625
S'scaffold11481_cov169'
p6626
aS'scaffold21751_cov240'
p6627
a(lp6628
I1
a(lp6629
F0.267606
aaI71
aa(lp6630
I1
a(lp6631
F0.320513
aaI78
aa(lp6632
I1
a(lp6633
F0.25
aaI44
aa(lp6634
I1
a(lp6635
F0.310345
aaI58
aa(lp6636
I1
a(lp6637
F0.3125
aaI48
aa(lp6638
I1
a(lp6639
F0.363636
aaI44
aa(lp6640
I1
a(lp6641
F0.415094
aaI53
aa(lp6642
I1
a(lp6643
F0.377358
aaI53
aa(lp6644
I1
a(lp6645
F0.368421
aaI57
aa(lp6646
I1
a(lp6647
F0.333333
aaI54
aa(lp6648
I1
a(lp6649
F0.315789
aaI57
aa(lp6650
I1
a(lp6651
F0.288136
aaI59
aa(lp6652
I1
a(lp6653
F0.315068
aaI73
aa(lp6654
I1
a(lp6655
F0.290323
aaI62
aa(lp6656
I1
a(lp6657
F0.290323
aaI62
aa(lp6658
I1
a(lp6659
F0.3
aaI60
aa(lp6660
I1
a(lp6661
F0.327586
aaI58
aa(lp6662
I1
a(lp6663
F0.33871
aaI62
aa(lp6664
I1
a(lp6665
F0.27451
aaI51
aa(lp6666
I1
a(lp6667
F0.264706
aaI68
aa(lp6668
I1
a(lp6669
F0.226415
aaI53
aa(lp6670
I1
a(lp6671
F0.214286
aaI56
aa(lp6672
I1
a(lp6673
F0.307692
aaI52
aa(lp6674
I1
a(lp6675
F0.296296
aaI54
aa(lp6676
I1
a(lp6677
F0.254545
aaI55
aa(lp6678
I1
a(lp6679
F0.207547
aaI53
aa(lp6680
I1
a(lp6681
F0.349398
aaI83
aa(lp6682
I1
a(lp6683
F0.440367
aaI109
aa(lp6684
I1
a(lp6685
F0.384615
aaI104
aa(lp6686
I1
a(lp6687
F0.278481
aaI79
aaa(lp6688
S'scaffold39652_cov294'
p6689
aS'scaffold6762_cov212'
p6690
aa(lp6691
S'scaffold1746_cov212'
p6692
aS'scaffold743_cov228'
p6693
a(lp6694
I1
a(lp6695
F0.278351
aaI97
aa(lp6696
I1
a(lp6697
F0.35514
aaI107
aa(lp6698
I1
a(lp6699
F0.348624
aaI109
aa(lp6700
I1
a(lp6701
F0.366972
aaI109
aa(lp6702
I1
a(lp6703
F0.414141
aaI99
aa(lp6704
I1
a(lp6705
F0.300971
aaI103
aa(lp6706
I1
a(lp6707
F0.253521
aaI71
aa(lp6708
I1
a(lp6709
F0.342857
aaI70
aa(lp6710
I1
a(lp6711
F0.3625
aaI80
aa(lp6712
I1
a(lp6713
F0.364865
aaI74
aa(lp6714
I1
a(lp6715
F0.364865
aaI74
aa(lp6716
I1
a(lp6717
F0.36
aaI75
aa(lp6718
I1
a(lp6719
F0.278481
aaI79
aa(lp6720
I1
a(lp6721
F0.25
aaI76
aa(lp6722
I1
a(lp6723
F0.253333
aaI75
aa(lp6724
I1
a(lp6725
F0.279412
aaI68
aa(lp6726
I1
a(lp6727
F0.41
aaI100
aa(lp6728
I1
a(lp6729
F0.417582
aaI91
aa(lp6730
I1
a(lp6731
F0.411111
aaI90
aa(lp6732
I1
a(lp6733
F0.341176
aaI85
aa(lp6734
I1
a(lp6735
F0.319444
aaI72
aa(lp6736
I1
a(lp6737
F0.288462
aaI52
aa(lp6738
I1
a(lp6739
F0.40625
aaI64
aa(lp6740
I1
a(lp6741
F0.276316
aaI76
aa(lp6742
I1
a(lp6743
F0.220339
aaI59
aa(lp6744
I1
a(lp6745
F0.304348
aaI69
aa(lp6746
I1
a(lp6747
F0.305085
aaI59
aa(lp6748
I1
a(lp6749
F0.272727
aaI66
aa(lp6750
I1
a(lp6751
F0.285714
aaI63
aa(lp6752
I1
a(lp6753
F0.31
aaI100
aa(lp6754
I1
a(lp6755
F0.222222
aaI99
aa(lp6756
I1
a(lp6757
F0.664615
aaI325
aa(lp6758
I1
a(lp6759
F0.341772
aaI158
aa(lp6760
I1
a(lp6761
F0.264901
aaI151
aa(lp6762
I1
a(lp6763
F0.24
aaI150
aaa(lp6764
S'scaffold2115_cov223'
p6765
aS'scaffold4466_cov187'
p6766
aa(lp6767
S'scaffold4640_cov176'
p6768
aS'scaffold6032_cov173'
p6769
aa(lp6770
S'scaffold11329_cov238'
p6771
aS'scaffold3410_cov258'
p6772
a(lp6773
I1
a(lp6774
F0.457831
aaI83
aa(lp6775
I1
a(lp6776
F0.397727
aaI88
aa(lp6777
I1
a(lp6778
F0.371134
aaI97
aa(lp6779
I1
a(lp6780
F0.447619
aaI105
aa(lp6781
I1
a(lp6782
F0.420455
aaI88
aa(lp6783
I1
a(lp6784
F0.490566
aaI106
aa(lp6785
I1
a(lp6786
F0.329114
aaI79
aa(lp6787
I1
a(lp6788
F0.393617
aaI94
aa(lp6789
I1
a(lp6790
F0.422222
aaI90
aa(lp6791
I1
a(lp6792
F0.426966
aaI89
aa(lp6793
I1
a(lp6794
F0.408602
aaI93
aa(lp6795
I1
a(lp6796
F0.360825
aaI97
aa(lp6797
I1
a(lp6798
F0.337209
aaI86
aa(lp6799
I1
a(lp6800
F0.3
aaI70
aa(lp6801
I1
a(lp6802
F0.333333
aaI66
aa(lp6803
I1
a(lp6804
F0.414634
aaI82
aa(lp6805
I1
a(lp6806
F0.357143
aaI84
aaa(lp6807
S'scaffold662_cov282'
p6808
aS'scaffold663_cov256'
p6809
a(lp6810
I1
a(lp6811
F0.46
aaI100
aa(lp6812
I1
a(lp6813
F0.268657
aaI67
aa(lp6814
I1
a(lp6815
F0.40404
aaI99
aa(lp6816
I1
a(lp6817
F0.549451
aaI91
aa(lp6818
I1
a(lp6819
F0.310345
aaI58
aa(lp6820
I1
a(lp6821
F0.306452
aaI62
aa(lp6822
I1
a(lp6823
F0.43956
aaI91
aa(lp6824
I1
a(lp6825
F0.460784
aaI102
aag5794
ag5796
a(lp6826
I1
a(lp6827
F0.25974
aaI77
aa(lp6828
I1
a(lp6829
F0.266667
aaI75
aa(lp6830
I1
a(lp6831
F0.0
aaI75
aa(lp6832
I1
a(lp6833
F0.438202
aaI89
aa(lp6834
I1
a(lp6835
F0.484536
aaI97
aa(lp6836
I1
a(lp6837
F0.308824
aaI68
aa(lp6838
I1
a(lp6839
F0.530973
aaI113
aa(lp6840
I1
a(lp6841
F0.463636
aaI110
aa(lp6842
I1
a(lp6843
F0.394366
aaI71
aa(lp6844
I1
a(lp6845
F0.373134
aaI67
aa(lp6846
I1
a(lp6847
F0.445652
aaI92
aa(lp6848
I1
a(lp6849
F0.28
aaI75
aa(lp6850
I1
a(lp6851
F0.27957
aaI93
aa(lp6852
I1
a(lp6853
F0.287671
aaI73
aa(lp6854
I1
a(lp6855
F0.369863
aaI73
aa(lp6856
I1
a(lp6857
F0.425
aaI80
aa(lp6858
I1
a(lp6859
F0.362319
aaI69
aa(lp6860
I1
a(lp6861
F0.467532
aaI77
aa(lp6862
I1
a(lp6863
F0.82243
aaI214
aa(lp6864
I1
a(lp6865
F0.632479
aaI117
aa(lp6866
I1
a(lp6867
F0.632653
aaI147
aa(lp6868
I1
a(lp6869
F0.444444
aaI81
aa(lp6870
I1
a(lp6871
F0.235632
aaI174
aaa(lp6872
S'scaffold35969_cov266'
p6873
aS'scaffold5160_cov248'
p6874
a(lp6875
I1
a(lp6876
F0.385542
aaI83
aa(lp6877
I1
a(lp6878
F0.447368
aaI76
aaa(lp6879
S'scaffold12609_cov286'
p6880
aS'scaffold3427_cov261'
p6881
a(lp6882
I1
a(lp6883
F0.428571
aaI105
aa(lp6884
I1
a(lp6885
F0.495238
aaI105
aa(lp6886
I1
a(lp6887
F0.465909
aaI88
aa(lp6888
I1
a(lp6889
F0.39604
aaI101
aa(lp6890
I1
a(lp6891
F0.355556
aaI90
aa(lp6892
I1
a(lp6893
F0.477273
aaI88
aaa(lp6894
S'scaffold1520_cov232'
p6895
aS'scaffold5829_cov226'
p6896
a(lp6897
I1
a(lp6898
F0.456522
aaI92
aa(lp6899
I1
a(lp6900
F0.202703
aaI74
aaa(lp6901
S'scaffold4870_cov219'
p6902
aS'scaffold7504_cov226'
p6903
a(lp6904
I1
a(lp6905
F0.337349
aaI83
aa(lp6906
I1
a(lp6907
F0.379747
aaI79
aaa(lp6908
S'scaffold5560_cov257'
p6909
aS'scaffold8732_cov275'
p6910
a(lp6911
I1
a(lp6912
F0.486486
aaI111
aa(lp6913
I1
a(lp6914
F0.515152
aaI99
aa(lp6915
I1
a(lp6916
F0.234375
aaI64
aa(lp6917
I1
a(lp6918
F0.382979
aaI94
aaa(lp6919
S'scaffold2730_cov266'
p6920
aS'scaffold3415_cov306'
p6921
a(lp6922
I1
a(lp6923
F0.2625
aaI80
aa(lp6924
I1
a(lp6925
F0.276316
aaI76
aa(lp6926
I1
a(lp6927
F0.352273
aaI88
aaa(lp6928
S'scaffold14801_cov267'
p6929
aS'scaffold4703_cov265'
p6930
a(lp6931
I1
a(lp6932
F0.44
aaI75
aa(lp6933
I1
a(lp6934
F0.328947
aaI76
aa(lp6935
I1
a(lp6936
F0.424779
aaI113
aa(lp6937
I1
a(lp6938
F0.524752
aaI101
aa(lp6939
I1
a(lp6940
F0.333333
aaI84
aa(lp6941
I1
a(lp6942
F0.428571
aaI84
aa(lp6943
I1
a(lp6944
F0.505882
aaI85
aa(lp6945
I1
a(lp6946
F0.376812
aaI69
aa(lp6947
I1
a(lp6948
F0.459459
aaI74
aaa(lp6949
S'scaffold14007_cov270'
p6950
aS'scaffold181_cov231'
p6951
a(lp6952
I1
a(lp6953
F0.22973
aaI74
aa(lp6954
I1
a(lp6955
F0.232558
aaI86
aa(lp6956
I1
a(lp6957
F0.417582
aaI91
aa(lp6958
I1
a(lp6959
F0.390244
aaI82
aa(lp6960
I1
a(lp6961
F0.289474
aaI76
aa(lp6962
I1
a(lp6963
F0.292683
aaI82
aa(lp6964
I1
a(lp6965
F0.234568
aaI81
aa(lp6966
I1
a(lp6967
F0.226667
aaI75
aa(lp6968
I1
a(lp6969
F0.326087
aaI92
aa(lp6970
I1
a(lp6971
F0.362319
aaI69
aa(lp6972
I1
a(lp6973
F0.229508
aaI61
aa(lp6974
I1
a(lp6975
F0.333333
aaI75
aa(lp6976
I1
a(lp6977
F0.253165
aaI79
aa(lp6978
I1
a(lp6979
F0.282609
aaI92
aa(lp6980
I1
a(lp6981
F0.348315
aaI89
aaa(lp6982
S'scaffold42388_cov305'
p6983
aS'scaffold5495_cov293'
p6984
aa(lp6985
S'scaffold978_cov183'
p6986
aS'scaffold979_cov154'
p6987
a(lp6988
I1
a(lp6989
F0.264151
aaI53
aa(lp6990
I1
a(lp6991
F0.307692
aaI65
aaa(lp6992
S'scaffold35711_cov297'
p6993
aS'scaffold6027_cov281'
p6994
a(lp6995
I1
a(lp6996
F0.451923
aaI104
aa(lp6997
I1
a(lp6998
F0.40625
aaI64
aa(lp6999
I1
a(lp7000
F0.40678
aaI59
aa(lp7001
I1
a(lp7002
F0.311475
aaI61
aa(lp7003
I1
a(lp7004
F0.428571
aaI91
aa(lp7005
I1
a(lp7006
F0.449541
aaI109
aa(lp7007
I1
a(lp7008
F0.45614
aaI114
aa(lp7009
I1
a(lp7010
F0.527559
aaI127
aa(lp7011
I1
a(lp7012
F0.420455
aaI88
aa(lp7013
I1
a(lp7014
F0.48
aaI100
aa(lp7015
I1
a(lp7016
F0.489583
aaI96
aa(lp7017
I1
a(lp7018
F0.342857
aaI70
aa(lp7019
I1
a(lp7020
F0.307692
aaI78
aa(lp7021
I1
a(lp7022
F0.478723
aaI94
aa(lp7023
I1
a(lp7024
F0.39
aaI100
aa(lp7025
I1
a(lp7026
F0.368421
aaI95
aa(lp7027
I1
a(lp7028
F0.514286
aaI105
aa(lp7029
I1
a(lp7030
F0.429825
aaI114
aa(lp7031
I1
a(lp7032
F0.443396
aaI106
aa(lp7033
I1
a(lp7034
F0.461538
aaI104
aa(lp7035
I1
a(lp7036
F0.490909
aaI110
aa(lp7037
I1
a(lp7038
F0.515152
aaI99
aa(lp7039
I1
a(lp7040
F0.481013
aaI79
aa(lp7041
I1
a(lp7042
F0.472527
aaI91
aa(lp7043
I1
a(lp7044
F0.431034
aaI58
aa(lp7045
I1
a(lp7046
F0.45
aaI80
aa(lp7047
I1
a(lp7048
F0.451923
aaI104
aa(lp7049
I1
a(lp7050
F0.539216
aaI102
aa(lp7051
I1
a(lp7052
F0.510638
aaI94
aa(lp7053
I1
a(lp7054
F0.453608
aaI97
aa(lp7055
I1
a(lp7056
F0.42735
aaI117
aa(lp7057
I1
a(lp7058
F0.40404
aaI99
aa(lp7059
I1
a(lp7060
F0.277778
aaI72
aa(lp7061
I1
a(lp7062
F0.45
aaI100
aa(lp7063
I1
a(lp7064
F0.459184
aaI98
aa(lp7065
I1
a(lp7066
F0.475248
aaI101
aa(lp7067
I1
a(lp7068
F0.423913
aaI92
aaa(lp7069
S'scaffold44578_cov315'
p7070
aS'scaffold585_cov234'
p7071
aa(lp7072
S'scaffold2328_cov197'
p7073
aS'scaffold8399_cov190'
p7074
aa(lp7075
S'scaffold5502_cov291'
p7076
aS'scaffold7790_cov228'
p7077
a(lp7078
I1
a(lp7079
F0.447059
aaI85
aa(lp7080
I1
a(lp7081
F0.220779
aaI77
aa(lp7082
I1
a(lp7083
F0.272727
aaI66
aa(lp7084
I1
a(lp7085
F0.225806
aaI62
aa(lp7086
I1
a(lp7087
F0.22807
aaI57
aa(lp7088
I1
a(lp7089
F0.258065
aaI62
aa(lp7090
I1
a(lp7091
F0.254237
aaI59
aa(lp7092
I1
a(lp7093
F0.471264
aaI87
aa(lp7094
I1
a(lp7095
F0.464912
aaI114
aa(lp7096
I1
a(lp7097
F0.456311
aaI103
aaa(lp7098
S'scaffold10657_cov306'
p7099
aS'scaffold4178_cov282'
p7100
aa(lp7101
S'scaffold38603_cov305'
p7102
aS'scaffold7912_cov254'
p7103
a(lp7104
I1
a(lp7105
F0.349515
aaI103
aa(lp7106
I1
a(lp7107
F0.306122
aaI98
aa(lp7108
I1
a(lp7109
F0.480769
aaI104
aaa(lp7110
S'scaffold25510_cov231'
p7111
aS'scaffold8365_cov240'
p7112
aa(lp7113
S'scaffold10_cov225'
p7114
aS'scaffold2901_cov252'
p7115
a(lp7116
I1
a(lp7117
F0.4
aaI65
aa(lp7118
I1
a(lp7119
F0.375
aaI72
aa(lp7120
I1
a(lp7121
F0.231884
aaI69
aaa(lp7122
S'scaffold2246_cov240'
p7123
aS'scaffold4949_cov266'
p7124
a(lp7125
I1
a(lp7126
F0.393162
aaI117
aaa(lp7127
S'scaffold3485_cov257'
p7128
aS'scaffold5461_cov213'
p7129
a(lp7130
I1
a(lp7131
F0.270588
aaI85
aa(lp7132
I1
a(lp7133
F0.24359
aaI78
aa(lp7134
I1
a(lp7135
F0.263158
aaI76
aa(lp7136
I1
a(lp7137
F0.424528
aaI106
aa(lp7138
I1
a(lp7139
F0.494118
aaI85
aa(lp7140
I1
a(lp7141
F0.360465
aaI86
aa(lp7142
I1
a(lp7143
F0.415584
aaI77
aa(lp7144
I1
a(lp7145
F0.26087
aaI69
aa(lp7146
I1
a(lp7147
F0.28169
aaI71
aa(lp7148
I1
a(lp7149
F0.243243
aaI74
aa(lp7150
I1
a(lp7151
F0.324675
aaI77
aa(lp7152
I1
a(lp7153
F0.225
aaI40
aa(lp7154
I1
a(lp7155
F0.289474
aaI76
aa(lp7156
I1
a(lp7157
F0.27451
aaI51
aa(lp7158
I1
a(lp7159
F0.320755
aaI53
aaa(lp7160
S'scaffold34868_cov282'
p7161
aS'scaffold8469_cov191'
p7162
aa(lp7163
S'scaffold3194_cov316'
p7164
aS'scaffold3195_cov270'
p7165
a(lp7166
I1
a(lp7167
F0.486486
aaI111
aa(lp7168
I1
a(lp7169
F0.435185
aaI108
aa(lp7170
I1
a(lp7171
F0.479167
aaI96
aaa(lp7172
S'scaffold14897_cov267'
p7173
aS'scaffold5330_cov257'
p7174
a(lp7175
I1
a(lp7176
F0.52381
aaI105
aa(lp7177
I1
a(lp7178
F0.218391
aaI87
aaa(lp7179
S'scaffold1044_cov225'
p7180
aS'scaffold21510_cov192'
p7181
aa(lp7182
S'scaffold10673_cov201'
p7183
aS'scaffold3680_cov185'
p7184
a(lp7185
I1
a(lp7186
F0.305882
aaI85
aa(lp7187
I1
a(lp7188
F0.418367
aaI98
aa(lp7189
I1
a(lp7190
F0.254237
aaI59
aa(lp7191
I1
a(lp7192
F0.283333
aaI60
aa(lp7193
I1
a(lp7194
F0.310345
aaI58
aa(lp7195
I1
a(lp7196
F0.370968
aaI62
aa(lp7197
I1
a(lp7198
F0.291139
aaI79
aa(lp7199
I1
a(lp7200
F0.25
aaI76
aa(lp7201
I1
a(lp7202
F0.405797
aaI69
aaa(lp7203
S'scaffold10547_cov289'
p7204
aS'scaffold11428_cov295'
p7205
a(lp7206
I1
a(lp7207
F0.5
aaI94
aaa(lp7208
S'scaffold5690_cov178'
p7209
aS'scaffold8992_cov141'
p7210
a(lp7211
I1
a(lp7212
F0.383721
aaI86
aa(lp7213
I1
a(lp7214
F0.318841
aaI69
aa(lp7215
I1
a(lp7216
F0.314286
aaI70
aaa(lp7217
S'scaffold1795_cov197'
p7218
aS'scaffold3646_cov176'
p7219
aa(lp7220
S'scaffold35739_cov310'
p7221
aS'scaffold9147_cov314'
p7222
aa(lp7223
S'scaffold10089_cov244'
p7224
aS'scaffold11805_cov225'
p7225
a(lp7226
I1
a(lp7227
F0.447917
aaI96
aa(lp7228
I1
a(lp7229
F0.320988
aaI81
aa(lp7230
I1
a(lp7231
F0.355263
aaI76
aaa(lp7232
S'scaffold19598_cov155'
p7233
aS'scaffold3188_cov246'
p7234
aa(lp7235
S'scaffold4966_cov298'
p7236
aS'scaffold5238_cov294'
p7237
a(lp7238
I1
a(lp7239
F0.36036
aaI444
aa(lp7240
I1
a(lp7241
F0.228395
aaI648
aa(lp7242
I1
a(lp7243
F0.375
aaI192
aa(lp7244
I1
a(lp7245
F0.418994
aaI179
aa(lp7246
I1
a(lp7247
F0.422222
aaI180
aa(lp7248
I1
a(lp7249
F0.212598
aaI127
aa(lp7250
I1
a(lp7251
F0.403409
aaI176
aaa(lp7252
S'scaffold314_cov314'
p7253
aS'scaffold315_cov308'
p7254
a(lp7255
I1
a(lp7256
F0.348624
aaI109
aa(lp7257
I1
a(lp7258
F0.367521
aaI117
aa(lp7259
I1
a(lp7260
F0.383333
aaI120
aa(lp7261
I1
a(lp7262
F0.552174
aaI230
aa(lp7263
I1
a(lp7264
F0.472362
aaI199
aa(lp7265
I1
a(lp7266
F0.205882
aaI136
aa(lp7267
I1
a(lp7268
F0.251969
aaI127
aa(lp7269
I1
a(lp7270
F0.44958
aaI238
aaa(lp7271
S'scaffold31451_cov239'
p7272
aS'scaffold644_cov199'
p7273
a(lp7274
I1
a(lp7275
F0.213333
aaI75
aa(lp7276
I1
a(lp7277
F0.445652
aaI92
aaa(lp7278
S'scaffold18214_cov222'
p7279
aS'scaffold3250_cov209'
p7280
a(lp7281
I1
a(lp7282
F0.509804
aaI102
aa(lp7283
I1
a(lp7284
F0.472527
aaI91
aa(lp7285
I1
a(lp7286
F0.322034
aaI59
aa(lp7287
I1
a(lp7288
F0.280702
aaI57
aa(lp7289
I1
a(lp7290
F0.266667
aaI75
aaa(lp7291
S'scaffold12737_cov227'
p7292
aS'scaffold5303_cov242'
p7293
a(lp7294
I1
a(lp7295
F0.421053
aaI95
aa(lp7296
I1
a(lp7297
F0.415385
aaI65
aa(lp7298
I1
a(lp7299
F0.397059
aaI68
aa(lp7300
I1
a(lp7301
F0.265306
aaI49
aa(lp7302
I1
a(lp7303
F0.265306
aaI49
aa(lp7304
I1
a(lp7305
F0.283333
aaI60
aa(lp7306
I1
a(lp7307
F0.242857
aaI70
aa(lp7308
I1
a(lp7309
F0.349398
aaI83
aa(lp7310
I1
a(lp7311
F0.388889
aaI90
aa(lp7312
I1
a(lp7313
F0.4625
aaI80
aa(lp7314
I1
a(lp7315
F0.468085
aaI94
aa(lp7316
I1
a(lp7317
F0.452632
aaI95
aa(lp7318
I1
a(lp7319
F0.494505
aaI91
aa(lp7320
I1
a(lp7321
F0.308642
aaI81
aa(lp7322
I1
a(lp7323
F0.316456
aaI79
aaa(lp7324
S'scaffold4452_cov272'
p7325
aS'scaffold7051_cov276'
p7326
a(lp7327
I1
a(lp7328
F0.463918
aaI97
aaa(lp7329
S'scaffold10520_cov256'
p7330
aS'scaffold4734_cov186'
p7331
a(lp7332
I1
a(lp7333
F0.494382
aaI89
aa(lp7334
I1
a(lp7335
F0.5
aaI96
aa(lp7336
I1
a(lp7337
F0.414894
aaI94
aa(lp7338
I1
a(lp7339
F0.22973
aaI74
aa(lp7340
I1
a(lp7341
F0.242424
aaI99
aaa(lp7342
S'scaffold4548_cov238'
p7343
aS'scaffold8091_cov211'
p7344
a(lp7345
I1
a(lp7346
F0.359223
aaI103
aa(lp7347
I1
a(lp7348
F0.253333
aaI75
aa(lp7349
I1
a(lp7350
F0.236842
aaI76
aaa(lp7351
S'scaffold305_cov293'
p7352
aS'scaffold437_cov301'
p7353
a(lp7354
I1
a(lp7355
F0.0
aaI85
aa(lp7356
I1
a(lp7357
F0.4375
aaI32
aa(lp7358
I1
a(lp7359
F0.277778
aaI36
aa(lp7360
I1
a(lp7361
F0.323529
aaI68
aaa(lp7362
S'scaffold34753_cov325'
p7363
aS'scaffold78_cov298'
p7364
a(lp7365
I1
a(lp7366
F0.445652
aaI92
aaa(lp7367
S'scaffold34809_cov225'
p7368
aS'scaffold34892_cov211'
p7369
aa(lp7370
S'scaffold10411_cov164'
p7371
aS'scaffold36055_cov189'
p7372
a(lp7373
I1
a(lp7374
F0.285714
aaI70
aa(lp7375
I1
a(lp7376
F0.460526
aaI76
aaa(lp7377
S'scaffold1228_cov289'
p7378
aS'scaffold294_cov265'
p7379
a(lp7380
I1
a(lp7381
F0.546875
aaI64
aa(lp7382
I1
a(lp7383
F0.402062
aaI97
aa(lp7384
I1
a(lp7385
F0.25
aaI64
aa(lp7386
I1
a(lp7387
F0.25
aaI40
aa(lp7388
I1
a(lp7389
F0.238095
aaI42
aa(lp7390
I1
a(lp7391
F0.428571
aaI35
aa(lp7392
I1
a(lp7393
F0.26
aaI50
aa(lp7394
I1
a(lp7395
F0.464286
aaI84
aa(lp7396
I1
a(lp7397
F0.473684
aaI76
aa(lp7398
I1
a(lp7399
F0.430556
aaI72
aaasg3251
(lp7400
(lp7401
g6059
ag6060
aa(lp7402
g6074
ag6075
a(lp7403
I1
a(lp7404
F0.575
aaI120
aa(lp7405
I1
a(lp7406
F0.390625
aaI128
aaa(lp7407
g6085
ag6086
a(lp7408
I1
a(lp7409
F0.325581
aaI86
aa(lp7410
I1
a(lp7411
F0.363636
aaI66
aa(lp7412
I1
a(lp7413
F0.377358
aaI53
aa(lp7414
I1
a(lp7415
F0.392157
aaI51
aa(lp7416
I1
a(lp7417
F0.423077
aaI52
aa(lp7418
I1
a(lp7419
F0.322222
aaI90
aa(lp7420
I1
a(lp7421
F0.444444
aaI108
aa(lp7422
I1
a(lp7423
F0.514851
aaI101
aa(lp7424
I1
a(lp7425
F0.439024
aaI82
aa(lp7426
I1
a(lp7427
F0.324324
aaI74
aa(lp7428
I1
a(lp7429
F0.313953
aaI86
aa(lp7430
I1
a(lp7431
F0.338235
aaI68
aaa(lp7432
g6104
ag6105
a(lp7433
I1
a(lp7434
F0.303797
aaI79
aa(lp7435
I1
a(lp7436
F0.298701
aaI77
aa(lp7437
I1
a(lp7438
F0.298701
aaI77
aa(lp7439
I1
a(lp7440
F0.0
aaI67
aa(lp7441
I1
a(lp7442
F0.317073
aaI82
aa(lp7443
I1
a(lp7444
F0.283951
aaI81
aa(lp7445
I1
a(lp7446
F0.366667
aaI90
aa(lp7447
I1
a(lp7448
F0.474227
aaI97
aa(lp7449
I1
a(lp7450
F0.314286
aaI70
aa(lp7451
I1
a(lp7452
F0.378378
aaI74
aaa(lp7453
g6139
ag6140
aa(lp7454
g6142
ag6143
aa(lp7455
g6145
ag6146
aa(lp7456
g6160
ag6161
aa(lp7457
g6189
ag6190
aa(lp7458
g6192
ag6193
a(lp7459
I1
a(lp7460
F0.504348
aaI115
aaa(lp7461
g6197
ag6198
aa(lp7462
g6208
ag6209
a(lp7463
I1
a(lp7464
F0.287671
aaI73
aa(lp7465
I1
a(lp7466
F0.263889
aaI72
aaa(lp7467
g6211
ag6212
aa(lp7468
g6214
ag6215
aa(lp7469
g6217
ag6218
aa(lp7470
g6220
ag6221
a(lp7471
I1
a(lp7472
F0.392157
aaI102
aa(lp7473
I1
a(lp7474
F0.459184
aaI98
aa(lp7475
I1
a(lp7476
F0.21875
aaI224
aa(lp7477
I1
a(lp7478
F0.218623
aaI247
aa(lp7479
I1
a(lp7480
F0.508403
aaI238
aa(lp7481
I1
a(lp7482
F0.326316
aaI95
aa(lp7483
I1
a(lp7484
F0.395062
aaI81
aa(lp7485
I1
a(lp7486
F0.316832
aaI101
aa(lp7487
I1
a(lp7488
F0.257426
aaI101
aa(lp7489
I1
a(lp7490
F0.330189
aaI106
aa(lp7491
I1
a(lp7492
F0.258621
aaI116
aa(lp7493
I1
a(lp7494
F0.241379
aaI116
aaa(lp7495
g6235
ag6236
aa(lp7496
g6238
ag6239
aa(lp7497
g6247
ag6248
a(lp7498
I1
a(lp7499
F0.32
aaI75
aa(lp7500
I1
a(lp7501
F0.320988
aaI81
aa(lp7502
I1
a(lp7503
F0.271429
aaI70
aa(lp7504
I1
a(lp7505
F0.284672
aaI137
aa(lp7506
I1
a(lp7507
F0.457447
aaI94
aa(lp7508
I1
a(lp7509
F0.508333
aaI120
aaa(lp7510
g6278
ag6279
a(lp7511
I1
a(lp7512
F0.304348
aaI92
aaa(lp7513
g6281
ag6282
aa(lp7514
g6292
ag6293
a(lp7515
I1
a(lp7516
F0.337838
aaI74
aa(lp7517
I1
a(lp7518
F0.36
aaI50
aaa(lp7519
g6313
ag6314
a(lp7520
I1
a(lp7521
F0.268293
aaI82
aa(lp7522
I1
a(lp7523
F0.240506
aaI79
aa(lp7524
I1
a(lp7525
F0.0
aaI48
aa(lp7526
I1
a(lp7527
F0.318841
aaI69
aaa(lp7528
g6328
ag6329
aa(lp7529
g6365
ag6366
a(lp7530
I1
a(lp7531
F0.364486
aaI107
aa(lp7532
I1
a(lp7533
F0.321429
aaI84
aa(lp7534
I1
a(lp7535
F0.3625
aaI80
aa(lp7536
I1
a(lp7537
F0.38961
aaI77
aa(lp7538
I1
a(lp7539
F0.609091
aaI110
aa(lp7540
I1
a(lp7541
F0.235294
aaI119
aaa(lp7542
g6372
ag6373
a(lp7543
I1
a(lp7544
F0.235294
aaI119
aaa(lp7545
g6391
ag6392
a(lp7546
I1
a(lp7547
F0.206349
aaI63
aa(lp7548
I1
a(lp7549
F0.3125
aaI80
aa(lp7550
I1
a(lp7551
F0.304878
aaI82
aa(lp7552
I1
a(lp7553
F0.291139
aaI79
aa(lp7554
I1
a(lp7555
F0.28
aaI75
aa(lp7556
I1
a(lp7557
F0.28
aaI75
aa(lp7558
I1
a(lp7559
F0.283582
aaI67
aa(lp7560
I1
a(lp7561
F0.287879
aaI66
aaa(lp7562
g6394
ag6395
aa(lp7563
g6397
ag6398
a(lp7564
I1
a(lp7565
F0.460674
aaI89
aaa(lp7566
g6400
ag6401
a(lp7567
I1
a(lp7568
F0.309859
aaI71
aa(lp7569
I1
a(lp7570
F0.504202
aaI119
aa(lp7571
I1
a(lp7572
F0.526316
aaI95
aa(lp7573
I1
a(lp7574
F0.45098
aaI102
aaa(lp7575
g6403
ag6404
a(lp7576
I1
a(lp7577
F0.357143
aaI84
aa(lp7578
I1
a(lp7579
F0.227273
aaI66
aaa(lp7580
g6406
ag6407
aa(lp7581
g6417
ag6418
a(lp7582
I1
a(lp7583
F0.375
aaI80
aa(lp7584
I1
a(lp7585
F0.415584
aaI77
aa(lp7586
I1
a(lp7587
F0.459459
aaI74
aa(lp7588
I1
a(lp7589
F0.5
aaI76
aa(lp7590
I1
a(lp7591
F0.423529
aaI85
aa(lp7592
I1
a(lp7593
F0.460784
aaI102
aa(lp7594
I1
a(lp7595
F0.246753
aaI77
aa(lp7596
I1
a(lp7597
F0.289474
aaI76
aa(lp7598
I1
a(lp7599
F0.5
aaI116
aa(lp7600
I1
a(lp7601
F0.455357
aaI112
aa(lp7602
I1
a(lp7603
F0.386667
aaI75
aaa(lp7604
g6460
ag6461
aa(lp7605
g6475
ag6476
a(lp7606
I1
a(lp7607
F0.447619
aaI105
aa(lp7608
I1
a(lp7609
F0.333333
aaI96
aa(lp7610
I1
a(lp7611
F0.395604
aaI91
aa(lp7612
I1
a(lp7613
F0.352273
aaI88
aa(lp7614
I1
a(lp7615
F0.378378
aaI74
aaa(lp7616
g6482
ag6483
a(lp7617
I1
a(lp7618
F0.202703
aaI74
aa(lp7619
I1
a(lp7620
F0.318841
aaI69
aa(lp7621
I1
a(lp7622
F0.406593
aaI91
aa(lp7623
I1
a(lp7624
F0.376147
aaI109
aa(lp7625
I1
a(lp7626
F0.386667
aaI75
aa(lp7627
I1
a(lp7628
F0.391892
aaI74
aa(lp7629
I1
a(lp7630
F0.571429
aaI84
aa(lp7631
I1
a(lp7632
F0.604651
aaI86
aa(lp7633
I1
a(lp7634
F0.445545
aaI101
aa(lp7635
I1
a(lp7636
F0.272727
aaI88
aa(lp7637
I1
a(lp7638
F0.294118
aaI85
aa(lp7639
I1
a(lp7640
F0.333333
aaI84
aa(lp7641
I1
a(lp7642
F0.3
aaI80
aa(lp7643
I1
a(lp7644
F0.349398
aaI83
aa(lp7645
I1
a(lp7646
F0.25
aaI68
aa(lp7647
I1
a(lp7648
F0.30137
aaI73
aa(lp7649
I1
a(lp7650
F0.216216
aaI74
aa(lp7651
I1
a(lp7652
F0.210526
aaI76
aaa(lp7653
g6509
ag6510
a(lp7654
I1
a(lp7655
F0.352113
aaI71
aa(lp7656
I1
a(lp7657
F0.484211
aaI95
aa(lp7658
I1
a(lp7659
F0.4
aaI90
aa(lp7660
I1
a(lp7661
F0.421053
aaI95
aa(lp7662
I1
a(lp7663
F0.463918
aaI97
aa(lp7664
I1
a(lp7665
F0.488
aaI125
aa(lp7666
I1
a(lp7667
F0.492647
aaI136
aa(lp7668
I1
a(lp7669
F0.352113
aaI71
aa(lp7670
I1
a(lp7671
F0.2
aaI70
aa(lp7672
I1
a(lp7673
F0.272727
aaI55
aa(lp7674
I1
a(lp7675
F0.254237
aaI59
aa(lp7676
I1
a(lp7677
F0.454545
aaI55
aa(lp7678
I1
a(lp7679
F0.506494
aaI77
aaa(lp7680
g6518
ag6519
aa(lp7681
g6521
ag6522
a(lp7682
I1
a(lp7683
F0.504505
aaI111
aa(lp7684
I1
a(lp7685
F0.494845
aaI97
aa(lp7686
I1
a(lp7687
F0.490741
aaI108
aa(lp7688
I1
a(lp7689
F0.364706
aaI85
aa(lp7690
I1
a(lp7691
F0.379562
aaI137
aa(lp7692
I1
a(lp7693
F0.258741
aaI143
aa(lp7694
I1
a(lp7695
F0.206897
aaI116
aaa(lp7696
g6528
ag6529
a(lp7697
I1
a(lp7698
F0.494505
aaI91
aa(lp7699
I1
a(lp7700
F0.494949
aaI99
aa(lp7701
I1
a(lp7702
F0.205128
aaI39
aa(lp7703
I1
a(lp7704
F0.21875
aaI64
aa(lp7705
I1
a(lp7706
F0.222222
aaI63
aa(lp7707
I1
a(lp7708
F0.224138
aaI58
aa(lp7709
I1
a(lp7710
F0.233333
aaI60
aaa(lp7711
g6589
ag6590
a(lp7712
I1
a(lp7713
F0.494949
aaI99
aa(lp7714
I1
a(lp7715
F0.443478
aaI115
aa(lp7716
I1
a(lp7717
F0.347222
aaI72
aaa(lp7718
g6592
ag6593
a(lp7719
I1
a(lp7720
F0.216667
aaI60
aa(lp7721
I1
a(lp7722
F0.394737
aaI76
aa(lp7723
I1
a(lp7724
F0.429907
aaI107
aa(lp7725
I1
a(lp7726
F0.329545
aaI88
aa(lp7727
I1
a(lp7728
F0.358025
aaI81
aa(lp7729
I1
a(lp7730
F0.333333
aaI69
aa(lp7731
I1
a(lp7732
F0.469388
aaI98
aa(lp7733
I1
a(lp7734
F0.3375
aaI80
aa(lp7735
I1
a(lp7736
F0.0
aaI63
aa(lp7737
I1
a(lp7738
F0.468468
aaI111
aa(lp7739
I1
a(lp7740
F0.505155
aaI97
aa(lp7741
I1
a(lp7742
F0.452055
aaI73
aa(lp7743
I1
a(lp7744
F0.328571
aaI70
aaa(lp7745
g6623
ag6624
a(lp7746
I1
a(lp7747
F0.362069
aaI58
aaa(lp7748
g6626
ag6627
a(lp7749
I1
a(lp7750
F0.25
aaI68
aa(lp7751
I1
a(lp7752
F0.279412
aaI68
aa(lp7753
I1
a(lp7754
F0.525
aaI80
aa(lp7755
I1
a(lp7756
F0.461538
aaI78
aa(lp7757
I1
a(lp7758
F0.454545
aaI77
aa(lp7759
I1
a(lp7760
F0.428571
aaI70
aa(lp7761
I1
a(lp7762
F0.384615
aaI65
aa(lp7763
I1
a(lp7764
F0.382353
aaI68
aa(lp7765
I1
a(lp7766
F0.447368
aaI76
aa(lp7767
I1
a(lp7768
F0.461538
aaI78
aa(lp7769
I1
a(lp7770
F0.45679
aaI81
aa(lp7771
I1
a(lp7772
F0.408451
aaI71
aa(lp7773
I1
a(lp7774
F0.407895
aaI76
aa(lp7775
I1
a(lp7776
F0.43956
aaI91
aa(lp7777
I1
a(lp7778
F0.305085
aaI59
aa(lp7779
I1
a(lp7780
F0.362069
aaI58
aa(lp7781
I1
a(lp7782
F0.33871
aaI62
aa(lp7783
I1
a(lp7784
F0.327869
aaI61
aa(lp7785
I1
a(lp7786
F0.349206
aaI63
aa(lp7787
I1
a(lp7788
F0.295775
aaI71
aa(lp7789
I1
a(lp7790
F0.304348
aaI69
aa(lp7791
I1
a(lp7792
F0.253731
aaI67
aa(lp7793
I1
a(lp7794
F0.246154
aaI65
aa(lp7795
I1
a(lp7796
F0.285714
aaI77
aa(lp7797
I1
a(lp7798
F0.298507
aaI67
aa(lp7799
I1
a(lp7800
F0.222222
aaI63
aa(lp7801
I1
a(lp7802
F0.233333
aaI60
aa(lp7803
I1
a(lp7804
F0.25
aaI60
aa(lp7805
I1
a(lp7806
F0.254237
aaI59
aa(lp7807
I1
a(lp7808
F0.303571
aaI56
aa(lp7809
I1
a(lp7810
F0.272727
aaI66
aa(lp7811
I1
a(lp7812
F0.278689
aaI61
aa(lp7813
I1
a(lp7814
F0.365385
aaI52
aa(lp7815
I1
a(lp7816
F0.388889
aaI54
aa(lp7817
I1
a(lp7818
F0.355556
aaI45
aa(lp7819
I1
a(lp7820
F0.283019
aaI53
aa(lp7821
I1
a(lp7822
F0.285714
aaI56
aa(lp7823
I1
a(lp7824
F0.245283
aaI53
aa(lp7825
I1
a(lp7826
F0.218182
aaI55
aa(lp7827
I1
a(lp7828
F0.28125
aaI64
aa(lp7829
I1
a(lp7830
F0.328571
aaI70
aa(lp7831
I1
a(lp7832
F0.36
aaI75
aa(lp7833
I1
a(lp7834
F0.304348
aaI69
aa(lp7835
I1
a(lp7836
F0.231707
aaI82
aa(lp7837
I1
a(lp7838
F0.257576
aaI66
aa(lp7839
I1
a(lp7840
F0.25
aaI80
aa(lp7841
I1
a(lp7842
F0.346667
aaI75
aa(lp7843
I1
a(lp7844
F0.358974
aaI78
aa(lp7845
I1
a(lp7846
F0.413043
aaI92
aa(lp7847
I1
a(lp7848
F0.258427
aaI89
aa(lp7849
I1
a(lp7850
F0.28866
aaI97
aaa(lp7851
g6689
ag6690
aa(lp7852
g6692
ag6693
a(lp7853
I1
a(lp7854
F0.423077
aaI104
aa(lp7855
I1
a(lp7856
F0.431373
aaI102
aa(lp7857
I1
a(lp7858
F0.417722
aaI79
aa(lp7859
I1
a(lp7860
F0.421053
aaI95
aa(lp7861
I1
a(lp7862
F0.214286
aaI70
aa(lp7863
I1
a(lp7864
F0.353846
aaI65
aa(lp7865
I1
a(lp7866
F0.338983
aaI59
aa(lp7867
I1
a(lp7868
F0.457831
aaI83
aa(lp7869
I1
a(lp7870
F0.454545
aaI88
aa(lp7871
I1
a(lp7872
F0.283582
aaI67
aa(lp7873
I1
a(lp7874
F0.26506
aaI83
aa(lp7875
I1
a(lp7876
F0.392857
aaI84
aa(lp7877
I1
a(lp7878
F0.438202
aaI89
aa(lp7879
I1
a(lp7880
F0.515789
aaI95
aa(lp7881
I1
a(lp7882
F0.385542
aaI83
aa(lp7883
I1
a(lp7884
F0.329114
aaI79
aa(lp7885
I1
a(lp7886
F0.32
aaI75
aa(lp7887
I1
a(lp7888
F0.346667
aaI75
aa(lp7889
I1
a(lp7890
F0.378378
aaI74
aa(lp7891
I1
a(lp7892
F0.237288
aaI59
aa(lp7893
I1
a(lp7894
F0.232143
aaI56
aa(lp7895
I1
a(lp7896
F0.287879
aaI66
aa(lp7897
I1
a(lp7898
F0.373494
aaI83
aa(lp7899
I1
a(lp7900
F0.309735
aaI113
aa(lp7901
I1
a(lp7902
F0.357143
aaI70
aa(lp7903
I1
a(lp7904
F0.375
aaI64
aa(lp7905
I1
a(lp7906
F0.35
aaI60
aa(lp7907
I1
a(lp7908
F0.33871
aaI62
aa(lp7909
I1
a(lp7910
F0.441176
aaI68
aa(lp7911
I1
a(lp7912
F0.433333
aaI90
aa(lp7913
I1
a(lp7914
F0.445783
aaI83
aa(lp7915
I1
a(lp7916
F0.408163
aaI98
aa(lp7917
I1
a(lp7918
F0.526316
aaI76
aa(lp7919
I1
a(lp7920
F0.602273
aaI88
aa(lp7921
I1
a(lp7922
F0.641304
aaI92
aa(lp7923
I1
a(lp7924
F0.630435
aaI92
aa(lp7925
I1
a(lp7926
F0.555556
aaI99
aa(lp7927
I1
a(lp7928
F0.431579
aaI95
aa(lp7929
I1
a(lp7930
F0.452632
aaI95
aa(lp7931
I1
a(lp7932
F0.367647
aaI68
aa(lp7933
I1
a(lp7934
F0.217391
aaI69
aa(lp7935
I1
a(lp7936
F0.405405
aaI74
aa(lp7937
I1
a(lp7938
F0.38961
aaI77
aa(lp7939
I1
a(lp7940
F0.337079
aaI89
aa(lp7941
I1
a(lp7942
F0.205882
aaI68
aaa(lp7943
g6765
ag6766
a(lp7944
I1
a(lp7945
F0.333333
aaI78
aa(lp7946
I1
a(lp7947
F0.391892
aaI74
aa(lp7948
I1
a(lp7949
F0.397059
aaI68
aaa(lp7950
g6768
ag6769
a(lp7951
I1
a(lp7952
F0.46
aaI100
aa(lp7953
I1
a(lp7954
F0.512821
aaI78
aa(lp7955
I1
a(lp7956
F0.533333
aaI90
aa(lp7957
I1
a(lp7958
F0.308642
aaI81
aa(lp7959
I1
a(lp7960
F0.333333
aaI72
aa(lp7961
I1
a(lp7962
F0.3375
aaI80
aa(lp7963
I1
a(lp7964
F0.341176
aaI85
aa(lp7965
I1
a(lp7966
F0.397727
aaI88
aa(lp7967
I1
a(lp7968
F0.367816
aaI87
aa(lp7969
I1
a(lp7970
F0.294118
aaI85
aa(lp7971
I1
a(lp7972
F0.363636
aaI88
aa(lp7973
I1
a(lp7974
F0.390244
aaI82
aa(lp7975
I1
a(lp7976
F0.209877
aaI81
aa(lp7977
I1
a(lp7978
F0.207317
aaI82
aa(lp7979
I1
a(lp7980
F0.292683
aaI82
aaa(lp7981
g6771
ag6772
a(lp7982
I1
a(lp7983
F0.438356
aaI73
aa(lp7984
I1
a(lp7985
F0.3
aaI90
aa(lp7986
I1
a(lp7987
F0.287879
aaI66
aa(lp7988
I1
a(lp7989
F0.372881
aaI59
aa(lp7990
I1
a(lp7991
F0.342857
aaI70
aa(lp7992
I1
a(lp7993
F0.328767
aaI73
aa(lp7994
I1
a(lp7995
F0.373626
aaI91
aa(lp7996
I1
a(lp7997
F0.290323
aaI93
aa(lp7998
I1
a(lp7999
F0.307692
aaI104
aa(lp8000
I1
a(lp8001
F0.247525
aaI101
aa(lp8002
I1
a(lp8003
F0.242424
aaI99
aa(lp8004
I1
a(lp8005
F0.375
aaI80
aa(lp8006
I1
a(lp8007
F0.328358
aaI67
aa(lp8008
I1
a(lp8009
F0.274194
aaI62
aa(lp8010
I1
a(lp8011
F0.278689
aaI61
aa(lp8012
I1
a(lp8013
F0.234783
aaI115
aa(lp8014
I1
a(lp8015
F0.404762
aaI84
aa(lp8016
I1
a(lp8017
F0.5125
aaI80
aa(lp8018
I1
a(lp8019
F0.322222
aaI90
aa(lp8020
I1
a(lp8021
F0.294737
aaI95
aaa(lp8022
g6808
ag6809
a(lp8023
I1
a(lp8024
F0.505051
aaI99
aa(lp8025
I1
a(lp8026
F0.42
aaI100
aa(lp8027
I1
a(lp8028
F0.482456
aaI114
aa(lp8029
I1
a(lp8030
F0.0
aaI147
aa(lp8031
I1
a(lp8032
F0.392405
aaI79
aa(lp8033
I1
a(lp8034
F0.404494
aaI89
aa(lp8035
I1
a(lp8036
F0.0
aaI84
aa(lp8037
I1
a(lp8038
F0.275362
aaI69
aa(lp8039
I1
a(lp8040
F0.509804
aaI102
aa(lp8041
I1
a(lp8042
F0.375
aaI80
aa(lp8043
I1
a(lp8044
F0.368421
aaI76
aa(lp8045
I1
a(lp8046
F0.455556
aaI90
aa(lp8047
I1
a(lp8048
F0.493506
aaI77
aa(lp8049
I1
a(lp8050
F0.423913
aaI92
aaa(lp8051
g6873
ag6874
a(lp8052
I1
a(lp8053
F0.288136
aaI59
aa(lp8054
I1
a(lp8055
F0.338983
aaI59
aa(lp8056
I1
a(lp8057
F0.222222
aaI54
aa(lp8058
I1
a(lp8059
F0.532609
aaI92
aa(lp8060
I1
a(lp8061
F0.477064
aaI109
aa(lp8062
I1
a(lp8063
F0.355932
aaI59
aa(lp8064
I1
a(lp8065
F0.366667
aaI60
aa(lp8066
I1
a(lp8067
F0.363636
aaI77
aa(lp8068
I1
a(lp8069
F0.333333
aaI81
aaa(lp8070
g6880
ag6881
aa(lp8071
g6895
ag6896
a(lp8072
I1
a(lp8073
F0.222973
aaI148
aa(lp8074
I1
a(lp8075
F0.537634
aaI93
aa(lp8076
I1
a(lp8077
F0.367925
aaI106
aa(lp8078
I1
a(lp8079
F0.32
aaI75
aa(lp8080
I1
a(lp8081
F0.27381
aaI84
aa(lp8082
I1
a(lp8083
F0.391304
aaI92
aaa(lp8084
g6902
ag6903
aa(lp8085
g6909
ag6910
a(lp8086
I1
a(lp8087
F0.470588
aaI102
aa(lp8088
I1
a(lp8089
F0.53125
aaI96
aa(lp8090
I1
a(lp8091
F0.396396
aaI111
aa(lp8092
I1
a(lp8093
F0.364238
aaI151
aa(lp8094
I1
a(lp8095
F0.228261
aaI92
aa(lp8096
I1
a(lp8097
F0.390805
aaI87
aa(lp8098
I1
a(lp8099
F0.395349
aaI86
aa(lp8100
I1
a(lp8101
F0.453782
aaI119
aa(lp8102
I1
a(lp8103
F0.337079
aaI89
aa(lp8104
I1
a(lp8105
F0.339806
aaI103
aa(lp8106
I1
a(lp8107
F0.465753
aaI73
aa(lp8108
I1
a(lp8109
F0.4
aaI90
aa(lp8110
I1
a(lp8111
F0.581633
aaI98
aaa(lp8112
g6920
ag6921
aa(lp8113
g6929
ag6930
a(lp8114
I1
a(lp8115
F0.445545
aaI101
aa(lp8116
I1
a(lp8117
F0.474747
aaI99
aa(lp8118
I1
a(lp8119
F0.474227
aaI97
aaa(lp8120
g6950
ag6951
a(lp8121
I1
a(lp8122
F0.409091
aaI66
aa(lp8123
I1
a(lp8124
F0.4
aaI70
aa(lp8125
I1
a(lp8126
F0.3875
aaI80
aa(lp8127
I1
a(lp8128
F0.455696
aaI79
aa(lp8129
I1
a(lp8130
F0.376238
aaI101
aa(lp8131
I1
a(lp8132
F0.363636
aaI77
aa(lp8133
I1
a(lp8134
F0.425287
aaI87
aa(lp8135
I1
a(lp8136
F0.319588
aaI97
aa(lp8137
I1
a(lp8138
F0.475728
aaI103
aa(lp8139
I1
a(lp8140
F0.4
aaI65
aa(lp8141
I1
a(lp8142
F0.383562
aaI73
aa(lp8143
I1
a(lp8144
F0.378378
aaI74
aa(lp8145
I1
a(lp8146
F0.444444
aaI99
aa(lp8147
I1
a(lp8148
F0.447917
aaI96
aa(lp8149
I1
a(lp8150
F0.309859
aaI71
aa(lp8151
I1
a(lp8152
F0.259259
aaI81
aa(lp8153
I1
a(lp8154
F0.361446
aaI83
aa(lp8155
I1
a(lp8156
F0.388889
aaI72
aa(lp8157
I1
a(lp8158
F0.408451
aaI71
aa(lp8159
I1
a(lp8160
F0.328358
aaI67
aa(lp8161
I1
a(lp8162
F0.324324
aaI74
aa(lp8163
I1
a(lp8164
F0.369863
aaI73
aa(lp8165
I1
a(lp8166
F0.507692
aaI130
aa(lp8167
I1
a(lp8168
F0.395833
aaI96
aa(lp8169
I1
a(lp8170
F0.3375
aaI80
aa(lp8171
I1
a(lp8172
F0.365854
aaI82
aa(lp8173
I1
a(lp8174
F0.313253
aaI83
aa(lp8175
I1
a(lp8176
F0.361111
aaI72
aa(lp8177
I1
a(lp8178
F0.6
aaI105
aaa(lp8179
g6983
ag6984
aa(lp8180
g6986
ag6987
aa(lp8181
g6993
ag6994
a(lp8182
I1
a(lp8183
F0.43
aaI100
aa(lp8184
I1
a(lp8185
F0.424242
aaI99
aa(lp8186
I1
a(lp8187
F0.418367
aaI98
aa(lp8188
I1
a(lp8189
F0.371429
aaI105
aa(lp8190
I1
a(lp8191
F0.367521
aaI117
aa(lp8192
I1
a(lp8193
F0.494949
aaI99
aa(lp8194
I1
a(lp8195
F0.408451
aaI142
aaa(lp8196
g7070
ag7071
aa(lp8197
g7073
ag7074
a(lp8198
I1
a(lp8199
F0.333333
aaI54
aa(lp8200
I1
a(lp8201
F0.327586
aaI58
aa(lp8202
I1
a(lp8203
F0.518987
aaI79
aa(lp8204
I1
a(lp8205
F0.45122
aaI82
aa(lp8206
I1
a(lp8207
F0.455696
aaI79
aa(lp8208
I1
a(lp8209
F0.45122
aaI82
aa(lp8210
I1
a(lp8211
F0.471264
aaI87
aa(lp8212
I1
a(lp8213
F0.211268
aaI71
aa(lp8214
I1
a(lp8215
F0.246154
aaI65
aa(lp8216
I1
a(lp8217
F0.231884
aaI69
aa(lp8218
I1
a(lp8219
F0.215385
aaI65
aa(lp8220
I1
a(lp8221
F0.392857
aaI84
aa(lp8222
I1
a(lp8223
F0.814208
aaI183
aa(lp8224
I1
a(lp8225
F0.2
aaI60
aaa(lp8226
g7076
ag7077
aa(lp8227
g7099
ag7100
aa(lp8228
g7102
ag7103
aa(lp8229
g7111
ag7112
aa(lp8230
g7114
ag7115
a(lp8231
I1
a(lp8232
F0.531915
aaI94
aa(lp8233
I1
a(lp8234
F0.25
aaI92
aa(lp8235
I1
a(lp8236
F0.297619
aaI84
aaa(lp8237
g7123
ag7124
aa(lp8238
g7128
ag7129
a(lp8239
I1
a(lp8240
F0.287879
aaI66
aa(lp8241
I1
a(lp8242
F0.275362
aaI69
aa(lp8243
I1
a(lp8244
F0.526786
aaI112
aa(lp8245
I1
a(lp8246
F0.532609
aaI92
aa(lp8247
I1
a(lp8248
F0.520833
aaI96
aa(lp8249
I1
a(lp8250
F0.465116
aaI86
aa(lp8251
I1
a(lp8252
F0.414414
aaI111
aa(lp8253
I1
a(lp8254
F0.539216
aaI102
aa(lp8255
I1
a(lp8256
F0.489362
aaI94
aa(lp8257
I1
a(lp8258
F0.361702
aaI94
aa(lp8259
I1
a(lp8260
F0.406977
aaI86
aa(lp8261
I1
a(lp8262
F0.380952
aaI105
aa(lp8263
I1
a(lp8264
F0.357143
aaI98
aa(lp8265
I1
a(lp8266
F0.34
aaI100
aa(lp8267
I1
a(lp8268
F0.438356
aaI73
aa(lp8269
I1
a(lp8270
F0.373134
aaI67
aa(lp8271
I1
a(lp8272
F0.361446
aaI83
aa(lp8273
I1
a(lp8274
F0.288591
aaI149
aa(lp8275
I1
a(lp8276
F0.25
aaI144
aa(lp8277
I1
a(lp8278
F0.25
aaI136
aa(lp8279
I1
a(lp8280
F0.353659
aaI82
aa(lp8281
I1
a(lp8282
F0.25
aaI60
aa(lp8283
I1
a(lp8284
F0.220588
aaI68
aa(lp8285
I1
a(lp8286
F0.287671
aaI73
aa(lp8287
I1
a(lp8288
F0.338235
aaI68
aa(lp8289
I1
a(lp8290
F0.333333
aaI75
aa(lp8291
I1
a(lp8292
F0.337838
aaI74
aa(lp8293
I1
a(lp8294
F0.208333
aaI72
aa(lp8295
I1
a(lp8296
F0.238806
aaI67
aa(lp8297
I1
a(lp8298
F0.258065
aaI62
aa(lp8299
I1
a(lp8300
F0.3375
aaI80
aa(lp8301
I1
a(lp8302
F0.211765
aaI85
aa(lp8303
I1
a(lp8304
F0.308642
aaI81
aa(lp8305
I1
a(lp8306
F0.257143
aaI70
aa(lp8307
I1
a(lp8308
F0.272727
aaI77
aa(lp8309
I1
a(lp8310
F0.468687
aaI495
aa(lp8311
I1
a(lp8312
F0.364865
aaI74
aa(lp8313
I1
a(lp8314
F0.294118
aaI68
aa(lp8315
I1
a(lp8316
F0.217391
aaI115
aa(lp8317
I1
a(lp8318
F0.314286
aaI105
aa(lp8319
I1
a(lp8320
F0.293333
aaI75
aa(lp8321
I1
a(lp8322
F0.234043
aaI47
aa(lp8323
I1
a(lp8324
F0.207547
aaI53
aa(lp8325
I1
a(lp8326
F0.211111
aaI90
aa(lp8327
I1
a(lp8328
F0.202532
aaI79
aaa(lp8329
g7161
ag7162
aa(lp8330
g7164
ag7165
a(lp8331
I1
a(lp8332
F0.428571
aaI91
aa(lp8333
I1
a(lp8334
F0.44086
aaI93
aa(lp8335
I1
a(lp8336
F0.461538
aaI104
aa(lp8337
I1
a(lp8338
F0.444444
aaI117
aa(lp8339
I1
a(lp8340
F0.469027
aaI113
aa(lp8341
I1
a(lp8342
F0.5
aaI116
aa(lp8343
I1
a(lp8344
F0.48
aaI100
aaa(lp8345
g7173
ag7174
aa(lp8346
g7180
ag7181
a(lp8347
I1
a(lp8348
F0.223684
aaI76
aa(lp8349
I1
a(lp8350
F0.226667
aaI75
aa(lp8351
I1
a(lp8352
F0.220779
aaI77
aa(lp8353
I1
a(lp8354
F0.220588
aaI68
aa(lp8355
I1
a(lp8356
F0.370968
aaI62
aaa(lp8357
g7183
ag7184
a(lp8358
I1
a(lp8359
F0.272727
aaI77
aa(lp8360
I1
a(lp8361
F0.0
aaI71
aa(lp8362
I1
a(lp8363
F0.255319
aaI47
aa(lp8364
I1
a(lp8365
F0.25
aaI44
aa(lp8366
I1
a(lp8367
F0.28
aaI50
aa(lp8368
I1
a(lp8369
F0.0
aaI77
aa(lp8370
I1
a(lp8371
F0.309859
aaI71
aaa(lp8372
g7204
ag7205
a(lp8373
I1
a(lp8374
F0.5
aaI88
aa(lp8375
I1
a(lp8376
F0.4
aaI115
aa(lp8377
I1
a(lp8378
F0.469388
aaI98
aa(lp8379
I1
a(lp8380
F0.420561
aaI107
aa(lp8381
I1
a(lp8382
F0.354839
aaI62
aa(lp8383
I1
a(lp8384
F0.364583
aaI96
aa(lp8385
I1
a(lp8386
F0.563107
aaI103
aa(lp8387
I1
a(lp8388
F0.478261
aaI92
aa(lp8389
I1
a(lp8390
F0.505495
aaI91
aa(lp8391
I1
a(lp8392
F0.309524
aaI84
aaa(lp8393
g7209
ag7210
aa(lp8394
g7218
ag7219
a(lp8395
I1
a(lp8396
F0.270588
aaI85
aa(lp8397
I1
a(lp8398
F0.226804
aaI97
aa(lp8399
I1
a(lp8400
F0.283784
aaI74
aa(lp8401
I1
a(lp8402
F0.253333
aaI75
aa(lp8403
I1
a(lp8404
F0.253521
aaI142
aaa(lp8405
g7221
ag7222
aa(lp8406
g7224
ag7225
a(lp8407
I1
a(lp8408
F0.45082
aaI122
aa(lp8409
I1
a(lp8410
F0.438017
aaI121
aa(lp8411
I1
a(lp8412
F0.471698
aaI106
aa(lp8413
I1
a(lp8414
F0.309524
aaI84
aa(lp8415
I1
a(lp8416
F0.541667
aaI96
aa(lp8417
I1
a(lp8418
F0.425743
aaI101
aaa(lp8419
g7233
ag7234
aa(lp8420
g7236
ag7237
a(lp8421
I1
a(lp8422
F0.244755
aaI143
aaa(lp8423
g7253
ag7254
aa(lp8424
g7272
ag7273
a(lp8425
I1
a(lp8426
F0.526316
aaI114
aaa(lp8427
g7279
ag7280
aa(lp8428
g7292
ag7293
a(lp8429
I1
a(lp8430
F0.362745
aaI102
aa(lp8431
I1
a(lp8432
F0.462264
aaI106
aa(lp8433
I1
a(lp8434
F0.423913
aaI92
aa(lp8435
I1
a(lp8436
F0.431193
aaI109
aa(lp8437
I1
a(lp8438
F0.422018
aaI109
aa(lp8439
I1
a(lp8440
F0.412844
aaI109
aa(lp8441
I1
a(lp8442
F0.24359
aaI78
aa(lp8443
I1
a(lp8444
F0.246753
aaI77
aa(lp8445
I1
a(lp8446
F0.25
aaI60
aa(lp8447
I1
a(lp8448
F0.26087
aaI69
aa(lp8449
I1
a(lp8450
F0.318841
aaI69
aa(lp8451
I1
a(lp8452
F0.257143
aaI70
aa(lp8453
I1
a(lp8454
F0.222222
aaI63
aa(lp8455
I1
a(lp8456
F0.341772
aaI79
aa(lp8457
I1
a(lp8458
F0.324324
aaI74
aa(lp8459
I1
a(lp8460
F0.409091
aaI66
aaa(lp8461
g7325
ag7326
a(lp8462
I1
a(lp8463
F0.494737
aaI95
aaa(lp8464
g7330
ag7331
a(lp8465
I1
a(lp8466
F0.244186
aaI86
aaa(lp8467
g7343
ag7344
a(lp8468
I1
a(lp8469
F0.202381
aaI84
aa(lp8470
I1
a(lp8471
F0.202703
aaI74
aa(lp8472
I1
a(lp8473
F0.567568
aaI111
aa(lp8474
I1
a(lp8475
F0.276596
aaI94
aa(lp8476
I1
a(lp8477
F0.333333
aaI102
aaa(lp8478
g7352
ag7353
aa(lp8479
g7363
ag7364
a(lp8480
I1
a(lp8481
F0.216049
aaI162
aaa(lp8482
g7368
ag7369
a(lp8483
I1
a(lp8484
F0.445946
aaI74
aa(lp8485
I1
a(lp8486
F0.481481
aaI135
aa(lp8487
I1
a(lp8488
F0.512821
aaI117
aa(lp8489
I1
a(lp8490
F0.337662
aaI77
aa(lp8491
I1
a(lp8492
F0.337662
aaI77
aa(lp8493
I1
a(lp8494
F0.306667
aaI75
aa(lp8495
I1
a(lp8496
F0.310811
aaI74
aa(lp8497
I1
a(lp8498
F0.346667
aaI75
aa(lp8499
I1
a(lp8500
F0.310811
aaI74
aa(lp8501
I1
a(lp8502
F0.410526
aaI95
aa(lp8503
I1
a(lp8504
F0.4125
aaI80
aa(lp8505
I1
a(lp8506
F0.211268
aaI71
aaa(lp8507
g7371
ag7372
a(lp8508
I1
a(lp8509
F0.208955
aaI67
aaa(lp8510
g7378
ag7379
aass.