(dp0
S'triploids'
p1
(dp2
S'down'
p3
(lp4
(lp5
S'scaffold167486_cov93'
p6
aS'scaffold32268_cov68'
p7
aa(lp8
S'scaffold3954_cov94'
p9
aS'scaffold73744_cov62'
p10
aa(lp11
S'scaffold13284_cov147'
p12
aS'scaffold23977_cov68'
p13
aa(lp14
S'scaffold15895_cov77'
p15
aS'scaffold49814_cov72'
p16
aa(lp17
S'scaffold10148_cov99'
p18
aS'scaffold6498_cov76'
p19
a(lp20
I1
a(lp21
F0.390244
aaI41
aa(lp22
I1
a(lp23
F0.390244
aaI41
aa(lp24
I1
a(lp25
F0.242424
aaI33
aa(lp26
I1
a(lp27
F0.325
aaI40
aa(lp28
I1
a(lp29
F0.413793
aaI29
aa(lp30
I1
a(lp31
F0.46875
aaI32
aa(lp32
I1
a(lp33
F0.448276
aaI29
aa(lp34
I1
a(lp35
F0.458333
aaI48
aa(lp36
I1
a(lp37
F0.464286
aaI56
aa(lp38
I1
a(lp39
F0.44
aaI50
aa(lp40
I1
a(lp41
F0.25
aaI32
aa(lp42
I1
a(lp43
F0.282051
aaI39
aa(lp44
I1
a(lp45
F0.340909
aaI44
aa(lp46
I1
a(lp47
F0.253968
aaI63
aaa(lp48
S'scaffold2658_cov137'
p49
aS'scaffold4421_cov66'
p50
a(lp51
I1
a(lp52
F0.0
aaI26
aaa(lp53
S'scaffold8528_cov135'
p54
aS'scaffold10431_cov72'
p55
aa(lp56
S'scaffold160792_cov138'
p57
aS'scaffold90278_cov81'
p58
a(lp59
I1
a(lp60
F0.513514
aaI74
aaa(lp61
S'scaffold6934_cov101'
p62
aS'scaffold5476_cov91'
p63
aa(lp64
S'scaffold167467_cov101'
p65
aS'scaffold67159_cov68'
p66
aa(lp67
S'scaffold13631_cov149'
p68
aS'scaffold1043_cov70'
p69
aa(lp70
S'scaffold4095_cov147'
p71
aS'scaffold1076_cov67'
p72
aa(lp73
S'scaffold26651_cov113'
p74
aS'scaffold2076_cov75'
p75
a(lp76
I1
a(lp77
F0.346939
aaI49
aaa(lp78
S'scaffold37943_cov120'
p79
aS'scaffold39367_cov97'
p80
a(lp81
I1
a(lp82
F0.454545
aaI44
aa(lp83
I1
a(lp84
F0.5
aaI42
aa(lp85
I1
a(lp86
F0.603774
aaI53
aa(lp87
I1
a(lp88
F0.407407
aaI54
aa(lp89
I1
a(lp90
F0.416667
aaI48
aa(lp91
I1
a(lp92
F0.428571
aaI49
aa(lp93
I1
a(lp94
F0.415094
aaI53
aa(lp95
I1
a(lp96
F0.4
aaI55
aa(lp97
I1
a(lp98
F0.42
aaI50
aa(lp99
I1
a(lp100
F0.416667
aaI48
aa(lp101
I1
a(lp102
F0.395833
aaI48
aa(lp103
I1
a(lp104
F0.538462
aaI52
aa(lp105
I1
a(lp106
F0.392157
aaI51
aa(lp107
I1
a(lp108
F0.222222
aaI36
aa(lp109
I1
a(lp110
F0.526316
aaI57
aa(lp111
I1
a(lp112
F0.530612
aaI49
aa(lp113
I1
a(lp114
F0.26087
aaI46
aa(lp115
I1
a(lp116
F0.481481
aaI54
aa(lp117
I1
a(lp118
F0.48
aaI50
aa(lp119
I1
a(lp120
F0.489796
aaI49
aa(lp121
I1
a(lp122
F0.479167
aaI48
aa(lp123
I1
a(lp124
F0.625
aaI56
aa(lp125
I1
a(lp126
F0.520833
aaI48
aa(lp127
I1
a(lp128
F0.302326
aaI43
aa(lp129
I1
a(lp130
F0.318182
aaI44
aa(lp131
I1
a(lp132
F0.288889
aaI45
aa(lp133
I1
a(lp134
F0.238095
aaI42
aa(lp135
I1
a(lp136
F0.222222
aaI27
aa(lp137
I1
a(lp138
F0.344828
aaI29
aa(lp139
I1
a(lp140
F0.357143
aaI28
aa(lp141
I1
a(lp142
F0.4
aaI45
aa(lp143
I1
a(lp144
F0.333333
aaI45
aa(lp145
I1
a(lp146
F0.302326
aaI43
aaa(lp147
S'scaffold11629_cov141'
p148
aS'scaffold11627_cov72'
p149
aa(lp150
S'scaffold2522_cov147'
p151
aS'scaffold2520_cov73'
p152
aa(lp153
S'scaffold3257_cov146'
p154
aS'scaffold16169_cov72'
p155
a(lp156
I1
a(lp157
F0.413223
aaI121
aa(lp158
I1
a(lp159
F0.483871
aaI155
aaa(lp160
S'scaffold33358_cov122'
p161
aS'scaffold11974_cov67'
p162
a(lp163
I1
a(lp164
F0.326087
aaI46
aaa(lp165
S'scaffold17315_cov142'
p166
aS'scaffold17316_cov65'
p167
aa(lp168
S'scaffold27512_cov124'
p169
aS'scaffold9838_cov70'
p170
aa(lp171
S'scaffold7102_cov63'
p172
aS'scaffold1868_cov136'
p173
a(lp174
I1
a(lp175
F0.0
aaI13
aa(lp176
I1
a(lp177
F0.317073
aaI41
aa(lp178
I1
a(lp179
F0.28125
aaI32
aa(lp180
I1
a(lp181
F0.225806
aaI31
aa(lp182
I1
a(lp183
F0.230769
aaI26
aa(lp184
I1
a(lp185
F0.258065
aaI31
aa(lp186
I1
a(lp187
F0.217391
aaI23
aa(lp188
I1
a(lp189
F0.227273
aaI22
aa(lp190
I1
a(lp191
F0.282051
aaI39
aa(lp192
I1
a(lp193
F0.282051
aaI39
aaa(lp194
S'scaffold74444_cov64'
p195
aS'scaffold19614_cov87'
p196
aa(lp197
S'scaffold165401_cov148'
p198
aS'scaffold12422_cov71'
p199
a(lp200
I1
a(lp201
F0.21875
aaI32
aa(lp202
I1
a(lp203
F0.241379
aaI29
aa(lp204
I1
a(lp205
F0.560606
aaI66
aaa(lp206
S'scaffold108_cov145'
p207
aS'scaffold107_cov67'
p208
aa(lp209
S'scaffold96847_cov139'
p210
aS'scaffold3943_cov70'
p211
aa(lp212
S'scaffold47647_cov69'
p213
aS'scaffold7129_cov63'
p214
aa(lp215
S'scaffold6388_cov146'
p216
aS'scaffold8779_cov66'
p217
a(lp218
I1
a(lp219
F0.0
aaI29
aa(lp220
I1
a(lp221
F0.0
aaI29
aa(lp222
I1
a(lp223
F0.0
aaI34
aa(lp224
I1
a(lp225
F0.25
aaI36
aa(lp226
I1
a(lp227
F0.321429
aaI56
aaa(lp228
S'scaffold167512_cov105'
p229
aS'scaffold132398_cov66'
p230
a(lp231
I1
a(lp232
F0.258065
aaI31
aa(lp233
I1
a(lp234
F0.276596
aaI47
aa(lp235
I1
a(lp236
F0.25
aaI40
aa(lp237
I1
a(lp238
F0.238095
aaI42
aa(lp239
I1
a(lp240
F0.25
aaI40
aa(lp241
I1
a(lp242
F0.238095
aaI42
aaa(lp243
S'scaffold90279_cov161'
p244
aS'scaffold90278_cov81'
p245
aa(lp246
S'scaffold33112_cov67'
p247
aS'scaffold33753_cov69'
p248
a(lp249
I1
a(lp250
F0.0
aaI10
aa(lp251
I1
a(lp252
F0.0
aaI10
aa(lp253
I1
a(lp254
F0.0
aaI10
aa(lp255
I1
a(lp256
F0.0
aaI7
aa(lp257
I1
a(lp258
F0.4
aaI5
aa(lp259
I1
a(lp260
F0.5
aaI4
aaa(lp261
S'scaffold1391_cov96'
p262
aS'scaffold46961_cov69'
p263
aa(lp264
S'scaffold56728_cov119'
p265
aS'scaffold11627_cov72'
p266
aa(lp267
S'scaffold8397_cov125'
p268
aS'scaffold2722_cov84'
p269
a(lp270
I1
a(lp271
F0.0
aaI19
aa(lp272
I1
a(lp273
F0.0
aaI22
aa(lp274
I1
a(lp275
F0.0
aaI21
aaa(lp276
S'scaffold2416_cov137'
p277
aS'scaffold2417_cov66'
p278
aa(lp279
S'scaffold20419_cov113'
p280
aS'scaffold114_cov72'
p281
aa(lp282
S'scaffold27148_cov73'
p283
aS'scaffold860_cov64'
p284
aa(lp285
S'scaffold4513_cov135'
p286
aS'scaffold59029_cov68'
p287
aa(lp288
S'scaffold406_cov110'
p289
aS'scaffold39105_cov66'
p290
aa(lp291
S'scaffold16084_cov74'
p292
aS'scaffold11821_cov67'
p293
a(lp294
I1
a(lp295
F0.272727
aaI33
aa(lp296
I1
a(lp297
F0.25
aaI24
aa(lp298
I1
a(lp299
F0.656863
aaI102
aa(lp300
I1
a(lp301
F0.268657
aaI67
aa(lp302
I1
a(lp303
F0.290323
aaI62
aa(lp304
I1
a(lp305
F0.222222
aaI63
aa(lp306
I1
a(lp307
F0.428571
aaI28
aaa(lp308
S'scaffold11225_cov146'
p309
aS'scaffold33238_cov67'
p310
aa(lp311
S'scaffold1158_cov100'
p312
aS'scaffold100812_cov62'
p313
aa(lp314
S'scaffold4036_cov142'
p315
aS'scaffold10658_cov62'
p316
aa(lp317
S'scaffold12688_cov135'
p318
aS'scaffold12686_cov61'
p319
a(lp320
I1
a(lp321
F0.0
aaI5
aa(lp322
I1
a(lp323
F0.0
aaI22
aaa(lp324
S'scaffold9676_cov145'
p325
aS'scaffold16231_cov68'
p326
aa(lp327
S'scaffold180_cov107'
p328
aS'scaffold1171_cov70'
p329
a(lp330
I1
a(lp331
F0.210526
aaI38
aa(lp332
I1
a(lp333
F0.230769
aaI39
aa(lp334
I1
a(lp335
F0.232558
aaI43
aa(lp336
I1
a(lp337
F0.25
aaI36
aa(lp338
I1
a(lp339
F0.21875
aaI32
aa(lp340
I1
a(lp341
F0.225806
aaI31
aaa(lp342
S'scaffold29230_cov135'
p343
aS'scaffold7717_cov65'
p344
aa(lp345
S'scaffold166708_cov122'
p346
aS'scaffold697_cov68'
p347
aa(lp348
S'scaffold6658_cov76'
p349
aS'scaffold860_cov64'
p350
aa(lp351
S'scaffold53892_cov107'
p352
aS'scaffold57838_cov69'
p353
aa(lp354
S'scaffold10313_cov102'
p355
aS'scaffold21316_cov65'
p356
aa(lp357
S'scaffold5667_cov96'
p358
aS'scaffold8355_cov67'
p359
a(lp360
I1
a(lp361
F0.0
aaI25
aa(lp362
I1
a(lp363
F0.0
aaI23
aa(lp364
I1
a(lp365
F0.0
aaI3
aa(lp366
I1
a(lp367
F0.0
aaI3
aa(lp368
I1
a(lp369
F0.0
aaI3
aa(lp370
I1
a(lp371
F0.0
aaI3
aa(lp372
I1
a(lp373
F0.0
aaI3
aa(lp374
I1
a(lp375
F0.227273
aaI22
aaa(lp376
S'scaffold167496_cov97'
p377
aS'scaffold29206_cov81'
p378
a(lp379
I1
a(lp380
F0.0
aaI21
aa(lp381
I1
a(lp382
F0.0
aaI20
aa(lp383
I1
a(lp384
F0.0
aaI23
aa(lp385
I1
a(lp386
F0.0
aaI22
aa(lp387
I1
a(lp388
F0.0
aaI19
aa(lp389
I1
a(lp390
F0.0
aaI16
aa(lp391
I1
a(lp392
F0.0
aaI21
aa(lp393
I1
a(lp394
F0.0
aaI18
aa(lp395
I1
a(lp396
F0.0
aaI14
aa(lp397
I1
a(lp398
F0.0
aaI9
aaa(lp399
S'scaffold26582_cov78'
p400
aS'scaffold5481_cov69'
p401
aa(lp402
S'scaffold5259_cov70'
p403
aS'scaffold31513_cov82'
p404
a(lp405
I1
a(lp406
F0.0
aaI2
aa(lp407
I1
a(lp408
F0.4
aaI5
aa(lp409
I1
a(lp410
F0.0
aaI10
aa(lp411
I1
a(lp412
F0.8
aaI10
aa(lp413
I1
a(lp414
F0.461538
aaI13
aa(lp415
I1
a(lp416
F0.0
aaI8
aa(lp417
I1
a(lp418
F0.857143
aaI7
aa(lp419
I1
a(lp420
F0.0
aaI5
aa(lp421
I1
a(lp422
F0.0
aaI9
aa(lp423
I1
a(lp424
F0.333333
aaI42
aa(lp425
I1
a(lp426
F0.648148
aaI54
aa(lp427
I1
a(lp428
F0.44898
aaI49
aa(lp429
I1
a(lp430
F0.492754
aaI69
aa(lp431
I1
a(lp432
F0.466667
aaI45
aa(lp433
I1
a(lp434
F0.47619
aaI42
aa(lp435
I1
a(lp436
F0.439024
aaI41
aa(lp437
I1
a(lp438
F0.311111
aaI45
aa(lp439
I1
a(lp440
F0.295455
aaI44
aa(lp441
I1
a(lp442
F0.28
aaI50
aaa(lp443
S'scaffold40887_cov133'
p444
aS'scaffold46748_cov73'
p445
aa(lp446
S'scaffold165520_cov190'
p447
aS'scaffold59464_cov122'
p448
aa(lp449
S'scaffold6054_cov102'
p450
aS'scaffold661_cov69'
p451
aa(lp452
S'scaffold4555_cov123'
p453
aS'scaffold65460_cov69'
p454
aa(lp455
S'scaffold4019_cov99'
p456
aS'scaffold21633_cov84'
p457
aa(lp458
S'scaffold20825_cov153'
p459
aS'scaffold24052_cov69'
p460
aa(lp461
S'scaffold14473_cov147'
p462
aS'scaffold33229_cov65'
p463
aa(lp464
S'scaffold11599_cov105'
p465
aS'scaffold61789_cov64'
p466
aa(lp467
S'scaffold192192_cov171'
p468
aS'scaffold8532_cov71'
p469
aa(lp470
S'scaffold13917_cov148'
p471
aS'scaffold28422_cov65'
p472
aa(lp473
S'scaffold53875_cov130'
p474
aS'scaffold25755_cov75'
p475
a(lp476
I1
a(lp477
F0.210526
aaI38
aaa(lp478
S'scaffold10275_cov68'
p479
aS'scaffold62474_cov113'
p480
aa(lp481
S'scaffold3701_cov67'
p482
aS'scaffold23999_cov72'
p483
a(lp484
I1
a(lp485
F0.0
aaI2
aa(lp486
I1
a(lp487
F0.0
aaI8
aa(lp488
I1
a(lp489
F0.0
aaI4
aa(lp490
I1
a(lp491
F0.0
aaI3
aaa(lp492
S'scaffold15237_cov73'
p493
aS'scaffold24301_cov102'
p494
a(lp495
I1
a(lp496
F0.282051
aaI39
aa(lp497
I1
a(lp498
F0.431373
aaI51
aa(lp499
I1
a(lp500
F0.294118
aaI17
aa(lp501
I1
a(lp502
F0.272727
aaI11
aaa(lp503
S'scaffold22882_cov105'
p504
aS'scaffold5203_cov76'
p505
a(lp506
I1
a(lp507
F0.214286
aaI42
aa(lp508
I1
a(lp509
F0.311111
aaI45
aa(lp510
I1
a(lp511
F0.0
aaI9
aa(lp512
I1
a(lp513
F0.0
aaI6
aa(lp514
I1
a(lp515
F0.204082
aaI49
aaa(lp516
S'scaffold16120_cov143'
p517
aS'scaffold9901_cov65'
p518
aa(lp519
S'scaffold22339_cov108'
p520
aS'scaffold15124_cov63'
p521
a(lp522
I1
a(lp523
F0.529412
aaI68
aa(lp524
I1
a(lp525
F0.413793
aaI29
aaa(lp526
S'scaffold15763_cov140'
p527
aS'scaffold7011_cov67'
p528
a(lp529
I1
a(lp530
F0.365385
aaI52
aa(lp531
I1
a(lp532
F0.352941
aaI51
aaa(lp533
S'scaffold3674_cov106'
p534
aS'scaffold57150_cov68'
p535
aa(lp536
S'scaffold8694_cov129'
p537
aS'scaffold8135_cov71'
p538
a(lp539
I1
a(lp540
F0.382979
aaI47
aa(lp541
I1
a(lp542
F0.238095
aaI42
aaa(lp543
S'scaffold166685_cov152'
p544
aS'scaffold2832_cov75'
p545
aa(lp546
S'scaffold903_cov126'
p547
aS'scaffold1840_cov66'
p548
aa(lp549
S'scaffold34941_cov134'
p550
aS'scaffold1333_cov60'
p551
aa(lp552
S'scaffold561_cov86'
p553
aS'scaffold29165_cov60'
p554
aa(lp555
S'scaffold6820_cov103'
p556
aS'scaffold6818_cov67'
p557
a(lp558
I1
a(lp559
F0.0
aaI3
aa(lp560
I1
a(lp561
F0.0
aaI4
aa(lp562
I1
a(lp563
F0.0
aaI11
aa(lp564
I1
a(lp565
F0.388889
aaI54
aa(lp566
I1
a(lp567
F0.340909
aaI44
aa(lp568
I1
a(lp569
F0.444444
aaI54
aa(lp570
I1
a(lp571
F0.552941
aaI85
aa(lp572
I1
a(lp573
F0.272727
aaI33
aa(lp574
I1
a(lp575
F0.264706
aaI34
aa(lp576
I1
a(lp577
F0.264706
aaI34
aa(lp578
I1
a(lp579
F0.366667
aaI60
aaa(lp580
S'scaffold4931_cov109'
p581
aS'scaffold2702_cov92'
p582
aa(lp583
S'scaffold3133_cov141'
p584
aS'scaffold30966_cov62'
p585
aa(lp586
S'scaffold6620_cov103'
p587
aS'scaffold7907_cov67'
p588
aa(lp589
S'scaffold95367_cov139'
p590
aS'scaffold95366_cov79'
p591
aa(lp592
S'scaffold166345_cov136'
p593
aS'scaffold367_cov102'
p594
aa(lp595
S'scaffold9131_cov93'
p596
aS'scaffold28864_cov67'
p597
a(lp598
I1
a(lp599
F0.416667
aaI12
aaa(lp600
S'scaffold19827_cov125'
p601
aS'scaffold167515_cov69'
p602
a(lp603
I1
a(lp604
F0.413043
aaI46
aa(lp605
I1
a(lp606
F0.547619
aaI42
aa(lp607
I1
a(lp608
F0.292683
aaI41
aa(lp609
I1
a(lp610
F0.333333
aaI36
aa(lp611
I1
a(lp612
F0.351351
aaI37
aa(lp613
I1
a(lp614
F0.378378
aaI37
aa(lp615
I1
a(lp616
F0.366667
aaI30
aa(lp617
I1
a(lp618
F0.419355
aaI31
aa(lp619
I1
a(lp620
F0.433333
aaI30
aa(lp621
I1
a(lp622
F0.44
aaI25
aa(lp623
I1
a(lp624
F0.333333
aaI27
aa(lp625
I1
a(lp626
F0.24
aaI25
aaa(lp627
S'scaffold5296_cov115'
p628
aS'scaffold2979_cov71'
p629
aa(lp630
S'scaffold35735_cov102'
p631
aS'scaffold4162_cov69'
p632
a(lp633
I1
a(lp634
F0.59375
aaI64
aaa(lp635
S'scaffold36202_cov116'
p636
aS'scaffold32923_cov104'
p637
a(lp638
I1
a(lp639
F0.0
aaI3
aa(lp640
I1
a(lp641
F0.0
aaI3
aa(lp642
I1
a(lp643
F0.0
aaI3
aa(lp644
I1
a(lp645
F0.0
aaI3
aa(lp646
I1
a(lp647
F0.0
aaI3
aa(lp648
I1
a(lp649
F0.0
aaI2
aa(lp650
I1
a(lp651
F0.0
aaI2
aa(lp652
I1
a(lp653
F0.0
aaI2
aa(lp654
I1
a(lp655
F0.0
aaI4
aa(lp656
I1
a(lp657
F0.0
aaI2
aa(lp658
I1
a(lp659
F0.0
aaI4
aaa(lp660
S'scaffold14189_cov153'
p661
aS'scaffold2637_cov71'
p662
aa(lp663
S'scaffold1394_cov148'
p664
aS'scaffold1395_cov70'
p665
a(lp666
I1
a(lp667
F0.241379
aaI29
aaa(lp668
S'scaffold165441_cov141'
p669
aS'scaffold2849_cov95'
p670
a(lp671
I1
a(lp672
F0.574074
aaI54
aa(lp673
I1
a(lp674
F0.315789
aaI38
aa(lp675
I1
a(lp676
F0.243243
aaI37
aa(lp677
I1
a(lp678
F0.210526
aaI38
aaa(lp679
S'scaffold21927_cov117'
p680
aS'scaffold6252_cov71'
p681
a(lp682
I1
a(lp683
F0.363636
aaI55
aa(lp684
I1
a(lp685
F0.225806
aaI31
aaa(lp686
S'scaffold8966_cov109'
p687
aS'scaffold3586_cov72'
p688
a(lp689
I1
a(lp690
F0.382353
aaI34
aa(lp691
I1
a(lp692
F0.36
aaI25
aa(lp693
I1
a(lp694
F0.263158
aaI38
aa(lp695
I1
a(lp696
F0.2
aaI35
aaa(lp697
S'scaffold514_cov77'
p698
aS'scaffold2213_cov74'
p699
aa(lp700
S'scaffold3987_cov100'
p701
aS'scaffold14924_cov62'
p702
aa(lp703
S'scaffold4224_cov73'
p704
aS'scaffold2987_cov88'
p705
a(lp706
I1
a(lp707
F0.342857
aaI35
aa(lp708
I1
a(lp709
F0.255814
aaI43
aa(lp710
I1
a(lp711
F0.2
aaI35
aa(lp712
I1
a(lp713
F0.205882
aaI34
aa(lp714
I1
a(lp715
F0.36
aaI50
aa(lp716
I1
a(lp717
F0.272727
aaI33
aa(lp718
I1
a(lp719
F0.265306
aaI98
aa(lp720
I1
a(lp721
F0.487805
aaI41
aa(lp722
I1
a(lp723
F0.428571
aaI42
aa(lp724
I1
a(lp725
F0.371429
aaI35
aa(lp726
I1
a(lp727
F0.352941
aaI34
aa(lp728
I1
a(lp729
F0.388889
aaI36
aa(lp730
I1
a(lp731
F0.435484
aaI62
aa(lp732
I1
a(lp733
F0.236842
aaI38
aa(lp734
I1
a(lp735
F0.2
aaI35
aa(lp736
I1
a(lp737
F0.25641
aaI39
aa(lp738
I1
a(lp739
F0.315789
aaI38
aa(lp740
I1
a(lp741
F0.277778
aaI36
aa(lp742
I1
a(lp743
F0.282609
aaI46
aa(lp744
I1
a(lp745
F0.265306
aaI49
aa(lp746
I1
a(lp747
F0.269231
aaI52
aa(lp748
I1
a(lp749
F0.272727
aaI33
aa(lp750
I1
a(lp751
F0.434783
aaI46
aa(lp752
I1
a(lp753
F0.425926
aaI54
aa(lp754
I1
a(lp755
F0.428571
aaI42
aa(lp756
I1
a(lp757
F0.363636
aaI44
aa(lp758
I1
a(lp759
F0.369565
aaI46
aa(lp760
I1
a(lp761
F0.413043
aaI46
aaa(lp762
S'scaffold164974_cov139'
p763
aS'scaffold2833_cov61'
p764
aa(lp765
S'scaffold3477_cov108'
p766
aS'scaffold10061_cov67'
p767
aa(lp768
S'scaffold9403_cov96'
p769
aS'scaffold23269_cov69'
p770
aa(lp771
S'scaffold48176_cov76'
p772
aS'scaffold42838_cov68'
p773
aa(lp774
S'scaffold3722_cov135'
p775
aS'scaffold3719_cov67'
p776
a(lp777
I1
a(lp778
F0.232558
aaI43
aa(lp779
I1
a(lp780
F0.577778
aaI45
aaa(lp781
S'scaffold165461_cov100'
p782
aS'scaffold10491_cov66'
p783
aa(lp784
S'scaffold14267_cov83'
p785
aS'scaffold1125_cov68'
p786
a(lp787
I1
a(lp788
F0.25
aaI44
aa(lp789
I1
a(lp790
F0.403846
aaI52
aa(lp791
I1
a(lp792
F0.3
aaI40
aa(lp793
I1
a(lp794
F0.409091
aaI110
aa(lp795
I1
a(lp796
F0.277228
aaI101
aaa(lp797
S'scaffold32619_cov118'
p798
aS'scaffold20061_cov80'
p799
a(lp800
I1
a(lp801
F0.291667
aaI48
aa(lp802
I1
a(lp803
F0.3125
aaI48
aa(lp804
I1
a(lp805
F0.290909
aaI55
aaa(lp806
S'scaffold3738_cov114'
p807
aS'scaffold11440_cov66'
p808
aa(lp809
S'scaffold11968_cov142'
p810
aS'scaffold3404_cov63'
p811
aa(lp812
S'scaffold4957_cov147'
p813
aS'scaffold2304_cov67'
p814
aa(lp815
S'scaffold6014_cov96'
p816
aS'scaffold69980_cov67'
p817
aa(lp818
S'scaffold17627_cov105'
p819
aS'scaffold117137_cov65'
p820
aa(lp821
S'scaffold165395_cov77'
p822
aS'scaffold42402_cov68'
p823
a(lp824
I1
a(lp825
F0.227273
aaI22
aaa(lp826
S'scaffold12770_cov157'
p827
aS'scaffold21646_cov62'
p828
a(lp829
I1
a(lp830
F0.0
aaI25
aaa(lp831
S'scaffold2416_cov137'
p832
aS'scaffold16788_cov63'
p833
aa(lp834
S'scaffold167565_cov117'
p835
aS'scaffold893_cov66'
p836
a(lp837
I1
a(lp838
F0.2
aaI30
aaa(lp839
S'scaffold49558_cov135'
p840
aS'scaffold10462_cov135'
p841
aa(lp842
S'scaffold25651_cov100'
p843
aS'scaffold46961_cov69'
p844
aa(lp845
S'scaffold3122_cov145'
p846
aS'scaffold3123_cov67'
p847
aa(lp848
S'scaffold8282_cov147'
p849
aS'scaffold8279_cov69'
p850
aa(lp851
S'scaffold903_cov126'
p852
aS'scaffold900_cov65'
p853
aa(lp854
S'scaffold167464_cov86'
p855
aS'scaffold12557_cov77'
p856
aa(lp857
S'scaffold13891_cov62'
p858
aS'scaffold26778_cov137'
p859
aa(lp860
S'scaffold7194_cov116'
p861
aS'scaffold6437_cov66'
p862
aa(lp863
S'scaffold70862_cov124'
p864
aS'scaffold34357_cov65'
p865
aa(lp866
S'scaffold14197_cov99'
p867
aS'scaffold6524_cov65'
p868
a(lp869
I1
a(lp870
F0.435897
aaI39
aa(lp871
I1
a(lp872
F0.257143
aaI35
aaa(lp873
S'scaffold15885_cov116'
p874
aS'scaffold15073_cov71'
p875
a(lp876
I1
a(lp877
F0.619048
aaI63
aa(lp878
I1
a(lp879
F0.257576
aaI66
aa(lp880
I1
a(lp881
F0.269231
aaI26
aa(lp882
I1
a(lp883
F0.417722
aaI79
aaa(lp884
S'scaffold3010_cov130'
p885
aS'scaffold3009_cov66'
p886
aa(lp887
S'scaffold34740_cov99'
p888
aS'scaffold10321_cov72'
p889
aa(lp890
S'scaffold45626_cov132'
p891
aS'scaffold26610_cov67'
p892
aa(lp893
S'scaffold19276_cov115'
p894
aS'scaffold33185_cov125'
p895
aa(lp896
S'scaffold13917_cov148'
p897
aS'scaffold5199_cov65'
p898
aa(lp899
S'scaffold4489_cov91'
p900
aS'scaffold166706_cov72'
p901
aa(lp902
S'scaffold23696_cov107'
p903
aS'scaffold46569_cov79'
p904
aa(lp905
S'scaffold14010_cov120'
p906
aS'scaffold9558_cov65'
p907
a(lp908
I1
a(lp909
F0.27027
aaI37
aa(lp910
I1
a(lp911
F0.0
aaI28
aaa(lp912
S'scaffold7174_cov138'
p913
aS'scaffold6615_cov72'
p914
a(lp915
I1
a(lp916
F0.4
aaI15
aaa(lp917
S'scaffold8983_cov110'
p918
aS'scaffold5722_cov65'
p919
aa(lp920
S'scaffold165507_cov120'
p921
aS'scaffold1649_cov91'
p922
a(lp923
I1
a(lp924
F0.255319
aaI47
aa(lp925
I1
a(lp926
F0.219512
aaI41
aa(lp927
I1
a(lp928
F0.302326
aaI43
aa(lp929
I1
a(lp930
F0.272727
aaI44
aa(lp931
I1
a(lp932
F0.257143
aaI35
aa(lp933
I1
a(lp934
F0.342857
aaI35
aa(lp935
I1
a(lp936
F0.423077
aaI52
aa(lp937
I1
a(lp938
F0.418182
aaI55
aa(lp939
I1
a(lp940
F0.2
aaI35
aa(lp941
I1
a(lp942
F0.325
aaI40
aa(lp943
I1
a(lp944
F0.46875
aaI32
aa(lp945
I1
a(lp946
F0.243243
aaI37
aa(lp947
I1
a(lp948
F0.318182
aaI44
aa(lp949
I1
a(lp950
F0.333333
aaI39
aa(lp951
I1
a(lp952
F0.203704
aaI54
aa(lp953
I1
a(lp954
F0.209302
aaI43
aa(lp955
I1
a(lp956
F0.230769
aaI39
aa(lp957
I1
a(lp958
F0.205128
aaI39
aa(lp959
I1
a(lp960
F0.225
aaI40
aa(lp961
I1
a(lp962
F0.222222
aaI36
aa(lp963
I1
a(lp964
F0.205882
aaI34
aa(lp965
I1
a(lp966
F0.243243
aaI37
aa(lp967
I1
a(lp968
F0.283019
aaI53
aaa(lp969
S'scaffold7147_cov103'
p970
aS'scaffold7146_cov65'
p971
a(lp972
I1
a(lp973
F0.555556
aaI27
aaa(lp974
S'scaffold166767_cov133'
p975
aS'scaffold166788_cov64'
p976
aa(lp977
S'scaffold14010_cov120'
p978
aS'scaffold20924_cov70'
p979
aa(lp980
S'scaffold14968_cov70'
p981
aS'scaffold5208_cov124'
p982
aa(lp983
S'scaffold33079_cov127'
p984
aS'scaffold21398_cov73'
p985
aa(lp986
S'scaffold45339_cov132'
p987
aS'scaffold5542_cov64'
p988
aa(lp989
S'scaffold62223_cov138'
p990
aS'scaffold41553_cov82'
p991
aa(lp992
S'scaffold167537_cov112'
p993
aS'scaffold540_cov68'
p994
aa(lp995
S'scaffold1030_cov88'
p996
aS'scaffold20924_cov70'
p997
a(lp998
I1
a(lp999
F0.290323
aaI31
aaa(lp1000
S'scaffold5060_cov136'
p1001
aS'scaffold5059_cov70'
p1002
aa(lp1003
S'scaffold2398_cov98'
p1004
aS'scaffold2617_cov76'
p1005
a(lp1006
I1
a(lp1007
F0.809524
aaI21
aa(lp1008
I1
a(lp1009
F0.809524
aaI21
aa(lp1010
I1
a(lp1011
F0.222222
aaI36
aa(lp1012
I1
a(lp1013
F0.446429
aaI56
aa(lp1014
I1
a(lp1015
F0.216216
aaI37
aa(lp1016
I1
a(lp1017
F0.435897
aaI39
aa(lp1018
I1
a(lp1019
F0.381818
aaI55
aa(lp1020
I1
a(lp1021
F0.254902
aaI51
aa(lp1022
I1
a(lp1023
F0.30303
aaI33
aa(lp1024
I1
a(lp1025
F0.388889
aaI54
aa(lp1026
I1
a(lp1027
F0.358209
aaI67
aaa(lp1028
S'scaffold9303_cov137'
p1029
aS'scaffold3018_cov62'
p1030
aa(lp1031
S'scaffold28224_cov147'
p1032
aS'scaffold166774_cov71'
p1033
aa(lp1034
S'scaffold165413_cov124'
p1035
aS'scaffold1323_cov67'
p1036
aa(lp1037
S'scaffold1637_cov151'
p1038
aS'scaffold20670_cov68'
p1039
aa(lp1040
S'scaffold36067_cov121'
p1041
aS'scaffold10421_cov69'
p1042
aa(lp1043
S'scaffold9037_cov132'
p1044
aS'scaffold7705_cov77'
p1045
aa(lp1046
S'scaffold38008_cov141'
p1047
aS'scaffold5960_cov65'
p1048
aa(lp1049
S'scaffold7174_cov138'
p1050
aS'scaffold2501_cov70'
p1051
aa(lp1052
S'scaffold7264_cov122'
p1053
aS'scaffold10275_cov68'
p1054
aa(lp1055
S'scaffold90706_cov103'
p1056
aS'scaffold2061_cov67'
p1057
a(lp1058
I1
a(lp1059
F0.382353
aaI34
aa(lp1060
I1
a(lp1061
F0.212121
aaI33
aa(lp1062
I1
a(lp1063
F0.233333
aaI30
aa(lp1064
I1
a(lp1065
F0.0
aaI253
aa(lp1066
I1
a(lp1067
F0.285714
aaI28
aa(lp1068
I1
a(lp1069
F0.234043
aaI47
aaa(lp1070
S'scaffold20641_cov90'
p1071
aS'scaffold8011_cov68'
p1072
aa(lp1073
S'scaffold25662_cov161'
p1074
aS'scaffold25660_cov79'
p1075
aa(lp1076
S'scaffold3559_cov143'
p1077
aS'scaffold9683_cov69'
p1078
a(lp1079
I1
a(lp1080
F0.0
aaI5
aaa(lp1081
S'scaffold25492_cov142'
p1082
aS'scaffold24079_cov69'
p1083
a(lp1084
I1
a(lp1085
F0.2
aaI25
aaa(lp1086
S'scaffold167535_cov101'
p1087
aS'scaffold18420_cov96'
p1088
a(lp1089
I1
a(lp1090
F0.208333
aaI24
aaa(lp1091
S'scaffold51750_cov85'
p1092
aS'scaffold39128_cov65'
p1093
a(lp1094
I1
a(lp1095
F0.0
aaI24
aa(lp1096
I1
a(lp1097
F0.0
aaI20
aaa(lp1098
S'scaffold9703_cov100'
p1099
aS'scaffold166756_cov71'
p1100
a(lp1101
I1
a(lp1102
F0.292683
aaI41
aaa(lp1103
S'scaffold12601_cov106'
p1104
aS'scaffold12765_cov63'
p1105
a(lp1106
I1
a(lp1107
F0.222222
aaI45
aaa(lp1108
S'scaffold4941_cov130'
p1109
aS'scaffold29738_cov68'
p1110
aa(lp1111
S'scaffold1929_cov135'
p1112
aS'scaffold9933_cov110'
p1113
a(lp1114
I1
a(lp1115
F0.459016
aaI61
aa(lp1116
I1
a(lp1117
F0.565217
aaI46
aa(lp1118
I1
a(lp1119
F0.529412
aaI51
aaa(lp1120
S'scaffold29312_cov132'
p1121
aS'scaffold9996_cov69'
p1122
aa(lp1123
S'scaffold17051_cov101'
p1124
aS'scaffold2939_cov64'
p1125
aa(lp1126
S'scaffold10858_cov149'
p1127
aS'scaffold10857_cov70'
p1128
a(lp1129
I1
a(lp1130
F0.338983
aaI59
aaa(lp1131
S'scaffold43497_cov152'
p1132
aS'scaffold48022_cov63'
p1133
aa(lp1134
S'scaffold35435_cov126'
p1135
aS'scaffold9757_cov95'
p1136
a(lp1137
I1
a(lp1138
F0.27907
aaI43
aa(lp1139
I1
a(lp1140
F0.3
aaI50
aa(lp1141
I1
a(lp1142
F0.394737
aaI38
aaa(lp1143
S'scaffold6824_cov114'
p1144
aS'scaffold542_cov70'
p1145
aa(lp1146
S'scaffold10713_cov124'
p1147
aS'scaffold4604_cov80'
p1148
a(lp1149
I1
a(lp1150
F0.0
aaI23
aaa(lp1151
S'scaffold21338_cov100'
p1152
aS'scaffold8647_cov65'
p1153
a(lp1154
I1
a(lp1155
F0.266667
aaI30
aaa(lp1156
S'scaffold18416_cov135'
p1157
aS'scaffold16862_cov66'
p1158
aa(lp1159
S'scaffold17874_cov144'
p1160
aS'scaffold38164_cov70'
p1161
aa(lp1162
S'scaffold19924_cov91'
p1163
aS'scaffold10385_cov64'
p1164
a(lp1165
I1
a(lp1166
F0.0
aaI26
aaa(lp1167
S'scaffold1491_cov109'
p1168
aS'scaffold3256_cov68'
p1169
a(lp1170
I1
a(lp1171
F0.382353
aaI34
aa(lp1172
I1
a(lp1173
F0.403846
aaI52
aa(lp1174
I1
a(lp1175
F0.210526
aaI38
aa(lp1176
I1
a(lp1177
F0.210526
aaI38
aa(lp1178
I1
a(lp1179
F0.235294
aaI34
aa(lp1180
I1
a(lp1181
F0.228571
aaI35
aa(lp1182
I1
a(lp1183
F0.241379
aaI29
aaa(lp1184
S'scaffold167598_cov96'
p1185
aS'scaffold7183_cov82'
p1186
a(lp1187
I1
a(lp1188
F0.225806
aaI31
aa(lp1189
I1
a(lp1190
F0.21875
aaI32
aaa(lp1191
S'scaffold3807_cov105'
p1192
aS'scaffold3967_cov66'
p1193
aa(lp1194
S'scaffold182819_cov255'
p1195
aS'scaffold2675_cov72'
p1196
aa(lp1197
S'scaffold1354_cov130'
p1198
aS'scaffold8335_cov68'
p1199
a(lp1200
I1
a(lp1201
F0.0
aaI29
aaa(lp1202
S'scaffold10215_cov75'
p1203
aS'scaffold16998_cov67'
p1204
aa(lp1205
S'scaffold66380_cov110'
p1206
aS'scaffold15785_cov113'
p1207
aa(lp1208
S'scaffold77207_cov117'
p1209
aS'scaffold43353_cov68'
p1210
aa(lp1211
S'scaffold36663_cov134'
p1212
aS'scaffold75670_cov64'
p1213
aa(lp1214
S'scaffold8548_cov121'
p1215
aS'scaffold9073_cov65'
p1216
aa(lp1217
S'scaffold843_cov127'
p1218
aS'scaffold844_cov69'
p1219
aa(lp1220
S'scaffold10670_cov88'
p1221
aS'scaffold7453_cov60'
p1222
aa(lp1223
S'scaffold18914_cov65'
p1224
aS'scaffold18912_cov140'
p1225
aa(lp1226
S'scaffold3349_cov142'
p1227
aS'scaffold5670_cov74'
p1228
aa(lp1229
S'scaffold2048_cov125'
p1230
aS'scaffold7977_cov71'
p1231
a(lp1232
I1
a(lp1233
F0.25
aaI28
aaa(lp1234
S'scaffold11204_cov106'
p1235
aS'scaffold30140_cov63'
p1236
a(lp1237
I1
a(lp1238
F0.0
aaI18
aa(lp1239
I1
a(lp1240
F0.0
aaI19
aa(lp1241
I1
a(lp1242
F0.0
aaI20
aa(lp1243
I1
a(lp1244
F0.232558
aaI43
aaa(lp1245
S'scaffold167504_cov85'
p1246
aS'scaffold17931_cov63'
p1247
aa(lp1248
S'scaffold14572_cov90'
p1249
aS'scaffold4478_cov68'
p1250
a(lp1251
I1
a(lp1252
F0.206897
aaI29
aa(lp1253
I1
a(lp1254
F0.225806
aaI31
aa(lp1255
I1
a(lp1256
F0.21875
aaI32
aa(lp1257
I1
a(lp1258
F0.285714
aaI28
aa(lp1259
I1
a(lp1260
F0.214286
aaI28
aaa(lp1261
S'scaffold6426_cov139'
p1262
aS'scaffold6427_cov67'
p1263
aa(lp1264
S'scaffold165417_cov143'
p1265
aS'scaffold16672_cov63'
p1266
aa(lp1267
S'scaffold36663_cov134'
p1268
aS'scaffold30167_cov70'
p1269
a(lp1270
I1
a(lp1271
F0.333333
aaI45
aa(lp1272
I1
a(lp1273
F0.363636
aaI44
aa(lp1274
I1
a(lp1275
F0.486111
aaI72
aa(lp1276
I1
a(lp1277
F0.208333
aaI24
aa(lp1278
I1
a(lp1279
F0.275862
aaI29
aa(lp1280
I1
a(lp1281
F0.3
aaI30
aa(lp1282
I1
a(lp1283
F0.333333
aaI27
aa(lp1284
I1
a(lp1285
F0.257143
aaI35
aaa(lp1286
S'scaffold18584_cov139'
p1287
aS'scaffold15986_cov63'
p1288
aa(lp1289
S'scaffold73411_cov102'
p1290
aS'scaffold25947_cov73'
p1291
aa(lp1292
S'scaffold14567_cov126'
p1293
aS'scaffold42400_cov69'
p1294
aa(lp1295
S'scaffold18457_cov115'
p1296
aS'scaffold32162_cov89'
p1297
a(lp1298
I1
a(lp1299
F0.355932
aaI59
aa(lp1300
I1
a(lp1301
F0.218182
aaI55
aa(lp1302
I1
a(lp1303
F0.28
aaI50
aa(lp1304
I1
a(lp1305
F0.27907
aaI43
aa(lp1306
I1
a(lp1307
F0.277778
aaI54
aaa(lp1308
S'scaffold56505_cov129'
p1309
aS'scaffold60_cov119'
p1310
aa(lp1311
S'scaffold1978_cov92'
p1312
aS'scaffold2699_cov70'
p1313
a(lp1314
I1
a(lp1315
F0.21875
aaI32
aa(lp1316
I1
a(lp1317
F0.0
aaI29
aa(lp1318
I1
a(lp1319
F0.323529
aaI34
aa(lp1320
I1
a(lp1321
F0.304348
aaI23
aa(lp1322
I1
a(lp1323
F0.3
aaI30
aa(lp1324
I1
a(lp1325
F0.3125
aaI32
aa(lp1326
I1
a(lp1327
F0.257143
aaI35
aaa(lp1328
S'scaffold43863_cov126'
p1329
aS'scaffold7672_cov74'
p1330
a(lp1331
I1
a(lp1332
F0.0
aaI19
aa(lp1333
I1
a(lp1334
F0.0
aaI22
aa(lp1335
I1
a(lp1336
F0.0
aaI4
aa(lp1337
I1
a(lp1338
F0.0
aaI5
aa(lp1339
I1
a(lp1340
F0.0
aaI4
aa(lp1341
I1
a(lp1342
F0.0
aaI3
aa(lp1343
I1
a(lp1344
F0.0
aaI12
aaa(lp1345
S'scaffold10581_cov98'
p1346
aS'scaffold17516_cov69'
p1347
a(lp1348
I1
a(lp1349
F0.513889
aaI72
aa(lp1350
I1
a(lp1351
F0.294118
aaI68
aa(lp1352
I1
a(lp1353
F0.207792
aaI77
aa(lp1354
I1
a(lp1355
F0.392405
aaI79
aa(lp1356
I1
a(lp1357
F0.333333
aaI78
aa(lp1358
I1
a(lp1359
F0.263158
aaI38
aa(lp1360
I1
a(lp1361
F0.34375
aaI32
aaa(lp1362
S'scaffold4107_cov90'
p1363
aS'scaffold6409_cov65'
p1364
aa(lp1365
S'scaffold165573_cov134'
p1366
aS'scaffold6928_cov65'
p1367
aa(lp1368
S'scaffold721_cov134'
p1369
aS'scaffold720_cov79'
p1370
aa(lp1371
S'scaffold9757_cov95'
p1372
aS'scaffold3630_cov66'
p1373
a(lp1374
I1
a(lp1375
F0.272727
aaI44
aaa(lp1376
S'scaffold18542_cov139'
p1377
aS'scaffold26015_cov66'
p1378
aa(lp1379
S'scaffold4321_cov104'
p1380
aS'scaffold9387_cov68'
p1381
aa(lp1382
S'scaffold167650_cov100'
p1383
aS'scaffold21768_cov66'
p1384
aa(lp1385
S'scaffold34203_cov139'
p1386
aS'scaffold18396_cov65'
p1387
aa(lp1388
S'scaffold3745_cov115'
p1389
aS'scaffold7430_cov66'
p1390
a(lp1391
I1
a(lp1392
F0.375
aaI80
aa(lp1393
I1
a(lp1394
F0.259259
aaI27
aa(lp1395
I1
a(lp1396
F0.222222
aaI27
aa(lp1397
I1
a(lp1398
F0.241379
aaI29
aaa(lp1399
S'scaffold181240_cov148'
p1400
aS'scaffold59620_cov74'
p1401
aa(lp1402
S'scaffold27354_cov105'
p1403
aS'scaffold16165_cov73'
p1404
aa(lp1405
S'scaffold46909_cov63'
p1406
aS'scaffold11928_cov70'
p1407
aa(lp1408
S'scaffold11499_cov143'
p1409
aS'scaffold19165_cov65'
p1410
aa(lp1411
S'scaffold166682_cov143'
p1412
aS'scaffold374_cov71'
p1413
a(lp1414
I1
a(lp1415
F0.206897
aaI29
aa(lp1416
I1
a(lp1417
F0.206897
aaI29
aa(lp1418
I1
a(lp1419
F0.206897
aaI29
aa(lp1420
I1
a(lp1421
F0.222222
aaI27
aa(lp1422
I1
a(lp1423
F0.372093
aaI43
aa(lp1424
I1
a(lp1425
F0.372093
aaI43
aaa(lp1426
S'scaffold167515_cov69'
p1427
aS'scaffold1497_cov69'
p1428
aa(lp1429
S'scaffold11274_cov111'
p1430
aS'scaffold2804_cov69'
p1431
a(lp1432
I1
a(lp1433
F0.214286
aaI28
aaa(lp1434
S'scaffold3566_cov79'
p1435
aS'scaffold4610_cov62'
p1436
aa(lp1437
S'scaffold12892_cov134'
p1438
aS'scaffold47938_cov75'
p1439
aa(lp1440
S'scaffold4939_cov152'
p1441
aS'scaffold4940_cov72'
p1442
aa(lp1443
S'scaffold166331_cov132'
p1444
aS'scaffold8565_cov73'
p1445
aa(lp1446
S'scaffold26431_cov130'
p1447
aS'scaffold15686_cov66'
p1448
aa(lp1449
S'scaffold9117_cov151'
p1450
aS'scaffold9115_cov70'
p1451
aa(lp1452
S'scaffold1006_cov111'
p1453
aS'scaffold1003_cov64'
p1454
aa(lp1455
S'scaffold5572_cov101'
p1456
aS'scaffold7298_cov66'
p1457
a(lp1458
I1
a(lp1459
F0.32
aaI25
aaa(lp1460
S'scaffold14527_cov64'
p1461
aS'scaffold1873_cov63'
p1462
aa(lp1463
S'scaffold19598_cov123'
p1464
aS'scaffold12870_cov60'
p1465
aa(lp1466
S'scaffold25966_cov129'
p1467
aS'scaffold20513_cov68'
p1468
a(lp1469
I1
a(lp1470
F0.315789
aaI38
aa(lp1471
I1
a(lp1472
F0.317073
aaI41
aa(lp1473
I1
a(lp1474
F0.325
aaI40
aa(lp1475
I1
a(lp1476
F0.289474
aaI38
aa(lp1477
I1
a(lp1478
F0.27027
aaI37
aaa(lp1479
S'scaffold6206_cov112'
p1480
aS'scaffold19927_cov67'
p1481
aa(lp1482
S'scaffold1808_cov87'
p1483
aS'scaffold18178_cov78'
p1484
aa(lp1485
S'scaffold4678_cov116'
p1486
aS'scaffold46295_cov125'
p1487
aa(lp1488
S'scaffold3135_cov68'
p1489
aS'scaffold3133_cov141'
p1490
a(lp1491
I1
a(lp1492
F0.269231
aaI26
aa(lp1493
I1
a(lp1494
F0.241379
aaI29
aa(lp1495
I1
a(lp1496
F0.325
aaI40
aa(lp1497
I1
a(lp1498
F0.255319
aaI94
aaa(lp1499
S'scaffold182_cov83'
p1500
aS'scaffold16044_cov69'
p1501
aa(lp1502
S'scaffold20825_cov153'
p1503
aS'scaffold20824_cov72'
p1504
aa(lp1505
S'scaffold94664_cov148'
p1506
aS'scaffold11692_cov72'
p1507
aa(lp1508
S'scaffold45520_cov151'
p1509
aS'scaffold45518_cov71'
p1510
aa(lp1511
S'scaffold1071_cov92'
p1512
aS'scaffold49421_cov62'
p1513
a(lp1514
I1
a(lp1515
F0.642857
aaI14
aa(lp1516
I1
a(lp1517
F0.285714
aaI7
aaa(lp1518
S'scaffold3432_cov123'
p1519
aS'scaffold3406_cov67'
p1520
a(lp1521
I1
a(lp1522
F0.510204
aaI49
aa(lp1523
I1
a(lp1524
F0.24359
aaI78
aa(lp1525
I1
a(lp1526
F0.590909
aaI44
aa(lp1527
I1
a(lp1528
F0.263158
aaI38
aa(lp1529
I1
a(lp1530
F0.290323
aaI31
aa(lp1531
I1
a(lp1532
F0.396226
aaI53
aa(lp1533
I1
a(lp1534
F0.219512
aaI41
aa(lp1535
I1
a(lp1536
F0.261905
aaI42
aa(lp1537
I1
a(lp1538
F0.484848
aaI33
aa(lp1539
I1
a(lp1540
F0.34375
aaI32
aa(lp1541
I1
a(lp1542
F0.3
aaI30
aa(lp1543
I1
a(lp1544
F0.23913
aaI46
aaa(lp1545
S'scaffold12001_cov141'
p1546
aS'scaffold12003_cov68'
p1547
aa(lp1548
S'scaffold5456_cov152'
p1549
aS'scaffold67160_cov58'
p1550
aa(lp1551
S'scaffold166729_cov102'
p1552
aS'scaffold165425_cov72'
p1553
aa(lp1554
S'scaffold21534_cov145'
p1555
aS'scaffold21531_cov67'
p1556
aa(lp1557
S'scaffold9312_cov104'
p1558
aS'scaffold35511_cov69'
p1559
aa(lp1560
S'scaffold55111_cov144'
p1561
aS'scaffold55112_cov70'
p1562
aa(lp1563
S'scaffold25594_cov137'
p1564
aS'scaffold19109_cov84'
p1565
a(lp1566
I1
a(lp1567
F0.228571
aaI70
aa(lp1568
I1
a(lp1569
F0.253731
aaI67
aaa(lp1570
S'scaffold33902_cov94'
p1571
aS'scaffold8504_cov71'
p1572
a(lp1573
I1
a(lp1574
F0.2
aaI40
aaa(lp1575
S'scaffold27219_cov142'
p1576
aS'scaffold16554_cov65'
p1577
aa(lp1578
S'scaffold165434_cov141'
p1579
aS'scaffold29886_cov66'
p1580
a(lp1581
I1
a(lp1582
F0.0
aaI30
aa(lp1583
I1
a(lp1584
F0.320755
aaI53
aaa(lp1585
S'scaffold1435_cov93'
p1586
aS'scaffold4122_cov62'
p1587
a(lp1588
I1
a(lp1589
F0.0
aaI23
aa(lp1590
I1
a(lp1591
F0.372549
aaI51
aaa(lp1592
S'scaffold95123_cov91'
p1593
aS'scaffold2350_cov77'
p1594
a(lp1595
I1
a(lp1596
F0.0
aaI23
aa(lp1597
I1
a(lp1598
F0.0
aaI23
aaa(lp1599
S'scaffold11842_cov94'
p1600
aS'scaffold158_cov68'
p1601
a(lp1602
I1
a(lp1603
F0.222222
aaI36
aa(lp1604
I1
a(lp1605
F0.235294
aaI34
aa(lp1606
I1
a(lp1607
F0.228571
aaI35
aa(lp1608
I1
a(lp1609
F0.340909
aaI44
aaa(lp1610
S'scaffold34153_cov147'
p1611
aS'scaffold48213_cov76'
p1612
aa(lp1613
S'scaffold7481_cov74'
p1614
aS'scaffold89446_cov79'
p1615
aa(lp1616
S'scaffold5399_cov135'
p1617
aS'scaffold14003_cov64'
p1618
aa(lp1619
S'scaffold19197_cov73'
p1620
aS'scaffold4030_cov67'
p1621
aa(lp1622
S'scaffold63014_cov63'
p1623
aS'scaffold35689_cov78'
p1624
aa(lp1625
S'scaffold16608_cov151'
p1626
aS'scaffold117332_cov60'
p1627
aa(lp1628
S'scaffold165470_cov102'
p1629
aS'scaffold48928_cov92'
p1630
a(lp1631
I1
a(lp1632
F0.326531
aaI49
aa(lp1633
I1
a(lp1634
F0.377778
aaI45
aa(lp1635
I1
a(lp1636
F0.4
aaI50
aa(lp1637
I1
a(lp1638
F0.469388
aaI49
aa(lp1639
I1
a(lp1640
F0.361111
aaI36
aa(lp1641
I1
a(lp1642
F0.518519
aaI54
aa(lp1643
I1
a(lp1644
F0.414634
aaI41
aa(lp1645
I1
a(lp1646
F0.358974
aaI39
aaa(lp1647
S'scaffold5433_cov148'
p1648
aS'scaffold4791_cov68'
p1649
a(lp1650
I1
a(lp1651
F0.0
aaI17
aaa(lp1652
S'scaffold42581_cov70'
p1653
aS'scaffold16606_cov107'
p1654
a(lp1655
I1
a(lp1656
F0.416667
aaI36
aa(lp1657
I1
a(lp1658
F0.428571
aaI35
aa(lp1659
I1
a(lp1660
F0.438596
aaI57
aa(lp1661
I1
a(lp1662
F0.377778
aaI45
aa(lp1663
I1
a(lp1664
F0.510638
aaI47
aa(lp1665
I1
a(lp1666
F0.375
aaI8
aa(lp1667
I1
a(lp1668
F0.375
aaI16
aa(lp1669
I1
a(lp1670
F0.4
aaI40
aa(lp1671
I1
a(lp1672
F0.210526
aaI38
aa(lp1673
I1
a(lp1674
F0.487179
aaI39
aa(lp1675
I1
a(lp1676
F0.513514
aaI37
aa(lp1677
I1
a(lp1678
F0.473684
aaI38
aa(lp1679
I1
a(lp1680
F0.432432
aaI37
aa(lp1681
I1
a(lp1682
F0.28125
aaI32
aa(lp1683
I1
a(lp1684
F0.285714
aaI35
aa(lp1685
I1
a(lp1686
F0.2
aaI35
aa(lp1687
I1
a(lp1688
F0.212121
aaI33
aa(lp1689
I1
a(lp1690
F0.416667
aaI36
aa(lp1691
I1
a(lp1692
F0.382353
aaI34
aaa(lp1693
S'scaffold2507_cov119'
p1694
aS'scaffold414_cov67'
p1695
a(lp1696
I1
a(lp1697
F0.22449
aaI49
aa(lp1698
I1
a(lp1699
F0.214286
aaI28
aa(lp1700
I1
a(lp1701
F0.266667
aaI30
aaa(lp1702
S'scaffold6378_cov134'
p1703
aS'scaffold6379_cov64'
p1704
aa(lp1705
S'scaffold6580_cov70'
p1706
aS'scaffold36738_cov76'
p1707
aa(lp1708
S'scaffold27251_cov134'
p1709
aS'scaffold26715_cov65'
p1710
a(lp1711
I1
a(lp1712
F0.0
aaI15
aaa(lp1713
S'scaffold7224_cov118'
p1714
aS'scaffold775_cov72'
p1715
aa(lp1716
S'scaffold6055_cov140'
p1717
aS'scaffold30423_cov65'
p1718
aa(lp1719
S'scaffold1760_cov96'
p1720
aS'scaffold1762_cov75'
p1721
a(lp1722
I1
a(lp1723
F0.4375
aaI32
aa(lp1724
I1
a(lp1725
F0.222222
aaI36
aa(lp1726
I1
a(lp1727
F0.639344
aaI61
aaa(lp1728
S'scaffold213265_cov125'
p1729
aS'scaffold13885_cov142'
p1730
aa(lp1731
S'scaffold178103_cov209'
p1732
aS'scaffold16632_cov63'
p1733
a(lp1734
I1
a(lp1735
F0.388889
aaI36
aaa(lp1736
S'scaffold36163_cov117'
p1737
aS'scaffold6928_cov65'
p1738
a(lp1739
I1
a(lp1740
F0.44186
aaI43
aaa(lp1741
S'scaffold167503_cov98'
p1742
aS'scaffold7473_cov63'
p1743
a(lp1744
I1
a(lp1745
F0.319018
aaI163
aa(lp1746
I1
a(lp1747
F0.326923
aaI52
aa(lp1748
I1
a(lp1749
F0.211538
aaI52
aaa(lp1750
S'scaffold1316_cov119'
p1751
aS'scaffold5085_cov79'
p1752
a(lp1753
I1
a(lp1754
F0.0
aaI40
aa(lp1755
I1
a(lp1756
F0.0
aaI40
aa(lp1757
I1
a(lp1758
F0.404762
aaI42
aa(lp1759
I1
a(lp1760
F0.361702
aaI47
aa(lp1761
I1
a(lp1762
F0.382353
aaI34
aa(lp1763
I1
a(lp1764
F0.269231
aaI26
aa(lp1765
I1
a(lp1766
F0.432836
aaI67
aa(lp1767
I1
a(lp1768
F0.30303
aaI33
aa(lp1769
I1
a(lp1770
F0.214286
aaI28
aa(lp1771
I1
a(lp1772
F0.222222
aaI36
aa(lp1773
I1
a(lp1774
F0.333333
aaI33
aa(lp1775
I1
a(lp1776
F0.368421
aaI38
aaa(lp1777
S'scaffold17086_cov103'
p1778
aS'scaffold17615_cov61'
p1779
aa(lp1780
S'scaffold14104_cov135'
p1781
aS'scaffold22906_cov63'
p1782
a(lp1783
I1
a(lp1784
F0.2
aaI35
aa(lp1785
I1
a(lp1786
F0.351351
aaI37
aaa(lp1787
S'scaffold107607_cov79'
p1788
aS'scaffold107606_cov134'
p1789
aa(lp1790
S'scaffold164980_cov146'
p1791
aS'scaffold3955_cov67'
p1792
a(lp1793
I1
a(lp1794
F0.0
aaI10
aa(lp1795
I1
a(lp1796
F0.241379
aaI29
aaa(lp1797
S'scaffold21352_cov62'
p1798
aS'scaffold78461_cov65'
p1799
aa(lp1800
S'scaffold22791_cov67'
p1801
aS'scaffold22793_cov63'
p1802
aa(lp1803
S'scaffold5694_cov90'
p1804
aS'scaffold21004_cov60'
p1805
a(lp1806
I1
a(lp1807
F0.264706
aaI34
aaa(lp1808
S'scaffold10298_cov88'
p1809
aS'scaffold12318_cov65'
p1810
aa(lp1811
S'scaffold1518_cov144'
p1812
aS'scaffold7273_cov73'
p1813
aa(lp1814
S'scaffold3714_cov147'
p1815
aS'scaffold3718_cov71'
p1816
a(lp1817
I1
a(lp1818
F0.325581
aaI43
aaa(lp1819
S'scaffold20332_cov97'
p1820
aS'scaffold7080_cov68'
p1821
a(lp1822
I1
a(lp1823
F0.222222
aaI27
aaa(lp1824
S'scaffold6306_cov146'
p1825
aS'scaffold6305_cov69'
p1826
aa(lp1827
S'scaffold11499_cov143'
p1828
aS'scaffold11874_cov70'
p1829
aa(lp1830
S'scaffold34203_cov139'
p1831
aS'scaffold15986_cov63'
p1832
aa(lp1833
S'scaffold4589_cov98'
p1834
aS'scaffold4585_cov69'
p1835
aa(lp1836
S'scaffold2767_cov75'
p1837
aS'scaffold9955_cov79'
p1838
aa(lp1839
S'scaffold2129_cov167'
p1840
aS'scaffold92330_cov67'
p1841
a(lp1842
I1
a(lp1843
F0.216216
aaI37
aaa(lp1844
S'scaffold34203_cov139'
p1845
aS'scaffold4395_cov68'
p1846
aa(lp1847
S'scaffold5847_cov85'
p1848
aS'scaffold4052_cov74'
p1849
a(lp1850
I1
a(lp1851
F0.266667
aaI30
aa(lp1852
I1
a(lp1853
F0.310345
aaI29
aaa(lp1854
S'scaffold10574_cov127'
p1855
aS'scaffold11171_cov138'
p1856
aa(lp1857
S'scaffold5348_cov143'
p1858
aS'scaffold91295_cov60'
p1859
aa(lp1860
S'scaffold22816_cov146'
p1861
aS'scaffold22815_cov69'
p1862
aa(lp1863
S'scaffold122298_cov65'
p1864
aS'scaffold122299_cov139'
p1865
aa(lp1866
S'scaffold18351_cov137'
p1867
aS'scaffold16169_cov72'
p1868
aa(lp1869
S'scaffold15731_cov124'
p1870
aS'scaffold1701_cov70'
p1871
aa(lp1872
S'scaffold1170_cov146'
p1873
aS'scaffold69771_cov67'
p1874
aa(lp1875
S'scaffold3741_cov108'
p1876
aS'scaffold2061_cov67'
p1877
aa(lp1878
S'scaffold1461_cov134'
p1879
aS'scaffold13020_cov66'
p1880
aa(lp1881
S'scaffold16201_cov125'
p1882
aS'scaffold51827_cov73'
p1883
aa(lp1884
S'scaffold10337_cov80'
p1885
aS'scaffold21068_cov65'
p1886
aa(lp1887
S'scaffold6532_cov126'
p1888
aS'scaffold5058_cov63'
p1889
a(lp1890
I1
a(lp1891
F0.343284
aaI67
aaa(lp1892
S'scaffold38959_cov135'
p1893
aS'scaffold57178_cov79'
p1894
a(lp1895
I1
a(lp1896
F0.32
aaI25
aaa(lp1897
S'scaffold17601_cov135'
p1898
aS'scaffold1994_cov63'
p1899
a(lp1900
I1
a(lp1901
F0.307692
aaI26
aaa(lp1902
S'scaffold16294_cov110'
p1903
aS'scaffold7481_cov74'
p1904
a(lp1905
I1
a(lp1906
F0.387755
aaI49
aa(lp1907
I1
a(lp1908
F0.325581
aaI43
aa(lp1909
I1
a(lp1910
F0.357143
aaI42
aa(lp1911
I1
a(lp1912
F0.333333
aaI36
aa(lp1913
I1
a(lp1914
F0.25
aaI32
aa(lp1915
I1
a(lp1916
F0.25
aaI32
aa(lp1917
I1
a(lp1918
F0.258065
aaI31
aa(lp1919
I1
a(lp1920
F0.25
aaI32
aa(lp1921
I1
a(lp1922
F0.25
aaI40
aa(lp1923
I1
a(lp1924
F0.232558
aaI43
aa(lp1925
I1
a(lp1926
F0.272727
aaI44
aa(lp1927
I1
a(lp1928
F0.261905
aaI42
aa(lp1929
I1
a(lp1930
F0.285714
aaI42
aa(lp1931
I1
a(lp1932
F0.272727
aaI44
aa(lp1933
I1
a(lp1934
F0.232558
aaI43
aa(lp1935
I1
a(lp1936
F0.225
aaI40
aa(lp1937
I1
a(lp1938
F0.263158
aaI19
aa(lp1939
I1
a(lp1940
F0.0
aaI19
aa(lp1941
I1
a(lp1942
F0.205882
aaI34
aa(lp1943
I1
a(lp1944
F0.205882
aaI34
aa(lp1945
I1
a(lp1946
F0.263158
aaI38
aa(lp1947
I1
a(lp1948
F0.264706
aaI34
aa(lp1949
I1
a(lp1950
F0.222222
aaI27
aa(lp1951
I1
a(lp1952
F0.266667
aaI30
aa(lp1953
I1
a(lp1954
F0.259259
aaI27
aa(lp1955
I1
a(lp1956
F0.241379
aaI29
aa(lp1957
I1
a(lp1958
F0.225806
aaI31
aaa(lp1959
S'scaffold31627_cov123'
p1960
aS'scaffold1614_cov71'
p1961
a(lp1962
I1
a(lp1963
F0.295455
aaI44
aaa(lp1964
S'scaffold5399_cov135'
p1965
aS'scaffold8409_cov62'
p1966
aa(lp1967
S'scaffold4605_cov69'
p1968
aS'scaffold4604_cov80'
p1969
a(lp1970
I1
a(lp1971
F0.0
aaI14
aaa(lp1972
S'scaffold13624_cov94'
p1973
aS'scaffold72210_cov77'
p1974
aa(lp1975
S'scaffold19315_cov107'
p1976
aS'scaffold7113_cov70'
p1977
a(lp1978
I1
a(lp1979
F0.333333
aaI42
aaa(lp1980
S'scaffold165629_cov145'
p1981
aS'scaffold33634_cov72'
p1982
aa(lp1983
S'scaffold183201_cov134'
p1984
aS'scaffold6997_cov65'
p1985
aa(lp1986
S'scaffold22010_cov97'
p1987
aS'scaffold401_cov67'
p1988
aa(lp1989
S'scaffold17015_cov140'
p1990
aS'scaffold4528_cov69'
p1991
aa(lp1992
S'scaffold21453_cov86'
p1993
aS'scaffold4784_cov67'
p1994
aa(lp1995
S'scaffold13852_cov94'
p1996
aS'scaffold7585_cov68'
p1997
a(lp1998
I1
a(lp1999
F0.0
aaI21
aaa(lp2000
S'scaffold165420_cov139'
p2001
aS'scaffold27291_cov70'
p2002
aa(lp2003
S'scaffold9044_cov136'
p2004
aS'scaffold2501_cov70'
p2005
a(lp2006
I1
a(lp2007
F0.604396
aaI91
aa(lp2008
I1
a(lp2009
F0.0
aaI30
aa(lp2010
I1
a(lp2011
F0.0
aaI19
aa(lp2012
I2
a(lp2013
F0.631579
aF0.368421
aaI19
aa(lp2014
I1
a(lp2015
F0.407407
aaI27
aa(lp2016
I1
a(lp2017
F0.0
aaI3
aa(lp2018
I1
a(lp2019
F0.0
aaI4
aa(lp2020
I1
a(lp2021
F0.0
aaI4
aa(lp2022
I1
a(lp2023
F0.0
aaI5
aaa(lp2024
S'scaffold60916_cov101'
p2025
aS'scaffold2562_cov78'
p2026
aa(lp2027
S'scaffold6452_cov96'
p2028
aS'scaffold5694_cov90'
p2029
a(lp2030
I1
a(lp2031
F0.534884
aaI43
aa(lp2032
I1
a(lp2033
F0.463415
aaI41
aa(lp2034
I1
a(lp2035
F0.4
aaI45
aa(lp2036
I1
a(lp2037
F0.434783
aaI46
aa(lp2038
I1
a(lp2039
F0.477273
aaI44
aa(lp2040
I1
a(lp2041
F0.666667
aaI33
aa(lp2042
I1
a(lp2043
F0.633333
aaI30
aa(lp2044
I1
a(lp2045
F0.592593
aaI27
aa(lp2046
I1
a(lp2047
F0.642857
aaI28
aa(lp2048
I1
a(lp2049
F0.244444
aaI45
aa(lp2050
I1
a(lp2051
F0.391304
aaI46
aa(lp2052
I1
a(lp2053
F0.377778
aaI45
aa(lp2054
I1
a(lp2055
F0.254902
aaI51
aa(lp2056
I1
a(lp2057
F0.28
aaI50
aa(lp2058
I1
a(lp2059
F0.270833
aaI48
aa(lp2060
I1
a(lp2061
F0.407407
aaI54
aa(lp2062
I1
a(lp2063
F0.25
aaI24
aaa(lp2064
S'scaffold4116_cov143'
p2065
aS'scaffold6097_cov70'
p2066
aa(lp2067
S'scaffold451_cov146'
p2068
aS'scaffold449_cov70'
p2069
aa(lp2070
S'scaffold167824_cov153'
p2071
aS'scaffold540_cov68'
p2072
aa(lp2073
S'scaffold182_cov83'
p2074
aS'scaffold3533_cov68'
p2075
a(lp2076
I1
a(lp2077
F0.533333
aaI45
aaa(lp2078
S'scaffold167494_cov111'
p2079
aS'scaffold12899_cov60'
p2080
aa(lp2081
S'scaffold3456_cov132'
p2082
aS'scaffold166714_cov62'
p2083
a(lp2084
I1
a(lp2085
F0.384615
aaI39
aaa(lp2086
S'scaffold37213_cov79'
p2087
aS'scaffold29941_cov91'
p2088
aa(lp2089
S'scaffold183613_cov153'
p2090
aS'scaffold5720_cov71'
p2091
aa(lp2092
S'scaffold7006_cov83'
p2093
aS'scaffold7005_cov65'
p2094
aa(lp2095
S'scaffold10462_cov135'
p2096
aS'scaffold10461_cov66'
p2097
aa(lp2098
S'scaffold5049_cov88'
p2099
aS'scaffold5046_cov63'
p2100
aa(lp2101
S'scaffold19586_cov139'
p2102
aS'scaffold30711_cov65'
p2103
aasS'up'
p2104
(lp2105
(lp2106
g6
ag7
a(lp2107
I1
a(lp2108
F0.44898
aaI49
aa(lp2109
I1
a(lp2110
F0.217391
aaI46
aa(lp2111
I1
a(lp2112
F0.217391
aaI46
aa(lp2113
I1
a(lp2114
F0.204545
aaI44
aa(lp2115
I1
a(lp2116
F0.385965
aaI57
aa(lp2117
I1
a(lp2118
F0.351351
aaI37
aa(lp2119
I1
a(lp2120
F0.37931
aaI58
aa(lp2121
I1
a(lp2122
F0.428571
aaI56
aa(lp2123
I1
a(lp2124
F0.392857
aaI56
aa(lp2125
I1
a(lp2126
F0.3
aaI40
aa(lp2127
I1
a(lp2128
F0.245614
aaI57
aa(lp2129
I1
a(lp2130
F0.354839
aaI62
aa(lp2131
I1
a(lp2132
F0.282609
aaI46
aa(lp2133
I1
a(lp2134
F0.255319
aaI47
aaa(lp2135
g9
ag10
a(lp2136
I1
a(lp2137
F0.425926
aaI54
aa(lp2138
I1
a(lp2139
F0.217391
aaI23
aa(lp2140
I1
a(lp2141
F0.3
aaI40
aaa(lp2142
g12
ag13
aa(lp2143
g15
ag16
a(lp2144
I1
a(lp2145
F0.340426
aaI47
aa(lp2146
I1
a(lp2147
F0.21875
aaI32
aaa(lp2148
g18
ag19
aa(lp2149
g49
ag50
a(lp2150
I1
a(lp2151
F0.454545
aaI44
aa(lp2152
I1
a(lp2153
F0.34657
aaI554
aa(lp2154
I1
a(lp2155
F0.44898
aaI49
aaa(lp2156
g54
ag55
a(lp2157
I1
a(lp2158
F0.289474
aaI38
aa(lp2159
I1
a(lp2160
F0.275
aaI40
aaa(lp2161
g57
ag58
aa(lp2162
g62
ag63
aa(lp2163
g65
ag66
a(lp2164
I1
a(lp2165
F0.512195
aaI41
aa(lp2166
I1
a(lp2167
F0.383333
aaI60
aaa(lp2168
g68
ag69
a(lp2169
I1
a(lp2170
F0.4
aaI45
aaa(lp2171
g71
ag72
aa(lp2172
g74
ag75
a(lp2173
I1
a(lp2174
F0.325581
aaI43
aa(lp2175
I1
a(lp2176
F0.342857
aaI35
aa(lp2177
I1
a(lp2178
F0.275862
aaI29
aa(lp2179
I1
a(lp2180
F0.228571
aaI35
aa(lp2181
I1
a(lp2182
F0.25
aaI32
aaa(lp2183
g79
ag80
a(lp2184
I1
a(lp2185
F0.315789
aaI57
aa(lp2186
I1
a(lp2187
F0.666667
aaI54
aa(lp2188
I1
a(lp2189
F0.231884
aaI69
aa(lp2190
I1
a(lp2191
F0.410256
aaI39
aa(lp2192
I1
a(lp2193
F0.627451
aaI51
aa(lp2194
I1
a(lp2195
F0.393443
aaI61
aa(lp2196
I1
a(lp2197
F0.46
aaI50
aa(lp2198
I1
a(lp2199
F0.0
aaI2
aaa(lp2200
g148
ag149
a(lp2201
I1
a(lp2202
F0.23913
aaI46
aa(lp2203
I1
a(lp2204
F0.5
aaI64
aa(lp2205
I1
a(lp2206
F0.354167
aaI48
aa(lp2207
I1
a(lp2208
F0.220779
aaI77
aa(lp2209
I1
a(lp2210
F0.230769
aaI78
aa(lp2211
I1
a(lp2212
F0.230769
aaI78
aa(lp2213
I1
a(lp2214
F0.461538
aaI52
aaa(lp2215
g151
ag152
a(lp2216
I1
a(lp2217
F0.0
aaI25
aa(lp2218
I1
a(lp2219
F0.0
aaI42
aa(lp2220
I1
a(lp2221
F0.0
aaI56
aa(lp2222
I1
a(lp2223
F0.0
aaI49
aaa(lp2224
g154
ag155
aa(lp2225
g161
ag162
a(lp2226
I1
a(lp2227
F0.0
aaI25
aa(lp2228
I1
a(lp2229
F0.0
aaI24
aa(lp2230
I1
a(lp2231
F0.0
aaI24
aa(lp2232
I1
a(lp2233
F0.0
aaI29
aa(lp2234
I1
a(lp2235
F0.0
aaI30
aa(lp2236
I1
a(lp2237
F0.0
aaI29
aa(lp2238
I1
a(lp2239
F0.0
aaI27
aa(lp2240
I1
a(lp2241
F0.0
aaI21
aa(lp2242
I1
a(lp2243
F0.0
aaI27
aa(lp2244
I1
a(lp2245
F0.0
aaI26
aa(lp2246
I1
a(lp2247
F0.0
aaI23
aa(lp2248
I1
a(lp2249
F0.0
aaI21
aaa(lp2250
g166
ag167
aa(lp2251
g169
ag170
aa(lp2252
g172
ag173
aa(lp2253
g195
ag196
aa(lp2254
g198
ag199
aa(lp2255
g207
ag208
aa(lp2256
g210
ag211
aa(lp2257
g213
ag214
aa(lp2258
g216
ag217
aa(lp2259
g229
ag230
aa(lp2260
g244
ag245
aa(lp2261
g247
ag248
a(lp2262
I1
a(lp2263
F0.428571
aaI49
aa(lp2264
I1
a(lp2265
F0.405405
aaI37
aa(lp2266
I1
a(lp2267
F0.394737
aaI38
aa(lp2268
I1
a(lp2269
F0.377358
aaI53
aa(lp2270
I1
a(lp2271
F0.297297
aaI37
aa(lp2272
I1
a(lp2273
F0.234043
aaI47
aa(lp2274
I1
a(lp2275
F0.219512
aaI41
aa(lp2276
I1
a(lp2277
F0.542373
aaI59
aa(lp2278
I1
a(lp2279
F0.451613
aaI31
aa(lp2280
I1
a(lp2281
F0.315789
aaI76
aa(lp2282
I1
a(lp2283
F0.3625
aaI80
aa(lp2284
I1
a(lp2285
F0.241935
aaI62
aa(lp2286
I1
a(lp2287
F0.25
aaI52
aaa(lp2288
g262
ag263
a(lp2289
I1
a(lp2290
F0.467742
aaI62
aa(lp2291
I1
a(lp2292
F0.413793
aaI58
aa(lp2293
I1
a(lp2294
F0.391304
aaI46
aa(lp2295
I1
a(lp2296
F0.368421
aaI38
aa(lp2297
I1
a(lp2298
F0.358974
aaI39
aa(lp2299
I1
a(lp2300
F0.458333
aaI48
aa(lp2301
I1
a(lp2302
F0.468085
aaI47
aa(lp2303
I1
a(lp2304
F0.243902
aaI41
aa(lp2305
I1
a(lp2306
F0.225806
aaI186
aa(lp2307
I1
a(lp2308
F0.363636
aaI33
aaa(lp2309
g265
ag266
a(lp2310
I1
a(lp2311
F0.347826
aaI46
aaa(lp2312
g268
ag269
a(lp2313
I1
a(lp2314
F0.444444
aaI36
aaa(lp2315
g277
ag278
aa(lp2316
g280
ag281
aa(lp2317
g283
ag284
aa(lp2318
g286
ag287
a(lp2319
I1
a(lp2320
F0.387755
aaI98
aa(lp2321
I1
a(lp2322
F0.441176
aaI34
aa(lp2323
I1
a(lp2324
F0.5
aaI40
aa(lp2325
I1
a(lp2326
F0.206897
aaI29
aa(lp2327
I1
a(lp2328
F0.333333
aaI36
aa(lp2329
I1
a(lp2330
F0.2
aaI30
aa(lp2331
I1
a(lp2332
F0.272727
aaI44
aa(lp2333
I1
a(lp2334
F0.225
aaI40
aa(lp2335
I1
a(lp2336
F0.243902
aaI41
aa(lp2337
I1
a(lp2338
F0.230769
aaI39
aa(lp2339
I1
a(lp2340
F0.2
aaI45
aa(lp2341
I1
a(lp2342
F0.222222
aaI45
aa(lp2343
I1
a(lp2344
F0.205882
aaI34
aa(lp2345
I1
a(lp2346
F0.243243
aaI37
aaa(lp2347
g289
ag290
a(lp2348
I1
a(lp2349
F0.45098
aaI51
aa(lp2350
I1
a(lp2351
F0.275862
aaI29
aa(lp2352
I1
a(lp2353
F0.3
aaI30
aa(lp2354
I1
a(lp2355
F0.333333
aaI33
aa(lp2356
I1
a(lp2357
F0.282051
aaI39
aa(lp2358
I1
a(lp2359
F0.214286
aaI42
aa(lp2360
I1
a(lp2361
F0.225
aaI40
aa(lp2362
I1
a(lp2363
F0.304348
aaI46
aa(lp2364
I1
a(lp2365
F0.257143
aaI35
aa(lp2366
I1
a(lp2367
F0.285714
aaI35
aa(lp2368
I1
a(lp2369
F0.282051
aaI39
aa(lp2370
I1
a(lp2371
F0.309524
aaI42
aa(lp2372
I1
a(lp2373
F0.348837
aaI43
aa(lp2374
I1
a(lp2375
F0.365854
aaI41
aaa(lp2376
g292
ag293
a(lp2377
I1
a(lp2378
F0.204082
aaI49
aa(lp2379
I1
a(lp2380
F0.2
aaI50
aa(lp2381
I1
a(lp2382
F0.304348
aaI46
aa(lp2383
I1
a(lp2384
F0.319149
aaI47
aa(lp2385
I1
a(lp2386
F0.4375
aaI48
aa(lp2387
I1
a(lp2388
F0.394737
aaI38
aa(lp2389
I1
a(lp2390
F0.425532
aaI47
aa(lp2391
I1
a(lp2392
F0.428571
aaI49
aa(lp2393
I1
a(lp2394
F0.568627
aaI51
aa(lp2395
I1
a(lp2396
F0.480769
aaI52
aa(lp2397
I1
a(lp2398
F0.482759
aaI58
aa(lp2399
I1
a(lp2400
F0.446429
aaI56
aaa(lp2401
g309
ag310
aa(lp2402
g312
ag313
a(lp2403
I1
a(lp2404
F0.4375
aaI64
aa(lp2405
I1
a(lp2406
F0.204545
aaI44
aa(lp2407
I1
a(lp2408
F0.361111
aaI36
aa(lp2409
I1
a(lp2410
F0.230769
aaI26
aa(lp2411
I1
a(lp2412
F0.230769
aaI26
aa(lp2413
I1
a(lp2414
F0.222222
aaI27
aa(lp2415
I1
a(lp2416
F0.24
aaI25
aa(lp2417
I1
a(lp2418
F0.25
aaI24
aaa(lp2419
g315
ag316
aa(lp2420
g318
ag319
aa(lp2421
g325
ag326
aa(lp2422
g328
ag329
a(lp2423
I1
a(lp2424
F0.304348
aaI46
aa(lp2425
I1
a(lp2426
F0.454545
aaI55
aa(lp2427
I1
a(lp2428
F0.241379
aaI58
aa(lp2429
I1
a(lp2430
F0.416667
aaI48
aaa(lp2431
g343
ag344
aa(lp2432
g346
ag347
a(lp2433
I1
a(lp2434
F0.211538
aaI52
aa(lp2435
I1
a(lp2436
F0.204545
aaI44
aa(lp2437
I1
a(lp2438
F0.219512
aaI41
aa(lp2439
I1
a(lp2440
F0.421053
aaI57
aa(lp2441
I1
a(lp2442
F0.275862
aaI29
aaa(lp2443
g349
ag350
aa(lp2444
g352
ag353
aa(lp2445
g355
ag356
a(lp2446
I1
a(lp2447
F0.46875
aaI64
aa(lp2448
I1
a(lp2449
F0.37931
aaI58
aaa(lp2450
g358
ag359
a(lp2451
I1
a(lp2452
F0.204082
aaI49
aa(lp2453
I1
a(lp2454
F0.277778
aaI54
aa(lp2455
I1
a(lp2456
F0.340909
aaI44
aa(lp2457
I1
a(lp2458
F0.390244
aaI41
aa(lp2459
I1
a(lp2460
F0.35
aaI40
aaa(lp2461
g377
ag378
a(lp2462
I1
a(lp2463
F0.339286
aaI56
aa(lp2464
I1
a(lp2465
F0.226804
aaI97
aa(lp2466
I1
a(lp2467
F0.226804
aaI97
aa(lp2468
I1
a(lp2469
F0.27957
aaI93
aa(lp2470
I1
a(lp2471
F0.520833
aaI48
aaa(lp2472
g400
ag401
a(lp2473
I1
a(lp2474
F0.317073
aaI41
aa(lp2475
I1
a(lp2476
F0.35443
aaI79
aaa(lp2477
g403
ag404
a(lp2478
I1
a(lp2479
F0.588235
aaI34
aa(lp2480
I1
a(lp2481
F0.275862
aaI29
aa(lp2482
I1
a(lp2483
F0.25
aaI28
aa(lp2484
I1
a(lp2485
F0.266667
aaI30
aaa(lp2486
g444
ag445
a(lp2487
I1
a(lp2488
F0.290323
aaI31
aaa(lp2489
g447
ag448
aa(lp2490
g450
ag451
a(lp2491
I1
a(lp2492
F0.238095
aaI42
aa(lp2493
I1
a(lp2494
F0.277778
aaI54
aaa(lp2495
g453
ag454
aa(lp2496
g456
ag457
a(lp2497
I1
a(lp2498
F0.422222
aaI45
aa(lp2499
I1
a(lp2500
F0.322581
aaI31
aa(lp2501
I1
a(lp2502
F0.419355
aaI31
aa(lp2503
I1
a(lp2504
F0.511111
aaI45
aa(lp2505
I1
a(lp2506
F0.216216
aaI37
aa(lp2507
I1
a(lp2508
F0.230769
aaI39
aa(lp2509
I1
a(lp2510
F0.416667
aaI48
aa(lp2511
I1
a(lp2512
F0.340426
aaI47
aaa(lp2513
g459
ag460
aa(lp2514
g462
ag463
aa(lp2515
g465
ag466
a(lp2516
I1
a(lp2517
F0.216216
aaI37
aa(lp2518
I1
a(lp2519
F0.205128
aaI39
aa(lp2520
I1
a(lp2521
F0.214286
aaI42
aaa(lp2522
g468
ag469
aa(lp2523
g471
ag472
aa(lp2524
g474
ag475
aa(lp2525
g479
ag480
aa(lp2526
g482
ag483
aa(lp2527
g493
ag494
aa(lp2528
g504
ag505
a(lp2529
I1
a(lp2530
F0.0
aaI3
aa(lp2531
I1
a(lp2532
F0.0
aaI4
aa(lp2533
I1
a(lp2534
F0.0
aaI5
aa(lp2535
I1
a(lp2536
F0.0
aaI51
aa(lp2537
I1
a(lp2538
F0.0
aaI60
aa(lp2539
I1
a(lp2540
F0.0
aaI41
aa(lp2541
I1
a(lp2542
F0.0
aaI38
aa(lp2543
I1
a(lp2544
F0.0
aaI24
aa(lp2545
I1
a(lp2546
F0.0
aaI2
aa(lp2547
I1
a(lp2548
F0.0
aaI5
aa(lp2549
I1
a(lp2550
F0.0
aaI20
aa(lp2551
I1
a(lp2552
F0.0
aaI18
aa(lp2553
I1
a(lp2554
F0.0
aaI5
aa(lp2555
I1
a(lp2556
F0.0
aaI2
aa(lp2557
I1
a(lp2558
F0.0
aaI14
aa(lp2559
I1
a(lp2560
F0.0
aaI6
aa(lp2561
I1
a(lp2562
F0.0
aaI6
aa(lp2563
I1
a(lp2564
F0.0
aaI12
aa(lp2565
I1
a(lp2566
F0.0
aaI13
aa(lp2567
I1
a(lp2568
F0.0
aaI24
aa(lp2569
I1
a(lp2570
F0.0
aaI26
aa(lp2571
I1
a(lp2572
F0.0
aaI30
aa(lp2573
I1
a(lp2574
F0.0
aaI49
aaa(lp2575
g517
ag518
aa(lp2576
g520
ag521
a(lp2577
I1
a(lp2578
F0.388889
aaI36
aa(lp2579
I1
a(lp2580
F0.0
aaI56
aa(lp2581
I1
a(lp2582
F0.581395
aaI43
aa(lp2583
I1
a(lp2584
F0.470588
aaI34
aa(lp2585
I1
a(lp2586
F0.322581
aaI62
aa(lp2587
I1
a(lp2588
F0.363636
aaI66
aa(lp2589
I1
a(lp2590
F0.391304
aaI69
aa(lp2591
I1
a(lp2592
F0.385714
aaI70
aa(lp2593
I1
a(lp2594
F0.39726
aaI73
aa(lp2595
I1
a(lp2596
F0.447368
aaI38
aa(lp2597
I1
a(lp2598
F0.428571
aaI49
aa(lp2599
I1
a(lp2600
F0.470588
aaI51
aa(lp2601
I1
a(lp2602
F0.454545
aaI55
aa(lp2603
I1
a(lp2604
F0.304348
aaI46
aa(lp2605
I1
a(lp2606
F0.391304
aaI46
aa(lp2607
I1
a(lp2608
F0.242424
aaI33
aa(lp2609
I1
a(lp2610
F0.212121
aaI33
aa(lp2611
I1
a(lp2612
F0.607143
aaI28
aa(lp2613
I1
a(lp2614
F0.6
aaI30
aa(lp2615
I1
a(lp2616
F0.5
aaI34
aa(lp2617
I1
a(lp2618
F0.485714
aaI35
aa(lp2619
I1
a(lp2620
F0.342857
aaI35
aa(lp2621
I1
a(lp2622
F0.238095
aaI42
aa(lp2623
I1
a(lp2624
F0.216216
aaI37
aa(lp2625
I1
a(lp2626
F0.212121
aaI33
aaa(lp2627
g527
ag528
aa(lp2628
g534
ag535
aa(lp2629
g537
ag538
a(lp2630
I1
a(lp2631
F0.255319
aaI47
aa(lp2632
I1
a(lp2633
F0.28
aaI50
aaa(lp2634
g544
ag545
aa(lp2635
g547
ag548
aa(lp2636
g550
ag551
aa(lp2637
g553
ag554
aa(lp2638
g556
ag557
a(lp2639
I1
a(lp2640
F0.0
aaI17
aa(lp2641
I1
a(lp2642
F0.0
aaI12
aa(lp2643
I1
a(lp2644
F0.0
aaI11
aa(lp2645
I1
a(lp2646
F0.0
aaI7
aa(lp2647
I1
a(lp2648
F0.0
aaI3
aa(lp2649
I1
a(lp2650
F0.0
aaI3
aa(lp2651
I1
a(lp2652
F0.0
aaI4
aa(lp2653
I1
a(lp2654
F0.0
aaI4
aa(lp2655
I1
a(lp2656
F0.0
aaI8
aa(lp2657
I1
a(lp2658
F0.0
aaI3
aa(lp2659
I1
a(lp2660
F0.0
aaI2
aa(lp2661
I1
a(lp2662
F0.0
aaI2
aa(lp2663
I1
a(lp2664
F0.0
aaI2
aa(lp2665
I1
a(lp2666
F0.0
aaI14
aa(lp2667
I1
a(lp2668
F0.0
aaI13
aa(lp2669
I1
a(lp2670
F0.0
aaI5
aa(lp2671
I1
a(lp2672
F0.0
aaI4
aa(lp2673
I1
a(lp2674
F0.0
aaI2
aa(lp2675
I1
a(lp2676
F0.0
aaI2
aa(lp2677
I1
a(lp2678
F0.0
aaI6
aa(lp2679
I1
a(lp2680
F0.0
aaI12
aa(lp2681
I1
a(lp2682
F0.0
aaI12
aa(lp2683
I1
a(lp2684
F0.0
aaI41
aa(lp2685
I1
a(lp2686
F0.0
aaI37
aaa(lp2687
g581
ag582
aa(lp2688
g584
ag585
aa(lp2689
g587
ag588
a(lp2690
I1
a(lp2691
F0.444444
aaI63
aa(lp2692
I1
a(lp2693
F0.38
aaI50
aa(lp2694
I1
a(lp2695
F0.475
aaI40
aa(lp2696
I1
a(lp2697
F0.285714
aaI35
aa(lp2698
I1
a(lp2699
F0.5
aaI52
aa(lp2700
I1
a(lp2701
F0.243243
aaI37
aa(lp2702
I1
a(lp2703
F0.26087
aaI23
aa(lp2704
I1
a(lp2705
F0.295455
aaI44
aa(lp2706
I1
a(lp2707
F0.3125
aaI48
aa(lp2708
I1
a(lp2709
F0.276596
aaI47
aa(lp2710
I1
a(lp2711
F0.225
aaI40
aaa(lp2712
g590
ag591
aa(lp2713
g593
ag594
aa(lp2714
g596
ag597
aa(lp2715
g601
ag602
a(lp2716
I1
a(lp2717
F0.348837
aaI43
aa(lp2718
I1
a(lp2719
F0.404255
aaI47
aa(lp2720
I1
a(lp2721
F0.37037
aaI54
aaa(lp2722
g628
ag629
a(lp2723
I1
a(lp2724
F0.375
aaI40
aa(lp2725
I1
a(lp2726
F0.358974
aaI39
aa(lp2727
I1
a(lp2728
F0.342105
aaI38
aa(lp2729
I1
a(lp2730
F0.228571
aaI35
aa(lp2731
I1
a(lp2732
F0.277778
aaI36
aa(lp2733
I1
a(lp2734
F0.228571
aaI35
aa(lp2735
I1
a(lp2736
F0.38
aaI50
aaa(lp2737
g631
ag632
a(lp2738
I1
a(lp2739
F0.365854
aaI41
aa(lp2740
I1
a(lp2741
F0.423077
aaI52
aa(lp2742
I1
a(lp2743
F0.292683
aaI41
aa(lp2744
I1
a(lp2745
F0.375
aaI48
aa(lp2746
I1
a(lp2747
F0.378378
aaI37
aa(lp2748
I1
a(lp2749
F0.304348
aaI46
aa(lp2750
I1
a(lp2751
F0.3125
aaI32
aa(lp2752
I1
a(lp2753
F0.322581
aaI31
aaa(lp2754
g636
ag637
aa(lp2755
g661
ag662
aa(lp2756
g664
ag665
a(lp2757
I1
a(lp2758
F0.290909
aaI55
aa(lp2759
I1
a(lp2760
F0.264706
aaI34
aa(lp2761
I1
a(lp2762
F0.6
aaI45
aa(lp2763
I1
a(lp2764
F0.473684
aaI57
aa(lp2765
I1
a(lp2766
F0.290323
aaI31
aa(lp2767
I1
a(lp2768
F0.410256
aaI39
aa(lp2769
I1
a(lp2770
F0.315789
aaI38
aa(lp2771
I1
a(lp2772
F0.428571
aaI49
aa(lp2773
I1
a(lp2774
F0.215385
aaI65
aaa(lp2775
g669
ag670
aa(lp2776
g680
ag681
aa(lp2777
g687
ag688
aa(lp2778
g698
ag699
a(lp2779
I1
a(lp2780
F0.289474
aaI38
aa(lp2781
I1
a(lp2782
F0.244444
aaI45
aa(lp2783
I1
a(lp2784
F0.4
aaI25
aa(lp2785
I1
a(lp2786
F0.416667
aaI24
aaa(lp2787
g701
ag702
a(lp2788
I1
a(lp2789
F0.333333
aaI33
aa(lp2790
I1
a(lp2791
F0.277778
aaI36
aa(lp2792
I1
a(lp2793
F0.37037
aaI27
aa(lp2794
I1
a(lp2795
F0.348837
aaI43
aa(lp2796
I1
a(lp2797
F0.326923
aaI52
aa(lp2798
I1
a(lp2799
F0.243243
aaI37
aa(lp2800
I1
a(lp2801
F0.325581
aaI43
aa(lp2802
I1
a(lp2803
F0.377778
aaI45
aa(lp2804
I1
a(lp2805
F0.322034
aaI59
aa(lp2806
I1
a(lp2807
F0.514286
aaI35
aa(lp2808
I1
a(lp2809
F0.372093
aaI43
aa(lp2810
I1
a(lp2811
F0.354167
aaI48
aa(lp2812
I1
a(lp2813
F0.297872
aaI47
aa(lp2814
I1
a(lp2815
F0.255814
aaI43
aaa(lp2816
g704
ag705
a(lp2817
I1
a(lp2818
F0.539474
aaI76
aa(lp2819
I1
a(lp2820
F0.301205
aaI83
aa(lp2821
I1
a(lp2822
F0.25
aaI84
aa(lp2823
I1
a(lp2824
F0.5
aaI52
aa(lp2825
I1
a(lp2826
F0.594203
aaI69
aa(lp2827
I1
a(lp2828
F0.621212
aaI66
aa(lp2829
I1
a(lp2830
F0.5
aaI52
aa(lp2831
I1
a(lp2832
F0.671233
aaI73
aa(lp2833
I1
a(lp2834
F0.234568
aaI81
aaa(lp2835
g763
ag764
aa(lp2836
g766
ag767
a(lp2837
I1
a(lp2838
F0.205882
aaI34
aa(lp2839
I1
a(lp2840
F0.272727
aaI22
aa(lp2841
I1
a(lp2842
F0.0
aaI701
aaa(lp2843
g769
ag770
a(lp2844
I1
a(lp2845
F0.433333
aaI30
aa(lp2846
I1
a(lp2847
F0.297872
aaI47
aa(lp2848
I1
a(lp2849
F0.27907
aaI43
aa(lp2850
I1
a(lp2851
F0.325
aaI40
aa(lp2852
I1
a(lp2853
F0.325581
aaI43
aa(lp2854
I1
a(lp2855
F0.333333
aaI45
aaa(lp2856
g772
ag773
aa(lp2857
g775
ag776
a(lp2858
I1
a(lp2859
F0.264706
aaI34
aa(lp2860
I1
a(lp2861
F0.277778
aaI36
aa(lp2862
I1
a(lp2863
F0.289474
aaI38
aa(lp2864
I1
a(lp2865
F0.425
aaI40
aa(lp2866
I1
a(lp2867
F0.489796
aaI49
aaa(lp2868
g782
ag783
aa(lp2869
g785
ag786
a(lp2870
I1
a(lp2871
F0.259259
aaI27
aa(lp2872
I1
a(lp2873
F0.241379
aaI29
aa(lp2874
I1
a(lp2875
F0.225806
aaI31
aa(lp2876
I1
a(lp2877
F0.395349
aaI43
aa(lp2878
I1
a(lp2879
F0.413043
aaI46
aa(lp2880
I1
a(lp2881
F0.46
aaI50
aa(lp2882
I1
a(lp2883
F0.477273
aaI44
aa(lp2884
I1
a(lp2885
F0.446809
aaI47
aa(lp2886
I1
a(lp2887
F0.255814
aaI43
aa(lp2888
I1
a(lp2889
F0.446429
aaI56
aaa(lp2890
g798
ag799
a(lp2891
I1
a(lp2892
F0.367347
aaI49
aa(lp2893
I1
a(lp2894
F0.396226
aaI53
aa(lp2895
I1
a(lp2896
F0.421053
aaI57
aa(lp2897
I1
a(lp2898
F0.403226
aaI62
aa(lp2899
I1
a(lp2900
F0.377358
aaI53
aa(lp2901
I1
a(lp2902
F0.295455
aaI44
aa(lp2903
I1
a(lp2904
F0.347826
aaI46
aa(lp2905
I1
a(lp2906
F0.357143
aaI56
aa(lp2907
I1
a(lp2908
F0.339623
aaI53
aaa(lp2909
g807
ag808
a(lp2910
I1
a(lp2911
F0.344828
aaI29
aa(lp2912
I1
a(lp2913
F0.333333
aaI30
aa(lp2914
I1
a(lp2915
F0.3
aaI30
aa(lp2916
I1
a(lp2917
F0.290323
aaI31
aa(lp2918
I1
a(lp2919
F0.439024
aaI41
aa(lp2920
I1
a(lp2921
F0.396226
aaI53
aa(lp2922
I1
a(lp2923
F0.380952
aaI42
aa(lp2924
I1
a(lp2925
F0.380952
aaI42
aa(lp2926
I1
a(lp2927
F0.516129
aaI62
aaa(lp2928
g810
ag811
aa(lp2929
g813
ag814
aa(lp2930
g816
ag817
a(lp2931
I1
a(lp2932
F0.225806
aaI31
aa(lp2933
I1
a(lp2934
F0.4
aaI35
aa(lp2935
I1
a(lp2936
F0.294118
aaI51
aa(lp2937
I1
a(lp2938
F0.276596
aaI47
aa(lp2939
I1
a(lp2940
F0.311111
aaI45
aa(lp2941
I1
a(lp2942
F0.491525
aaI59
aa(lp2943
I1
a(lp2944
F0.405405
aaI37
aa(lp2945
I1
a(lp2946
F0.393939
aaI33
aa(lp2947
I1
a(lp2948
F0.36
aaI25
aaa(lp2949
g819
ag820
aa(lp2950
g822
ag823
a(lp2951
I1
a(lp2952
F0.255319
aaI47
aa(lp2953
I1
a(lp2954
F0.21875
aaI32
aaa(lp2955
g827
ag828
aa(lp2956
g832
ag833
aa(lp2957
g835
ag836
aa(lp2958
g840
ag841
aa(lp2959
g843
ag844
aa(lp2960
g846
ag847
aa(lp2961
g849
ag850
aa(lp2962
g852
ag853
a(lp2963
I1
a(lp2964
F0.5
aaI42
aaa(lp2965
g855
ag856
a(lp2966
I1
a(lp2967
F0.435897
aaI39
aa(lp2968
I1
a(lp2969
F0.307692
aaI39
aa(lp2970
I1
a(lp2971
F0.268293
aaI41
aa(lp2972
I1
a(lp2973
F0.275
aaI40
aaa(lp2974
g858
ag859
aa(lp2975
g861
ag862
a(lp2976
I1
a(lp2977
F0.272727
aaI11
aa(lp2978
I1
a(lp2979
F0.487805
aaI41
aa(lp2980
I1
a(lp2981
F0.452381
aaI42
aa(lp2982
I1
a(lp2983
F0.487805
aaI41
aa(lp2984
I1
a(lp2985
F0.441176
aaI34
aa(lp2986
I1
a(lp2987
F0.439024
aaI41
aa(lp2988
I1
a(lp2989
F0.431818
aaI44
aa(lp2990
I1
a(lp2991
F0.4
aaI45
aa(lp2992
I1
a(lp2993
F0.395349
aaI43
aa(lp2994
I1
a(lp2995
F0.434783
aaI46
aa(lp2996
I1
a(lp2997
F0.333333
aaI33
aa(lp2998
I1
a(lp2999
F0.212121
aaI33
aa(lp3000
I1
a(lp3001
F0.205882
aaI34
aa(lp3002
I1
a(lp3003
F0.242424
aaI33
aaa(lp3004
g864
ag865
aa(lp3005
g867
ag868
a(lp3006
I1
a(lp3007
F0.357143
aaI42
aa(lp3008
I1
a(lp3009
F0.280702
aaI57
aa(lp3010
I1
a(lp3011
F0.322034
aaI59
aa(lp3012
I1
a(lp3013
F0.257143
aaI35
aa(lp3014
I1
a(lp3015
F0.282609
aaI46
aa(lp3016
I1
a(lp3017
F0.297872
aaI47
aa(lp3018
I1
a(lp3019
F0.222222
aaI36
aa(lp3020
I1
a(lp3021
F0.2
aaI50
aa(lp3022
I1
a(lp3023
F0.341463
aaI41
aa(lp3024
I1
a(lp3025
F0.289474
aaI38
aa(lp3026
I1
a(lp3027
F0.35
aaI40
aa(lp3028
I1
a(lp3029
F0.341463
aaI41
aaa(lp3030
g874
ag875
a(lp3031
I1
a(lp3032
F0.306122
aaI49
aa(lp3033
I1
a(lp3034
F0.285714
aaI49
aa(lp3035
I1
a(lp3036
F0.448276
aaI58
aa(lp3037
I1
a(lp3038
F0.309524
aaI84
aaa(lp3039
g885
ag886
a(lp3040
I1
a(lp3041
F0.4375
aaI64
aa(lp3042
I1
a(lp3043
F0.318182
aaI44
aa(lp3044
I1
a(lp3045
F0.622642
aaI53
aa(lp3046
I1
a(lp3047
F0.219512
aaI41
aaa(lp3048
g888
ag889
a(lp3049
I1
a(lp3050
F0.2
aaI35
aa(lp3051
I1
a(lp3052
F0.225806
aaI31
aa(lp3053
I1
a(lp3054
F0.233333
aaI30
aa(lp3055
I1
a(lp3056
F0.25
aaI28
aa(lp3057
I1
a(lp3058
F0.243243
aaI37
aaa(lp3059
g891
ag892
aa(lp3060
g894
ag895
aa(lp3061
g897
ag898
aa(lp3062
g900
ag901
aa(lp3063
g903
ag904
a(lp3064
I1
a(lp3065
F0.255814
aaI43
aa(lp3066
I1
a(lp3067
F0.48
aaI50
aaa(lp3068
g906
ag907
a(lp3069
I1
a(lp3070
F0.510638
aaI47
aa(lp3071
I1
a(lp3072
F0.257143
aaI35
aa(lp3073
I1
a(lp3074
F0.285714
aaI49
aa(lp3075
I1
a(lp3076
F0.377778
aaI45
aa(lp3077
I1
a(lp3078
F0.478873
aaI71
aaa(lp3079
g913
ag914
aa(lp3080
g918
ag919
a(lp3081
I1
a(lp3082
F0.219512
aaI41
aaa(lp3083
g921
ag922
a(lp3084
I1
a(lp3085
F0.448276
aaI58
aa(lp3086
I1
a(lp3087
F0.52459
aaI61
aa(lp3088
I1
a(lp3089
F0.388889
aaI36
aa(lp3090
I1
a(lp3091
F0.236842
aaI38
aa(lp3092
I1
a(lp3093
F0.243243
aaI37
aa(lp3094
I1
a(lp3095
F0.216216
aaI37
aa(lp3096
I1
a(lp3097
F0.230769
aaI39
aa(lp3098
I1
a(lp3099
F0.315789
aaI38
aa(lp3100
I1
a(lp3101
F0.358974
aaI39
aa(lp3102
I1
a(lp3103
F0.340909
aaI44
aa(lp3104
I1
a(lp3105
F0.36
aaI50
aa(lp3106
I1
a(lp3107
F0.492537
aaI67
aaa(lp3108
g970
ag971
a(lp3109
I1
a(lp3110
F0.225
aaI40
aa(lp3111
I1
a(lp3112
F0.225
aaI40
aa(lp3113
I1
a(lp3114
F0.292683
aaI41
aa(lp3115
I1
a(lp3116
F0.333333
aaI45
aa(lp3117
I1
a(lp3118
F0.444444
aaI63
aa(lp3119
I1
a(lp3120
F0.326087
aaI46
aa(lp3121
I1
a(lp3122
F0.214286
aaI42
aa(lp3123
I1
a(lp3124
F0.225
aaI40
aaa(lp3125
g975
ag976
aa(lp3126
g978
ag979
a(lp3127
I1
a(lp3128
F0.208791
aaI91
aa(lp3129
I1
a(lp3130
F0.217391
aaI23
aaa(lp3131
g981
ag982
aa(lp3132
g984
ag985
aa(lp3133
g987
ag988
aa(lp3134
g990
ag991
aa(lp3135
g993
ag994
a(lp3136
I1
a(lp3137
F0.283019
aaI53
aa(lp3138
I1
a(lp3139
F0.538462
aaI52
aa(lp3140
I1
a(lp3141
F0.276596
aaI47
aa(lp3142
I1
a(lp3143
F0.243243
aaI37
aa(lp3144
I1
a(lp3145
F0.266667
aaI30
aaa(lp3146
g996
ag997
a(lp3147
I1
a(lp3148
F0.333333
aaI30
aa(lp3149
I1
a(lp3150
F0.2
aaI30
aa(lp3151
I1
a(lp3152
F0.236842
aaI38
aa(lp3153
I1
a(lp3154
F0.362069
aaI58
aa(lp3155
I1
a(lp3156
F0.433333
aaI60
aaa(lp3157
g1001
ag1002
a(lp3158
I1
a(lp3159
F0.5
aaI56
aaa(lp3160
g1004
ag1005
a(lp3161
I1
a(lp3162
F0.394737
aaI38
aa(lp3163
I1
a(lp3164
F0.522727
aaI44
aa(lp3165
I1
a(lp3166
F0.507937
aaI63
aa(lp3167
I1
a(lp3168
F0.484848
aaI66
aa(lp3169
I1
a(lp3170
F0.222222
aaI45
aa(lp3171
I1
a(lp3172
F0.319149
aaI47
aa(lp3173
I1
a(lp3174
F0.4
aaI45
aa(lp3175
I1
a(lp3176
F0.219512
aaI41
aa(lp3177
I1
a(lp3178
F0.25
aaI36
aa(lp3179
I1
a(lp3180
F0.363636
aaI44
aa(lp3181
I1
a(lp3182
F0.2
aaI35
aa(lp3183
I1
a(lp3184
F0.354167
aaI48
aa(lp3185
I1
a(lp3186
F0.326087
aaI46
aa(lp3187
I1
a(lp3188
F0.55
aaI40
aa(lp3189
I1
a(lp3190
F0.219512
aaI41
aa(lp3191
I1
a(lp3192
F0.214286
aaI42
aa(lp3193
I1
a(lp3194
F0.227273
aaI22
aa(lp3195
I1
a(lp3196
F0.542857
aaI35
aa(lp3197
I1
a(lp3198
F0.244898
aaI49
aa(lp3199
I1
a(lp3200
F0.235294
aaI51
aa(lp3201
I1
a(lp3202
F0.208333
aaI48
aa(lp3203
I1
a(lp3204
F0.222222
aaI45
aa(lp3205
I1
a(lp3206
F0.222222
aaI45
aa(lp3207
I1
a(lp3208
F0.234043
aaI47
aa(lp3209
I1
a(lp3210
F0.352941
aaI34
aa(lp3211
I1
a(lp3212
F0.3
aaI50
aa(lp3213
I1
a(lp3214
F0.288889
aaI45
aa(lp3215
I1
a(lp3216
F0.297872
aaI47
aa(lp3217
I1
a(lp3218
F0.205128
aaI39
aa(lp3219
I1
a(lp3220
F0.25
aaI40
aa(lp3221
I1
a(lp3222
F0.222222
aaI36
aaa(lp3223
g1029
ag1030
aa(lp3224
g1032
ag1033
aa(lp3225
g1035
ag1036
aa(lp3226
g1038
ag1039
aa(lp3227
g1041
ag1042
aa(lp3228
g1044
ag1045
a(lp3229
I1
a(lp3230
F0.324324
aaI37
aa(lp3231
I1
a(lp3232
F0.277778
aaI36
aa(lp3233
I1
a(lp3234
F0.297297
aaI37
aa(lp3235
I1
a(lp3236
F0.433962
aaI53
aa(lp3237
I1
a(lp3238
F0.431373
aaI51
aaa(lp3239
g1047
ag1048
a(lp3240
I1
a(lp3241
F0.385965
aaI57
aa(lp3242
I1
a(lp3243
F0.35
aaI60
aa(lp3244
I1
a(lp3245
F0.478261
aaI46
aaa(lp3246
g1050
ag1051
aa(lp3247
g1053
ag1054
aa(lp3248
g1056
ag1057
a(lp3249
I1
a(lp3250
F0.369565
aaI46
aa(lp3251
I1
a(lp3252
F0.296296
aaI54
aa(lp3253
I1
a(lp3254
F0.2
aaI45
aa(lp3255
I1
a(lp3256
F0.205128
aaI39
aa(lp3257
I1
a(lp3258
F0.206897
aaI29
aa(lp3259
I1
a(lp3260
F0.241379
aaI29
aa(lp3261
I1
a(lp3262
F0.475
aaI40
aa(lp3263
I1
a(lp3264
F0.481481
aaI54
aa(lp3265
I1
a(lp3266
F0.44898
aaI49
aa(lp3267
I1
a(lp3268
F0.444444
aaI36
aa(lp3269
I1
a(lp3270
F0.371429
aaI35
aa(lp3271
I1
a(lp3272
F0.28125
aaI32
aa(lp3273
I1
a(lp3274
F0.290323
aaI31
aa(lp3275
I1
a(lp3276
F0.275862
aaI29
aa(lp3277
I1
a(lp3278
F0.44186
aaI43
aa(lp3279
I1
a(lp3280
F0.390244
aaI41
aa(lp3281
I1
a(lp3282
F0.210526
aaI38
aa(lp3283
I1
a(lp3284
F0.309524
aaI42
aa(lp3285
I1
a(lp3286
F0.294118
aaI34
aa(lp3287
I1
a(lp3288
F0.3
aaI30
aa(lp3289
I1
a(lp3290
F0.241379
aaI29
aa(lp3291
I1
a(lp3292
F0.355932
aaI59
aa(lp3293
I1
a(lp3294
F0.222222
aaI18
aa(lp3295
I1
a(lp3296
F0.396226
aaI53
aa(lp3297
I1
a(lp3298
F0.36
aaI25
aa(lp3299
I1
a(lp3300
F0.4
aaI10
aaa(lp3301
g1071
ag1072
aa(lp3302
g1074
ag1075
aa(lp3303
g1077
ag1078
a(lp3304
I1
a(lp3305
F0.423077
aaI52
aa(lp3306
I1
a(lp3307
F0.382979
aaI47
aa(lp3308
I1
a(lp3309
F0.214286
aaI14
aaa(lp3310
g1082
ag1083
aa(lp3311
g1087
ag1088
a(lp3312
I1
a(lp3313
F0.225806
aaI31
aa(lp3314
I1
a(lp3315
F0.2
aaI30
aa(lp3316
I1
a(lp3317
F0.3
aaI30
aa(lp3318
I1
a(lp3319
F0.3
aaI30
aaa(lp3320
g1092
ag1093
aa(lp3321
g1099
ag1100
a(lp3322
I1
a(lp3323
F0.0
aaI47
aaa(lp3324
g1104
ag1105
a(lp3325
I1
a(lp3326
F0.290323
aaI31
aa(lp3327
I1
a(lp3328
F0.487179
aaI39
aa(lp3329
I1
a(lp3330
F0.372549
aaI51
aa(lp3331
I1
a(lp3332
F0.54902
aaI51
aa(lp3333
I1
a(lp3334
F0.413793
aaI58
aa(lp3335
I1
a(lp3336
F0.261905
aaI42
aa(lp3337
I1
a(lp3338
F0.428571
aaI35
aa(lp3339
I1
a(lp3340
F0.2
aaI35
aa(lp3341
I1
a(lp3342
F0.363636
aaI33
aa(lp3343
I1
a(lp3344
F0.333333
aaI33
aaa(lp3345
g1109
ag1110
a(lp3346
I1
a(lp3347
F0.369565
aaI46
aaa(lp3348
g1112
ag1113
a(lp3349
I1
a(lp3350
F0.27027
aaI37
aaa(lp3351
g1121
ag1122
aa(lp3352
g1124
ag1125
a(lp3353
I1
a(lp3354
F0.304348
aaI46
aa(lp3355
I1
a(lp3356
F0.413793
aaI29
aa(lp3357
I1
a(lp3358
F0.395833
aaI48
aaa(lp3359
g1127
ag1128
aa(lp3360
g1132
ag1133
aa(lp3361
g1135
ag1136
aa(lp3362
g1144
ag1145
a(lp3363
I1
a(lp3364
F0.2
aaI35
aa(lp3365
I1
a(lp3366
F0.27907
aaI43
aa(lp3367
I1
a(lp3368
F0.372093
aaI43
aa(lp3369
I1
a(lp3370
F0.4
aaI65
aa(lp3371
I1
a(lp3372
F0.377049
aaI61
aa(lp3373
I1
a(lp3374
F0.377049
aaI61
aa(lp3375
I1
a(lp3376
F0.309524
aaI42
aa(lp3377
I1
a(lp3378
F0.238095
aaI42
aa(lp3379
I1
a(lp3380
F0.209302
aaI43
aa(lp3381
I1
a(lp3382
F0.25
aaI44
aa(lp3383
I1
a(lp3384
F0.421053
aaI38
aa(lp3385
I1
a(lp3386
F0.222222
aaI27
aa(lp3387
I1
a(lp3388
F0.470588
aaI51
aaa(lp3389
g1147
ag1148
a(lp3390
I1
a(lp3391
F0.391304
aaI46
aaa(lp3392
g1152
ag1153
a(lp3393
I1
a(lp3394
F0.216216
aaI37
aa(lp3395
I1
a(lp3396
F0.340909
aaI44
aa(lp3397
I1
a(lp3398
F0.333333
aaI39
aa(lp3399
I1
a(lp3400
F0.325581
aaI43
aa(lp3401
I1
a(lp3402
F0.222222
aaI27
aaa(lp3403
g1157
ag1158
a(lp3404
I1
a(lp3405
F0.534351
aaI131
aaa(lp3406
g1160
ag1161
aa(lp3407
g1163
ag1164
a(lp3408
I1
a(lp3409
F0.361111
aaI36
aa(lp3410
I1
a(lp3411
F0.242424
aaI33
aa(lp3412
I1
a(lp3413
F0.277778
aaI36
aa(lp3414
I1
a(lp3415
F0.289474
aaI38
aa(lp3416
I1
a(lp3417
F0.268293
aaI41
aa(lp3418
I1
a(lp3419
F0.459459
aaI37
aaa(lp3420
g1168
ag1169
a(lp3421
I1
a(lp3422
F0.2
aaI40
aa(lp3423
I1
a(lp3424
F0.205128
aaI39
aa(lp3425
I1
a(lp3426
F0.320755
aaI53
aa(lp3427
I1
a(lp3428
F0.384615
aaI52
aa(lp3429
I1
a(lp3430
F0.59375
aaI64
aa(lp3431
I1
a(lp3432
F0.392857
aaI56
aa(lp3433
I1
a(lp3434
F0.538462
aaI39
aa(lp3435
I1
a(lp3436
F0.411765
aaI34
aa(lp3437
I1
a(lp3438
F0.243243
aaI37
aa(lp3439
I1
a(lp3440
F0.431373
aaI51
aa(lp3441
I1
a(lp3442
F0.421053
aaI57
aa(lp3443
I1
a(lp3444
F0.509434
aaI53
aa(lp3445
I1
a(lp3446
F0.488372
aaI43
aa(lp3447
I1
a(lp3448
F0.333333
aaI45
aa(lp3449
I1
a(lp3450
F0.306122
aaI49
aa(lp3451
I1
a(lp3452
F0.272727
aaI44
aa(lp3453
I1
a(lp3454
F0.314815
aaI54
aa(lp3455
I1
a(lp3456
F0.473684
aaI38
aa(lp3457
I1
a(lp3458
F0.382353
aaI34
aa(lp3459
I1
a(lp3460
F0.462963
aaI54
aa(lp3461
I1
a(lp3462
F0.462963
aaI54
aa(lp3463
I1
a(lp3464
F0.26
aaI50
aa(lp3465
I1
a(lp3466
F0.25
aaI52
aa(lp3467
I1
a(lp3468
F0.285714
aaI49
aa(lp3469
I1
a(lp3470
F0.255814
aaI43
aa(lp3471
I1
a(lp3472
F0.23913
aaI46
aa(lp3473
I1
a(lp3474
F0.47619
aaI42
aa(lp3475
I1
a(lp3476
F0.340909
aaI44
aa(lp3477
I1
a(lp3478
F0.209302
aaI43
aa(lp3479
I1
a(lp3480
F0.457143
aaI35
aa(lp3481
I1
a(lp3482
F0.206897
aaI29
aa(lp3483
I1
a(lp3484
F0.285714
aaI42
aa(lp3485
I1
a(lp3486
F0.385965
aaI57
aaa(lp3487
g1185
ag1186
a(lp3488
I1
a(lp3489
F0.25
aaI40
aa(lp3490
I1
a(lp3491
F0.307692
aaI39
aa(lp3492
I1
a(lp3493
F0.317073
aaI41
aa(lp3494
I1
a(lp3495
F0.285714
aaI35
aa(lp3496
I1
a(lp3497
F0.276596
aaI47
aa(lp3498
I1
a(lp3499
F0.265306
aaI49
aa(lp3500
I1
a(lp3501
F0.265306
aaI49
aaa(lp3502
g1192
ag1193
aa(lp3503
g1195
ag1196
aa(lp3504
g1198
ag1199
a(lp3505
I1
a(lp3506
F0.485714
aaI70
aa(lp3507
I1
a(lp3508
F0.382979
aaI47
aa(lp3509
I1
a(lp3510
F0.461538
aaI52
aa(lp3511
I1
a(lp3512
F0.44
aaI50
aa(lp3513
I1
a(lp3514
F0.275362
aaI69
aa(lp3515
I1
a(lp3516
F0.357143
aaI70
aa(lp3517
I1
a(lp3518
F0.619048
aaI42
aa(lp3519
I1
a(lp3520
F0.32
aaI75
aaa(lp3521
g1203
ag1204
aa(lp3522
g1206
ag1207
aa(lp3523
g1209
ag1210
aa(lp3524
g1212
ag1213
aa(lp3525
g1215
ag1216
a(lp3526
I1
a(lp3527
F0.411765
aaI34
aa(lp3528
I1
a(lp3529
F0.421053
aaI38
aa(lp3530
I1
a(lp3531
F0.361111
aaI36
aa(lp3532
I1
a(lp3533
F0.305556
aaI36
aa(lp3534
I1
a(lp3535
F0.371429
aaI35
aa(lp3536
I1
a(lp3537
F0.510204
aaI49
aa(lp3538
I1
a(lp3539
F0.230769
aaI39
aa(lp3540
I1
a(lp3541
F0.212766
aaI47
aa(lp3542
I1
a(lp3543
F0.3125
aaI32
aa(lp3544
I1
a(lp3545
F0.363636
aaI44
aaa(lp3546
g1218
ag1219
aa(lp3547
g1221
ag1222
aa(lp3548
g1224
ag1225
aa(lp3549
g1227
ag1228
a(lp3550
I1
a(lp3551
F0.214286
aaI56
aa(lp3552
I1
a(lp3553
F0.404762
aaI42
aaa(lp3554
g1230
ag1231
aa(lp3555
g1235
ag1236
a(lp3556
I1
a(lp3557
F0.214286
aaI42
aa(lp3558
I1
a(lp3559
F0.210526
aaI19
aa(lp3560
I1
a(lp3561
F0.25
aaI32
aa(lp3562
I1
a(lp3563
F0.363636
aaI11
aa(lp3564
I1
a(lp3565
F0.233333
aaI30
aa(lp3566
I1
a(lp3567
F0.206897
aaI29
aa(lp3568
I1
a(lp3569
F0.442308
aaI52
aaa(lp3570
g1246
ag1247
a(lp3571
I1
a(lp3572
F0.431034
aaI58
aa(lp3573
I1
a(lp3574
F0.387097
aaI62
aaa(lp3575
g1249
ag1250
a(lp3576
I1
a(lp3577
F0.238095
aaI42
aa(lp3578
I1
a(lp3579
F0.216216
aaI37
aa(lp3580
I1
a(lp3581
F0.236842
aaI38
aaa(lp3582
g1262
ag1263
a(lp3583
I1
a(lp3584
F0.305556
aaI72
aa(lp3585
I1
a(lp3586
F0.379747
aaI79
aa(lp3587
I1
a(lp3588
F0.367089
aaI79
aa(lp3589
I1
a(lp3590
F0.316667
aaI60
aa(lp3591
I1
a(lp3592
F0.292308
aaI65
aaa(lp3593
g1265
ag1266
a(lp3594
I1
a(lp3595
F0.297297
aaI37
aa(lp3596
I1
a(lp3597
F0.297297
aaI37
aaa(lp3598
g1268
ag1269
a(lp3599
I1
a(lp3600
F0.55102
aaI49
aaa(lp3601
g1287
ag1288
a(lp3602
I1
a(lp3603
F0.533333
aaI60
aaa(lp3604
g1290
ag1291
aa(lp3605
g1293
ag1294
a(lp3606
I1
a(lp3607
F0.459459
aaI74
aaa(lp3608
g1296
ag1297
aa(lp3609
g1309
ag1310
aa(lp3610
g1312
ag1313
a(lp3611
I1
a(lp3612
F0.230769
aaI39
aaa(lp3613
g1329
ag1330
aa(lp3614
g1346
ag1347
a(lp3615
I1
a(lp3616
F0.42
aaI50
aa(lp3617
I1
a(lp3618
F0.459016
aaI61
aa(lp3619
I1
a(lp3620
F0.492754
aaI69
aa(lp3621
I1
a(lp3622
F0.387097
aaI31
aa(lp3623
I1
a(lp3624
F0.0
aaI21
aa(lp3625
I1
a(lp3626
F0.259259
aaI27
aa(lp3627
I1
a(lp3628
F0.474138
aaI116
aa(lp3629
I1
a(lp3630
F0.272727
aaI44
aa(lp3631
I1
a(lp3632
F0.232558
aaI43
aa(lp3633
I1
a(lp3634
F0.232558
aaI43
aa(lp3635
I1
a(lp3636
F0.238095
aaI42
aa(lp3637
I1
a(lp3638
F0.25
aaI40
aa(lp3639
I1
a(lp3640
F0.244444
aaI45
aa(lp3641
I1
a(lp3642
F0.209302
aaI43
aa(lp3643
I1
a(lp3644
F0.214286
aaI42
aa(lp3645
I1
a(lp3646
F0.2
aaI30
aa(lp3647
I1
a(lp3648
F0.2
aaI30
aa(lp3649
I1
a(lp3650
F0.40678
aaI59
aa(lp3651
I1
a(lp3652
F0.392157
aaI51
aa(lp3653
I1
a(lp3654
F0.540984
aaI61
aa(lp3655
I1
a(lp3656
F0.403846
aaI52
aa(lp3657
I1
a(lp3658
F0.32
aaI50
aa(lp3659
I1
a(lp3660
F0.608696
aaI46
aa(lp3661
I1
a(lp3662
F0.235294
aaI51
aa(lp3663
I1
a(lp3664
F0.530612
aaI49
aa(lp3665
I1
a(lp3666
F0.42029
aaI69
aaa(lp3667
g1363
ag1364
a(lp3668
I1
a(lp3669
F0.285714
aaI35
aa(lp3670
I1
a(lp3671
F0.297297
aaI37
aa(lp3672
I1
a(lp3673
F0.258065
aaI31
aa(lp3674
I1
a(lp3675
F0.368421
aaI38
aa(lp3676
I1
a(lp3677
F0.44186
aaI43
aa(lp3678
I1
a(lp3679
F0.454545
aaI44
aa(lp3680
I1
a(lp3681
F0.454545
aaI44
aa(lp3682
I1
a(lp3683
F0.21875
aaI32
aa(lp3684
I1
a(lp3685
F0.225806
aaI31
aa(lp3686
I1
a(lp3687
F0.28125
aaI32
aa(lp3688
I1
a(lp3689
F0.275862
aaI29
aa(lp3690
I1
a(lp3691
F0.0
aaI18
aaa(lp3692
g1366
ag1367
aa(lp3693
g1369
ag1370
a(lp3694
I1
a(lp3695
F0.5
aaI32
aa(lp3696
I1
a(lp3697
F0.442922
aaI219
aa(lp3698
I1
a(lp3699
F0.386364
aaI44
aa(lp3700
I1
a(lp3701
F0.346939
aaI49
aa(lp3702
I1
a(lp3703
F0.340909
aaI44
aa(lp3704
I1
a(lp3705
F0.35
aaI40
aa(lp3706
I1
a(lp3707
F0.302326
aaI43
aa(lp3708
I1
a(lp3709
F0.459016
aaI61
aa(lp3710
I1
a(lp3711
F0.392157
aaI51
aa(lp3712
I1
a(lp3713
F0.391304
aaI46
aa(lp3714
I1
a(lp3715
F0.404762
aaI42
aaa(lp3716
g1372
ag1373
a(lp3717
I1
a(lp3718
F0.46
aaI50
aa(lp3719
I1
a(lp3720
F0.362319
aaI69
aa(lp3721
I1
a(lp3722
F0.30303
aaI33
aa(lp3723
I1
a(lp3724
F0.216216
aaI37
aa(lp3725
I1
a(lp3726
F0.206897
aaI29
aa(lp3727
I1
a(lp3728
F0.444444
aaI54
aa(lp3729
I1
a(lp3730
F0.351351
aaI37
aa(lp3731
I1
a(lp3732
F0.361111
aaI36
aa(lp3733
I1
a(lp3734
F0.25
aaI28
aa(lp3735
I1
a(lp3736
F0.25
aaI28
aa(lp3737
I1
a(lp3738
F0.230769
aaI26
aa(lp3739
I1
a(lp3740
F0.304348
aaI46
aa(lp3741
I1
a(lp3742
F0.363636
aaI55
aaa(lp3743
g1377
ag1378
aa(lp3744
g1380
ag1381
a(lp3745
I1
a(lp3746
F0.222222
aaI27
aa(lp3747
I1
a(lp3748
F0.525
aaI40
aa(lp3749
I1
a(lp3750
F0.44186
aaI43
aa(lp3751
I1
a(lp3752
F0.268293
aaI41
aa(lp3753
I1
a(lp3754
F0.225
aaI40
aa(lp3755
I1
a(lp3756
F0.25641
aaI39
aa(lp3757
I1
a(lp3758
F0.227273
aaI44
aa(lp3759
I1
a(lp3760
F0.421053
aaI38
aa(lp3761
I1
a(lp3762
F0.288889
aaI45
aa(lp3763
I1
a(lp3764
F0.225
aaI40
aa(lp3765
I1
a(lp3766
F0.219512
aaI41
aa(lp3767
I1
a(lp3768
F0.209302
aaI43
aa(lp3769
I1
a(lp3770
F0.375
aaI48
aaa(lp3771
g1383
ag1384
a(lp3772
I1
a(lp3773
F0.255319
aaI47
aa(lp3774
I1
a(lp3775
F0.26087
aaI46
aa(lp3776
I1
a(lp3777
F0.340909
aaI44
aa(lp3778
I1
a(lp3779
F0.369565
aaI46
aa(lp3780
I1
a(lp3781
F0.307692
aaI39
aa(lp3782
I1
a(lp3783
F0.307692
aaI39
aa(lp3784
I1
a(lp3785
F0.423077
aaI26
aa(lp3786
I1
a(lp3787
F0.21875
aaI32
aa(lp3788
I1
a(lp3789
F0.258065
aaI31
aa(lp3790
I1
a(lp3791
F0.216216
aaI37
aa(lp3792
I1
a(lp3793
F0.315789
aaI38
aa(lp3794
I1
a(lp3795
F0.341463
aaI41
aa(lp3796
I1
a(lp3797
F0.387097
aaI31
aaa(lp3798
g1386
ag1387
aa(lp3799
g1389
ag1390
a(lp3800
I1
a(lp3801
F0.243243
aaI37
aaa(lp3802
g1400
ag1401
aa(lp3803
g1403
ag1404
a(lp3804
I1
a(lp3805
F0.227273
aaI44
aa(lp3806
I1
a(lp3807
F0.263158
aaI38
aaa(lp3808
g1406
ag1407
aa(lp3809
g1409
ag1410
aa(lp3810
g1412
ag1413
aa(lp3811
g1427
ag1428
aa(lp3812
g1430
ag1431
a(lp3813
I1
a(lp3814
F0.604167
aaI48
aa(lp3815
I1
a(lp3816
F0.488889
aaI45
aa(lp3817
I1
a(lp3818
F0.522727
aaI44
aa(lp3819
I1
a(lp3820
F0.413043
aaI46
aa(lp3821
I1
a(lp3822
F0.363636
aaI33
aa(lp3823
I1
a(lp3824
F0.3125
aaI32
aa(lp3825
I1
a(lp3826
F0.222222
aaI36
aa(lp3827
I1
a(lp3828
F0.210526
aaI38
aa(lp3829
I1
a(lp3830
F0.454545
aaI33
aa(lp3831
I1
a(lp3832
F0.4375
aaI32
aa(lp3833
I1
a(lp3834
F0.441176
aaI34
aaa(lp3835
g1435
ag1436
aa(lp3836
g1438
ag1439
a(lp3837
I1
a(lp3838
F0.507463
aaI67
aaa(lp3839
g1441
ag1442
aa(lp3840
g1444
ag1445
a(lp3841
I1
a(lp3842
F0.34
aaI50
aa(lp3843
I1
a(lp3844
F0.354167
aaI48
aa(lp3845
I1
a(lp3846
F0.390244
aaI41
aa(lp3847
I1
a(lp3848
F0.388889
aaI36
aa(lp3849
I1
a(lp3850
F0.375
aaI40
aaa(lp3851
g1447
ag1448
aa(lp3852
g1450
ag1451
aa(lp3853
g1453
ag1454
a(lp3854
I1
a(lp3855
F0.25
aaI36
aa(lp3856
I1
a(lp3857
F0.282051
aaI39
aa(lp3858
I1
a(lp3859
F0.428571
aaI42
aa(lp3860
I1
a(lp3861
F0.461538
aaI39
aa(lp3862
I1
a(lp3863
F0.264706
aaI34
aa(lp3864
I1
a(lp3865
F0.25
aaI40
aa(lp3866
I1
a(lp3867
F0.27027
aaI37
aa(lp3868
I1
a(lp3869
F0.297297
aaI37
aa(lp3870
I1
a(lp3871
F0.264706
aaI34
aa(lp3872
I1
a(lp3873
F0.242424
aaI33
aa(lp3874
I1
a(lp3875
F0.552632
aaI38
aa(lp3876
I1
a(lp3877
F0.552632
aaI38
aa(lp3878
I1
a(lp3879
F0.444444
aaI27
aa(lp3880
I1
a(lp3881
F0.428571
aaI28
aa(lp3882
I1
a(lp3883
F0.4
aaI30
aa(lp3884
I1
a(lp3885
F0.428571
aaI28
aa(lp3886
I1
a(lp3887
F0.539683
aaI63
aa(lp3888
I1
a(lp3889
F0.58
aaI50
aa(lp3890
I1
a(lp3891
F0.2
aaI35
aa(lp3892
I1
a(lp3893
F0.257143
aaI35
aa(lp3894
I1
a(lp3895
F0.27027
aaI37
aa(lp3896
I1
a(lp3897
F0.333333
aaI39
aa(lp3898
I1
a(lp3899
F0.348837
aaI43
aa(lp3900
I1
a(lp3901
F0.444444
aaI45
aaa(lp3902
g1456
ag1457
a(lp3903
I1
a(lp3904
F0.230769
aaI39
aa(lp3905
I1
a(lp3906
F0.257143
aaI35
aa(lp3907
I1
a(lp3908
F0.424242
aaI33
aa(lp3909
I1
a(lp3910
F0.46875
aaI32
aaa(lp3911
g1461
ag1462
a(lp3912
I1
a(lp3913
F0.484848
aaI66
aa(lp3914
I1
a(lp3915
F0.380952
aaI63
aa(lp3916
I1
a(lp3917
F0.272727
aaI33
aaa(lp3918
g1464
ag1465
aa(lp3919
g1467
ag1468
a(lp3920
I1
a(lp3921
F0.361702
aaI47
aa(lp3922
I1
a(lp3923
F0.375
aaI48
aa(lp3924
I1
a(lp3925
F0.375
aaI48
aa(lp3926
I1
a(lp3927
F0.347826
aaI46
aa(lp3928
I1
a(lp3929
F0.340426
aaI47
aa(lp3930
I1
a(lp3931
F0.317073
aaI41
aa(lp3932
I1
a(lp3933
F0.304348
aaI46
aa(lp3934
I1
a(lp3935
F0.291667
aaI48
aaa(lp3936
g1480
ag1481
aa(lp3937
g1483
ag1484
aa(lp3938
g1486
ag1487
a(lp3939
I1
a(lp3940
F0.323529
aaI34
aa(lp3941
I1
a(lp3942
F0.241379
aaI29
aaa(lp3943
g1489
ag1490
a(lp3944
I1
a(lp3945
F0.25641
aaI39
aaa(lp3946
g1500
ag1501
aa(lp3947
g1503
ag1504
a(lp3948
I1
a(lp3949
F0.470588
aaI51
aaa(lp3950
g1506
ag1507
aa(lp3951
g1509
ag1510
aa(lp3952
g1512
ag1513
aa(lp3953
g1519
ag1520
aa(lp3954
g1546
ag1547
aa(lp3955
g1549
ag1550
a(lp3956
I1
a(lp3957
F0.4
aaI50
aaa(lp3958
g1552
ag1553
a(lp3959
I1
a(lp3960
F0.44
aaI50
aa(lp3961
I1
a(lp3962
F0.442308
aaI52
aa(lp3963
I1
a(lp3964
F0.42
aaI50
aa(lp3965
I1
a(lp3966
F0.44186
aaI43
aa(lp3967
I1
a(lp3968
F0.329412
aaI85
aaa(lp3969
g1555
ag1556
aa(lp3970
g1558
ag1559
a(lp3971
I1
a(lp3972
F0.403226
aaI62
aa(lp3973
I1
a(lp3974
F0.328767
aaI73
aaa(lp3975
g1561
ag1562
aa(lp3976
g1564
ag1565
aa(lp3977
g1571
ag1572
aa(lp3978
g1576
ag1577
aa(lp3979
g1579
ag1580
aa(lp3980
g1586
ag1587
aa(lp3981
g1593
ag1594
aa(lp3982
g1600
ag1601
aa(lp3983
g1611
ag1612
aa(lp3984
g1614
ag1615
a(lp3985
I1
a(lp3986
F0.290323
aaI31
aa(lp3987
I1
a(lp3988
F0.418605
aaI43
aa(lp3989
I1
a(lp3990
F0.479167
aaI48
aa(lp3991
I1
a(lp3992
F0.54
aaI50
aa(lp3993
I1
a(lp3994
F0.297872
aaI47
aa(lp3995
I1
a(lp3996
F0.25
aaI52
aa(lp3997
I1
a(lp3998
F0.430556
aaI72
aaa(lp3999
g1617
ag1618
aa(lp4000
g1620
ag1621
a(lp4001
I1
a(lp4002
F0.208333
aaI48
aa(lp4003
I1
a(lp4004
F0.232558
aaI43
aa(lp4005
I1
a(lp4006
F0.238095
aaI42
aa(lp4007
I1
a(lp4008
F0.419355
aaI31
aa(lp4009
I1
a(lp4010
F0.346154
aaI26
aa(lp4011
I1
a(lp4012
F0.25
aaI24
aa(lp4013
I1
a(lp4014
F0.25
aaI24
aa(lp4015
I1
a(lp4016
F0.230769
aaI26
aa(lp4017
I1
a(lp4018
F0.257143
aaI35
aa(lp4019
I1
a(lp4020
F0.342105
aaI38
aa(lp4021
I1
a(lp4022
F0.264706
aaI34
aa(lp4023
I1
a(lp4024
F0.346154
aaI26
aa(lp4025
I1
a(lp4026
F0.212121
aaI33
aa(lp4027
I1
a(lp4028
F0.241379
aaI29
aa(lp4029
I1
a(lp4030
F0.294118
aaI34
aa(lp4031
I1
a(lp4032
F0.294118
aaI34
aaa(lp4033
g1623
ag1624
aa(lp4034
g1626
ag1627
aa(lp4035
g1629
ag1630
a(lp4036
I1
a(lp4037
F0.375
aaI32
aa(lp4038
I1
a(lp4039
F0.352941
aaI34
aa(lp4040
I1
a(lp4041
F0.257143
aaI35
aa(lp4042
I1
a(lp4043
F0.2
aaI35
aaa(lp4044
g1648
ag1649
aa(lp4045
g1653
ag1654
aa(lp4046
g1694
ag1695
a(lp4047
I1
a(lp4048
F0.418182
aaI55
aa(lp4049
I1
a(lp4050
F0.333333
aaI33
aa(lp4051
I1
a(lp4052
F0.323529
aaI34
aa(lp4053
I1
a(lp4054
F0.26506
aaI83
aa(lp4055
I1
a(lp4056
F0.25
aaI48
aa(lp4057
I1
a(lp4058
F0.282609
aaI46
aa(lp4059
I1
a(lp4060
F0.212766
aaI47
aa(lp4061
I1
a(lp4062
F0.23913
aaI46
aa(lp4063
I1
a(lp4064
F0.263158
aaI38
aa(lp4065
I1
a(lp4066
F0.507937
aaI63
aa(lp4067
I1
a(lp4068
F0.25
aaI48
aa(lp4069
I1
a(lp4070
F0.339623
aaI53
aa(lp4071
I1
a(lp4072
F0.30303
aaI33
aa(lp4073
I1
a(lp4074
F0.333333
aaI27
aa(lp4075
I1
a(lp4076
F0.391304
aaI46
aa(lp4077
I1
a(lp4078
F0.258065
aaI31
aa(lp4079
I1
a(lp4080
F0.25
aaI32
aa(lp4081
I1
a(lp4082
F0.258065
aaI31
aa(lp4083
I1
a(lp4084
F0.25
aaI32
aa(lp4085
I1
a(lp4086
F0.238095
aaI42
aa(lp4087
I1
a(lp4088
F0.25
aaI36
aaa(lp4089
g1703
ag1704
a(lp4090
I1
a(lp4091
F0.0
aaI15
aa(lp4092
I1
a(lp4093
F0.285714
aaI14
aa(lp4094
I1
a(lp4095
F0.0
aaI15
aaa(lp4096
g1706
ag1707
aa(lp4097
g1709
ag1710
aa(lp4098
g1714
ag1715
a(lp4099
I1
a(lp4100
F0.222222
aaI36
aa(lp4101
I1
a(lp4102
F0.2
aaI35
aaa(lp4103
g1717
ag1718
a(lp4104
I1
a(lp4105
F0.484375
aaI64
aa(lp4106
I1
a(lp4107
F0.292517
aaI147
aa(lp4108
I1
a(lp4109
F0.55
aaI120
aaa(lp4110
g1720
ag1721
a(lp4111
I1
a(lp4112
F0.3
aaI30
aa(lp4113
I1
a(lp4114
F0.388889
aaI36
aa(lp4115
I1
a(lp4116
F0.319149
aaI47
aa(lp4117
I1
a(lp4118
F0.270833
aaI48
aaa(lp4119
g1729
ag1730
aa(lp4120
g1732
ag1733
aa(lp4121
g1737
ag1738
a(lp4122
I1
a(lp4123
F0.352941
aaI34
aa(lp4124
I1
a(lp4125
F0.277778
aaI36
aa(lp4126
I1
a(lp4127
F0.243902
aaI41
aa(lp4128
I1
a(lp4129
F0.243902
aaI41
aa(lp4130
I1
a(lp4131
F0.27907
aaI43
aa(lp4132
I1
a(lp4133
F0.282609
aaI46
aa(lp4134
I1
a(lp4135
F0.244444
aaI45
aa(lp4136
I1
a(lp4137
F0.435897
aaI39
aa(lp4138
I1
a(lp4139
F0.270833
aaI48
aa(lp4140
I1
a(lp4141
F0.204082
aaI49
aa(lp4142
I1
a(lp4143
F0.264151
aaI53
aaa(lp4144
g1742
ag1743
a(lp4145
I1
a(lp4146
F0.0
aaI23
aa(lp4147
I1
a(lp4148
F0.0
aaI20
aa(lp4149
I1
a(lp4150
F0.722222
aaI18
aa(lp4151
I1
a(lp4152
F0.0
aaI3
aa(lp4153
I1
a(lp4154
F0.0
aaI3
aa(lp4155
I1
a(lp4156
F0.0
aaI4
aaa(lp4157
g1751
ag1752
a(lp4158
I1
a(lp4159
F0.444444
aaI63
aa(lp4160
I1
a(lp4161
F0.357143
aaI42
aa(lp4162
I1
a(lp4163
F0.358974
aaI39
aa(lp4164
I1
a(lp4165
F0.45
aaI40
aa(lp4166
I1
a(lp4167
F0.435897
aaI39
aa(lp4168
I1
a(lp4169
F0.403846
aaI52
aa(lp4170
I1
a(lp4171
F0.425
aaI40
aa(lp4172
I1
a(lp4173
F0.414634
aaI41
aa(lp4174
I1
a(lp4175
F0.452381
aaI42
aa(lp4176
I1
a(lp4177
F0.236364
aaI55
aa(lp4178
I1
a(lp4179
F0.484848
aaI33
aa(lp4180
I1
a(lp4181
F0.40625
aaI32
aa(lp4182
I1
a(lp4183
F0.535714
aaI56
aa(lp4184
I1
a(lp4185
F0.527273
aaI55
aa(lp4186
I1
a(lp4187
F0.519231
aaI52
aa(lp4188
I1
a(lp4189
F0.519231
aaI52
aaa(lp4190
g1778
ag1779
a(lp4191
I1
a(lp4192
F0.444444
aaI45
aa(lp4193
I1
a(lp4194
F0.212121
aaI33
aa(lp4195
I1
a(lp4196
F0.266667
aaI30
aaa(lp4197
g1781
ag1782
aa(lp4198
g1788
ag1789
aa(lp4199
g1791
ag1792
a(lp4200
I1
a(lp4201
F0.338983
aaI59
aaa(lp4202
g1798
ag1799
a(lp4203
I1
a(lp4204
F0.204545
aaI44
aa(lp4205
I1
a(lp4206
F0.22449
aaI49
aa(lp4207
I1
a(lp4208
F0.208333
aaI24
aa(lp4209
I1
a(lp4210
F0.4
aaI45
aaa(lp4211
g1801
ag1802
a(lp4212
I1
a(lp4213
F0.536585
aaI41
aa(lp4214
I1
a(lp4215
F0.32
aaI50
aa(lp4216
I1
a(lp4217
F0.368421
aaI38
aa(lp4218
I1
a(lp4219
F0.351351
aaI37
aa(lp4220
I1
a(lp4221
F0.314286
aaI35
aa(lp4222
I1
a(lp4223
F0.27027
aaI37
aa(lp4224
I1
a(lp4225
F0.28125
aaI32
aa(lp4226
I1
a(lp4227
F0.2
aaI30
aa(lp4228
I1
a(lp4229
F0.204545
aaI44
aa(lp4230
I1
a(lp4231
F0.243902
aaI41
aa(lp4232
I1
a(lp4233
F0.285714
aaI42
aa(lp4234
I1
a(lp4235
F0.225
aaI40
aa(lp4236
I1
a(lp4237
F0.2
aaI40
aa(lp4238
I1
a(lp4239
F0.27027
aaI37
aa(lp4240
I1
a(lp4241
F0.297297
aaI37
aa(lp4242
I1
a(lp4243
F0.235294
aaI34
aa(lp4244
I1
a(lp4245
F0.210526
aaI38
aa(lp4246
I1
a(lp4247
F0.311111
aaI45
aa(lp4248
I1
a(lp4249
F0.318182
aaI44
aa(lp4250
I1
a(lp4251
F0.310345
aaI58
aa(lp4252
I1
a(lp4253
F0.333333
aaI39
aa(lp4254
I1
a(lp4255
F0.416667
aaI48
aa(lp4256
I1
a(lp4257
F0.46875
aaI64
aa(lp4258
I1
a(lp4259
F0.21875
aaI32
aa(lp4260
I1
a(lp4261
F0.372093
aaI86
aa(lp4262
I1
a(lp4263
F0.2
aaI30
aaa(lp4264
g1804
ag1805
a(lp4265
I1
a(lp4266
F0.263158
aaI38
aag2054
a(lp4267
I1
a(lp4268
F0.317073
aaI41
aa(lp4269
I1
a(lp4270
F0.25
aaI44
aa(lp4271
I1
a(lp4272
F0.204545
aaI44
aa(lp4273
I1
a(lp4274
F0.214286
aaI42
aa(lp4275
I1
a(lp4276
F0.372093
aaI43
aa(lp4277
I1
a(lp4278
F0.272727
aaI33
aa(lp4279
I1
a(lp4280
F0.222222
aaI36
aa(lp4281
I1
a(lp4282
F0.365854
aaI41
aa(lp4283
I1
a(lp4284
F0.0
aaI30
aa(lp4285
I1
a(lp4286
F0.307692
aaI39
aa(lp4287
I1
a(lp4288
F0.314286
aaI35
aa(lp4289
I1
a(lp4290
F0.342857
aaI35
aa(lp4291
I1
a(lp4292
F0.212121
aaI33
aa(lp4293
I1
a(lp4294
F0.212121
aaI33
aa(lp4295
I1
a(lp4296
F0.233333
aaI30
aaa(lp4297
g1809
ag1810
aa(lp4298
g1812
ag1813
aa(lp4299
g1815
ag1816
aa(lp4300
g1820
ag1821
aa(lp4301
g1825
ag1826
aa(lp4302
g1828
ag1829
a(lp4303
I1
a(lp4304
F0.241379
aaI29
aa(lp4305
I1
a(lp4306
F0.233333
aaI30
aa(lp4307
I1
a(lp4308
F0.205882
aaI34
aa(lp4309
I1
a(lp4310
F0.372093
aaI43
aa(lp4311
I1
a(lp4312
F0.490196
aaI51
aa(lp4313
I1
a(lp4314
F0.530612
aaI49
aa(lp4315
I1
a(lp4316
F0.465517
aaI58
aaa(lp4317
g1831
ag1832
aa(lp4318
g1834
ag1835
aa(lp4319
g1837
ag1838
aa(lp4320
g1840
ag1841
a(lp4321
I1
a(lp4322
F0.545455
aaI55
aa(lp4323
I1
a(lp4324
F0.45
aaI60
aa(lp4325
I1
a(lp4326
F0.459016
aaI61
aaa(lp4327
g1845
ag1846
aa(lp4328
g1848
ag1849
aa(lp4329
g1855
ag1856
a(lp4330
I1
a(lp4331
F0.222222
aaI36
aa(lp4332
I1
a(lp4333
F0.309524
aaI42
aa(lp4334
I1
a(lp4335
F0.363636
aaI44
aaa(lp4336
g1858
ag1859
aa(lp4337
g1861
ag1862
aa(lp4338
g1864
ag1865
aa(lp4339
g1867
ag1868
aa(lp4340
g1870
ag1871
a(lp4341
I1
a(lp4342
F0.377358
aaI53
aa(lp4343
I1
a(lp4344
F0.381818
aaI55
aa(lp4345
I1
a(lp4346
F0.42029
aaI69
aa(lp4347
I1
a(lp4348
F0.25
aaI52
aa(lp4349
I1
a(lp4350
F0.208333
aaI24
aa(lp4351
I1
a(lp4352
F0.35
aaI60
aa(lp4353
I1
a(lp4354
F0.40625
aaI64
aa(lp4355
I1
a(lp4356
F0.340426
aaI47
aa(lp4357
I1
a(lp4358
F0.340426
aaI47
aa(lp4359
I1
a(lp4360
F0.351351
aaI37
aa(lp4361
I1
a(lp4362
F0.409091
aaI66
aa(lp4363
I1
a(lp4364
F0.219512
aaI41
aa(lp4365
I1
a(lp4366
F0.2
aaI40
aa(lp4367
I1
a(lp4368
F0.2
aaI40
aa(lp4369
I1
a(lp4370
F0.272727
aaI44
aa(lp4371
I1
a(lp4372
F0.48
aaI50
aa(lp4373
I1
a(lp4374
F0.462963
aaI54
aa(lp4375
I1
a(lp4376
F0.352941
aaI51
aa(lp4377
I1
a(lp4378
F0.0
aaI8
aa(lp4379
I1
a(lp4380
F0.0
aaI8
aa(lp4381
I1
a(lp4382
F0.228571
aaI35
aa(lp4383
I1
a(lp4384
F0.272727
aaI22
aa(lp4385
I1
a(lp4386
F0.257143
aaI35
aaa(lp4387
g1873
ag1874
aa(lp4388
g1876
ag1877
aa(lp4389
g1879
ag1880
a(lp4390
I1
a(lp4391
F0.255814
aaI43
aa(lp4392
I1
a(lp4393
F0.25
aaI40
aaa(lp4394
g1882
ag1883
aa(lp4395
g1885
ag1886
aa(lp4396
g1888
ag1889
aa(lp4397
g1893
ag1894
a(lp4398
I1
a(lp4399
F0.208333
aaI72
aaa(lp4400
g1898
ag1899
a(lp4401
I1
a(lp4402
F0.509091
aaI55
aa(lp4403
I1
a(lp4404
F0.436364
aaI55
aa(lp4405
I1
a(lp4406
F0.410714
aaI56
aaa(lp4407
g1903
ag1904
a(lp4408
I1
a(lp4409
F0.302326
aaI43
aa(lp4410
I1
a(lp4411
F0.509434
aaI53
aa(lp4412
I1
a(lp4413
F0.314815
aaI54
aa(lp4414
I1
a(lp4415
F0.263158
aaI38
aa(lp4416
I1
a(lp4417
F0.27027
aaI37
aa(lp4418
I1
a(lp4419
F0.263158
aaI38
aa(lp4420
I1
a(lp4421
F0.326087
aaI46
aa(lp4422
I1
a(lp4423
F0.326531
aaI49
aa(lp4424
I1
a(lp4425
F0.416667
aaI48
aa(lp4426
I1
a(lp4427
F0.228571
aaI35
aa(lp4428
I1
a(lp4429
F0.210526
aaI38
aa(lp4430
I1
a(lp4431
F0.205128
aaI39
aa(lp4432
I1
a(lp4433
F0.205128
aaI39
aa(lp4434
I1
a(lp4435
F0.25
aaI40
aa(lp4436
I1
a(lp4437
F0.210526
aaI38
aa(lp4438
I1
a(lp4439
F0.243902
aaI41
aa(lp4440
I1
a(lp4441
F0.272727
aaI44
aa(lp4442
I1
a(lp4443
F0.255814
aaI43
aa(lp4444
I1
a(lp4445
F0.292683
aaI41
aa(lp4446
I1
a(lp4447
F0.205882
aaI34
aa(lp4448
I1
a(lp4449
F0.243902
aaI41
aa(lp4450
I1
a(lp4451
F0.25
aaI32
aa(lp4452
I1
a(lp4453
F0.28125
aaI32
aa(lp4454
I1
a(lp4455
F0.272727
aaI33
aa(lp4456
I1
a(lp4457
F0.333333
aaI33
aa(lp4458
I1
a(lp4459
F0.659574
aaI47
aa(lp4460
I1
a(lp4461
F0.451613
aaI62
aa(lp4462
I1
a(lp4463
F0.444444
aaI54
aa(lp4464
I1
a(lp4465
F0.242424
aaI33
aa(lp4466
I1
a(lp4467
F0.757282
aaI103
aa(lp4468
I1
a(lp4469
F0.765432
aaI81
aa(lp4470
I1
a(lp4471
F0.392857
aaI28
aa(lp4472
I1
a(lp4473
F0.464286
aaI28
aa(lp4474
I1
a(lp4475
F0.21875
aaI32
aa(lp4476
I1
a(lp4477
F0.424242
aaI33
aa(lp4478
I1
a(lp4479
F0.52381
aaI42
aa(lp4480
I1
a(lp4481
F0.486486
aaI37
aa(lp4482
I1
a(lp4483
F0.435897
aaI39
aa(lp4484
I1
a(lp4485
F0.333333
aaI60
aa(lp4486
I1
a(lp4487
F0.22973
aaI74
aa(lp4488
I1
a(lp4489
F0.222222
aaI54
aa(lp4490
I1
a(lp4491
F0.232143
aaI56
aa(lp4492
I1
a(lp4493
F0.264706
aaI68
aaa(lp4494
g1960
ag1961
aa(lp4495
g1965
ag1966
a(lp4496
I1
a(lp4497
F0.393939
aaI33
aa(lp4498
I1
a(lp4499
F0.4
aaI35
aa(lp4500
I1
a(lp4501
F0.333333
aaI33
aa(lp4502
I1
a(lp4503
F0.40625
aaI32
aa(lp4504
I1
a(lp4505
F0.40625
aaI32
aa(lp4506
I1
a(lp4507
F0.424242
aaI33
aa(lp4508
I1
a(lp4509
F0.472222
aaI36
aa(lp4510
I1
a(lp4511
F0.363636
aaI22
aa(lp4512
I1
a(lp4513
F0.25
aaI36
aa(lp4514
I1
a(lp4515
F0.2
aaI25
aa(lp4516
I1
a(lp4517
F0.230769
aaI26
aa(lp4518
I1
a(lp4519
F0.272727
aaI33
aa(lp4520
I1
a(lp4521
F0.35
aaI40
aaa(lp4522
g1968
ag1969
aa(lp4523
g1973
ag1974
aa(lp4524
g1976
ag1977
a(lp4525
I1
a(lp4526
F0.394737
aaI38
aa(lp4527
I1
a(lp4528
F0.428571
aaI42
aa(lp4529
I1
a(lp4530
F0.225
aaI40
aa(lp4531
I1
a(lp4532
F0.36
aaI50
aa(lp4533
I1
a(lp4534
F0.209302
aaI43
aa(lp4535
I1
a(lp4536
F0.266667
aaI45
aa(lp4537
I1
a(lp4538
F0.25
aaI44
aa(lp4539
I1
a(lp4540
F0.40678
aaI59
aa(lp4541
I1
a(lp4542
F0.210526
aaI38
aa(lp4543
I1
a(lp4544
F0.2
aaI40
aa(lp4545
I1
a(lp4546
F0.40625
aaI64
aa(lp4547
I1
a(lp4548
F0.394737
aaI38
aa(lp4549
I1
a(lp4550
F0.375
aaI24
aa(lp4551
I1
a(lp4552
F0.347826
aaI23
aa(lp4553
I1
a(lp4554
F0.22
aaI50
aa(lp4555
I1
a(lp4556
F0.215686
aaI51
aaa(lp4557
g1981
ag1982
a(lp4558
I1
a(lp4559
F0.484375
aaI64
aaa(lp4560
g1984
ag1985
a(lp4561
I1
a(lp4562
F0.314286
aaI35
aa(lp4563
I1
a(lp4564
F0.384615
aaI39
aaa(lp4565
g1987
ag1988
a(lp4566
I1
a(lp4567
F0.410714
aaI56
aa(lp4568
I1
a(lp4569
F0.32
aaI50
aa(lp4570
I1
a(lp4571
F0.313725
aaI51
aa(lp4572
I1
a(lp4573
F0.34
aaI50
aa(lp4574
I1
a(lp4575
F0.375
aaI56
aa(lp4576
I1
a(lp4577
F0.381818
aaI55
aa(lp4578
I1
a(lp4579
F0.407407
aaI54
aa(lp4580
I1
a(lp4581
F0.438596
aaI57
aa(lp4582
I1
a(lp4583
F0.464286
aaI56
aa(lp4584
I1
a(lp4585
F0.454545
aaI55
aa(lp4586
I1
a(lp4587
F0.25
aaI44
aaa(lp4588
g1990
ag1991
aa(lp4589
g1993
ag1994
a(lp4590
I1
a(lp4591
F0.433962
aaI53
aa(lp4592
I1
a(lp4593
F0.238095
aaI21
aaa(lp4594
g1996
ag1997
aa(lp4595
g2001
ag2002
aa(lp4596
g2004
ag2005
a(lp4597
I1
a(lp4598
F0.842105
aaI38
aaa(lp4599
g2025
ag2026
aa(lp4600
g2028
ag2029
a(lp4601
I1
a(lp4602
F0.369231
aaI65
aa(lp4603
I1
a(lp4604
F0.434343
aaI99
aa(lp4605
I1
a(lp4606
F0.263889
aaI72
aaa(lp4607
g2065
ag2066
aa(lp4608
g2068
ag2069
aa(lp4609
g2071
ag2072
aa(lp4610
g2074
ag2075
aa(lp4611
g2079
ag2080
a(lp4612
I1
a(lp4613
F0.436364
aaI55
aa(lp4614
I1
a(lp4615
F0.463415
aaI41
aa(lp4616
I1
a(lp4617
F0.25
aaI32
aa(lp4618
I1
a(lp4619
F0.370968
aaI62
aa(lp4620
I1
a(lp4621
F0.396226
aaI53
aa(lp4622
I1
a(lp4623
F0.372881
aaI59
aa(lp4624
I1
a(lp4625
F0.4375
aaI32
aa(lp4626
I1
a(lp4627
F0.516129
aaI62
aaa(lp4628
g2082
ag2083
aa(lp4629
g2087
ag2088
aa(lp4630
g2090
ag2091
aa(lp4631
g2093
ag2094
a(lp4632
I1
a(lp4633
F0.452381
aaI42
aa(lp4634
I1
a(lp4635
F0.205882
aaI34
aa(lp4636
I1
a(lp4637
F0.48855
aaI131
aaa(lp4638
g2096
ag2097
aa(lp4639
g2099
ag2100
a(lp4640
I1
a(lp4641
F0.236842
aaI38
aa(lp4642
I1
a(lp4643
F0.375
aaI40
aa(lp4644
I1
a(lp4645
F0.288889
aaI45
aa(lp4646
I2
a(lp4647
F0.5
aF0.333333
aaI48
aaa(lp4648
g2102
ag2103
aassS'diploids'
p4649
(dp4650
g3
(lp4651
(lp4652
S'scaffold20004_cov62'
p4653
aS'scaffold4610_cov62'
p4654
a(lp4655
I1
a(lp4656
F0.25
aaI44
aa(lp4657
I1
a(lp4658
F0.205882
aaI34
aa(lp4659
I1
a(lp4660
F0.382353
aaI34
aa(lp4661
I1
a(lp4662
F0.342857
aaI35
aa(lp4663
I1
a(lp4664
F0.285714
aaI35
aa(lp4665
I1
a(lp4666
F0.25
aaI36
aa(lp4667
I1
a(lp4668
F0.512821
aaI39
aa(lp4669
I1
a(lp4670
F0.365854
aaI41
aa(lp4671
I1
a(lp4672
F0.228571
aaI105
aa(lp4673
I1
a(lp4674
F0.480392
aaI102
aa(lp4675
I1
a(lp4676
F0.672131
aaI61
aa(lp4677
I1
a(lp4678
F0.538462
aaI117
aa(lp4679
I1
a(lp4680
F0.476744
aaI86
aaa(lp4681
S'scaffold2677_cov108'
p4682
aS'scaffold6974_cov73'
p4683
a(lp4684
I1
a(lp4685
F0.235294
aaI34
aa(lp4686
I1
a(lp4687
F0.25
aaI32
aa(lp4688
I1
a(lp4689
F0.258065
aaI31
aa(lp4690
I1
a(lp4691
F0.275862
aaI29
aa(lp4692
I1
a(lp4693
F0.206897
aaI29
aa(lp4694
I1
a(lp4695
F0.4
aaI30
aa(lp4696
I1
a(lp4697
F0.363636
aaI33
aa(lp4698
I1
a(lp4699
F0.512821
aaI39
aa(lp4700
I1
a(lp4701
F0.257143
aaI35
aa(lp4702
I1
a(lp4703
F0.25
aaI36
aa(lp4704
I1
a(lp4705
F0.25
aaI36
aa(lp4706
I1
a(lp4707
F0.222222
aaI36
aa(lp4708
I1
a(lp4709
F0.0
aaI17
aaa(lp4710
S'scaffold166740_cov68'
p4711
aS'scaffold167477_cov80'
p4712
a(lp4713
I1
a(lp4714
F0.0
aaI5
aa(lp4715
I1
a(lp4716
F0.0
aaI4
aa(lp4717
I1
a(lp4718
F0.0
aaI6
aa(lp4719
I1
a(lp4720
F0.0
aaI3
aaa(lp4721
S'scaffold50322_cov70'
p4722
aS'scaffold50494_cov83'
p4723
aa(lp4724
S'scaffold1716_cov94'
p4725
aS'scaffold45397_cov62'
p4726
a(lp4727
I1
a(lp4728
F0.527273
aaI55
aa(lp4729
I1
a(lp4730
F0.344828
aaI29
aa(lp4731
I1
a(lp4732
F0.241379
aaI29
aaa(lp4733
S'scaffold16609_cov69'
p4734
aS'scaffold52798_cov134'
p4735
aa(lp4736
S'scaffold12706_cov81'
p4737
aS'scaffold16044_cov69'
p4738
a(lp4739
I1
a(lp4740
F0.25
aaI32
aa(lp4741
I1
a(lp4742
F0.341463
aaI41
aa(lp4743
I1
a(lp4744
F0.341463
aaI41
aaa(lp4745
S'scaffold15975_cov67'
p4746
aS'scaffold4413_cov63'
p4747
aa(lp4748
S'scaffold1143_cov170'
p4749
aS'scaffold1145_cov65'
p4750
aa(lp4751
S'scaffold25513_cov91'
p4752
aS'scaffold92575_cov70'
p4753
aa(lp4754
S'scaffold1143_cov170'
p4755
aS'scaffold185565_cov204'
p4756
aa(lp4757
S'scaffold29989_cov70'
p4758
aS'scaffold66329_cov132'
p4759
aa(lp4760
S'scaffold14527_cov64'
p4761
aS'scaffold14528_cov66'
p4762
a(lp4763
I1
a(lp4764
F0.514286
aaI35
aa(lp4765
I1
a(lp4766
F0.575
aaI40
aa(lp4767
I1
a(lp4768
F0.36
aaI25
aaa(lp4769
S'scaffold18411_cov77'
p4770
aS'scaffold3448_cov89'
p4771
a(lp4772
I1
a(lp4773
F0.405405
aaI37
aa(lp4774
I1
a(lp4775
F0.484375
aaI64
aaa(lp4776
S'scaffold1498_cov63'
p4777
aS'scaffold33427_cov79'
p4778
a(lp4779
I1
a(lp4780
F0.0
aaI15
aa(lp4781
I1
a(lp4782
F0.327273
aaI55
aaa(lp4783
S'scaffold37263_cov117'
p4784
aS'scaffold4202_cov67'
p4785
a(lp4786
I1
a(lp4787
F0.0
aaI3
aa(lp4788
I1
a(lp4789
F0.0
aaI8
aa(lp4790
I1
a(lp4791
F0.0
aaI4
aa(lp4792
I1
a(lp4793
F1.0
aaI2
aa(lp4794
I1
a(lp4795
F0.0
aaI32
aa(lp4796
I1
a(lp4797
F0.0
aaI25
aa(lp4798
I1
a(lp4799
F0.0
aaI17
aa(lp4800
I1
a(lp4801
F0.0
aaI21
aa(lp4802
I1
a(lp4803
F0.0
aaI121
aa(lp4804
I1
a(lp4805
F0.0
aaI82
aa(lp4806
I1
a(lp4807
F0.0
aaI70
aa(lp4808
I1
a(lp4809
F0.0
aaI11
aa(lp4810
I1
a(lp4811
F0.0
aaI11
aa(lp4812
I1
a(lp4813
F0.0
aaI9
aa(lp4814
I1
a(lp4815
F0.0
aaI13
aa(lp4816
I1
a(lp4817
F0.0
aaI2
aa(lp4818
I1
a(lp4819
F0.0
aaI2
aa(lp4820
I1
a(lp4821
F0.0
aaI2
aa(lp4822
I1
a(lp4823
F0.0
aaI2
aa(lp4824
I1
a(lp4825
F0.0
aaI64
aaa(lp4826
S'scaffold9324_cov148'
p4827
aS'scaffold9325_cov63'
p4828
aa(lp4829
S'scaffold3002_cov145'
p4830
aS'scaffold32103_cov132'
p4831
aa(lp4832
S'scaffold12335_cov66'
p4833
aS'scaffold8993_cov67'
p4834
a(lp4835
I1
a(lp4836
F0.414634
aaI41
aaa(lp4837
S'scaffold47796_cov64'
p4838
aS'scaffold6481_cov91'
p4839
a(lp4840
I1
a(lp4841
F0.714286
aaI49
aa(lp4842
I1
a(lp4843
F0.766667
aaI30
aa(lp4844
I1
a(lp4845
F0.0
aaI5
aa(lp4846
I1
a(lp4847
F0.0
aaI5
aa(lp4848
I1
a(lp4849
F0.0
aaI3
aa(lp4850
I1
a(lp4851
F0.0
aaI2
aa(lp4852
I1
a(lp4853
F0.0
aaI4
aa(lp4854
I1
a(lp4855
F0.0
aaI6
aa(lp4856
I1
a(lp4857
F0.0
aaI9
aa(lp4858
I1
a(lp4859
F0.0
aaI18
aa(lp4860
I1
a(lp4861
F0.222222
aaI9
aa(lp4862
I1
a(lp4863
F0.0
aaI7
aa(lp4864
I1
a(lp4865
F0.0
aaI20
aa(lp4866
I1
a(lp4867
F0.0
aaI10
aa(lp4868
I1
a(lp4869
F0.0
aaI4
aa(lp4870
I1
a(lp4871
F0.6
aaI10
aa(lp4872
I1
a(lp4873
F0.3
aaI10
aa(lp4874
I1
a(lp4875
F0.0
aaI6
aa(lp4876
I1
a(lp4877
F0.0
aaI6
aa(lp4878
I1
a(lp4879
F0.0
aaI9
aa(lp4880
I1
a(lp4881
F0.0
aaI9
aa(lp4882
I1
a(lp4883
F0.0
aaI11
aaa(lp4884
S'scaffold11081_cov88'
p4885
aS'scaffold26032_cov70'
p4886
a(lp4887
I1
a(lp4888
F0.285714
aaI42
aa(lp4889
I1
a(lp4890
F0.333333
aaI42
aaa(lp4891
S'scaffold6524_cov65'
p4892
aS'scaffold6704_cov127'
p4893
a(lp4894
I1
a(lp4895
F0.295455
aaI44
aaa(lp4896
S'scaffold4585_cov69'
p4897
aS'scaffold6268_cov78'
p4898
aa(lp4899
S'scaffold5775_cov75'
p4900
aS'scaffold73058_cov93'
p4901
a(lp4902
I1
a(lp4903
F0.277778
aaI36
aa(lp4904
I1
a(lp4905
F0.289474
aaI38
aa(lp4906
I1
a(lp4907
F0.409091
aaI22
aa(lp4908
I1
a(lp4909
F0.438596
aaI57
aa(lp4910
I1
a(lp4911
F0.310345
aaI29
aa(lp4912
I1
a(lp4913
F0.46875
aaI32
aa(lp4914
I1
a(lp4915
F0.380952
aaI42
aa(lp4916
I1
a(lp4917
F0.206897
aaI29
aa(lp4918
I1
a(lp4919
F0.325
aaI40
aaa(lp4920
S'scaffold13862_cov109'
p4921
aS'scaffold8878_cov69'
p4922
aa(lp4923
S'scaffold14578_cov124'
p4924
aS'scaffold14579_cov112'
p4925
a(lp4926
I1
a(lp4927
F0.209877
aaI81
aaa(lp4928
S'scaffold166809_cov123'
p4929
aS'scaffold57805_cov71'
p4930
aa(lp4931
S'scaffold195195_cov811'
p4932
aS'scaffold5496_cov92'
p4933
aa(lp4934
S'scaffold15386_cov80'
p4935
aS'scaffold23731_cov68'
p4936
aa(lp4937
S'scaffold10491_cov66'
p4938
aS'scaffold12903_cov71'
p4939
aa(lp4940
S'scaffold141950_cov79'
p4941
aS'scaffold9327_cov109'
p4942
aa(lp4943
S'scaffold104_cov67'
p4944
aS'scaffold34705_cov67'
p4945
aa(lp4946
S'scaffold5995_cov84'
p4947
aS'scaffold6502_cov73'
p4948
a(lp4949
I1
a(lp4950
F0.509804
aaI51
aa(lp4951
I1
a(lp4952
F0.354839
aaI31
aa(lp4953
I1
a(lp4954
F0.375
aaI32
aa(lp4955
I1
a(lp4956
F0.352941
aaI34
aa(lp4957
I1
a(lp4958
F0.388889
aaI54
aaa(lp4959
S'scaffold279_cov75'
p4960
aS'scaffold7438_cov111'
p4961
a(lp4962
I1
a(lp4963
F0.3125
aaI32
aa(lp4964
I1
a(lp4965
F0.405405
aaI37
aa(lp4966
I1
a(lp4967
F0.222222
aaI36
aa(lp4968
I1
a(lp4969
F0.242424
aaI33
aa(lp4970
I1
a(lp4971
F0.25
aaI28
aaa(lp4972
S'scaffold114629_cov63'
p4973
aS'scaffold15395_cov68'
p4974
a(lp4975
I1
a(lp4976
F0.3
aaI40
aaa(lp4977
S'scaffold23855_cov65'
p4978
aS'scaffold8620_cov63'
p4979
a(lp4980
I1
a(lp4981
F0.342857
aaI35
aaa(lp4982
S'scaffold7098_cov89'
p4983
aS'scaffold8421_cov73'
p4984
a(lp4985
I1
a(lp4986
F0.375
aaI24
aa(lp4987
I1
a(lp4988
F0.439024
aaI41
aa(lp4989
I1
a(lp4990
F0.478873
aaI71
aaa(lp4991
S'scaffold49078_cov128'
p4992
aS'scaffold54587_cov60'
p4993
aa(lp4994
S'scaffold10474_cov65'
p4995
aS'scaffold10475_cov143'
p4996
aa(lp4997
S'scaffold1865_cov101'
p4998
aS'scaffold58306_cov63'
p4999
aa(lp5000
S'scaffold11271_cov65'
p5001
aS'scaffold8101_cov85'
p5002
a(lp5003
I1
a(lp5004
F0.27027
aaI37
aaa(lp5005
S'scaffold476_cov90'
p5006
aS'scaffold8782_cov64'
p5007
aa(lp5008
S'scaffold24500_cov65'
p5009
aS'scaffold57197_cov90'
p5010
a(lp5011
I1
a(lp5012
F0.0
aaI5
aa(lp5013
I1
a(lp5014
F0.0
aaI9
aaasg2104
(lp5015
(lp5016
g4653
ag4654
a(lp5017
I1
a(lp5018
F0.371429
aaI35
aa(lp5019
I1
a(lp5020
F0.205882
aaI34
aa(lp5021
I1
a(lp5022
F0.225806
aaI31
aa(lp5023
I1
a(lp5024
F0.25
aaI36
aaa(lp5025
g4682
ag4683
a(lp5026
I1
a(lp5027
F0.42
aaI50
aa(lp5028
I1
a(lp5029
F0.411765
aaI51
aa(lp5030
I1
a(lp5031
F0.212389
aaI113
aa(lp5032
I1
a(lp5033
F0.402985
aaI67
aa(lp5034
I1
a(lp5035
F0.342857
aaI35
aa(lp5036
I1
a(lp5037
F0.235294
aaI34
aaa(lp5038
g4711
ag4712
a(lp5039
I1
a(lp5040
F0.3
aaI50
aaa(lp5041
g4722
ag4723
aa(lp5042
g4725
ag4726
aa(lp5043
g4734
ag4735
aa(lp5044
g4737
ag4738
a(lp5045
I1
a(lp5046
F0.235294
aaI34
aaa(lp5047
g4746
ag4747
a(lp5048
I1
a(lp5049
F0.222222
aaI27
aaa(lp5050
g4749
ag4750
aa(lp5051
g4752
ag4753
a(lp5052
I1
a(lp5053
F0.0
aaI33
aaa(lp5054
g4755
ag4756
aa(lp5055
g4758
ag4759
aa(lp5056
g4761
ag4762
aa(lp5057
g4770
ag4771
a(lp5058
I1
a(lp5059
F0.235294
aaI51
aa(lp5060
I1
a(lp5061
F0.245283
aaI53
aa(lp5062
I1
a(lp5063
F0.28
aaI50
aaa(lp5064
g4777
ag4778
a(lp5065
I1
a(lp5066
F0.275862
aaI29
aa(lp5067
I1
a(lp5068
F0.230769
aaI39
aa(lp5069
I1
a(lp5070
F0.333333
aaI39
aa(lp5071
I1
a(lp5072
F0.533333
aaI45
aa(lp5073
I1
a(lp5074
F0.333333
aaI36
aa(lp5075
I1
a(lp5076
F0.285714
aaI35
aa(lp5077
I1
a(lp5078
F0.323529
aaI34
aaa(lp5079
g4784
ag4785
a(lp5080
I1
a(lp5081
F0.378378
aaI37
aa(lp5082
I1
a(lp5083
F0.255814
aaI43
aa(lp5084
I1
a(lp5085
F0.276596
aaI47
aa(lp5086
I1
a(lp5087
F0.265306
aaI49
aa(lp5088
I1
a(lp5089
F0.25
aaI44
aa(lp5090
I1
a(lp5091
F0.255319
aaI47
aa(lp5092
I1
a(lp5093
F0.288889
aaI45
aa(lp5094
I1
a(lp5095
F0.365385
aaI52
aa(lp5096
I1
a(lp5097
F0.3125
aaI32
aaa(lp5098
g4827
ag4828
aa(lp5099
g4830
ag4831
aa(lp5100
g4833
ag4834
aa(lp5101
g4838
ag4839
aa(lp5102
g4885
ag4886
aa(lp5103
g4892
ag4893
a(lp5104
I1
a(lp5105
F0.333333
aaI51
aa(lp5106
I1
a(lp5107
F0.297297
aaI37
aa(lp5108
I1
a(lp5109
F0.225806
aaI31
aa(lp5110
I1
a(lp5111
F0.28125
aaI32
aa(lp5112
I1
a(lp5113
F0.206897
aaI29
aa(lp5114
I1
a(lp5115
F0.388889
aaI54
aa(lp5116
I1
a(lp5117
F0.295455
aaI44
aa(lp5118
I1
a(lp5119
F0.238095
aaI42
aaa(lp5120
g4897
ag4898
a(lp5121
I1
a(lp5122
F0.243902
aaI41
aaa(lp5123
g4900
ag4901
a(lp5124
I1
a(lp5125
F0.339623
aaI53
aa(lp5126
I1
a(lp5127
F0.36
aaI50
aa(lp5128
I1
a(lp5129
F0.243243
aaI37
aa(lp5130
I1
a(lp5131
F0.210526
aaI38
aa(lp5132
I1
a(lp5133
F0.323529
aaI34
aa(lp5134
I1
a(lp5135
F0.414634
aaI41
aa(lp5136
I1
a(lp5137
F0.327273
aaI55
aaa(lp5138
g4921
ag4922
a(lp5139
I1
a(lp5140
F0.206897
aaI29
aa(lp5141
I1
a(lp5142
F0.372093
aaI43
aa(lp5143
I1
a(lp5144
F0.3
aaI50
aa(lp5145
I1
a(lp5146
F0.3125
aaI48
aa(lp5147
I1
a(lp5148
F0.372093
aaI43
aaa(lp5149
g4924
ag4925
a(lp5150
I1
a(lp5151
F0.470588
aaI51
aaa(lp5152
g4929
ag4930
aa(lp5153
g4932
ag4933
aa(lp5154
g4935
ag4936
aa(lp5155
g4938
ag4939
aa(lp5156
g4941
ag4942
aa(lp5157
g4944
ag4945
aa(lp5158
g4947
ag4948
a(lp5159
I1
a(lp5160
F0.346939
aaI49
aaa(lp5161
g4960
ag4961
a(lp5162
I1
a(lp5163
F0.235294
aaI34
aa(lp5164
I1
a(lp5165
F0.242424
aaI33
aa(lp5166
I1
a(lp5167
F0.305556
aaI36
aa(lp5168
I1
a(lp5169
F0.26087
aaI46
aaa(lp5170
g4973
ag4974
aa(lp5171
g4978
ag4979
aa(lp5172
g4983
ag4984
a(lp5173
I1
a(lp5174
F0.235294
aaI34
aaa(lp5175
g4992
ag4993
aa(lp5176
g4995
ag4996
aa(lp5177
g4998
ag4999
a(lp5178
I1
a(lp5179
F0.318182
aaI44
aa(lp5180
I1
a(lp5181
F0.275862
aaI29
aa(lp5182
I1
a(lp5183
F0.214286
aaI28
aaa(lp5184
g5001
ag5002
aa(lp5185
g5006
ag5007
aa(lp5186
g5009
ag5010
aass.