(dp0
S'triploids'
p1
(dp2
S'down'
p3
(lp4
(lp5
S'scaffold4386_cov298'
p6
aS'scaffold2688_cov189'
p7
a(lp8
I1
a(lp9
F0.462963
aaI54
aa(lp10
I1
a(lp11
F0.206897
aaI29
aaa(lp12
S'scaffold5383_cov228'
p13
aS'scaffold6260_cov182'
p14
aa(lp15
S'scaffold34997_cov218'
p16
aS'scaffold126_cov233'
p17
aa(lp18
S'scaffold3363_cov220'
p19
aS'scaffold4931_cov207'
p20
a(lp21
I1
a(lp22
F0.416667
aaI36
aaa(lp23
S'scaffold5757_cov278'
p24
aS'scaffold35469_cov250'
p25
a(lp26
I1
a(lp27
F0.34375
aaI32
aa(lp28
I1
a(lp29
F0.264706
aaI34
aa(lp30
I1
a(lp31
F0.264706
aaI34
aa(lp32
I1
a(lp33
F0.361702
aaI47
aa(lp34
I1
a(lp35
F0.2
aaI15
aaa(lp36
S'scaffold520_cov225'
p37
aS'scaffold11220_cov221'
p38
a(lp39
I1
a(lp40
F0.382979
aaI47
aa(lp41
I1
a(lp42
F0.444444
aaI45
aa(lp43
I1
a(lp44
F0.404762
aaI42
aa(lp45
I1
a(lp46
F0.34375
aaI32
aa(lp47
I1
a(lp48
F0.225806
aaI31
aa(lp49
I1
a(lp50
F0.357143
aaI28
aa(lp51
I1
a(lp52
F0.37037
aaI27
aa(lp53
I1
a(lp54
F0.241379
aaI29
aaa(lp55
S'scaffold8181_cov267'
p56
aS'scaffold4564_cov155'
p57
aa(lp58
S'scaffold6784_cov373'
p59
aS'scaffold34876_cov153'
p60
a(lp61
I1
a(lp62
F0.28125
aaI32
aa(lp63
I1
a(lp64
F0.259259
aaI27
aa(lp65
I1
a(lp66
F0.333333
aaI39
aa(lp67
I1
a(lp68
F0.352941
aaI34
aa(lp69
I1
a(lp70
F0.354839
aaI31
aa(lp71
I1
a(lp72
F0.363636
aaI33
aa(lp73
I1
a(lp74
F0.227273
aaI22
aa(lp75
I1
a(lp76
F0.333333
aaI24
aa(lp77
I1
a(lp78
F0.275862
aaI29
aa(lp79
I1
a(lp80
F0.289474
aaI38
aaa(lp81
S'scaffold8707_cov275'
p82
aS'scaffold1032_cov163'
p83
a(lp84
I1
a(lp85
F0.342857
aaI35
aa(lp86
I1
a(lp87
F0.351351
aaI37
aa(lp88
I1
a(lp89
F0.382353
aaI34
aa(lp90
I1
a(lp91
F0.27027
aaI37
aa(lp92
I1
a(lp93
F0.416667
aaI36
aa(lp94
I1
a(lp95
F0.457143
aaI35
aa(lp96
I1
a(lp97
F0.516129
aaI31
aa(lp98
I1
a(lp99
F0.459459
aaI37
aaa(lp100
S'scaffold4886_cov351'
p101
aS'scaffold987_cov149'
p102
aa(lp103
S'scaffold5780_cov292'
p104
aS'scaffold421_cov166'
p105
a(lp106
I1
a(lp107
F0.2
aaI25
aa(lp108
I1
a(lp109
F0.238095
aaI21
aa(lp110
I1
a(lp111
F0.227273
aaI22
aa(lp112
I1
a(lp113
F0.269231
aaI26
aaa(lp114
S'scaffold78_cov298'
p115
aS'scaffold3994_cov307'
p116
aa(lp117
S'scaffold14087_cov206'
p118
aS'scaffold4385_cov239'
p119
a(lp120
I1
a(lp121
F0.333333
aaI48
aa(lp122
I1
a(lp123
F0.333333
aaI54
aaa(lp124
S'scaffold8056_cov196'
p125
aS'scaffold19250_cov205'
p126
a(lp127
I1
a(lp128
F0.206897
aaI29
aaa(lp129
S'scaffold4480_cov293'
p130
aS'scaffold18648_cov147'
p131
aa(lp132
S'scaffold499_cov259'
p133
aS'scaffold8360_cov206'
p134
aa(lp135
S'scaffold3693_cov252'
p136
aS'scaffold35708_cov182'
p137
aa(lp138
S'scaffold35009_cov245'
p139
aS'scaffold91_cov238'
p140
a(lp141
I1
a(lp142
F0.2
aaI30
aa(lp143
I1
a(lp144
F0.42
aaI50
aa(lp145
I1
a(lp146
F0.474576
aaI59
aa(lp147
I1
a(lp148
F0.507692
aaI65
aa(lp149
I1
a(lp150
F0.47619
aaI42
aa(lp151
I1
a(lp152
F0.340909
aaI44
aa(lp153
I1
a(lp154
F0.378378
aaI37
aa(lp155
I1
a(lp156
F0.233333
aaI30
aa(lp157
I1
a(lp158
F0.214286
aaI28
aaa(lp159
S'scaffold10091_cov218'
p160
aS'scaffold8128_cov148'
p161
aa(lp162
S'scaffold35860_cov272'
p163
aS'scaffold2747_cov252'
p164
a(lp165
I1
a(lp166
F0.717949
aaI39
aaa(lp167
S'scaffold1766_cov198'
p168
aS'scaffold607_cov179'
p169
aa(lp170
S'scaffold40391_cov315'
p171
aS'scaffold10294_cov190'
p172
aa(lp173
S'scaffold709_cov247'
p174
aS'scaffold5198_cov234'
p175
aa(lp176
S'scaffold52810_cov589'
p177
aS'scaffold2099_cov316'
p178
aa(lp179
S'scaffold6504_cov303'
p180
aS'scaffold13906_cov172'
p181
aa(lp182
S'scaffold275_cov215'
p183
aS'scaffold387_cov149'
p184
aa(lp185
S'scaffold1607_cov239'
p186
aS'scaffold35912_cov193'
p187
a(lp188
I1
a(lp189
F0.266667
aaI30
aa(lp190
I1
a(lp191
F0.228571
aaI35
aa(lp192
I1
a(lp193
F0.2
aaI20
aa(lp194
I1
a(lp195
F0.210526
aaI19
aa(lp196
I1
a(lp197
F0.2
aaI20
aa(lp198
I1
a(lp199
F0.222222
aaI18
aaa(lp200
S'scaffold15165_cov249'
p201
aS'scaffold35835_cov299'
p202
aa(lp203
S'scaffold3960_cov215'
p204
aS'scaffold3895_cov206'
p205
a(lp206
I1
a(lp207
F0.266667
aaI30
aa(lp208
I1
a(lp209
F0.310345
aaI29
aa(lp210
I1
a(lp211
F0.296296
aaI27
aa(lp212
I1
a(lp213
F0.296296
aaI27
aa(lp214
I1
a(lp215
F0.3125
aaI32
aa(lp216
I1
a(lp217
F0.361111
aaI36
aa(lp218
I1
a(lp219
F0.341463
aaI41
aa(lp220
I1
a(lp221
F0.325581
aaI43
aa(lp222
I1
a(lp223
F0.355556
aaI45
aa(lp224
I1
a(lp225
F0.348837
aaI43
aa(lp226
I1
a(lp227
F0.317073
aaI41
aaa(lp228
S'scaffold965_cov205'
p229
aS'scaffold51278_cov326'
p230
aa(lp231
S'scaffold2468_cov231'
p232
aS'scaffold4243_cov244'
p233
aa(lp234
S'scaffold2338_cov238'
p235
aS'scaffold2516_cov204'
p236
a(lp237
I1
a(lp238
F0.289474
aaI38
aa(lp239
I1
a(lp240
F0.268293
aaI41
aa(lp241
I1
a(lp242
F0.297297
aaI37
aa(lp243
I1
a(lp244
F0.304348
aaI23
aa(lp245
I1
a(lp246
F0.266667
aaI45
aa(lp247
I1
a(lp248
F0.259259
aaI27
aa(lp249
I1
a(lp250
F0.25
aaI28
aa(lp251
I1
a(lp252
F0.233333
aaI30
aa(lp253
I1
a(lp254
F0.225806
aaI31
aa(lp255
I1
a(lp256
F0.354167
aaI48
aa(lp257
I1
a(lp258
F0.387097
aaI31
aa(lp259
I1
a(lp260
F0.230769
aaI26
aa(lp261
I1
a(lp262
F0.25
aaI40
aa(lp263
I1
a(lp264
F0.238095
aaI21
aa(lp265
I1
a(lp266
F0.375
aaI32
aa(lp267
I1
a(lp268
F0.214286
aaI42
aaa(lp269
S'scaffold6588_cov297'
p270
aS'scaffold3089_cov153'
p271
a(lp272
I1
a(lp273
F0.37037
aaI54
aa(lp274
I1
a(lp275
F0.228571
aaI35
aa(lp276
I1
a(lp277
F0.230769
aaI13
aa(lp278
I1
a(lp279
F0.27027
aaI37
aa(lp280
I1
a(lp281
F0.230769
aaI26
aa(lp282
I1
a(lp283
F0.307692
aaI26
aaa(lp284
S'scaffold11638_cov181'
p285
aS'scaffold11037_cov149'
p286
aa(lp287
S'scaffold5697_cov266'
p288
aS'scaffold3738_cov179'
p289
a(lp290
I1
a(lp291
F0.285714
aaI21
aa(lp292
I1
a(lp293
F0.210526
aaI38
aa(lp294
I1
a(lp295
F0.258065
aaI31
aa(lp296
I1
a(lp297
F0.3
aaI30
aa(lp298
I1
a(lp299
F0.321429
aaI28
aa(lp300
I1
a(lp301
F0.3
aaI30
aa(lp302
I1
a(lp303
F0.275862
aaI29
aa(lp304
I1
a(lp305
F0.264706
aaI34
aa(lp306
I1
a(lp307
F0.2
aaI40
aa(lp308
I1
a(lp309
F0.233333
aaI30
aa(lp310
I1
a(lp311
F0.411765
aaI34
aa(lp312
I1
a(lp313
F0.55
aaI40
aa(lp314
I1
a(lp315
F0.375
aaI32
aa(lp316
I1
a(lp317
F0.296296
aaI27
aa(lp318
I1
a(lp319
F0.307692
aaI26
aa(lp320
I1
a(lp321
F0.307692
aaI26
aa(lp322
I1
a(lp323
F0.296296
aaI27
aa(lp324
I1
a(lp325
F0.3
aaI30
aa(lp326
I1
a(lp327
F0.269231
aaI26
aa(lp328
I1
a(lp329
F0.230769
aaI26
aa(lp330
I1
a(lp331
F0.30303
aaI33
aa(lp332
I1
a(lp333
F0.25
aaI44
aa(lp334
I1
a(lp335
F0.25
aaI36
aa(lp336
I1
a(lp337
F0.365854
aaI41
aa(lp338
I1
a(lp339
F0.25
aaI16
aaa(lp340
S'scaffold4560_cov350'
p341
aS'scaffold2640_cov197'
p342
a(lp343
I1
a(lp344
F0.241379
aaI29
aa(lp345
I1
a(lp346
F0.269231
aaI26
aa(lp347
I1
a(lp348
F0.26087
aaI23
aaa(lp349
S'scaffold34901_cov222'
p350
aS'scaffold14139_cov184'
p351
a(lp352
I1
a(lp353
F0.212121
aaI33
aa(lp354
I1
a(lp355
F0.205882
aaI34
aa(lp356
I1
a(lp357
F0.25
aaI32
aa(lp358
I1
a(lp359
F0.212121
aaI33
aa(lp360
I1
a(lp361
F0.553191
aaI47
aa(lp362
I1
a(lp363
F0.25
aaI36
aa(lp364
I1
a(lp365
F0.214286
aaI28
aa(lp366
I1
a(lp367
F0.2
aaI25
aa(lp368
I1
a(lp369
F0.25
aaI32
aa(lp370
I1
a(lp371
F0.2
aaI20
aaa(lp372
S'scaffold35491_cov284'
p373
aS'scaffold6922_cov210'
p374
a(lp375
I1
a(lp376
F0.5
aaI46
aa(lp377
I1
a(lp378
F0.395833
aaI48
aa(lp379
I1
a(lp380
F0.461538
aaI39
aa(lp381
I1
a(lp382
F0.44186
aaI43
aa(lp383
I1
a(lp384
F0.347826
aaI46
aa(lp385
I1
a(lp386
F0.2
aaI25
aa(lp387
I1
a(lp388
F0.214286
aaI28
aa(lp389
I1
a(lp390
F0.214286
aaI28
aa(lp391
I1
a(lp392
F0.258065
aaI31
aa(lp393
I1
a(lp394
F0.355556
aaI45
aa(lp395
I1
a(lp396
F0.380952
aaI42
aa(lp397
I1
a(lp398
F0.416667
aaI36
aa(lp399
I1
a(lp400
F0.433333
aaI30
aaa(lp401
S'scaffold5724_cov219'
p402
aS'scaffold8613_cov250'
p403
a(lp404
I1
a(lp405
F0.0
aaI12
aa(lp406
I1
a(lp407
F0.0
aaI12
aa(lp408
I1
a(lp409
F0.0
aaI13
aa(lp410
I1
a(lp411
F0.0
aaI20
aa(lp412
I1
a(lp413
F0.428571
aaI7
aa(lp414
I1
a(lp415
F0.431373
aaI51
aa(lp416
I1
a(lp417
F0.333333
aaI24
aa(lp418
I1
a(lp419
F0.225806
aaI31
aa(lp420
I1
a(lp421
F0.228571
aaI35
aa(lp422
I1
a(lp423
F0.241379
aaI29
aa(lp424
I1
a(lp425
F0.479167
aaI48
aa(lp426
I1
a(lp427
F0.306122
aaI49
aa(lp428
I1
a(lp429
F0.361111
aaI36
aa(lp430
I1
a(lp431
F0.428571
aaI49
aa(lp432
I1
a(lp433
F0.333333
aaI39
aa(lp434
I1
a(lp435
F0.421053
aaI38
aa(lp436
I1
a(lp437
F0.394737
aaI38
aa(lp438
I1
a(lp439
F0.304348
aaI23
aa(lp440
I1
a(lp441
F0.25
aaI20
aa(lp442
I1
a(lp443
F0.217391
aaI23
aa(lp444
I1
a(lp445
F0.294118
aaI17
aa(lp446
I1
a(lp447
F0.30303
aaI33
aa(lp448
I1
a(lp449
F0.363636
aaI44
aa(lp450
I1
a(lp451
F0.509804
aaI51
aa(lp452
I1
a(lp453
F0.292683
aaI41
aa(lp454
I1
a(lp455
F0.342105
aaI38
aa(lp456
I1
a(lp457
F0.404255
aaI47
aa(lp458
I1
a(lp459
F0.325581
aaI43
aa(lp460
I1
a(lp461
F0.307692
aaI39
aaa(lp462
S'scaffold6223_cov242'
p463
aS'scaffold1876_cov202'
p464
aa(lp465
S'scaffold2702_cov266'
p466
aS'scaffold432_cov233'
p467
a(lp468
I1
a(lp469
F0.465116
aaI43
aa(lp470
I1
a(lp471
F0.391304
aaI46
aa(lp472
I1
a(lp473
F0.365854
aaI41
aa(lp474
I1
a(lp475
F0.27907
aaI43
aa(lp476
I1
a(lp477
F0.5
aaI38
aa(lp478
I1
a(lp479
F0.28125
aaI32
aaa(lp480
S'scaffold11028_cov263'
p481
aS'scaffold3310_cov167'
p482
a(lp483
I1
a(lp484
F0.225
aaI40
aa(lp485
I1
a(lp486
F0.357143
aaI42
aa(lp487
I1
a(lp488
F0.390244
aaI41
aaa(lp489
S'scaffold5897_cov436'
p490
aS'scaffold343_cov157'
p491
aa(lp492
S'scaffold6105_cov252'
p493
aS'scaffold6855_cov172'
p494
a(lp495
I1
a(lp496
F0.317073
aaI41
aa(lp497
I1
a(lp498
F0.34375
aaI32
aaa(lp499
S'scaffold36255_cov269'
p500
aS'scaffold42378_cov315'
p501
aa(lp502
S'scaffold2237_cov233'
p503
aS'scaffold34835_cov215'
p504
a(lp505
I1
a(lp506
F0.403846
aaI52
aa(lp507
I1
a(lp508
F0.205128
aaI39
aaa(lp509
S'scaffold10188_cov228'
p510
aS'scaffold1228_cov289'
p511
aa(lp512
S'scaffold2751_cov176'
p513
aS'scaffold636_cov192'
p514
a(lp515
I1
a(lp516
F0.216216
aaI37
aa(lp517
I1
a(lp518
F0.2
aaI30
aa(lp519
I1
a(lp520
F0.2
aaI30
aaa(lp521
S'scaffold6205_cov227'
p522
aS'scaffold858_cov242'
p523
a(lp524
I1
a(lp525
F0.529412
aaI34
aa(lp526
I1
a(lp527
F0.567568
aaI37
aa(lp528
I1
a(lp529
F0.487179
aaI39
aa(lp530
I1
a(lp531
F0.45
aaI40
aaa(lp532
S'scaffold34894_cov238'
p533
aS'scaffold424_cov173'
p534
a(lp535
I1
a(lp536
F0.230769
aaI26
aa(lp537
I1
a(lp538
F0.230769
aaI39
aa(lp539
I1
a(lp540
F0.548387
aaI31
aaa(lp541
S'scaffold13730_cov260'
p542
aS'scaffold53022_cov294'
p543
a(lp544
I1
a(lp545
F0.333333
aaI30
aa(lp546
I1
a(lp547
F0.344828
aaI29
aaa(lp548
S'scaffold3883_cov286'
p549
aS'scaffold2531_cov161'
p550
aa(lp551
S'scaffold19485_cov191'
p552
aS'scaffold19486_cov306'
p553
aa(lp554
S'scaffold13299_cov272'
p555
aS'scaffold13790_cov193'
p556
a(lp557
I1
a(lp558
F0.4
aaI30
aa(lp559
I1
a(lp560
F0.305556
aaI36
aa(lp561
I1
a(lp562
F0.351351
aaI37
aa(lp563
I1
a(lp564
F0.351351
aaI37
aa(lp565
I1
a(lp566
F0.551724
aaI29
aaa(lp567
S'scaffold2120_cov226'
p568
aS'scaffold5979_cov159'
p569
aa(lp570
S'scaffold30587_cov247'
p571
aS'scaffold1792_cov186'
p572
a(lp573
I1
a(lp574
F0.333333
aaI36
aa(lp575
I1
a(lp576
F0.314286
aaI35
aa(lp577
I1
a(lp578
F0.21875
aaI32
aaa(lp579
S'scaffold3511_cov209'
p580
aS'scaffold383_cov198'
p581
a(lp582
I1
a(lp583
F0.40625
aaI32
aa(lp584
I1
a(lp585
F0.333333
aaI24
aa(lp586
I1
a(lp587
F0.0
aaI23
aaa(lp588
S'scaffold34100_cov244'
p589
aS'scaffold1747_cov293'
p590
a(lp591
I1
a(lp592
F0.25
aaI36
aa(lp593
I1
a(lp594
F0.257143
aaI35
aa(lp595
I1
a(lp596
F0.263158
aaI38
aa(lp597
I1
a(lp598
F0.225
aaI40
aa(lp599
I1
a(lp600
F0.261905
aaI42
aa(lp601
I1
a(lp602
F0.342105
aaI38
aa(lp603
I1
a(lp604
F0.603774
aaI53
aa(lp605
I1
a(lp606
F0.392857
aaI28
aa(lp607
I1
a(lp608
F0.382353
aaI34
aa(lp609
I1
a(lp610
F0.391304
aaI46
aa(lp611
I1
a(lp612
F0.375
aaI24
aaa(lp613
S'scaffold1599_cov246'
p614
aS'scaffold34016_cov157'
p615
aa(lp616
S'scaffold16908_cov201'
p617
aS'scaffold4051_cov206'
p618
a(lp619
I1
a(lp620
F0.241379
aaI29
aa(lp621
I1
a(lp622
F0.425
aaI40
aa(lp623
I1
a(lp624
F0.217391
aaI23
aa(lp625
I1
a(lp626
F0.344828
aaI29
aaa(lp627
S'scaffold15598_cov210'
p628
aS'scaffold5017_cov219'
p629
a(lp630
I1
a(lp631
F0.323529
aaI34
aa(lp632
I1
a(lp633
F0.217391
aaI23
aa(lp634
I1
a(lp635
F0.208333
aaI24
aa(lp636
I1
a(lp637
F0.208333
aaI24
aa(lp638
I1
a(lp639
F0.235294
aaI34
aa(lp640
I1
a(lp641
F0.444444
aaI45
aa(lp642
I1
a(lp643
F0.3125
aaI32
aa(lp644
I1
a(lp645
F0.238095
aaI42
aa(lp646
I1
a(lp647
F0.425532
aaI47
aa(lp648
I1
a(lp649
F0.341463
aaI41
aa(lp650
I1
a(lp651
F0.324324
aaI37
aa(lp652
I1
a(lp653
F0.371429
aaI35
aa(lp654
I1
a(lp655
F0.4
aaI35
aa(lp656
I1
a(lp657
F0.32
aaI25
aa(lp658
I1
a(lp659
F0.346154
aaI26
aaa(lp660
S'scaffold2656_cov192'
p661
aS'scaffold28966_cov241'
p662
a(lp663
I1
a(lp664
F0.615385
aaI52
aa(lp665
I1
a(lp666
F0.215385
aaI65
aa(lp667
I1
a(lp668
F0.21875
aaI64
aa(lp669
I1
a(lp670
F0.377358
aaI53
aa(lp671
I1
a(lp672
F0.247059
aaI85
aa(lp673
I1
a(lp674
F0.298969
aaI97
aa(lp675
I1
a(lp676
F0.37
aaI100
aa(lp677
I1
a(lp678
F0.319149
aaI47
aa(lp679
I1
a(lp680
F0.30303
aaI33
aa(lp681
I1
a(lp682
F0.230769
aaI39
aa(lp683
I1
a(lp684
F0.243243
aaI37
aa(lp685
I1
a(lp686
F0.409091
aaI44
aaa(lp687
S'scaffold11791_cov336'
p688
aS'scaffold3120_cov189'
p689
a(lp690
I1
a(lp691
F0.333333
aaI24
aa(lp692
I1
a(lp693
F0.363636
aaI22
aa(lp694
I1
a(lp695
F0.25
aaI20
aaa(lp696
S'scaffold1893_cov262'
p697
aS'scaffold35334_cov163'
p698
aa(lp699
S'scaffold2157_cov220'
p700
aS'scaffold5589_cov166'
p701
aa(lp702
S'scaffold7588_cov337'
p703
aS'scaffold9757_cov155'
p704
aa(lp705
S'scaffold35943_cov295'
p706
aS'scaffold7990_cov217'
p707
a(lp708
I1
a(lp709
F0.451613
aaI31
aa(lp710
I1
a(lp711
F0.439024
aaI41
aa(lp712
I1
a(lp713
F0.411765
aaI51
aaa(lp714
S'scaffold3083_cov378'
p715
aS'scaffold34652_cov210'
p716
a(lp717
I1
a(lp718
F0.233333
aaI30
aa(lp719
I1
a(lp720
F0.208333
aaI24
aa(lp721
I1
a(lp722
F0.321429
aaI28
aaa(lp723
S'scaffold1203_cov294'
p724
aS'scaffold1019_cov183'
p725
aa(lp726
S'scaffold4758_cov346'
p727
aS'scaffold1045_cov153'
p728
a(lp729
I1
a(lp730
F0.342105
aaI38
aaa(lp731
S'scaffold3813_cov275'
p732
aS'scaffold6764_cov231'
p733
a(lp734
I1
a(lp735
F0.304348
aaI46
aa(lp736
I1
a(lp737
F0.357143
aaI42
aa(lp738
I1
a(lp739
F0.404762
aaI42
aa(lp740
I1
a(lp741
F0.424242
aaI33
aa(lp742
I1
a(lp743
F0.28
aaI50
aa(lp744
I1
a(lp745
F0.631579
aaI38
aa(lp746
I1
a(lp747
F0.305556
aaI36
aa(lp748
I1
a(lp749
F0.555556
aaI45
aa(lp750
I1
a(lp751
F0.534884
aaI43
aa(lp752
I1
a(lp753
F0.3
aaI20
aa(lp754
I1
a(lp755
F0.4
aaI25
aa(lp756
I1
a(lp757
F0.37037
aaI27
aa(lp758
I1
a(lp759
F0.486486
aaI37
aa(lp760
I1
a(lp761
F0.553191
aaI47
aa(lp762
I1
a(lp763
F0.553191
aaI47
aaa(lp764
S'scaffold355_cov233'
p765
aS'scaffold5164_cov209'
p766
a(lp767
I1
a(lp768
F0.222222
aaI27
aa(lp769
I1
a(lp770
F0.266667
aaI30
aa(lp771
I1
a(lp772
F0.257143
aaI35
aa(lp773
I1
a(lp774
F0.414634
aaI41
aa(lp775
I1
a(lp776
F0.307692
aaI26
aa(lp777
I1
a(lp778
F0.37931
aaI29
aa(lp779
I1
a(lp780
F0.555556
aaI45
aa(lp781
I1
a(lp782
F0.348837
aaI43
aa(lp783
I1
a(lp784
F0.65625
aaI64
aaa(lp785
S'scaffold3883_cov286'
p786
aS'scaffold12108_cov159'
p787
aa(lp788
S'scaffold24073_cov287'
p789
aS'scaffold36462_cov152'
p790
aa(lp791
S'scaffold3476_cov276'
p792
aS'scaffold3249_cov179'
p793
a(lp794
I1
a(lp795
F0.0
aaI2
aa(lp796
I1
a(lp797
F0.0
aaI6
aa(lp798
I1
a(lp799
F1.0
aaI2
aa(lp800
I1
a(lp801
F0.0
aaI2
aa(lp802
I1
a(lp803
F0.0
aaI7
aaa(lp804
S'scaffold299_cov290'
p805
aS'scaffold4971_cov235'
p806
aa(lp807
S'scaffold34756_cov262'
p808
aS'scaffold23838_cov109'
p809
aa(lp810
S'scaffold276_cov267'
p811
aS'scaffold6071_cov156'
p812
aa(lp813
S'scaffold38974_cov463'
p814
aS'scaffold343_cov157'
p815
aa(lp816
S'scaffold14255_cov253'
p817
aS'scaffold2270_cov160'
p818
a(lp819
I1
a(lp820
F0.285714
aaI28
aa(lp821
I1
a(lp822
F0.272727
aaI22
aa(lp823
I1
a(lp824
F0.3
aaI20
aa(lp825
I1
a(lp826
F0.315789
aaI19
aa(lp827
I1
a(lp828
F0.5
aaI34
aaa(lp829
S'scaffold4704_cov190'
p830
aS'scaffold2105_cov193'
p831
a(lp832
I1
a(lp833
F0.314286
aaI35
aa(lp834
I1
a(lp835
F0.0
aaI23
aa(lp836
I1
a(lp837
F0.214286
aaI28
aa(lp838
I1
a(lp839
F0.258065
aaI31
aaa(lp840
S'scaffold19913_cov154'
p841
aS'scaffold35508_cov210'
p842
aa(lp843
S'scaffold6415_cov250'
p844
aS'scaffold6724_cov185'
p845
aa(lp846
S'scaffold34969_cov237'
p847
aS'scaffold5373_cov204'
p848
a(lp849
I1
a(lp850
F0.4
aaI30
aa(lp851
I1
a(lp852
F0.459459
aaI37
aa(lp853
I1
a(lp854
F0.542857
aaI35
aa(lp855
I1
a(lp856
F0.266667
aaI30
aa(lp857
I1
a(lp858
F0.230769
aaI26
aa(lp859
I1
a(lp860
F0.230769
aaI26
aa(lp861
I1
a(lp862
F0.448276
aaI29
aa(lp863
I1
a(lp864
F0.392857
aaI28
aa(lp865
I1
a(lp866
F0.433333
aaI30
aa(lp867
I1
a(lp868
F0.377778
aaI45
aa(lp869
I1
a(lp870
F0.204545
aaI44
aa(lp871
I1
a(lp872
F0.465517
aaI58
aaa(lp873
S'scaffold22860_cov185'
p874
aS'scaffold6721_cov174'
p875
a(lp876
I1
a(lp877
F0.216216
aaI37
aa(lp878
I1
a(lp879
F0.0
aaI44
aa(lp880
I1
a(lp881
F0.219512
aaI41
aaa(lp882
S'scaffold1871_cov212'
p883
aS'scaffold3028_cov204'
p884
a(lp885
I1
a(lp886
F0.228571
aaI35
aa(lp887
I1
a(lp888
F0.21875
aaI32
aa(lp889
I1
a(lp890
F0.235294
aaI34
aa(lp891
I1
a(lp892
F0.214286
aaI28
aa(lp893
I1
a(lp894
F0.285714
aaI28
aa(lp895
I1
a(lp896
F0.275862
aaI29
aa(lp897
I1
a(lp898
F0.25
aaI28
aa(lp899
I1
a(lp900
F0.34375
aaI32
aa(lp901
I1
a(lp902
F0.439024
aaI41
aa(lp903
I1
a(lp904
F0.431818
aaI44
aa(lp905
I1
a(lp906
F0.310345
aaI29
aa(lp907
I1
a(lp908
F0.263158
aaI19
aa(lp909
I1
a(lp910
F0.263158
aaI19
aaa(lp911
S'scaffold9334_cov225'
p912
aS'scaffold4813_cov177'
p913
a(lp914
I1
a(lp915
F0.388889
aaI18
aa(lp916
I1
a(lp917
F0.395349
aaI43
aa(lp918
I1
a(lp919
F0.206897
aaI29
aaa(lp920
S'scaffold625_cov187'
p921
aS'scaffold8957_cov170'
p922
a(lp923
I1
a(lp924
F0.5
aaI30
aa(lp925
I1
a(lp926
F0.393939
aaI33
aa(lp927
I1
a(lp928
F0.26087
aaI46
aa(lp929
I1
a(lp930
F0.302326
aaI43
aa(lp931
I1
a(lp932
F0.578125
aaI64
aa(lp933
I1
a(lp934
F0.324324
aaI37
aa(lp935
I1
a(lp936
F0.27027
aaI37
aa(lp937
I1
a(lp938
F0.25
aaI36
aa(lp939
I1
a(lp940
F0.25
aaI28
aa(lp941
I1
a(lp942
F0.25
aaI24
aa(lp943
I1
a(lp944
F0.217391
aaI23
aa(lp945
I1
a(lp946
F0.2
aaI25
aa(lp947
I1
a(lp948
F0.266667
aaI30
aa(lp949
I1
a(lp950
F0.266667
aaI30
aa(lp951
I1
a(lp952
F0.235294
aaI34
aaa(lp953
S'scaffold622_cov424'
p954
aS'scaffold1302_cov140'
p955
aa(lp956
S'scaffold3060_cov247'
p957
aS'scaffold3487_cov182'
p958
aa(lp959
S'scaffold21_cov335'
p960
aS'scaffold1045_cov153'
p961
aa(lp962
S'scaffold13299_cov272'
p963
aS'scaffold10369_cov160'
p964
a(lp965
I1
a(lp966
F0.25
aaI20
aa(lp967
I1
a(lp968
F0.4
aaI20
aaa(lp969
S'scaffold1828_cov217'
p970
aS'scaffold5358_cov160'
p971
a(lp972
I1
a(lp973
F0.259259
aaI27
aa(lp974
I1
a(lp975
F0.275862
aaI29
aa(lp976
I1
a(lp977
F0.241379
aaI29
aa(lp978
I1
a(lp979
F0.310345
aaI29
aa(lp980
I1
a(lp981
F0.321429
aaI28
aa(lp982
I1
a(lp983
F0.258065
aaI31
aa(lp984
I1
a(lp985
F0.24
aaI25
aa(lp986
I1
a(lp987
F0.204545
aaI44
aa(lp988
I1
a(lp989
F0.520833
aaI48
aa(lp990
I1
a(lp991
F0.454545
aaI44
aa(lp992
I1
a(lp993
F0.444444
aaI36
aa(lp994
I1
a(lp995
F0.371429
aaI35
aa(lp996
I1
a(lp997
F0.314286
aaI35
aa(lp998
I1
a(lp999
F0.344828
aaI29
aa(lp1000
I1
a(lp1001
F0.363636
aaI22
aaa(lp1002
S'scaffold36286_cov261'
p1003
aS'scaffold8587_cov157'
p1004
aa(lp1005
S'scaffold5178_cov237'
p1006
aS'scaffold6699_cov179'
p1007
aa(lp1008
S'scaffold5073_cov227'
p1009
aS'scaffold3911_cov285'
p1010
a(lp1011
I1
a(lp1012
F0.28125
aaI32
aaa(lp1013
S'scaffold6166_cov218'
p1014
aS'scaffold34141_cov184'
p1015
a(lp1016
I1
a(lp1017
F0.625
aaI32
aaa(lp1018
S'scaffold3082_cov287'
p1019
aS'scaffold2983_cov165'
p1020
a(lp1021
I1
a(lp1022
F0.561404
aaI57
aa(lp1023
I1
a(lp1024
F0.444444
aaI27
aaa(lp1025
S'scaffold47198_cov463'
p1026
aS'scaffold34572_cov182'
p1027
a(lp1028
I1
a(lp1029
F0.551724
aaI58
aa(lp1030
I1
a(lp1031
F0.32
aaI25
aa(lp1032
I1
a(lp1033
F0.285714
aaI21
aaa(lp1034
S'scaffold2985_cov221'
p1035
aS'scaffold103_cov152'
p1036
a(lp1037
I1
a(lp1038
F0.0
aaI29
aaa(lp1039
S'scaffold12793_cov183'
p1040
aS'scaffold12226_cov185'
p1041
aa(lp1042
S'scaffold1234_cov222'
p1043
aS'scaffold34763_cov140'
p1044
a(lp1045
I1
a(lp1046
F0.333333
aaI9
aaa(lp1047
S'scaffold3901_cov329'
p1048
aS'scaffold14736_cov203'
p1049
aa(lp1050
S'scaffold34579_cov226'
p1051
aS'scaffold34935_cov228'
p1052
a(lp1053
I1
a(lp1054
F0.293103
aaI58
aaa(lp1055
S'scaffold21112_cov305'
p1056
aS'scaffold22738_cov154'
p1057
aa(lp1058
S'scaffold34946_cov233'
p1059
aS'scaffold2695_cov200'
p1060
a(lp1061
I1
a(lp1062
F0.387755
aaI49
aa(lp1063
I1
a(lp1064
F0.411765
aaI51
aa(lp1065
I1
a(lp1066
F0.294118
aaI34
aa(lp1067
I1
a(lp1068
F0.410256
aaI39
aa(lp1069
I1
a(lp1070
F0.255814
aaI43
aa(lp1071
I1
a(lp1072
F0.416667
aaI48
aa(lp1073
I1
a(lp1074
F0.5
aaI40
aa(lp1075
I1
a(lp1076
F0.358491
aaI53
aa(lp1077
I1
a(lp1078
F0.55814
aaI43
aa(lp1079
I1
a(lp1080
F0.5
aaI34
aa(lp1081
I1
a(lp1082
F0.454545
aaI33
aa(lp1083
I1
a(lp1084
F0.441176
aaI34
aa(lp1085
I1
a(lp1086
F0.317073
aaI41
aa(lp1087
I1
a(lp1088
F0.314815
aaI54
aa(lp1089
I1
a(lp1090
F0.296296
aaI27
aa(lp1091
I1
a(lp1092
F0.294118
aaI17
aa(lp1093
I1
a(lp1094
F0.333333
aaI33
aaa(lp1095
S'scaffold4226_cov183'
p1096
aS'scaffold4227_cov149'
p1097
aa(lp1098
S'scaffold7776_cov261'
p1099
aS'scaffold417_cov219'
p1100
a(lp1101
I1
a(lp1102
F0.392857
aaI28
aa(lp1103
I1
a(lp1104
F0.228571
aaI35
aa(lp1105
I1
a(lp1106
F0.363636
aaI44
aa(lp1107
I1
a(lp1108
F0.490566
aaI53
aa(lp1109
I1
a(lp1110
F0.317073
aaI41
aa(lp1111
I1
a(lp1112
F0.333333
aaI39
aa(lp1113
I1
a(lp1114
F0.214286
aaI28
aa(lp1115
I1
a(lp1116
F0.21875
aaI32
aa(lp1117
I1
a(lp1118
F0.25
aaI28
aa(lp1119
I1
a(lp1120
F0.292683
aaI41
aa(lp1121
I1
a(lp1122
F0.243902
aaI41
aa(lp1123
I1
a(lp1124
F0.269231
aaI26
aa(lp1125
I1
a(lp1126
F0.0
aaI20
aa(lp1127
I1
a(lp1128
F0.297297
aaI37
aa(lp1129
I1
a(lp1130
F0.2
aaI20
aa(lp1131
I1
a(lp1132
F0.5
aaI40
aa(lp1133
I1
a(lp1134
F0.447368
aaI38
aa(lp1135
I1
a(lp1136
F0.4
aaI25
aa(lp1137
I1
a(lp1138
F0.36
aaI25
aaa(lp1139
S'scaffold35170_cov289'
p1140
aS'scaffold34652_cov210'
p1141
a(lp1142
I1
a(lp1143
F0.21875
aaI32
aa(lp1144
I1
a(lp1145
F0.225806
aaI31
aa(lp1146
I1
a(lp1147
F0.25
aaI24
aa(lp1148
I1
a(lp1149
F0.272727
aaI22
aa(lp1150
I1
a(lp1151
F0.291667
aaI24
aa(lp1152
I1
a(lp1153
F0.285714
aaI35
aa(lp1154
I1
a(lp1155
F0.340426
aaI47
aa(lp1156
I1
a(lp1157
F0.363636
aaI44
aa(lp1158
I1
a(lp1159
F0.365854
aaI41
aa(lp1160
I1
a(lp1161
F0.341463
aaI41
aa(lp1162
I1
a(lp1163
F0.285714
aaI35
aa(lp1164
I1
a(lp1165
F0.363636
aaI22
aa(lp1166
I1
a(lp1167
F0.475
aaI40
aa(lp1168
I1
a(lp1169
F0.4
aaI55
aa(lp1170
I1
a(lp1171
F0.227273
aaI22
aa(lp1172
I1
a(lp1173
F0.391304
aaI23
aa(lp1174
I1
a(lp1175
F0.2
aaI25
aa(lp1176
I1
a(lp1177
F0.318182
aaI44
aa(lp1178
I1
a(lp1179
F0.372549
aaI51
aa(lp1180
I1
a(lp1181
F0.212121
aaI33
aa(lp1182
I1
a(lp1183
F0.236842
aaI38
aa(lp1184
I1
a(lp1185
F0.235294
aaI34
aa(lp1186
I1
a(lp1187
F0.236842
aaI38
aa(lp1188
I1
a(lp1189
F0.333333
aaI42
aa(lp1190
I1
a(lp1191
F0.3
aaI40
aa(lp1192
I1
a(lp1193
F0.288889
aaI45
aa(lp1194
I1
a(lp1195
F0.27451
aaI51
aa(lp1196
I1
a(lp1197
F0.27027
aaI37
aa(lp1198
I1
a(lp1199
F0.242424
aaI33
aa(lp1200
I1
a(lp1201
F0.292683
aaI41
aa(lp1202
I1
a(lp1203
F0.27027
aaI37
aa(lp1204
I1
a(lp1205
F0.372093
aaI43
aa(lp1206
I1
a(lp1207
F0.411765
aaI34
aa(lp1208
I1
a(lp1209
F0.342857
aaI35
aa(lp1210
I1
a(lp1211
F0.206897
aaI29
aa(lp1212
I1
a(lp1213
F0.470588
aaI34
aa(lp1214
I1
a(lp1215
F0.358974
aaI39
aa(lp1216
I1
a(lp1217
F0.325
aaI40
aa(lp1218
I1
a(lp1219
F0.358974
aaI39
aa(lp1220
I1
a(lp1221
F0.365854
aaI41
aa(lp1222
I1
a(lp1223
F0.264706
aaI34
aa(lp1224
I1
a(lp1225
F0.27027
aaI37
aa(lp1226
I1
a(lp1227
F0.285714
aaI35
aa(lp1228
I1
a(lp1229
F0.307692
aaI26
aa(lp1230
I1
a(lp1231
F0.310345
aaI29
aa(lp1232
I1
a(lp1233
F0.2
aaI20
aa(lp1234
I1
a(lp1235
F0.391304
aaI46
aa(lp1236
I1
a(lp1237
F0.323529
aaI34
aa(lp1238
I1
a(lp1239
F0.4
aaI30
aa(lp1240
I1
a(lp1241
F0.352941
aaI34
aa(lp1242
I1
a(lp1243
F0.446809
aaI47
aa(lp1244
I1
a(lp1245
F0.48
aaI50
aa(lp1246
I1
a(lp1247
F0.302326
aaI43
aa(lp1248
I1
a(lp1249
F0.26087
aaI46
aa(lp1250
I1
a(lp1251
F0.2
aaI25
aa(lp1252
I1
a(lp1253
F0.26087
aaI23
aa(lp1254
I1
a(lp1255
F0.361111
aaI36
aa(lp1256
I1
a(lp1257
F0.447368
aaI38
aa(lp1258
I1
a(lp1259
F0.368421
aaI38
aa(lp1260
I1
a(lp1261
F0.363636
aaI44
aa(lp1262
I1
a(lp1263
F0.21875
aaI32
aa(lp1264
I1
a(lp1265
F0.451613
aaI31
aa(lp1266
I1
a(lp1267
F0.333333
aaI36
aa(lp1268
I1
a(lp1269
F0.542373
aaI59
aa(lp1270
I1
a(lp1271
F0.264706
aaI34
aa(lp1272
I1
a(lp1273
F0.214286
aaI28
aa(lp1274
I1
a(lp1275
F0.315789
aaI19
aa(lp1276
I1
a(lp1277
F0.25
aaI20
aa(lp1278
I1
a(lp1279
F0.409091
aaI44
aa(lp1280
I1
a(lp1281
F0.508475
aaI59
aa(lp1282
I1
a(lp1283
F0.275862
aaI29
aaa(lp1284
S'scaffold65_cov217'
p1285
aS'scaffold15270_cov133'
p1286
aa(lp1287
S'scaffold35361_cov259'
p1288
aS'scaffold2334_cov190'
p1289
aa(lp1290
S'scaffold34904_cov288'
p1291
aS'scaffold5809_cov177'
p1292
aa(lp1293
S'scaffold5287_cov211'
p1294
aS'scaffold6822_cov208'
p1295
a(lp1296
I1
a(lp1297
F0.512821
aaI39
aaa(lp1298
S'scaffold21569_cov380'
p1299
aS'scaffold20237_cov146'
p1300
aa(lp1301
S'scaffold6948_cov274'
p1302
aS'scaffold6699_cov179'
p1303
aa(lp1304
S'scaffold5796_cov292'
p1305
aS'scaffold2082_cov195'
p1306
a(lp1307
I1
a(lp1308
F0.25
aaI32
aa(lp1309
I1
a(lp1310
F0.225806
aaI31
aa(lp1311
I1
a(lp1312
F0.212121
aaI33
aa(lp1313
I1
a(lp1314
F0.205882
aaI34
aa(lp1315
I1
a(lp1316
F0.28125
aaI32
aa(lp1317
I1
a(lp1318
F0.297297
aaI37
aa(lp1319
I1
a(lp1320
F0.333333
aaI27
aa(lp1321
I1
a(lp1322
F0.263158
aaI38
aa(lp1323
I1
a(lp1324
F0.371429
aaI35
aa(lp1325
I1
a(lp1326
F0.40625
aaI32
aa(lp1327
I1
a(lp1328
F0.272727
aaI33
aa(lp1329
I1
a(lp1330
F0.25
aaI36
aa(lp1331
I1
a(lp1332
F0.285714
aaI28
aa(lp1333
I1
a(lp1334
F0.44898
aaI49
aa(lp1335
I1
a(lp1336
F0.318182
aaI44
aa(lp1337
I1
a(lp1338
F0.340426
aaI47
aa(lp1339
I1
a(lp1340
F0.444444
aaI36
aa(lp1341
I1
a(lp1342
F0.409091
aaI44
aa(lp1343
I1
a(lp1344
F0.342105
aaI38
aa(lp1345
I1
a(lp1346
F0.351351
aaI37
aaa(lp1347
S'scaffold5059_cov217'
p1348
aS'scaffold7462_cov213'
p1349
aa(lp1350
S'scaffold6808_cov251'
p1351
aS'scaffold5535_cov217'
p1352
aa(lp1353
S'scaffold13539_cov223'
p1354
aS'scaffold2054_cov174'
p1355
a(lp1356
I1
a(lp1357
F0.2
aaI35
aa(lp1358
I1
a(lp1359
F0.25
aaI32
aaa(lp1360
S'scaffold14835_cov172'
p1361
aS'scaffold3075_cov156'
p1362
aa(lp1363
S'scaffold2058_cov324'
p1364
aS'scaffold6925_cov364'
p1365
aa(lp1366
S'scaffold34923_cov148'
p1367
aS'scaffold1507_cov164'
p1368
aa(lp1369
S'scaffold2297_cov206'
p1370
aS'scaffold4936_cov217'
p1371
a(lp1372
I1
a(lp1373
F0.422222
aaI45
aa(lp1374
I1
a(lp1375
F0.282051
aaI39
aa(lp1376
I1
a(lp1377
F0.25
aaI40
aa(lp1378
I1
a(lp1379
F0.4375
aaI32
aa(lp1380
I1
a(lp1381
F0.275862
aaI29
aa(lp1382
I1
a(lp1383
F0.4
aaI35
aa(lp1384
I1
a(lp1385
F0.323529
aaI34
aaa(lp1386
S'scaffold25113_cov199'
p1387
aS'scaffold6911_cov202'
p1388
aa(lp1389
S'scaffold14550_cov277'
p1390
aS'scaffold1760_cov210'
p1391
aa(lp1392
S'scaffold40132_cov484'
p1393
aS'scaffold7849_cov260'
p1394
a(lp1395
I1
a(lp1396
F0.689655
aaI29
aaa(lp1397
S'scaffold3845_cov316'
p1398
aS'scaffold3342_cov163'
p1399
aa(lp1400
S'scaffold3674_cov258'
p1401
aS'scaffold12700_cov150'
p1402
aa(lp1403
S'scaffold34052_cov286'
p1404
aS'scaffold2311_cov232'
p1405
a(lp1406
I1
a(lp1407
F0.461538
aaI52
aa(lp1408
I1
a(lp1409
F0.2
aaI50
aa(lp1410
I1
a(lp1411
F0.214286
aaI28
aa(lp1412
I1
a(lp1413
F0.421053
aaI38
aa(lp1414
I1
a(lp1415
F0.3
aaI30
aaa(lp1416
S'scaffold9452_cov208'
p1417
aS'scaffold4391_cov207'
p1418
a(lp1419
I1
a(lp1420
F0.311111
aaI45
aa(lp1421
I1
a(lp1422
F0.3
aaI40
aa(lp1423
I1
a(lp1424
F0.21875
aaI32
aa(lp1425
I1
a(lp1426
F0.36
aaI50
aa(lp1427
I1
a(lp1428
F0.25
aaI32
aa(lp1429
I1
a(lp1430
F0.519231
aaI52
aaa(lp1431
S'scaffold13470_cov212'
p1432
aS'scaffold10396_cov149'
p1433
aa(lp1434
S'scaffold7198_cov282'
p1435
aS'scaffold3310_cov167'
p1436
a(lp1437
I1
a(lp1438
F0.0
aaI33
aa(lp1439
I1
a(lp1440
F0.433333
aaI30
aa(lp1441
I1
a(lp1442
F0.259259
aaI27
aa(lp1443
I1
a(lp1444
F0.28
aaI25
aa(lp1445
I1
a(lp1446
F0.28
aaI25
aa(lp1447
I1
a(lp1448
F0.28
aaI25
aa(lp1449
I1
a(lp1450
F0.225806
aaI31
aa(lp1451
I1
a(lp1452
F0.413043
aaI46
aa(lp1453
I1
a(lp1454
F0.395349
aaI43
aa(lp1455
I1
a(lp1456
F0.382353
aaI34
aa(lp1457
I1
a(lp1458
F0.3125
aaI16
aa(lp1459
I1
a(lp1460
F0.294118
aaI17
aaa(lp1461
S'scaffold29092_cov411'
p1462
aS'scaffold3158_cov165'
p1463
aa(lp1464
S'scaffold2260_cov157'
p1465
aS'scaffold23025_cov260'
p1466
aa(lp1467
S'scaffold4981_cov255'
p1468
aS'scaffold5141_cov149'
p1469
aa(lp1470
S'scaffold35134_cov241'
p1471
aS'scaffold1798_cov239'
p1472
a(lp1473
I1
a(lp1474
F0.2
aaI35
aa(lp1475
I1
a(lp1476
F0.2
aaI35
aa(lp1477
I1
a(lp1478
F0.25641
aaI39
aa(lp1479
I1
a(lp1480
F0.363636
aaI22
aa(lp1481
I1
a(lp1482
F0.5
aaI44
aaa(lp1483
S'scaffold9518_cov247'
p1484
aS'scaffold1141_cov217'
p1485
a(lp1486
I1
a(lp1487
F0.419355
aaI31
aa(lp1488
I1
a(lp1489
F0.5
aaI34
aa(lp1490
I1
a(lp1491
F0.344828
aaI29
aa(lp1492
I1
a(lp1493
F0.423729
aaI59
aa(lp1494
I1
a(lp1495
F0.243243
aaI37
aaa(lp1496
S'scaffold50233_cov936'
p1497
aS'scaffold4673_cov163'
p1498
aa(lp1499
S'scaffold15595_cov207'
p1500
aS'scaffold11990_cov204'
p1501
a(lp1502
I1
a(lp1503
F0.325
aaI40
aa(lp1504
I1
a(lp1505
F0.410256
aaI39
aa(lp1506
I1
a(lp1507
F0.275862
aaI29
aa(lp1508
I1
a(lp1509
F0.354839
aaI31
aa(lp1510
I1
a(lp1511
F0.375
aaI32
aaa(lp1512
S'scaffold52004_cov305'
p1513
aS'scaffold11324_cov225'
p1514
aa(lp1515
S'scaffold11923_cov205'
p1516
aS'scaffold34893_cov219'
p1517
aa(lp1518
S'scaffold1512_cov178'
p1519
aS'scaffold7068_cov172'
p1520
aa(lp1521
S'scaffold9550_cov156'
p1522
aS'scaffold3486_cov238'
p1523
aa(lp1524
S'scaffold4488_cov207'
p1525
aS'scaffold292_cov203'
p1526
aa(lp1527
S'scaffold2251_cov300'
p1528
aS'scaffold5494_cov202'
p1529
a(lp1530
I1
a(lp1531
F0.423077
aaI52
aa(lp1532
I1
a(lp1533
F0.375
aaI40
aa(lp1534
I1
a(lp1535
F0.428571
aaI42
aa(lp1536
I1
a(lp1537
F0.384615
aaI26
aa(lp1538
I1
a(lp1539
F0.3
aaI20
aa(lp1540
I1
a(lp1541
F0.391304
aaI23
aa(lp1542
I1
a(lp1543
F0.333333
aaI24
aa(lp1544
I1
a(lp1545
F0.296296
aaI27
aa(lp1546
I1
a(lp1547
F0.290323
aaI31
aa(lp1548
I1
a(lp1549
F0.475
aaI40
aa(lp1550
I1
a(lp1551
F0.416667
aaI48
aaa(lp1552
S'scaffold10174_cov324'
p1553
aS'scaffold10173_cov150'
p1554
aa(lp1555
S'scaffold13712_cov247'
p1556
aS'scaffold3898_cov165'
p1557
aa(lp1558
S'scaffold3444_cov244'
p1559
aS'scaffold2301_cov209'
p1560
a(lp1561
I1
a(lp1562
F0.210526
aaI19
aa(lp1563
I1
a(lp1564
F0.2
aaI20
aa(lp1565
I1
a(lp1566
F0.242424
aaI33
aa(lp1567
I1
a(lp1568
F0.346154
aaI26
aa(lp1569
I1
a(lp1570
F0.475
aaI40
aa(lp1571
I1
a(lp1572
F0.333333
aaI39
aaa(lp1573
S'scaffold1073_cov267'
p1574
aS'scaffold11614_cov255'
p1575
a(lp1576
I1
a(lp1577
F0.296296
aaI27
aa(lp1578
I1
a(lp1579
F0.214286
aaI28
aa(lp1580
I1
a(lp1581
F0.648649
aaI37
aa(lp1582
I1
a(lp1583
F0.578947
aaI19
aa(lp1584
I1
a(lp1585
F0.375
aaI32
aa(lp1586
I1
a(lp1587
F0.490909
aaI55
aaa(lp1588
S'scaffold6762_cov212'
p1589
aS'scaffold39652_cov294'
p1590
aa(lp1591
S'scaffold205_cov231'
p1592
aS'scaffold1655_cov200'
p1593
a(lp1594
I1
a(lp1595
F0.25
aaI28
aa(lp1596
I1
a(lp1597
F0.21875
aaI32
aaa(lp1598
S'scaffold743_cov228'
p1599
aS'scaffold1746_cov212'
p1600
a(lp1601
I1
a(lp1602
F0.264706
aaI34
aa(lp1603
I1
a(lp1604
F0.352941
aaI34
aa(lp1605
I1
a(lp1606
F0.342857
aaI35
aa(lp1607
I1
a(lp1608
F0.4
aaI30
aa(lp1609
I1
a(lp1610
F0.393939
aaI33
aa(lp1611
I1
a(lp1612
F0.234043
aaI47
aa(lp1613
I1
a(lp1614
F0.317073
aaI41
aa(lp1615
I1
a(lp1616
F0.342857
aaI35
aa(lp1617
I1
a(lp1618
F0.321429
aaI28
aa(lp1619
I1
a(lp1620
F0.266667
aaI30
aa(lp1621
I1
a(lp1622
F0.25
aaI32
aa(lp1623
I1
a(lp1624
F0.25
aaI32
aa(lp1625
I1
a(lp1626
F0.228571
aaI35
aa(lp1627
I1
a(lp1628
F0.208333
aaI24
aa(lp1629
I1
a(lp1630
F0.210526
aaI19
aa(lp1631
I1
a(lp1632
F0.30303
aaI33
aa(lp1633
I1
a(lp1634
F0.269231
aaI26
aa(lp1635
I1
a(lp1636
F0.259259
aaI27
aa(lp1637
I1
a(lp1638
F0.25
aaI28
aa(lp1639
I1
a(lp1640
F0.333333
aaI36
aa(lp1641
I1
a(lp1642
F0.375
aaI40
aa(lp1643
I1
a(lp1644
F0.35
aaI40
aa(lp1645
I1
a(lp1646
F0.342105
aaI38
aa(lp1647
I1
a(lp1648
F0.315789
aaI38
aa(lp1649
I1
a(lp1650
F0.285714
aaI35
aa(lp1651
I1
a(lp1652
F0.205128
aaI39
aa(lp1653
I1
a(lp1654
F0.235294
aaI34
aa(lp1655
I1
a(lp1656
F0.25641
aaI39
aa(lp1657
I1
a(lp1658
F0.25641
aaI39
aa(lp1659
I1
a(lp1660
F0.305085
aaI59
aa(lp1661
I1
a(lp1662
F0.367647
aaI68
aa(lp1663
I1
a(lp1664
F0.616352
aaI159
aa(lp1665
I1
a(lp1666
F0.242857
aaI70
aa(lp1667
I1
a(lp1668
F0.292308
aaI65
aa(lp1669
I1
a(lp1670
F0.292308
aaI65
aa(lp1671
I1
a(lp1672
F0.2
aaI65
aaa(lp1673
S'scaffold12547_cov300'
p1674
aS'scaffold2376_cov165'
p1675
a(lp1676
I1
a(lp1677
F0.333333
aaI36
aa(lp1678
I1
a(lp1679
F0.314286
aaI35
aa(lp1680
I1
a(lp1681
F0.314286
aaI35
aa(lp1682
I1
a(lp1683
F0.28125
aaI32
aa(lp1684
I1
a(lp1685
F0.444444
aaI27
aa(lp1686
I1
a(lp1687
F0.297297
aaI37
aa(lp1688
I1
a(lp1689
F0.264706
aaI34
aa(lp1690
I1
a(lp1691
F0.258065
aaI31
aa(lp1692
I1
a(lp1693
F0.258065
aaI31
aa(lp1694
I1
a(lp1695
F0.340909
aaI44
aa(lp1696
I1
a(lp1697
F0.27907
aaI43
aa(lp1698
I1
a(lp1699
F0.292683
aaI41
aa(lp1700
I1
a(lp1701
F0.322581
aaI31
aa(lp1702
I1
a(lp1703
F0.375
aaI32
aa(lp1704
I1
a(lp1705
F0.344828
aaI29
aa(lp1706
I1
a(lp1707
F0.2
aaI45
aa(lp1708
I1
a(lp1709
F0.2
aaI35
aa(lp1710
I1
a(lp1711
F0.439024
aaI41
aaa(lp1712
S'scaffold34780_cov223'
p1713
aS'scaffold2666_cov188'
p1714
aa(lp1715
S'scaffold2395_cov243'
p1716
aS'scaffold3285_cov233'
p1717
a(lp1718
I1
a(lp1719
F0.209302
aaI43
aa(lp1720
I1
a(lp1721
F0.285714
aaI42
aa(lp1722
I1
a(lp1723
F0.435897
aaI39
aa(lp1724
I1
a(lp1725
F0.366667
aaI30
aa(lp1726
I1
a(lp1727
F0.354839
aaI31
aa(lp1728
I1
a(lp1729
F0.416667
aaI36
aa(lp1730
I1
a(lp1731
F0.272727
aaI33
aa(lp1732
I1
a(lp1733
F0.206897
aaI29
aa(lp1734
I1
a(lp1735
F0.560976
aaI41
aa(lp1736
I1
a(lp1737
F0.208333
aaI24
aa(lp1738
I1
a(lp1739
F0.25
aaI28
aa(lp1740
I1
a(lp1741
F0.375
aaI16
aaa(lp1742
S'scaffold19797_cov164'
p1743
aS'scaffold6112_cov148'
p1744
aa(lp1745
S'scaffold534_cov297'
p1746
aS'scaffold532_cov244'
p1747
aa(lp1748
S'scaffold7912_cov254'
p1749
aS'scaffold22036_cov148'
p1750
aa(lp1751
S'scaffold5249_cov206'
p1752
aS'scaffold4631_cov169'
p1753
a(lp1754
I1
a(lp1755
F0.25
aaI32
aa(lp1756
I1
a(lp1757
F0.36
aaI25
aa(lp1758
I1
a(lp1759
F0.391304
aaI23
aa(lp1760
I1
a(lp1761
F0.380952
aaI21
aa(lp1762
I1
a(lp1763
F0.463415
aaI41
aa(lp1764
I1
a(lp1765
F0.392157
aaI51
aa(lp1766
I1
a(lp1767
F0.384615
aaI52
aa(lp1768
I1
a(lp1769
F0.272727
aaI33
aa(lp1770
I1
a(lp1771
F0.21875
aaI32
aa(lp1772
I1
a(lp1773
F0.618182
aaI55
aa(lp1774
I1
a(lp1775
F0.5
aaI30
aa(lp1776
I1
a(lp1777
F0.483871
aaI31
aaa(lp1778
S'scaffold30714_cov262'
p1779
aS'scaffold40802_cov284'
p1780
aa(lp1781
S'scaffold3410_cov258'
p1782
aS'scaffold11329_cov238'
p1783
a(lp1784
I1
a(lp1785
F0.447368
aaI38
aa(lp1786
I1
a(lp1787
F0.4
aaI30
aa(lp1788
I1
a(lp1789
F0.448276
aaI29
aa(lp1790
I1
a(lp1791
F0.419355
aaI31
aa(lp1792
I1
a(lp1793
F0.243243
aaI37
aa(lp1794
I1
a(lp1795
F0.589286
aaI56
aa(lp1796
I1
a(lp1797
F0.354839
aaI31
aa(lp1798
I1
a(lp1799
F0.468085
aaI47
aa(lp1800
I1
a(lp1801
F0.487179
aaI39
aa(lp1802
I1
a(lp1803
F0.666667
aaI54
aa(lp1804
I1
a(lp1805
F0.357143
aaI42
aa(lp1806
I1
a(lp1807
F0.357143
aaI42
aa(lp1808
I1
a(lp1809
F0.428571
aaI42
aa(lp1810
I1
a(lp1811
F0.380952
aaI42
aa(lp1812
I1
a(lp1813
F0.216216
aaI37
aa(lp1814
I1
a(lp1815
F0.216216
aaI37
aa(lp1816
I1
a(lp1817
F0.38
aaI50
aaa(lp1818
S'scaffold6504_cov303'
p1819
aS'scaffold32879_cov158'
p1820
aa(lp1821
S'scaffold1636_cov295'
p1822
aS'scaffold1637_cov206'
p1823
a(lp1824
I1
a(lp1825
F0.515152
aaI33
aa(lp1826
I1
a(lp1827
F0.542857
aaI35
aa(lp1828
I1
a(lp1829
F0.567568
aaI37
aa(lp1830
I1
a(lp1831
F0.25
aaI28
aa(lp1832
I1
a(lp1833
F0.434783
aaI46
aa(lp1834
I1
a(lp1835
F0.269231
aaI26
aa(lp1836
I1
a(lp1837
F0.275862
aaI29
aa(lp1838
I1
a(lp1839
F0.333333
aaI27
aa(lp1840
I1
a(lp1841
F0.333333
aaI27
aaa(lp1842
S'scaffold17188_cov256'
p1843
aS'scaffold6575_cov192'
p1844
a(lp1845
I1
a(lp1846
F0.428571
aaI21
aa(lp1847
I1
a(lp1848
F0.272727
aaI22
aa(lp1849
I1
a(lp1850
F0.272727
aaI22
aa(lp1851
I1
a(lp1852
F0.275
aaI40
aa(lp1853
I1
a(lp1854
F0.35
aaI40
aa(lp1855
I1
a(lp1856
F0.378378
aaI37
aa(lp1857
I1
a(lp1858
F0.285714
aaI28
aa(lp1859
I1
a(lp1860
F0.366667
aaI30
aa(lp1861
I1
a(lp1862
F0.296296
aaI27
aa(lp1863
I1
a(lp1864
F0.344828
aaI29
aa(lp1865
I1
a(lp1866
F0.344828
aaI29
aa(lp1867
I1
a(lp1868
F0.346154
aaI26
aa(lp1869
I1
a(lp1870
F0.227273
aaI22
aa(lp1871
I1
a(lp1872
F0.227273
aaI22
aa(lp1873
I1
a(lp1874
F0.206897
aaI29
aa(lp1875
I1
a(lp1876
F0.206897
aaI29
aa(lp1877
I1
a(lp1878
F0.233333
aaI30
aa(lp1879
I1
a(lp1880
F0.212121
aaI33
aaa(lp1881
S'scaffold13565_cov263'
p1882
aS'scaffold25159_cov143'
p1883
aa(lp1884
S'scaffold1134_cov233'
p1885
aS'scaffold9743_cov237'
p1886
aa(lp1887
S'scaffold22748_cov150'
p1888
aS'scaffold2939_cov159'
p1889
aa(lp1890
S'scaffold16898_cov268'
p1891
aS'scaffold42181_cov294'
p1892
aa(lp1893
S'scaffold3033_cov182'
p1894
aS'scaffold2254_cov207'
p1895
aa(lp1896
S'scaffold19777_cov232'
p1897
aS'scaffold4838_cov202'
p1898
aa(lp1899
S'scaffold7661_cov288'
p1900
aS'scaffold7242_cov266'
p1901
a(lp1902
I1
a(lp1903
F0.409091
aaI44
aa(lp1904
I1
a(lp1905
F0.386364
aaI88
aaa(lp1906
S'scaffold11307_cov229'
p1907
aS'scaffold6551_cov161'
p1908
a(lp1909
I1
a(lp1910
F0.25
aaI28
aaa(lp1911
S'scaffold34240_cov291'
p1912
aS'scaffold6227_cov210'
p1913
a(lp1914
I1
a(lp1915
F0.469388
aaI49
aa(lp1916
I1
a(lp1917
F0.390244
aaI41
aaa(lp1918
S'scaffold1520_cov232'
p1919
aS'scaffold5829_cov226'
p1920
a(lp1921
I1
a(lp1922
F0.325
aaI40
aa(lp1923
I1
a(lp1924
F0.309524
aaI42
aa(lp1925
I1
a(lp1926
F0.317073
aaI41
aaa(lp1927
S'scaffold7998_cov239'
p1928
aS'scaffold34786_cov228'
p1929
a(lp1930
I1
a(lp1931
F0.456522
aaI46
aa(lp1932
I1
a(lp1933
F0.5625
aaI48
aa(lp1934
I1
a(lp1935
F0.277778
aaI36
aa(lp1936
I1
a(lp1937
F0.257143
aaI35
aa(lp1938
I1
a(lp1939
F0.354839
aaI31
aa(lp1940
I1
a(lp1941
F0.366667
aaI30
aa(lp1942
I1
a(lp1943
F0.321429
aaI28
aa(lp1944
I1
a(lp1945
F0.333333
aaI27
aa(lp1946
I1
a(lp1947
F0.25
aaI28
aa(lp1948
I1
a(lp1949
F0.206897
aaI29
aa(lp1950
I1
a(lp1951
F0.222222
aaI18
aa(lp1952
I1
a(lp1953
F0.222222
aaI36
aa(lp1954
I1
a(lp1955
F0.45
aaI40
aa(lp1956
I1
a(lp1957
F0.272727
aaI22
aa(lp1958
I1
a(lp1959
F0.2
aaI25
aa(lp1960
I1
a(lp1961
F0.357143
aaI28
aaa(lp1962
S'scaffold2764_cov248'
p1963
aS'scaffold35902_cov179'
p1964
a(lp1965
I1
a(lp1966
F0.393939
aaI33
aa(lp1967
I1
a(lp1968
F0.217391
aaI23
aa(lp1969
I1
a(lp1970
F0.2
aaI30
aa(lp1971
I1
a(lp1972
F0.333333
aaI30
aa(lp1973
I1
a(lp1974
F0.37931
aaI29
aaa(lp1975
S'scaffold2730_cov266'
p1976
aS'scaffold3415_cov306'
p1977
a(lp1978
I1
a(lp1979
F0.305556
aaI36
aa(lp1980
I1
a(lp1981
F0.268293
aaI41
aa(lp1982
I1
a(lp1983
F0.228571
aaI35
aa(lp1984
I1
a(lp1985
F0.342105
aaI38
aa(lp1986
I1
a(lp1987
F0.340909
aaI44
aa(lp1988
I1
a(lp1989
F0.217391
aaI46
aa(lp1990
I1
a(lp1991
F0.444444
aaI36
aa(lp1992
I1
a(lp1993
F0.5
aaI34
aa(lp1994
I1
a(lp1995
F0.27027
aaI37
aa(lp1996
I1
a(lp1997
F0.355556
aaI45
aa(lp1998
I1
a(lp1999
F0.377778
aaI45
aa(lp2000
I1
a(lp2001
F0.323529
aaI34
aa(lp2002
I1
a(lp2003
F0.388889
aaI36
aa(lp2004
I1
a(lp2005
F0.444444
aaI45
aa(lp2006
I1
a(lp2007
F0.416667
aaI36
aa(lp2008
I1
a(lp2009
F0.269231
aaI26
aa(lp2010
I1
a(lp2011
F0.2
aaI30
aa(lp2012
I1
a(lp2013
F0.321429
aaI56
aaa(lp2014
S'scaffold5533_cov227'
p2015
aS'scaffold10988_cov149'
p2016
aa(lp2017
S'scaffold34993_cov283'
p2018
aS'scaffold2688_cov189'
p2019
a(lp2020
I1
a(lp2021
F0.487179
aaI39
aa(lp2022
I1
a(lp2023
F0.484848
aaI33
aa(lp2024
I1
a(lp2025
F0.435897
aaI39
aa(lp2026
I1
a(lp2027
F0.266667
aaI30
aa(lp2028
I1
a(lp2029
F0.340909
aaI44
aaa(lp2030
S'scaffold2015_cov427'
p2031
aS'scaffold843_cov157'
p2032
aa(lp2033
S'scaffold16937_cov241'
p2034
aS'scaffold1798_cov239'
p2035
aa(lp2036
S'scaffold1047_cov391'
p2037
aS'scaffold1999_cov166'
p2038
a(lp2039
I1
a(lp2040
F0.302326
aaI43
aa(lp2041
I1
a(lp2042
F0.241379
aaI29
aa(lp2043
I1
a(lp2044
F0.222222
aaI27
aa(lp2045
I1
a(lp2046
F0.277778
aaI36
aa(lp2047
I1
a(lp2048
F0.347826
aaI46
aa(lp2049
I1
a(lp2050
F0.473684
aaI38
aa(lp2051
I1
a(lp2052
F0.463415
aaI41
aa(lp2053
I1
a(lp2054
F0.323529
aaI34
aa(lp2055
I1
a(lp2056
F0.4
aaI35
aa(lp2057
I1
a(lp2058
F0.305556
aaI36
aa(lp2059
I1
a(lp2060
F0.314286
aaI35
aa(lp2061
I1
a(lp2062
F0.323529
aaI34
aa(lp2063
I1
a(lp2064
F0.411765
aaI34
aaa(lp2065
S'scaffold2018_cov229'
p2066
aS'scaffold3622_cov247'
p2067
a(lp2068
I1
a(lp2069
F0.206897
aaI29
aa(lp2070
I1
a(lp2071
F0.5
aaI46
aa(lp2072
I1
a(lp2073
F0.382979
aaI47
aa(lp2074
I1
a(lp2075
F0.391304
aaI46
aa(lp2076
I1
a(lp2077
F0.365854
aaI41
aaa(lp2078
S'scaffold48640_cov294'
p2079
aS'scaffold10308_cov219'
p2080
aa(lp2081
S'scaffold3282_cov224'
p2082
aS'scaffold35925_cov172'
p2083
a(lp2084
I1
a(lp2085
F0.310345
aaI29
aa(lp2086
I1
a(lp2087
F0.333333
aaI36
aa(lp2088
I1
a(lp2089
F0.214286
aaI28
aa(lp2090
I1
a(lp2091
F0.227273
aaI22
aa(lp2092
I1
a(lp2093
F0.451613
aaI31
aa(lp2094
I1
a(lp2095
F0.325
aaI40
aa(lp2096
I1
a(lp2097
F0.264706
aaI34
aa(lp2098
I1
a(lp2099
F0.25
aaI36
aa(lp2100
I1
a(lp2101
F0.3
aaI20
aa(lp2102
I1
a(lp2103
F0.263158
aaI19
aa(lp2104
I1
a(lp2105
F0.233333
aaI60
aa(lp2106
I1
a(lp2107
F0.45
aaI40
aaa(lp2108
S'scaffold42388_cov305'
p2109
aS'scaffold5495_cov293'
p2110
aa(lp2111
S'scaffold2836_cov225'
p2112
aS'scaffold4074_cov180'
p2113
a(lp2114
I1
a(lp2115
F0.423077
aaI26
aa(lp2116
I1
a(lp2117
F0.384615
aaI26
aa(lp2118
I1
a(lp2119
F0.4
aaI25
aa(lp2120
I1
a(lp2121
F0.375
aaI24
aa(lp2122
I1
a(lp2123
F0.304348
aaI23
aa(lp2124
I1
a(lp2125
F0.269231
aaI26
aa(lp2126
I1
a(lp2127
F0.230769
aaI26
aa(lp2128
I1
a(lp2129
F0.25
aaI24
aa(lp2130
I1
a(lp2131
F0.291667
aaI24
aa(lp2132
I1
a(lp2133
F0.32
aaI25
aa(lp2134
I1
a(lp2135
F0.25
aaI28
aa(lp2136
I1
a(lp2137
F0.368421
aaI19
aa(lp2138
I1
a(lp2139
F0.35
aaI20
aa(lp2140
I1
a(lp2141
F0.304348
aaI23
aa(lp2142
I1
a(lp2143
F0.318182
aaI22
aa(lp2144
I1
a(lp2145
F0.304348
aaI23
aa(lp2146
I1
a(lp2147
F0.210526
aaI19
aaa(lp2148
S'scaffold8201_cov210'
p2149
aS'scaffold487_cov180'
p2150
a(lp2151
I1
a(lp2152
F0.272727
aaI22
aa(lp2153
I1
a(lp2154
F0.214286
aaI28
aaa(lp2155
S'scaffold8291_cov270'
p2156
aS'scaffold6880_cov163'
p2157
aa(lp2158
S'scaffold3436_cov196'
p2159
aS'scaffold1629_cov253'
p2160
a(lp2161
I1
a(lp2162
F0.235294
aaI34
aa(lp2163
I1
a(lp2164
F0.307692
aaI26
aa(lp2165
I1
a(lp2166
F0.333333
aaI24
aa(lp2167
I1
a(lp2168
F0.318182
aaI22
aaa(lp2169
S'scaffold5242_cov262'
p2170
aS'scaffold35822_cov215'
p2171
a(lp2172
I1
a(lp2173
F0.3125
aaI48
aa(lp2174
I1
a(lp2175
F0.4
aaI40
aa(lp2176
I1
a(lp2177
F0.324324
aaI37
aa(lp2178
I1
a(lp2179
F0.333333
aaI39
aa(lp2180
I1
a(lp2181
F0.27907
aaI43
aa(lp2182
I1
a(lp2183
F0.511111
aaI45
aa(lp2184
I1
a(lp2185
F0.216216
aaI37
aa(lp2186
I1
a(lp2187
F0.210526
aaI38
aa(lp2188
I1
a(lp2189
F0.212121
aaI33
aa(lp2190
I1
a(lp2191
F0.225806
aaI31
aaa(lp2192
S'scaffold34455_cov418'
p2193
aS'scaffold34968_cov196'
p2194
a(lp2195
I1
a(lp2196
F0.4
aaI45
aa(lp2197
I1
a(lp2198
F0.288462
aaI104
aaa(lp2199
S'scaffold7259_cov286'
p2200
aS'scaffold1969_cov172'
p2201
a(lp2202
I1
a(lp2203
F0.382353
aaI34
aa(lp2204
I1
a(lp2205
F0.394737
aaI38
aa(lp2206
I1
a(lp2207
F0.35
aaI40
aa(lp2208
I1
a(lp2209
F0.230769
aaI26
aaa(lp2210
S'scaffold585_cov234'
p2211
aS'scaffold44578_cov315'
p2212
aa(lp2213
S'scaffold16517_cov275'
p2214
aS'scaffold1106_cov224'
p2215
a(lp2216
I1
a(lp2217
F0.463415
aaI41
aa(lp2218
I1
a(lp2219
F0.439024
aaI41
aa(lp2220
I1
a(lp2221
F0.444444
aaI45
aa(lp2222
I1
a(lp2223
F0.230769
aaI39
aa(lp2224
I1
a(lp2225
F0.236842
aaI38
aa(lp2226
I1
a(lp2227
F0.263158
aaI38
aa(lp2228
I1
a(lp2229
F0.285714
aaI35
aa(lp2230
I1
a(lp2231
F0.230769
aaI26
aa(lp2232
I1
a(lp2233
F0.24
aaI25
aa(lp2234
I1
a(lp2235
F0.228571
aaI35
aa(lp2236
I1
a(lp2237
F0.242424
aaI33
aa(lp2238
I1
a(lp2239
F0.242424
aaI33
aa(lp2240
I1
a(lp2241
F0.52381
aaI42
aa(lp2242
I1
a(lp2243
F0.285714
aaI28
aa(lp2244
I1
a(lp2245
F0.266667
aaI30
aa(lp2246
I1
a(lp2247
F0.415094
aaI53
aa(lp2248
I1
a(lp2249
F0.3
aaI30
aa(lp2250
I1
a(lp2251
F0.471698
aaI53
aa(lp2252
I1
a(lp2253
F0.205882
aaI34
aaa(lp2254
S'scaffold6196_cov437'
p2255
aS'scaffold343_cov157'
p2256
a(lp2257
I1
a(lp2258
F0.62
aaI50
aa(lp2259
I1
a(lp2260
F0.227273
aaI22
aa(lp2261
I1
a(lp2262
F0.285714
aaI28
aa(lp2263
I1
a(lp2264
F0.266667
aaI30
aa(lp2265
I1
a(lp2266
F0.53125
aaI64
aa(lp2267
I1
a(lp2268
F0.428571
aaI21
aa(lp2269
I1
a(lp2270
F0.384615
aaI52
aa(lp2271
I1
a(lp2272
F0.352941
aaI34
aa(lp2273
I1
a(lp2274
F0.333333
aaI36
aa(lp2275
I1
a(lp2276
F0.297297
aaI37
aa(lp2277
I1
a(lp2278
F0.659091
aaI132
aa(lp2279
I1
a(lp2280
F0.235294
aaI17
aa(lp2281
I1
a(lp2282
F0.272727
aaI22
aaa(lp2283
S'scaffold1559_cov231'
p2284
aS'scaffold204_cov205'
p2285
a(lp2286
I1
a(lp2287
F0.6
aaI40
aa(lp2288
I1
a(lp2289
F0.592593
aaI54
aa(lp2290
I1
a(lp2291
F0.235294
aaI34
aaa(lp2292
S'scaffold7038_cov214'
p2293
aS'scaffold3562_cov182'
p2294
a(lp2295
I1
a(lp2296
F0.272727
aaI33
aaa(lp2297
S'scaffold6911_cov202'
p2298
aS'scaffold4867_cov158'
p2299
aa(lp2300
S'scaffold53889_cov315'
p2301
aS'scaffold4451_cov223'
p2302
aa(lp2303
S'scaffold36011_cov302'
p2304
aS'scaffold40654_cov315'
p2305
aa(lp2306
S'scaffold9574_cov228'
p2307
aS'scaffold2246_cov240'
p2308
a(lp2309
I1
a(lp2310
F0.28125
aaI64
aa(lp2311
I1
a(lp2312
F0.275
aaI40
aa(lp2313
I1
a(lp2314
F0.294118
aaI17
aa(lp2315
I1
a(lp2316
F0.378378
aaI37
aa(lp2317
I1
a(lp2318
F0.302326
aaI43
aa(lp2319
I1
a(lp2320
F0.276596
aaI47
aa(lp2321
I1
a(lp2322
F0.488889
aaI45
aa(lp2323
I1
a(lp2324
F0.5
aaI48
aa(lp2325
I1
a(lp2326
F0.222222
aaI54
aa(lp2327
I1
a(lp2328
F0.560976
aaI41
aa(lp2329
I1
a(lp2330
F0.326923
aaI52
aa(lp2331
I1
a(lp2332
F0.607843
aaI51
aa(lp2333
I1
a(lp2334
F0.240741
aaI54
aa(lp2335
I1
a(lp2336
F0.2
aaI35
aa(lp2337
I1
a(lp2338
F0.280702
aaI57
aa(lp2339
I1
a(lp2340
F0.320755
aaI53
aa(lp2341
I1
a(lp2342
F0.354839
aaI31
aa(lp2343
I1
a(lp2344
F0.392857
aaI28
aa(lp2345
I1
a(lp2346
F0.418605
aaI43
aa(lp2347
I1
a(lp2348
F0.52381
aaI63
aaa(lp2349
S'scaffold5205_cov172'
p2350
aS'scaffold2554_cov143'
p2351
aa(lp2352
S'scaffold3194_cov316'
p2353
aS'scaffold12171_cov160'
p2354
aa(lp2355
S'scaffold2328_cov197'
p2356
aS'scaffold8399_cov190'
p2357
aa(lp2358
S'scaffold5502_cov291'
p2359
aS'scaffold7790_cov228'
p2360
a(lp2361
I1
a(lp2362
F0.333333
aaI30
aa(lp2363
I1
a(lp2364
F0.0
aaI27
aa(lp2365
I1
a(lp2366
F0.205128
aaI39
aa(lp2367
I1
a(lp2368
F0.206897
aaI29
aa(lp2369
I1
a(lp2370
F0.225806
aaI31
aa(lp2371
I1
a(lp2372
F0.380952
aaI42
aa(lp2373
I1
a(lp2374
F0.673469
aaI49
aa(lp2375
I1
a(lp2376
F0.458333
aaI48
aa(lp2377
I1
a(lp2378
F0.509804
aaI51
aaa(lp2379
S'scaffold7912_cov254'
p2380
aS'scaffold38603_cov305'
p2381
aa(lp2382
S'scaffold30714_cov262'
p2383
aS'scaffold3621_cov266'
p2384
aa(lp2385
S'scaffold1041_cov212'
p2386
aS'scaffold6560_cov168'
p2387
a(lp2388
I1
a(lp2389
F0.352941
aaI34
aa(lp2390
I1
a(lp2391
F0.236842
aaI38
aa(lp2392
I1
a(lp2393
F0.21875
aaI32
aaa(lp2394
S'scaffold25510_cov231'
p2395
aS'scaffold8365_cov240'
p2396
a(lp2397
I1
a(lp2398
F0.233333
aaI30
aa(lp2399
I1
a(lp2400
F0.259259
aaI27
aa(lp2401
I1
a(lp2402
F0.269231
aaI26
aaa(lp2403
S'scaffold34854_cov183'
p2404
aS'scaffold10029_cov156'
p2405
a(lp2406
I1
a(lp2407
F0.433962
aaI106
aa(lp2408
I1
a(lp2409
F0.477273
aaI44
aa(lp2410
I1
a(lp2411
F0.233333
aaI30
aaa(lp2412
S'scaffold28262_cov431'
p2413
aS'scaffold343_cov157'
p2414
aa(lp2415
S'scaffold4790_cov191'
p2416
aS'scaffold33895_cov180'
p2417
aa(lp2418
S'scaffold674_cov219'
p2419
aS'scaffold10400_cov191'
p2420
a(lp2421
I1
a(lp2422
F0.352941
aaI34
aa(lp2423
I1
a(lp2424
F0.2
aaI40
aa(lp2425
I1
a(lp2426
F0.205882
aaI34
aa(lp2427
I1
a(lp2428
F0.4
aaI45
aa(lp2429
I1
a(lp2430
F0.55102
aaI49
aa(lp2431
I1
a(lp2432
F0.346154
aaI26
aa(lp2433
I1
a(lp2434
F0.272727
aaI22
aa(lp2435
I1
a(lp2436
F0.354839
aaI31
aa(lp2437
I1
a(lp2438
F0.34375
aaI32
aa(lp2439
I1
a(lp2440
F0.321429
aaI28
aa(lp2441
I1
a(lp2442
F0.289474
aaI38
aaa(lp2443
S'scaffold3824_cov240'
p2444
aS'scaffold5144_cov205'
p2445
aa(lp2446
S'scaffold8081_cov244'
p2447
aS'scaffold34811_cov176'
p2448
a(lp2449
I1
a(lp2450
F0.342857
aaI35
aa(lp2451
I1
a(lp2452
F0.238095
aaI42
aa(lp2453
I1
a(lp2454
F0.238095
aaI42
aa(lp2455
I1
a(lp2456
F0.238095
aaI42
aa(lp2457
I1
a(lp2458
F0.25
aaI40
aa(lp2459
I1
a(lp2460
F0.2
aaI40
aa(lp2461
I1
a(lp2462
F0.38
aaI50
aa(lp2463
I1
a(lp2464
F0.377778
aaI45
aa(lp2465
I1
a(lp2466
F0.369565
aaI46
aa(lp2467
I1
a(lp2468
F0.297297
aaI37
aaa(lp2469
S'scaffold3590_cov237'
p2470
aS'scaffold34183_cov209'
p2471
aa(lp2472
S'scaffold6964_cov214'
p2473
aS'scaffold1655_cov200'
p2474
a(lp2475
I1
a(lp2476
F0.333333
aaI42
aa(lp2477
I1
a(lp2478
F0.232558
aaI43
aa(lp2479
I1
a(lp2480
F0.21519
aaI79
aa(lp2481
I1
a(lp2482
F0.210526
aaI76
aa(lp2483
I1
a(lp2484
F0.25
aaI68
aaa(lp2485
S'scaffold41363_cov389'
p2486
aS'scaffold3342_cov163'
p2487
aa(lp2488
S'scaffold5058_cov197'
p2489
aS'scaffold4464_cov185'
p2490
a(lp2491
I1
a(lp2492
F0.264706
aaI34
aa(lp2493
I1
a(lp2494
F0.235294
aaI34
aa(lp2495
I1
a(lp2496
F0.242424
aaI33
aaa(lp2497
S'scaffold35824_cov247'
p2498
aS'scaffold3010_cov208'
p2499
a(lp2500
I1
a(lp2501
F0.384615
aaI39
aa(lp2502
I1
a(lp2503
F0.25
aaI20
aa(lp2504
I1
a(lp2505
F0.227273
aaI22
aa(lp2506
I1
a(lp2507
F0.428571
aaI35
aa(lp2508
I1
a(lp2509
F0.419355
aaI31
aa(lp2510
I1
a(lp2511
F0.413793
aaI29
aa(lp2512
I1
a(lp2513
F0.5
aaI34
aa(lp2514
I1
a(lp2515
F0.433333
aaI30
aa(lp2516
I1
a(lp2517
F0.419355
aaI31
aa(lp2518
I1
a(lp2519
F0.393939
aaI33
aa(lp2520
I1
a(lp2521
F0.352941
aaI34
aa(lp2522
I1
a(lp2523
F0.305556
aaI36
aa(lp2524
I1
a(lp2525
F0.314286
aaI35
aa(lp2526
I1
a(lp2527
F0.333333
aaI33
aa(lp2528
I1
a(lp2529
F0.323529
aaI34
aa(lp2530
I1
a(lp2531
F0.206897
aaI29
aa(lp2532
I1
a(lp2533
F0.36
aaI25
aa(lp2534
I1
a(lp2535
F0.548387
aaI31
aa(lp2536
I1
a(lp2537
F0.612245
aaI49
aa(lp2538
I1
a(lp2539
F0.304348
aaI23
aa(lp2540
I1
a(lp2541
F0.217391
aaI23
aa(lp2542
I1
a(lp2543
F0.272727
aaI33
aa(lp2544
I1
a(lp2545
F0.357143
aaI28
aa(lp2546
I1
a(lp2547
F0.282051
aaI39
aa(lp2548
I1
a(lp2549
F0.285714
aaI28
aa(lp2550
I1
a(lp2551
F0.285714
aaI28
aaa(lp2552
S'scaffold3485_cov257'
p2553
aS'scaffold5461_cov213'
p2554
a(lp2555
I1
a(lp2556
F0.222222
aaI36
aa(lp2557
I1
a(lp2558
F0.333333
aaI39
aa(lp2559
I1
a(lp2560
F0.361111
aaI36
aa(lp2561
I1
a(lp2562
F0.344828
aaI29
aa(lp2563
I1
a(lp2564
F0.511628
aaI43
aa(lp2565
I1
a(lp2566
F0.227273
aaI44
aa(lp2567
I1
a(lp2568
F0.25
aaI40
aa(lp2569
I1
a(lp2570
F0.230769
aaI39
aa(lp2571
I1
a(lp2572
F0.225806
aaI31
aa(lp2573
I1
a(lp2574
F0.419355
aaI31
aa(lp2575
I1
a(lp2576
F0.461538
aaI39
aa(lp2577
I1
a(lp2578
F0.428571
aaI42
aa(lp2579
I1
a(lp2580
F0.534884
aaI43
aa(lp2581
I1
a(lp2582
F0.605263
aaI38
aa(lp2583
I1
a(lp2584
F0.348837
aaI43
aa(lp2585
I1
a(lp2586
F0.25641
aaI39
aa(lp2587
I1
a(lp2588
F0.205882
aaI34
aa(lp2589
I1
a(lp2590
F0.21875
aaI32
aa(lp2591
I1
a(lp2592
F0.307692
aaI26
aa(lp2593
I1
a(lp2594
F0.307692
aaI26
aa(lp2595
I1
a(lp2596
F0.333333
aaI27
aa(lp2597
I1
a(lp2598
F0.366667
aaI30
aa(lp2599
I1
a(lp2600
F0.4
aaI35
aa(lp2601
I1
a(lp2602
F0.25
aaI20
aa(lp2603
I1
a(lp2604
F0.351351
aaI37
aa(lp2605
I1
a(lp2606
F0.351351
aaI37
aa(lp2607
I1
a(lp2608
F0.378378
aaI37
aa(lp2609
I1
a(lp2610
F0.333333
aaI33
aaa(lp2611
S'scaffold6978_cov264'
p2612
aS'scaffold4654_cov204'
p2613
a(lp2614
I1
a(lp2615
F0.235294
aaI34
aa(lp2616
I1
a(lp2617
F0.285714
aaI35
aa(lp2618
I1
a(lp2619
F0.285714
aaI35
aa(lp2620
I1
a(lp2621
F0.228571
aaI35
aa(lp2622
I1
a(lp2623
F0.290323
aaI31
aa(lp2624
I1
a(lp2625
F0.344828
aaI29
aa(lp2626
I1
a(lp2627
F0.55814
aaI43
aa(lp2628
I1
a(lp2629
F0.387755
aaI49
aa(lp2630
I1
a(lp2631
F0.342857
aaI35
aa(lp2632
I1
a(lp2633
F0.285714
aaI42
aa(lp2634
I1
a(lp2635
F0.243902
aaI41
aa(lp2636
I1
a(lp2637
F0.238095
aaI42
aaa(lp2638
S'scaffold16909_cov171'
p2639
aS'scaffold10939_cov235'
p2640
a(lp2641
I1
a(lp2642
F0.259259
aaI27
aa(lp2643
I1
a(lp2644
F0.269231
aaI26
aa(lp2645
I1
a(lp2646
F0.259259
aaI27
aaa(lp2647
S'scaffold34992_cov298'
p2648
aS'scaffold428_cov197'
p2649
a(lp2650
I1
a(lp2651
F0.423077
aaI26
aa(lp2652
I1
a(lp2653
F0.214286
aaI28
aa(lp2654
I1
a(lp2655
F0.214286
aaI28
aa(lp2656
I1
a(lp2657
F0.321429
aaI28
aa(lp2658
I1
a(lp2659
F0.28
aaI25
aa(lp2660
I1
a(lp2661
F0.217391
aaI23
aa(lp2662
I1
a(lp2663
F0.208333
aaI24
aa(lp2664
I1
a(lp2665
F0.206897
aaI29
aa(lp2666
I1
a(lp2667
F0.5
aaI58
aa(lp2668
I1
a(lp2669
F0.324324
aaI37
aa(lp2670
I1
a(lp2671
F0.37037
aaI27
aaa(lp2672
S'scaffold5271_cov299'
p2673
aS'scaffold5221_cov193'
p2674
aa(lp2675
S'scaffold5976_cov266'
p2676
aS'scaffold3325_cov214'
p2677
a(lp2678
I1
a(lp2679
F0.25
aaI32
aa(lp2680
I1
a(lp2681
F0.255814
aaI43
aa(lp2682
I1
a(lp2683
F0.257143
aaI35
aa(lp2684
I1
a(lp2685
F0.217391
aaI46
aa(lp2686
I1
a(lp2687
F0.212766
aaI47
aa(lp2688
I1
a(lp2689
F0.244898
aaI49
aa(lp2690
I1
a(lp2691
F0.230769
aaI26
aa(lp2692
I1
a(lp2693
F0.241379
aaI29
aa(lp2694
I1
a(lp2695
F0.2
aaI30
aa(lp2696
I1
a(lp2697
F0.30303
aaI33
aaa(lp2698
S'scaffold1042_cov233'
p2699
aS'scaffold20788_cov116'
p2700
aa(lp2701
S'scaffold854_cov247'
p2702
aS'scaffold9044_cov264'
p2703
a(lp2704
I1
a(lp2705
F0.242424
aaI33
aa(lp2706
I1
a(lp2707
F0.507937
aaI63
aa(lp2708
I1
a(lp2709
F0.571429
aaI49
aa(lp2710
I1
a(lp2711
F0.545455
aaI44
aa(lp2712
I1
a(lp2713
F0.577778
aaI45
aaa(lp2714
S'scaffold7260_cov230'
p2715
aS'scaffold2659_cov200'
p2716
aa(lp2717
S'scaffold29217_cov317'
p2718
aS'scaffold1412_cov235'
p2719
a(lp2720
I1
a(lp2721
F0.25
aaI40
aa(lp2722
I1
a(lp2723
F0.236842
aaI38
aa(lp2724
I1
a(lp2725
F0.216216
aaI37
aa(lp2726
I1
a(lp2727
F0.311111
aaI45
aa(lp2728
I1
a(lp2729
F0.341463
aaI41
aa(lp2730
I1
a(lp2731
F0.4
aaI40
aaa(lp2732
S'scaffold5330_cov257'
p2733
aS'scaffold14897_cov267'
p2734
aa(lp2735
S'scaffold8573_cov422'
p2736
aS'scaffold5917_cov146'
p2737
aa(lp2738
S'scaffold5708_cov422'
p2739
aS'scaffold5917_cov146'
p2740
aa(lp2741
S'scaffold869_cov236'
p2742
aS'scaffold35051_cov180'
p2743
a(lp2744
I1
a(lp2745
F0.291667
aaI24
aa(lp2746
I1
a(lp2747
F0.380952
aaI21
aa(lp2748
I1
a(lp2749
F0.296296
aaI27
aaa(lp2750
S'scaffold5700_cov293'
p2751
aS'scaffold5813_cov245'
p2752
aa(lp2753
S'scaffold4573_cov200'
p2754
aS'scaffold9482_cov230'
p2755
a(lp2756
I1
a(lp2757
F0.342857
aaI35
aa(lp2758
I1
a(lp2759
F0.322581
aaI31
aa(lp2760
I1
a(lp2761
F0.2
aaI35
aa(lp2762
I1
a(lp2763
F0.214286
aaI42
aa(lp2764
I1
a(lp2765
F0.209302
aaI43
aa(lp2766
I1
a(lp2767
F0.214286
aaI42
aa(lp2768
I1
a(lp2769
F0.2
aaI30
aa(lp2770
I1
a(lp2771
F0.238095
aaI21
aa(lp2772
I1
a(lp2773
F0.238095
aaI21
aa(lp2774
I1
a(lp2775
F0.333333
aaI30
aaa(lp2776
S'scaffold36090_cov308'
p2777
aS'scaffold4008_cov147'
p2778
a(lp2779
I1
a(lp2780
F0.225
aaI40
aa(lp2781
I1
a(lp2782
F0.222222
aaI45
aa(lp2783
I1
a(lp2784
F0.489362
aaI47
aaa(lp2785
S'scaffold38236_cov294'
p2786
aS'scaffold12700_cov150'
p2787
aa(lp2788
S'scaffold10361_cov204'
p2789
aS'scaffold11037_cov149'
p2790
aa(lp2791
S'scaffold1081_cov253'
p2792
aS'scaffold1083_cov222'
p2793
a(lp2794
I1
a(lp2795
F0.285714
aaI21
aa(lp2796
I1
a(lp2797
F0.272727
aaI44
aa(lp2798
I1
a(lp2799
F0.304348
aaI46
aa(lp2800
I1
a(lp2801
F0.40625
aaI32
aa(lp2802
I1
a(lp2803
F0.351351
aaI37
aa(lp2804
I1
a(lp2805
F0.380952
aaI42
aa(lp2806
I1
a(lp2807
F0.264706
aaI34
aa(lp2808
I1
a(lp2809
F0.428571
aaI42
aa(lp2810
I1
a(lp2811
F0.222222
aaI45
aa(lp2812
I1
a(lp2813
F0.384615
aaI52
aa(lp2814
I1
a(lp2815
F0.487805
aaI41
aaa(lp2816
S'scaffold1911_cov231'
p2817
aS'scaffold2955_cov235'
p2818
a(lp2819
I1
a(lp2820
F0.228571
aaI35
aa(lp2821
I1
a(lp2822
F0.259259
aaI27
aa(lp2823
I1
a(lp2824
F0.357143
aaI28
aa(lp2825
I1
a(lp2826
F0.25
aaI16
aa(lp2827
I1
a(lp2828
F0.2
aaI25
aa(lp2829
I1
a(lp2830
F0.2
aaI25
aa(lp2831
I1
a(lp2832
F0.23913
aaI46
aaa(lp2833
S'scaffold709_cov247'
p2834
aS'scaffold5394_cov155'
p2835
aa(lp2836
S'scaffold4184_cov249'
p2837
aS'scaffold2531_cov161'
p2838
aa(lp2839
S'scaffold2596_cov234'
p2840
aS'scaffold1898_cov190'
p2841
a(lp2842
I1
a(lp2843
F0.25
aaI44
aa(lp2844
I1
a(lp2845
F0.26087
aaI23
aa(lp2846
I1
a(lp2847
F0.0
aaI4
aa(lp2848
I1
a(lp2849
F0.25
aaI44
aa(lp2850
I1
a(lp2851
F0.261905
aaI42
aa(lp2852
I1
a(lp2853
F0.277778
aaI36
aa(lp2854
I1
a(lp2855
F0.277778
aaI36
aa(lp2856
I1
a(lp2857
F0.25
aaI40
aa(lp2858
I1
a(lp2859
F0.242424
aaI33
aaa(lp2860
S'scaffold9505_cov197'
p2861
aS'scaffold3671_cov181'
p2862
a(lp2863
I1
a(lp2864
F0.677083
aaI96
aaa(lp2865
S'scaffold6461_cov208'
p2866
aS'scaffold10232_cov153'
p2867
a(lp2868
I1
a(lp2869
F0.2
aaI45
aa(lp2870
I1
a(lp2871
F0.436364
aaI55
aa(lp2872
I1
a(lp2873
F0.542857
aaI35
aa(lp2874
I1
a(lp2875
F0.222222
aaI45
aa(lp2876
I1
a(lp2877
F0.342105
aaI38
aa(lp2878
I1
a(lp2879
F0.333333
aaI39
aa(lp2880
I1
a(lp2881
F0.428571
aaI49
aa(lp2882
I1
a(lp2883
F0.24
aaI50
aa(lp2884
I1
a(lp2885
F0.244898
aaI49
aa(lp2886
I1
a(lp2887
F0.333333
aaI42
aa(lp2888
I1
a(lp2889
F0.318182
aaI44
aa(lp2890
I1
a(lp2891
F0.38
aaI50
aaa(lp2892
S'scaffold3709_cov220'
p2893
aS'scaffold9550_cov156'
p2894
aa(lp2895
S'scaffold5690_cov178'
p2896
aS'scaffold8992_cov141'
p2897
aa(lp2898
S'scaffold1435_cov176'
p2899
aS'scaffold7695_cov182'
p2900
aa(lp2901
S'scaffold20444_cov436'
p2902
aS'scaffold13149_cov173'
p2903
a(lp2904
I1
a(lp2905
F0.305556
aaI36
aaa(lp2906
S'scaffold9528_cov287'
p2907
aS'scaffold13440_cov161'
p2908
a(lp2909
I1
a(lp2910
F0.318182
aaI22
aaa(lp2911
S'scaffold7135_cov385'
p2912
aS'scaffold2547_cov148'
p2913
a(lp2914
I1
a(lp2915
F0.277778
aaI36
aa(lp2916
I1
a(lp2917
F0.324324
aaI37
aaa(lp2918
S'scaffold15331_cov173'
p2919
aS'scaffold4093_cov203'
p2920
a(lp2921
I1
a(lp2922
F0.2
aaI25
aa(lp2923
I1
a(lp2924
F0.326087
aaI46
aa(lp2925
I1
a(lp2926
F0.388889
aaI36
aa(lp2927
I1
a(lp2928
F0.371429
aaI35
aa(lp2929
I1
a(lp2930
F0.222222
aaI36
aa(lp2931
I1
a(lp2932
F0.333333
aaI36
aa(lp2933
I1
a(lp2934
F0.405405
aaI37
aa(lp2935
I1
a(lp2936
F0.405405
aaI37
aa(lp2937
I1
a(lp2938
F0.46875
aaI32
aa(lp2939
I1
a(lp2940
F0.433333
aaI30
aa(lp2941
I1
a(lp2942
F0.375
aaI32
aa(lp2943
I1
a(lp2944
F0.363636
aaI33
aa(lp2945
I1
a(lp2946
F0.333333
aaI27
aa(lp2947
I1
a(lp2948
F0.425
aaI40
aaa(lp2949
S'scaffold3646_cov176'
p2950
aS'scaffold1795_cov197'
p2951
a(lp2952
I1
a(lp2953
F0.285714
aaI35
aa(lp2954
I1
a(lp2955
F0.210526
aaI38
aa(lp2956
I1
a(lp2957
F0.375
aaI32
aa(lp2958
I1
a(lp2959
F0.206897
aaI29
aa(lp2960
I1
a(lp2961
F0.3
aaI20
aa(lp2962
I1
a(lp2963
F0.227273
aaI22
aa(lp2964
I1
a(lp2965
F0.238636
aaI88
aa(lp2966
I1
a(lp2967
F0.24
aaI25
aaa(lp2968
S'scaffold4879_cov249'
p2969
aS'scaffold916_cov197'
p2970
a(lp2971
I1
a(lp2972
F0.346154
aaI26
aaa(lp2973
S'scaffold441_cov213'
p2974
aS'scaffold3541_cov180'
p2975
aa(lp2976
S'scaffold6945_cov182'
p2977
aS'scaffold3075_cov156'
p2978
aa(lp2979
S'scaffold10089_cov244'
p2980
aS'scaffold11805_cov225'
p2981
a(lp2982
I1
a(lp2983
F0.366667
aaI30
aa(lp2984
I1
a(lp2985
F0.333333
aaI39
aa(lp2986
I1
a(lp2987
F0.272727
aaI44
aa(lp2988
I1
a(lp2989
F0.289474
aaI38
aaa(lp2990
S'scaffold2691_cov437'
p2991
aS'scaffold843_cov157'
p2992
a(lp2993
I1
a(lp2994
F0.25
aaI12
aaa(lp2995
S'scaffold31451_cov239'
p2996
aS'scaffold644_cov199'
p2997
a(lp2998
I1
a(lp2999
F0.358974
aaI39
aaa(lp3000
S'scaffold54_cov186'
p3001
aS'scaffold6744_cov389'
p3002
aa(lp3003
S'scaffold18214_cov222'
p3004
aS'scaffold3250_cov209'
p3005
a(lp3006
I1
a(lp3007
F0.52
aaI50
aa(lp3008
I1
a(lp3009
F0.5
aaI48
aa(lp3010
I1
a(lp3011
F0.344828
aaI29
aa(lp3012
I1
a(lp3013
F0.357143
aaI28
aa(lp3014
I1
a(lp3015
F0.428571
aaI28
aaa(lp3016
S'scaffold11228_cov232'
p3017
aS'scaffold14602_cov161'
p3018
a(lp3019
I1
a(lp3020
F0.22449
aaI49
aa(lp3021
I1
a(lp3022
F0.222222
aaI27
aa(lp3023
I1
a(lp3024
F0.225806
aaI31
aa(lp3025
I1
a(lp3026
F0.222222
aaI27
aa(lp3027
I1
a(lp3028
F0.2
aaI20
aa(lp3029
I1
a(lp3030
F0.24
aaI25
aa(lp3031
I1
a(lp3032
F0.222222
aaI27
aa(lp3033
I1
a(lp3034
F0.238095
aaI21
aaa(lp3035
S'scaffold36852_cov305'
p3036
aS'scaffold4188_cov191'
p3037
a(lp3038
I1
a(lp3039
F0.0
aaI5
aa(lp3040
I1
a(lp3041
F0.0
aaI6
aaa(lp3042
S'scaffold914_cov157'
p3043
aS'scaffold915_cov207'
p3044
a(lp3045
I1
a(lp3046
F0.243902
aaI41
aa(lp3047
I1
a(lp3048
F0.333333
aaI24
aa(lp3049
I1
a(lp3050
F0.242424
aaI33
aa(lp3051
I1
a(lp3052
F0.371429
aaI35
aa(lp3053
I1
a(lp3054
F0.509091
aaI55
aa(lp3055
I1
a(lp3056
F0.309524
aaI42
aa(lp3057
I1
a(lp3058
F0.315789
aaI38
aa(lp3059
I1
a(lp3060
F0.289474
aaI38
aa(lp3061
I1
a(lp3062
F0.210526
aaI19
aa(lp3063
I1
a(lp3064
F0.242424
aaI33
aa(lp3065
I1
a(lp3066
F0.225
aaI40
aaa(lp3067
S'scaffold663_cov256'
p3068
aS'scaffold29908_cov147'
p3069
aa(lp3070
S'scaffold1561_cov271'
p3071
aS'scaffold1811_cov234'
p3072
a(lp3073
I1
a(lp3074
F0.2
aaI25
aa(lp3075
I1
a(lp3076
F0.518519
aaI27
aa(lp3077
I1
a(lp3078
F0.233333
aaI30
aa(lp3079
I1
a(lp3080
F0.2
aaI25
aa(lp3081
I1
a(lp3082
F0.290323
aaI31
aa(lp3083
I1
a(lp3084
F0.259259
aaI27
aa(lp3085
I1
a(lp3086
F0.310345
aaI29
aa(lp3087
I1
a(lp3088
F0.324324
aaI37
aa(lp3089
I1
a(lp3090
F0.30303
aaI33
aa(lp3091
I1
a(lp3092
F0.2
aaI35
aa(lp3093
I1
a(lp3094
F0.257143
aaI35
aa(lp3095
I1
a(lp3096
F0.34375
aaI32
aa(lp3097
I1
a(lp3098
F0.214286
aaI42
aa(lp3099
I1
a(lp3100
F0.392857
aaI28
aa(lp3101
I1
a(lp3102
F0.214286
aaI42
aaa(lp3103
S'scaffold279_cov300'
p3104
aS'scaffold888_cov152'
p3105
a(lp3106
I1
a(lp3107
F0.264706
aaI34
aaa(lp3108
S'scaffold35026_cov310'
p3109
aS'scaffold288_cov182'
p3110
a(lp3111
I1
a(lp3112
F0.428571
aaI49
aa(lp3113
I1
a(lp3114
F0.269231
aaI26
aa(lp3115
I1
a(lp3116
F0.2
aaI20
aa(lp3117
I1
a(lp3118
F0.445652
aaI92
aa(lp3119
I1
a(lp3120
F0.290323
aaI31
aa(lp3121
I1
a(lp3122
F0.37931
aaI29
aa(lp3123
I1
a(lp3124
F0.208333
aaI24
aa(lp3125
I1
a(lp3126
F0.208333
aaI24
aaa(lp3127
S'scaffold47223_cov305'
p3128
aS'scaffold428_cov197'
p3129
aa(lp3130
S'scaffold3367_cov255'
p3131
aS'scaffold3227_cov180'
p3132
a(lp3133
I1
a(lp3134
F0.275862
aaI29
aa(lp3135
I1
a(lp3136
F0.266667
aaI30
aa(lp3137
I1
a(lp3138
F0.233333
aaI30
aaa(lp3139
S'scaffold17142_cov215'
p3140
aS'scaffold35222_cov195'
p3141
a(lp3142
I1
a(lp3143
F0.296296
aaI27
aa(lp3144
I1
a(lp3145
F0.307692
aaI26
aa(lp3146
I1
a(lp3147
F0.225806
aaI31
aa(lp3148
I1
a(lp3149
F0.25
aaI28
aa(lp3150
I1
a(lp3151
F0.266667
aaI30
aa(lp3152
I1
a(lp3153
F0.272727
aaI33
aa(lp3154
I1
a(lp3155
F0.428571
aaI35
aaa(lp3156
S'scaffold35800_cov215'
p3157
aS'scaffold7468_cov213'
p3158
a(lp3159
I1
a(lp3160
F0.322581
aaI31
aa(lp3161
I1
a(lp3162
F0.361111
aaI36
aa(lp3163
I1
a(lp3164
F0.27027
aaI37
aa(lp3165
I1
a(lp3166
F0.333333
aaI36
aa(lp3167
I1
a(lp3168
F0.361111
aaI36
aa(lp3169
I1
a(lp3170
F0.294118
aaI34
aa(lp3171
I1
a(lp3172
F0.310345
aaI29
aa(lp3173
I1
a(lp3174
F0.272727
aaI33
aa(lp3175
I1
a(lp3176
F0.272727
aaI33
aa(lp3177
I1
a(lp3178
F0.212121
aaI33
aa(lp3179
I1
a(lp3180
F0.212121
aaI33
aa(lp3181
I1
a(lp3182
F0.212121
aaI33
aa(lp3183
I1
a(lp3184
F0.216216
aaI37
aa(lp3185
I1
a(lp3186
F0.205128
aaI39
aa(lp3187
I1
a(lp3188
F0.315789
aaI38
aa(lp3189
I1
a(lp3190
F0.314286
aaI35
aa(lp3191
I1
a(lp3192
F0.257143
aaI35
aa(lp3193
I1
a(lp3194
F0.342857
aaI35
aa(lp3195
I1
a(lp3196
F0.4
aaI30
aa(lp3197
I1
a(lp3198
F0.344828
aaI29
aa(lp3199
I1
a(lp3200
F0.357143
aaI28
aa(lp3201
I1
a(lp3202
F0.344828
aaI29
aa(lp3203
I1
a(lp3204
F0.357143
aaI28
aa(lp3205
I1
a(lp3206
F0.434783
aaI23
aa(lp3207
I1
a(lp3208
F0.28
aaI25
aa(lp3209
I1
a(lp3210
F0.285714
aaI35
aaa(lp3211
S'scaffold50853_cov294'
p3212
aS'scaffold4382_cov182'
p3213
aa(lp3214
S'scaffold6035_cov288'
p3215
aS'scaffold8301_cov160'
p3216
aa(lp3217
S'scaffold33985_cov263'
p3218
aS'scaffold383_cov198'
p3219
a(lp3220
I1
a(lp3221
F0.30303
aaI33
aa(lp3222
I1
a(lp3223
F0.266667
aaI30
aa(lp3224
I1
a(lp3225
F0.439024
aaI41
aa(lp3226
I1
a(lp3227
F0.205882
aaI34
aa(lp3228
I1
a(lp3229
F0.27451
aaI51
aa(lp3230
I1
a(lp3231
F0.314286
aaI35
aa(lp3232
I1
a(lp3233
F0.447368
aaI38
aa(lp3234
I1
a(lp3235
F0.210526
aaI19
aa(lp3236
I1
a(lp3237
F0.2
aaI20
aa(lp3238
I1
a(lp3239
F0.275862
aaI29
aa(lp3240
I1
a(lp3241
F0.37037
aaI27
aa(lp3242
I1
a(lp3243
F0.342857
aaI35
aa(lp3244
I1
a(lp3245
F0.342857
aaI35
aa(lp3246
I1
a(lp3247
F0.342105
aaI38
aa(lp3248
I1
a(lp3249
F0.309524
aaI42
aa(lp3250
I1
a(lp3251
F0.289474
aaI38
aa(lp3252
I1
a(lp3253
F0.375
aaI32
aa(lp3254
I1
a(lp3255
F0.205882
aaI34
aa(lp3256
I1
a(lp3257
F0.235294
aaI34
aa(lp3258
I1
a(lp3259
F0.216216
aaI37
aa(lp3260
I1
a(lp3261
F0.459459
aaI37
aa(lp3262
I1
a(lp3263
F0.6
aaI35
aa(lp3264
I1
a(lp3265
F0.307692
aaI39
aa(lp3266
I1
a(lp3267
F0.222222
aaI27
aa(lp3268
I1
a(lp3269
F0.206897
aaI29
aa(lp3270
I1
a(lp3271
F0.230769
aaI26
aa(lp3272
I1
a(lp3273
F0.212121
aaI33
aa(lp3274
I1
a(lp3275
F0.28
aaI25
aa(lp3276
I1
a(lp3277
F0.208333
aaI24
aa(lp3278
I1
a(lp3279
F0.318182
aaI44
aa(lp3280
I1
a(lp3281
F0.363636
aaI33
aa(lp3282
I1
a(lp3283
F0.0
aaI24
aa(lp3284
I1
a(lp3285
F0.333333
aaI21
aa(lp3286
I1
a(lp3287
F0.324324
aaI37
aaa(lp3288
S'scaffold51910_cov463'
p3289
aS'scaffold3158_cov165'
p3290
aa(lp3291
S'scaffold1343_cov240'
p3292
aS'scaffold219_cov217'
p3293
a(lp3294
I1
a(lp3295
F0.538462
aaI13
aa(lp3296
I1
a(lp3297
F0.538462
aaI13
aa(lp3298
I1
a(lp3299
F0.421053
aaI19
aa(lp3300
I1
a(lp3301
F0.4
aaI35
aa(lp3302
I1
a(lp3303
F0.347826
aaI23
aa(lp3304
I1
a(lp3305
F0.296296
aaI27
aa(lp3306
I1
a(lp3307
F0.37037
aaI27
aa(lp3308
I1
a(lp3309
F0.235294
aaI17
aa(lp3310
I1
a(lp3311
F0.2
aaI20
aa(lp3312
I1
a(lp3313
F0.25
aaI16
aa(lp3314
I1
a(lp3315
F0.32
aaI25
aa(lp3316
I1
a(lp3317
F0.25
aaI20
aa(lp3318
I1
a(lp3319
F0.25
aaI20
aa(lp3320
I1
a(lp3321
F0.40625
aaI32
aa(lp3322
I1
a(lp3323
F0.272727
aaI33
aa(lp3324
I1
a(lp3325
F0.243243
aaI37
aa(lp3326
I1
a(lp3327
F0.212121
aaI33
aa(lp3328
I1
a(lp3329
F0.461538
aaI39
aa(lp3330
I1
a(lp3331
F0.322581
aaI31
aa(lp3332
I1
a(lp3333
F0.285714
aaI42
aa(lp3334
I1
a(lp3335
F0.212121
aaI33
aa(lp3336
I1
a(lp3337
F0.287671
aaI73
aa(lp3338
I1
a(lp3339
F0.34
aaI50
aa(lp3340
I1
a(lp3341
F0.891228
aaI285
aaa(lp3342
S'scaffold12570_cov377'
p3343
aS'scaffold1045_cov153'
p3344
aa(lp3345
S'scaffold12881_cov242'
p3346
aS'scaffold36279_cov207'
p3347
a(lp3348
I1
a(lp3349
F0.311111
aaI45
aa(lp3350
I1
a(lp3351
F0.302326
aaI43
aa(lp3352
I1
a(lp3353
F0.333333
aaI24
aa(lp3354
I1
a(lp3355
F0.575758
aaI33
aa(lp3356
I1
a(lp3357
F0.290323
aaI31
aa(lp3358
I1
a(lp3359
F0.225806
aaI31
aa(lp3360
I1
a(lp3361
F0.296296
aaI27
aa(lp3362
I1
a(lp3363
F0.37931
aaI29
aa(lp3364
I1
a(lp3365
F0.243902
aaI41
aa(lp3366
I1
a(lp3367
F0.292683
aaI41
aa(lp3368
I1
a(lp3369
F0.414634
aaI41
aaa(lp3370
S'scaffold10585_cov239'
p3371
aS'scaffold14002_cov262'
p3372
a(lp3373
I1
a(lp3374
F0.3
aaI50
aa(lp3375
I1
a(lp3376
F0.404762
aaI42
aa(lp3377
I1
a(lp3378
F0.534884
aaI43
aaa(lp3379
S'scaffold12136_cov215'
p3380
aS'scaffold5344_cov146'
p3381
a(lp3382
I1
a(lp3383
F0.222222
aaI18
aa(lp3384
I1
a(lp3385
F0.2
aaI20
aa(lp3386
I1
a(lp3387
F0.217391
aaI23
aa(lp3388
I1
a(lp3389
F0.518519
aaI27
aa(lp3390
I1
a(lp3391
F0.526316
aaI38
aa(lp3392
I1
a(lp3393
F0.380952
aaI42
aaa(lp3394
S'scaffold2323_cov224'
p3395
aS'scaffold11669_cov179'
p3396
a(lp3397
I1
a(lp3398
F0.214286
aaI28
aa(lp3399
I1
a(lp3400
F0.214286
aaI28
aa(lp3401
I1
a(lp3402
F0.24
aaI25
aa(lp3403
I1
a(lp3404
F0.384615
aaI26
aa(lp3405
I1
a(lp3406
F0.36
aaI25
aa(lp3407
I1
a(lp3408
F0.375
aaI24
aa(lp3409
I1
a(lp3410
F0.454545
aaI22
aa(lp3411
I1
a(lp3412
F0.388889
aaI18
aa(lp3413
I1
a(lp3414
F0.333333
aaI18
aa(lp3415
I1
a(lp3416
F0.368421
aaI19
aa(lp3417
I1
a(lp3418
F0.263158
aaI19
aaa(lp3419
S'scaffold7526_cov240'
p3420
aS'scaffold8195_cov213'
p3421
a(lp3422
I1
a(lp3423
F0.361702
aaI47
aa(lp3424
I1
a(lp3425
F0.361702
aaI47
aa(lp3426
I1
a(lp3427
F0.382979
aaI47
aa(lp3428
I1
a(lp3429
F0.263158
aaI19
aa(lp3430
I1
a(lp3431
F0.230769
aaI39
aa(lp3432
I1
a(lp3433
F0.243243
aaI37
aa(lp3434
I1
a(lp3435
F0.404762
aaI42
aa(lp3436
I1
a(lp3437
F0.486486
aaI37
aaa(lp3438
S'scaffold5645_cov270'
p3439
aS'scaffold8590_cov218'
p3440
aa(lp3441
S'scaffold34809_cov225'
p3442
aS'scaffold34892_cov211'
p3443
aa(lp3444
S'scaffold50320_cov305'
p3445
aS'scaffold1792_cov186'
p3446
aa(lp3447
S'scaffold6871_cov206'
p3448
aS'scaffold10121_cov202'
p3449
aa(lp3450
S'scaffold36055_cov189'
p3451
aS'scaffold10411_cov164'
p3452
a(lp3453
I1
a(lp3454
F0.411765
aaI34
aa(lp3455
I1
a(lp3456
F0.351351
aaI37
aaa(lp3457
S'scaffold9918_cov286'
p3458
aS'scaffold3310_cov167'
p3459
a(lp3460
I1
a(lp3461
F0.2
aaI20
aa(lp3462
I1
a(lp3463
F0.210526
aaI19
aa(lp3464
I1
a(lp3465
F0.0
aaI24
aa(lp3466
I1
a(lp3467
F0.32
aaI75
aaa(lp3468
S'scaffold2942_cov228'
p3469
aS'scaffold18738_cov241'
p3470
a(lp3471
I1
a(lp3472
F0.222222
aaI27
aaa(lp3473
S'scaffold10654_cov169'
p3474
aS'scaffold5155_cov170'
p3475
a(lp3476
I1
a(lp3477
F0.28
aaI25
aa(lp3478
I1
a(lp3479
F0.25
aaI20
aa(lp3480
I1
a(lp3481
F0.346154
aaI26
aaa(lp3482
S'scaffold16272_cov418'
p3483
aS'scaffold343_cov157'
p3484
aasS'up'
p3485
(lp3486
(lp3487
g6
ag7
aa(lp3488
g13
ag14
a(lp3489
I1
a(lp3490
F0.3
aaI40
aa(lp3491
I1
a(lp3492
F0.391304
aaI23
aa(lp3493
I1
a(lp3494
F0.444444
aaI27
aa(lp3495
I1
a(lp3496
F0.233333
aaI30
aa(lp3497
I1
a(lp3498
F0.2
aaI35
aa(lp3499
I1
a(lp3500
F0.375
aaI32
aa(lp3501
I1
a(lp3502
F0.432432
aaI37
aa(lp3503
I1
a(lp3504
F0.378378
aaI37
aa(lp3505
I1
a(lp3506
F0.2
aaI30
aa(lp3507
I1
a(lp3508
F0.423729
aaI59
aa(lp3509
I1
a(lp3510
F0.295455
aaI44
aa(lp3511
I1
a(lp3512
F0.291667
aaI48
aa(lp3513
I1
a(lp3514
F0.214286
aaI28
aa(lp3515
I1
a(lp3516
F0.441176
aaI34
aa(lp3517
I1
a(lp3518
F0.257143
aaI35
aa(lp3519
I1
a(lp3520
F0.225
aaI40
aa(lp3521
I1
a(lp3522
F0.2
aaI40
aa(lp3523
I1
a(lp3524
F0.26087
aaI23
aa(lp3525
I1
a(lp3526
F0.392857
aaI28
aa(lp3527
I1
a(lp3528
F0.424242
aaI33
aa(lp3529
I1
a(lp3530
F0.444444
aaI27
aa(lp3531
I1
a(lp3532
F0.341463
aaI41
aaa(lp3533
g16
ag17
a(lp3534
I1
a(lp3535
F0.459459
aaI37
aa(lp3536
I1
a(lp3537
F0.315789
aaI38
aa(lp3538
I1
a(lp3539
F0.37037
aaI27
aaa(lp3540
g19
ag20
a(lp3541
I1
a(lp3542
F0.26087
aaI23
aa(lp3543
I1
a(lp3544
F0.310345
aaI29
aa(lp3545
I1
a(lp3546
F0.321429
aaI28
aa(lp3547
I1
a(lp3548
F0.290323
aaI31
aaa(lp3549
g24
ag25
a(lp3550
I1
a(lp3551
F0.456522
aaI46
aa(lp3552
I1
a(lp3553
F0.510204
aaI49
aaa(lp3554
g37
ag38
a(lp3555
I1
a(lp3556
F0.272727
aaI44
aa(lp3557
I1
a(lp3558
F0.447368
aaI38
aa(lp3559
I1
a(lp3560
F0.441176
aaI34
aa(lp3561
I1
a(lp3562
F0.372093
aaI43
aaa(lp3563
g56
ag57
aa(lp3564
g59
ag60
aa(lp3565
g82
ag83
a(lp3566
I1
a(lp3567
F0.583333
aaI48
aa(lp3568
I1
a(lp3569
F0.611111
aaI54
aa(lp3570
I1
a(lp3571
F0.607143
aaI28
aa(lp3572
I1
a(lp3573
F0.230769
aaI26
aa(lp3574
I1
a(lp3575
F0.222222
aaI27
aa(lp3576
I1
a(lp3577
F0.333333
aaI27
aa(lp3578
I1
a(lp3579
F0.384615
aaI39
aa(lp3580
I1
a(lp3581
F0.466667
aaI45
aa(lp3582
I1
a(lp3583
F0.46875
aaI32
aa(lp3584
I1
a(lp3585
F0.512821
aaI39
aa(lp3586
I1
a(lp3587
F0.428571
aaI49
aaa(lp3588
g101
ag102
aa(lp3589
g104
ag105
aa(lp3590
g115
ag116
aa(lp3591
g118
ag119
aa(lp3592
g125
ag126
aa(lp3593
g130
ag131
a(lp3594
I1
a(lp3595
F0.275
aaI40
aa(lp3596
I1
a(lp3597
F0.25
aaI40
aa(lp3598
I1
a(lp3599
F0.257143
aaI35
aa(lp3600
I1
a(lp3601
F0.228571
aaI35
aa(lp3602
I1
a(lp3603
F0.238095
aaI21
aa(lp3604
I1
a(lp3605
F0.269231
aaI26
aa(lp3606
I1
a(lp3607
F0.25
aaI24
aa(lp3608
I1
a(lp3609
F0.241379
aaI29
aa(lp3610
I1
a(lp3611
F0.323529
aaI34
aaa(lp3612
g133
ag134
a(lp3613
I1
a(lp3614
F0.340426
aaI47
aa(lp3615
I1
a(lp3616
F0.282051
aaI39
aa(lp3617
I1
a(lp3618
F0.22449
aaI49
aa(lp3619
I1
a(lp3620
F0.277778
aaI36
aaa(lp3621
g136
ag137
aa(lp3622
g139
ag140
a(lp3623
I1
a(lp3624
F0.418182
aaI55
aa(lp3625
I1
a(lp3626
F0.257143
aaI35
aa(lp3627
I1
a(lp3628
F0.274194
aaI62
aa(lp3629
I1
a(lp3630
F0.246154
aaI65
aa(lp3631
I1
a(lp3632
F0.418605
aaI43
aa(lp3633
I1
a(lp3634
F0.428571
aaI42
aa(lp3635
I1
a(lp3636
F0.382353
aaI34
aaa(lp3637
g160
ag161
a(lp3638
I1
a(lp3639
F0.232558
aaI43
aa(lp3640
I1
a(lp3641
F0.378378
aaI37
aaa(lp3642
g163
ag164
a(lp3643
I1
a(lp3644
F0.392157
aaI51
aaa(lp3645
g168
ag169
a(lp3646
I1
a(lp3647
F0.0
aaI33
aa(lp3648
I1
a(lp3649
F0.333333
aaI27
aa(lp3650
I1
a(lp3651
F0.26087
aaI23
aa(lp3652
I1
a(lp3653
F0.230769
aaI26
aaa(lp3654
g171
ag172
aa(lp3655
g174
ag175
a(lp3656
I1
a(lp3657
F0.32
aaI50
aa(lp3658
I1
a(lp3659
F0.25
aaI44
aa(lp3660
I1
a(lp3661
F0.276596
aaI47
aa(lp3662
I1
a(lp3663
F0.365385
aaI52
aa(lp3664
I1
a(lp3665
F0.366667
aaI30
aa(lp3666
I1
a(lp3667
F0.46875
aaI32
aa(lp3668
I1
a(lp3669
F0.294118
aaI34
aa(lp3670
I1
a(lp3671
F0.382353
aaI34
aa(lp3672
I1
a(lp3673
F0.611111
aaI36
aa(lp3674
I1
a(lp3675
F0.277778
aaI36
aa(lp3676
I1
a(lp3677
F0.46
aaI50
aa(lp3678
I1
a(lp3679
F0.5
aaI40
aaa(lp3680
g177
ag178
aa(lp3681
g180
ag181
a(lp3682
I1
a(lp3683
F0.215686
aaI51
aaa(lp3684
g183
ag184
a(lp3685
I1
a(lp3686
F0.27907
aaI43
aa(lp3687
I1
a(lp3688
F0.290323
aaI31
aa(lp3689
I1
a(lp3690
F0.205128
aaI39
aa(lp3691
I1
a(lp3692
F0.210526
aaI38
aa(lp3693
I1
a(lp3694
F0.540541
aaI37
aa(lp3695
I1
a(lp3696
F0.488372
aaI43
aa(lp3697
I1
a(lp3698
F0.425
aaI40
aa(lp3699
I1
a(lp3700
F0.548387
aaI31
aa(lp3701
I1
a(lp3702
F0.372093
aaI43
aa(lp3703
I1
a(lp3704
F0.333333
aaI24
aa(lp3705
I1
a(lp3706
F0.2
aaI25
aa(lp3707
I1
a(lp3708
F0.333333
aaI45
aa(lp3709
I1
a(lp3710
F0.395349
aaI43
aa(lp3711
I1
a(lp3712
F0.272727
aaI33
aa(lp3713
I1
a(lp3714
F0.275862
aaI29
aa(lp3715
I1
a(lp3716
F0.3
aaI10
aaa(lp3717
g186
ag187
a(lp3718
I1
a(lp3719
F0.483333
aaI60
aa(lp3720
I1
a(lp3721
F0.386364
aaI44
aa(lp3722
I1
a(lp3723
F0.428571
aaI42
aa(lp3724
I1
a(lp3725
F0.351351
aaI37
aa(lp3726
I1
a(lp3727
F0.228571
aaI35
aa(lp3728
I1
a(lp3729
F0.307692
aaI39
aa(lp3730
I1
a(lp3731
F0.230769
aaI26
aa(lp3732
I1
a(lp3733
F0.214286
aaI28
aa(lp3734
I1
a(lp3735
F0.259259
aaI27
aa(lp3736
I1
a(lp3737
F0.242424
aaI33
aa(lp3738
I1
a(lp3739
F0.291667
aaI24
aa(lp3740
I1
a(lp3741
F0.32
aaI25
aa(lp3742
I1
a(lp3743
F0.344828
aaI29
aa(lp3744
I1
a(lp3745
F0.37037
aaI27
aa(lp3746
I1
a(lp3747
F0.4
aaI25
aa(lp3748
I1
a(lp3749
F0.236842
aaI38
aaa(lp3750
g201
ag202
aa(lp3751
g204
ag205
a(lp3752
I1
a(lp3753
F0.411765
aaI51
aa(lp3754
I1
a(lp3755
F0.319149
aaI47
aa(lp3756
I1
a(lp3757
F0.3125
aaI48
aa(lp3758
I1
a(lp3759
F0.4
aaI40
aa(lp3760
I1
a(lp3761
F0.225
aaI40
aa(lp3762
I1
a(lp3763
F0.5
aaI40
aa(lp3764
I1
a(lp3765
F0.346154
aaI26
aa(lp3766
I1
a(lp3767
F0.404762
aaI42
aa(lp3768
I1
a(lp3769
F0.439024
aaI41
aa(lp3770
I1
a(lp3771
F0.416667
aaI36
aaa(lp3772
g229
ag230
a(lp3773
I1
a(lp3774
F0.333333
aaI45
aaa(lp3775
g232
ag233
a(lp3776
I1
a(lp3777
F0.290323
aaI31
aaa(lp3778
g235
ag236
a(lp3779
I1
a(lp3780
F0.291667
aaI24
aa(lp3781
I1
a(lp3782
F0.2
aaI25
aa(lp3783
I1
a(lp3784
F0.48
aaI50
aa(lp3785
I1
a(lp3786
F0.365385
aaI52
aa(lp3787
I1
a(lp3788
F0.30303
aaI66
aa(lp3789
I1
a(lp3790
F0.308824
aaI68
aa(lp3791
I1
a(lp3792
F0.289474
aaI38
aa(lp3793
I1
a(lp3794
F0.307692
aaI39
aa(lp3795
I1
a(lp3796
F0.459459
aaI37
aa(lp3797
I1
a(lp3798
F0.25
aaI20
aa(lp3799
I1
a(lp3800
F0.272727
aaI44
aa(lp3801
I1
a(lp3802
F0.2
aaI40
aa(lp3803
I1
a(lp3804
F0.2
aaI40
aa(lp3805
I1
a(lp3806
F0.416667
aaI24
aa(lp3807
I1
a(lp3808
F0.25
aaI36
aa(lp3809
I1
a(lp3810
F0.324324
aaI37
aa(lp3811
I1
a(lp3812
F0.342857
aaI35
aa(lp3813
I1
a(lp3814
F0.405405
aaI37
aa(lp3815
I1
a(lp3816
F0.45283
aaI53
aa(lp3817
I1
a(lp3818
F0.609756
aaI41
aa(lp3819
I1
a(lp3820
F0.413793
aaI29
aaa(lp3821
g270
ag271
aa(lp3822
g285
ag286
aa(lp3823
g288
ag289
a(lp3824
I1
a(lp3825
F0.380952
aaI42
aa(lp3826
I1
a(lp3827
F0.25
aaI24
aa(lp3828
I1
a(lp3829
F0.230769
aaI26
aa(lp3830
I1
a(lp3831
F0.2
aaI30
aa(lp3832
I1
a(lp3833
F0.2
aaI30
aa(lp3834
I1
a(lp3835
F0.2
aaI30
aa(lp3836
I1
a(lp3837
F0.2
aaI30
aa(lp3838
I1
a(lp3839
F0.208333
aaI24
aa(lp3840
I1
a(lp3841
F0.456522
aaI46
aaa(lp3842
g341
ag342
aa(lp3843
g350
ag351
a(lp3844
I1
a(lp3845
F0.0
aaI35
aa(lp3846
I1
a(lp3847
F0.21875
aaI32
aa(lp3848
I1
a(lp3849
F0.215686
aaI51
aa(lp3850
I1
a(lp3851
F0.367347
aaI49
aa(lp3852
I1
a(lp3853
F0.257143
aaI35
aa(lp3854
I1
a(lp3855
F0.560976
aaI41
aa(lp3856
I1
a(lp3857
F0.540541
aaI37
aa(lp3858
I1
a(lp3859
F0.236842
aaI38
aa(lp3860
I1
a(lp3861
F0.310345
aaI29
aa(lp3862
I1
a(lp3863
F0.511628
aaI43
aa(lp3864
I1
a(lp3865
F0.456522
aaI46
aa(lp3866
I1
a(lp3867
F0.25
aaI36
aa(lp3868
I1
a(lp3869
F0.5
aaI56
aa(lp3870
I1
a(lp3871
F0.536585
aaI41
aa(lp3872
I1
a(lp3873
F0.513514
aaI37
aa(lp3874
I1
a(lp3875
F0.5
aaI32
aa(lp3876
I1
a(lp3877
F0.433333
aaI30
aaa(lp3878
g373
ag374
aa(lp3879
g402
ag403
a(lp3880
I1
a(lp3881
F0.361111
aaI36
aa(lp3882
I1
a(lp3883
F0.3
aaI30
aa(lp3884
I1
a(lp3885
F0.310345
aaI29
aa(lp3886
I1
a(lp3887
F0.230769
aaI26
aa(lp3888
I1
a(lp3889
F0.290323
aaI31
aa(lp3890
I1
a(lp3891
F0.37931
aaI29
aa(lp3892
I1
a(lp3893
F0.323529
aaI34
aa(lp3894
I1
a(lp3895
F0.30303
aaI33
aa(lp3896
I1
a(lp3897
F0.305556
aaI36
aa(lp3898
I1
a(lp3899
F0.333333
aaI36
aa(lp3900
I1
a(lp3901
F0.37037
aaI27
aa(lp3902
I1
a(lp3903
F0.346154
aaI26
aa(lp3904
I1
a(lp3905
F0.560606
aaI66
aaa(lp3906
g463
ag464
a(lp3907
I1
a(lp3908
F0.472222
aaI36
aa(lp3909
I1
a(lp3910
F0.4
aaI35
aa(lp3911
I1
a(lp3912
F0.325581
aaI43
aaa(lp3913
g466
ag467
a(lp3914
I1
a(lp3915
F0.382353
aaI34
aaa(lp3916
g481
ag482
aa(lp3917
g490
ag491
aa(lp3918
g493
ag494
a(lp3919
I1
a(lp3920
F0.55
aaI60
aa(lp3921
I1
a(lp3922
F0.393939
aaI33
aa(lp3923
I1
a(lp3924
F0.527778
aaI36
aaa(lp3925
g500
ag501
a(lp3926
I1
a(lp3927
F0.206897
aaI29
aaa(lp3928
g503
ag504
aa(lp3929
g510
ag511
aa(lp3930
g513
ag514
aa(lp3931
g522
ag523
a(lp3932
I1
a(lp3933
F0.508772
aaI57
aaa(lp3934
g533
ag534
a(lp3935
I1
a(lp3936
F0.428571
aaI42
aa(lp3937
I1
a(lp3938
F0.511111
aaI45
aa(lp3939
I1
a(lp3940
F0.6
aaI30
aa(lp3941
I1
a(lp3942
F0.529412
aaI34
aa(lp3943
I1
a(lp3944
F0.428571
aaI42
aa(lp3945
I1
a(lp3946
F0.56
aaI50
aa(lp3947
I1
a(lp3948
F0.410256
aaI39
aa(lp3949
I1
a(lp3950
F0.487179
aaI39
aa(lp3951
I1
a(lp3952
F0.26087
aaI23
aaa(lp3953
g542
ag543
aa(lp3954
g549
ag550
aa(lp3955
g552
ag553
aa(lp3956
g555
ag556
a(lp3957
I1
a(lp3958
F0.3125
aaI64
aa(lp3959
I1
a(lp3960
F0.3
aaI60
aa(lp3961
I1
a(lp3962
F0.5
aaI52
aa(lp3963
I1
a(lp3964
F0.452381
aaI42
aa(lp3965
I1
a(lp3966
F0.446809
aaI47
aa(lp3967
I1
a(lp3968
F0.363636
aaI33
aa(lp3969
I1
a(lp3970
F0.2
aaI20
aa(lp3971
I1
a(lp3972
F0.255319
aaI47
aa(lp3973
I1
a(lp3974
F0.380952
aaI42
aa(lp3975
I1
a(lp3976
F0.421053
aaI38
aaa(lp3977
g568
ag569
aa(lp3978
g571
ag572
aa(lp3979
g580
ag581
a(lp3980
I1
a(lp3981
F0.529412
aaI34
aa(lp3982
I1
a(lp3983
F0.380952
aaI21
aa(lp3984
I1
a(lp3985
F0.384615
aaI39
aa(lp3986
I1
a(lp3987
F0.258065
aaI31
aa(lp3988
I1
a(lp3989
F0.25
aaI32
aa(lp3990
I1
a(lp3991
F0.228571
aaI35
aa(lp3992
I1
a(lp3993
F0.243243
aaI37
aa(lp3994
I1
a(lp3995
F0.439024
aaI41
aa(lp3996
I1
a(lp3997
F0.21875
aaI32
aa(lp3998
I1
a(lp3999
F0.297297
aaI37
aa(lp4000
I1
a(lp4001
F0.32
aaI25
aa(lp4002
I1
a(lp4003
F0.315789
aaI38
aa(lp4004
I1
a(lp4005
F0.516129
aaI31
aa(lp4006
I1
a(lp4007
F0.310345
aaI29
aa(lp4008
I1
a(lp4009
F0.259259
aaI27
aa(lp4010
I1
a(lp4011
F0.235294
aaI17
aa(lp4012
I1
a(lp4013
F0.222222
aaI18
aa(lp4014
I1
a(lp4015
F0.235294
aaI17
aa(lp4016
I1
a(lp4017
F0.210526
aaI19
aa(lp4018
I1
a(lp4019
F0.25
aaI32
aaa(lp4020
g589
ag590
a(lp4021
I1
a(lp4022
F0.509804
aaI51
aa(lp4023
I1
a(lp4024
F0.396226
aaI53
aa(lp4025
I1
a(lp4026
F0.461538
aaI52
aa(lp4027
I1
a(lp4028
F0.5
aaI54
aa(lp4029
I1
a(lp4030
F0.35
aaI40
aaa(lp4031
g614
ag615
a(lp4032
I1
a(lp4033
F0.326531
aaI49
aa(lp4034
I1
a(lp4035
F0.340909
aaI44
aa(lp4036
I1
a(lp4037
F0.30303
aaI33
aa(lp4038
I1
a(lp4039
F0.433333
aaI30
aa(lp4040
I1
a(lp4041
F0.466667
aaI30
aa(lp4042
I1
a(lp4043
F0.566667
aaI30
aa(lp4044
I1
a(lp4045
F0.311111
aaI45
aa(lp4046
I1
a(lp4047
F0.432432
aaI37
aa(lp4048
I1
a(lp4049
F0.424242
aaI33
aa(lp4050
I1
a(lp4051
F0.414634
aaI41
aa(lp4052
I1
a(lp4053
F0.375
aaI32
aa(lp4054
I1
a(lp4055
F0.235294
aaI34
aa(lp4056
I1
a(lp4057
F0.47619
aaI21
aa(lp4058
I1
a(lp4059
F0.387097
aaI31
aa(lp4060
I1
a(lp4061
F0.37931
aaI29
aa(lp4062
I1
a(lp4063
F0.25
aaI24
aa(lp4064
I1
a(lp4065
F0.24
aaI25
aa(lp4066
I1
a(lp4067
F0.222222
aaI27
aa(lp4068
I1
a(lp4069
F0.365854
aaI41
aa(lp4070
I1
a(lp4071
F0.486486
aaI37
aa(lp4072
I1
a(lp4073
F0.44186
aaI43
aa(lp4074
I1
a(lp4075
F0.263158
aaI38
aaa(lp4076
g617
ag618
aa(lp4077
g628
ag629
a(lp4078
I1
a(lp4079
F0.32
aaI25
aa(lp4080
I1
a(lp4081
F0.307692
aaI26
aaa(lp4082
g661
ag662
a(lp4083
I1
a(lp4084
F0.707071
aaI99
aa(lp4085
I1
a(lp4086
F0.387097
aaI31
aa(lp4087
I1
a(lp4088
F0.433333
aaI30
aa(lp4089
I1
a(lp4090
F0.333333
aaI33
aa(lp4091
I1
a(lp4092
F0.3
aaI20
aa(lp4093
I1
a(lp4094
F0.2
aaI20
aa(lp4095
I1
a(lp4096
F0.235294
aaI17
aa(lp4097
I1
a(lp4098
F0.222222
aaI18
aa(lp4099
I1
a(lp4100
F0.259259
aaI27
aaa(lp4101
g688
ag689
a(lp4102
I1
a(lp4103
F0.220588
aaI68
aaa(lp4104
g697
ag698
a(lp4105
I1
a(lp4106
F0.52381
aaI42
aa(lp4107
I1
a(lp4108
F0.288889
aaI45
aaa(lp4109
g700
ag701
a(lp4110
I1
a(lp4111
F0.230769
aaI39
aa(lp4112
I1
a(lp4113
F0.272727
aaI22
aa(lp4114
I1
a(lp4115
F0.296296
aaI27
aa(lp4116
I1
a(lp4117
F0.418605
aaI43
aa(lp4118
I1
a(lp4119
F0.410256
aaI39
aa(lp4120
I1
a(lp4121
F0.25
aaI32
aa(lp4122
I1
a(lp4123
F0.263158
aaI38
aaa(lp4124
g703
ag704
a(lp4125
I1
a(lp4126
F0.431034
aaI58
aa(lp4127
I1
a(lp4128
F0.212121
aaI33
aaa(lp4129
g706
ag707
aa(lp4130
g715
ag716
aa(lp4131
g724
ag725
aa(lp4132
g727
ag728
aa(lp4133
g732
ag733
a(lp4134
I1
a(lp4135
F0.290323
aaI31
aa(lp4136
I1
a(lp4137
F0.285714
aaI28
aa(lp4138
I1
a(lp4139
F0.307692
aaI39
aa(lp4140
I1
a(lp4141
F0.22807
aaI57
aa(lp4142
I1
a(lp4143
F0.528302
aaI53
aa(lp4144
I1
a(lp4145
F0.375
aaI56
aaa(lp4146
g765
ag766
a(lp4147
I1
a(lp4148
F0.272727
aaI22
aa(lp4149
I1
a(lp4150
F0.65
aaI40
aa(lp4151
I1
a(lp4152
F0.589744
aaI39
aa(lp4153
I1
a(lp4154
F0.589744
aaI39
aa(lp4155
I1
a(lp4156
F0.548387
aaI31
aa(lp4157
I1
a(lp4158
F0.214286
aaI28
aaa(lp4159
g786
ag787
a(lp4160
I1
a(lp4161
F0.264706
aaI34
aa(lp4162
I1
a(lp4163
F0.416667
aaI60
aa(lp4164
I1
a(lp4165
F0.421053
aaI57
aa(lp4166
I1
a(lp4167
F0.404255
aaI47
aa(lp4168
I1
a(lp4169
F0.44186
aaI43
aaa(lp4170
g789
ag790
aa(lp4171
g792
ag793
a(lp4172
I1
a(lp4173
F0.357143
aaI28
aa(lp4174
I1
a(lp4175
F0.40625
aaI32
aa(lp4176
I1
a(lp4177
F0.394737
aaI38
aa(lp4178
I1
a(lp4179
F0.390244
aaI41
aa(lp4180
I1
a(lp4181
F0.4
aaI40
aa(lp4182
I1
a(lp4183
F0.333333
aaI39
aa(lp4184
I1
a(lp4185
F0.27907
aaI43
aaa(lp4186
g805
ag806
a(lp4187
I1
a(lp4188
F0.209302
aaI43
aaa(lp4189
g808
ag809
aa(lp4190
g811
ag812
a(lp4191
I1
a(lp4192
F0.54902
aaI51
aa(lp4193
I1
a(lp4194
F0.510204
aaI49
aa(lp4195
I1
a(lp4196
F0.511111
aaI45
aaa(lp4197
g814
ag815
aa(lp4198
g817
ag818
aa(lp4199
g830
ag831
aa(lp4200
g841
ag842
aa(lp4201
g844
ag845
a(lp4202
I1
a(lp4203
F0.34
aaI50
aa(lp4204
I1
a(lp4205
F0.536585
aaI41
aa(lp4206
I1
a(lp4207
F0.25
aaI32
aa(lp4208
I1
a(lp4209
F0.382979
aaI47
aa(lp4210
I1
a(lp4211
F0.394737
aaI38
aa(lp4212
I1
a(lp4213
F0.428571
aaI42
aa(lp4214
I1
a(lp4215
F0.363636
aaI33
aa(lp4216
I1
a(lp4217
F0.465116
aaI43
aa(lp4218
I1
a(lp4219
F0.457143
aaI35
aa(lp4220
I1
a(lp4221
F0.470588
aaI34
aa(lp4222
I1
a(lp4223
F0.560976
aaI41
aa(lp4224
I1
a(lp4225
F0.518519
aaI27
aa(lp4226
I1
a(lp4227
F0.481481
aaI27
aa(lp4228
I1
a(lp4229
F0.347826
aaI23
aa(lp4230
I1
a(lp4231
F0.315789
aaI19
aa(lp4232
I1
a(lp4233
F0.230769
aaI13
aaa(lp4234
g847
ag848
a(lp4235
I1
a(lp4236
F0.5
aaI48
aa(lp4237
I1
a(lp4238
F0.435897
aaI39
aa(lp4239
I1
a(lp4240
F0.206897
aaI29
aa(lp4241
I1
a(lp4242
F0.225
aaI40
aa(lp4243
I1
a(lp4244
F0.2
aaI40
aa(lp4245
I1
a(lp4246
F0.534884
aaI43
aa(lp4247
I1
a(lp4248
F0.411765
aaI51
aaa(lp4249
g874
ag875
a(lp4250
I1
a(lp4251
F0.352941
aaI34
aa(lp4252
I1
a(lp4253
F0.371429
aaI35
aaa(lp4254
g883
ag884
a(lp4255
I1
a(lp4256
F0.214286
aaI28
aa(lp4257
I1
a(lp4258
F0.419355
aaI31
aa(lp4259
I1
a(lp4260
F0.451613
aaI31
aa(lp4261
I1
a(lp4262
F0.483871
aaI31
aa(lp4263
I1
a(lp4264
F0.290323
aaI31
aa(lp4265
I1
a(lp4266
F0.272727
aaI33
aa(lp4267
I1
a(lp4268
F0.214286
aaI28
aa(lp4269
I1
a(lp4270
F0.457143
aaI35
aa(lp4271
I1
a(lp4272
F0.548387
aaI31
aa(lp4273
I1
a(lp4274
F0.446809
aaI47
aa(lp4275
I1
a(lp4276
F0.26087
aaI23
aa(lp4277
I1
a(lp4278
F0.346154
aaI26
aa(lp4279
I1
a(lp4280
F0.214286
aaI28
aa(lp4281
I1
a(lp4282
F0.333333
aaI48
aa(lp4283
I1
a(lp4284
F0.348837
aaI43
aa(lp4285
I1
a(lp4286
F0.428571
aaI28
aa(lp4287
I1
a(lp4288
F0.375
aaI32
aa(lp4289
I1
a(lp4290
F0.296296
aaI27
aa(lp4291
I1
a(lp4292
F0.357143
aaI28
aa(lp4293
I1
a(lp4294
F0.393939
aaI33
aa(lp4295
I1
a(lp4296
F0.296296
aaI27
aa(lp4297
I1
a(lp4298
F0.290323
aaI31
aa(lp4299
I1
a(lp4300
F0.603774
aaI53
aa(lp4301
I1
a(lp4302
F0.277778
aaI36
aa(lp4303
I1
a(lp4304
F0.315789
aaI38
aa(lp4305
I1
a(lp4306
F0.487179
aaI39
aa(lp4307
I1
a(lp4308
F0.40625
aaI32
aa(lp4309
I1
a(lp4310
F0.363636
aaI33
aa(lp4311
I1
a(lp4312
F0.294118
aaI34
aa(lp4313
I1
a(lp4314
F0.25
aaI36
aa(lp4315
I1
a(lp4316
F0.235294
aaI34
aa(lp4317
I1
a(lp4318
F0.225806
aaI31
aa(lp4319
I1
a(lp4320
F0.289474
aaI38
aa(lp4321
I1
a(lp4322
F0.2
aaI35
aa(lp4323
I1
a(lp4324
F0.228571
aaI35
aa(lp4325
I1
a(lp4326
F0.27027
aaI37
aa(lp4327
I1
a(lp4328
F0.333333
aaI42
aa(lp4329
I1
a(lp4330
F0.348837
aaI43
aa(lp4331
I1
a(lp4332
F0.395349
aaI43
aaa(lp4333
g912
ag913
a(lp4334
I1
a(lp4335
F0.368421
aaI38
aa(lp4336
I1
a(lp4337
F0.324324
aaI37
aa(lp4338
I1
a(lp4339
F0.454545
aaI55
aa(lp4340
I1
a(lp4341
F0.348837
aaI43
aa(lp4342
I1
a(lp4343
F0.311111
aaI45
aa(lp4344
I1
a(lp4345
F0.4
aaI30
aa(lp4346
I1
a(lp4347
F0.518519
aaI27
aa(lp4348
I1
a(lp4349
F0.292683
aaI41
aa(lp4350
I1
a(lp4351
F0.219512
aaI41
aa(lp4352
I1
a(lp4353
F0.477273
aaI44
aa(lp4354
I1
a(lp4355
F0.434783
aaI46
aa(lp4356
I1
a(lp4357
F0.467742
aaI62
aaa(lp4358
g921
ag922
a(lp4359
I1
a(lp4360
F0.4
aaI50
aa(lp4361
I1
a(lp4362
F0.219512
aaI41
aa(lp4363
I1
a(lp4364
F0.205882
aaI34
aa(lp4365
I1
a(lp4366
F0.225806
aaI31
aa(lp4367
I1
a(lp4368
F0.25
aaI28
aaa(lp4369
g954
ag955
aa(lp4370
g957
ag958
a(lp4371
I1
a(lp4372
F0.454545
aaI33
aa(lp4373
I1
a(lp4374
F0.372549
aaI51
aa(lp4375
I1
a(lp4376
F0.309524
aaI42
aa(lp4377
I1
a(lp4378
F0.463768
aaI69
aa(lp4379
I1
a(lp4380
F0.290323
aaI31
aa(lp4381
I1
a(lp4382
F0.242424
aaI33
aa(lp4383
I1
a(lp4384
F0.323529
aaI34
aaa(lp4385
g960
ag961
aa(lp4386
g963
ag964
a(lp4387
I1
a(lp4388
F0.323529
aaI34
aaa(lp4389
g970
ag971
a(lp4390
I1
a(lp4391
F0.395349
aaI43
aa(lp4392
I1
a(lp4393
F0.37931
aaI29
aa(lp4394
I1
a(lp4395
F0.421053
aaI38
aa(lp4396
I1
a(lp4397
F0.296296
aaI27
aa(lp4398
I1
a(lp4399
F0.366667
aaI30
aa(lp4400
I1
a(lp4401
F0.811966
aaI117
aa(lp4402
I1
a(lp4403
F0.277778
aaI18
aa(lp4404
I1
a(lp4405
F0.238095
aaI21
aa(lp4406
I1
a(lp4407
F0.395833
aaI48
aa(lp4408
I1
a(lp4409
F0.326923
aaI52
aa(lp4410
I1
a(lp4411
F0.545455
aaI55
aa(lp4412
I1
a(lp4413
F0.216216
aaI37
aa(lp4414
I1
a(lp4415
F0.404762
aaI42
aa(lp4416
I1
a(lp4417
F0.24
aaI25
aa(lp4418
I1
a(lp4419
F0.296296
aaI27
aa(lp4420
I1
a(lp4421
F0.375
aaI24
aa(lp4422
I1
a(lp4423
F0.5
aaI38
aaa(lp4424
g1003
ag1004
a(lp4425
I1
a(lp4426
F0.54
aaI50
aa(lp4427
I1
a(lp4428
F0.596154
aaI52
aaa(lp4429
g1006
ag1007
aa(lp4430
g1009
ag1010
a(lp4431
I1
a(lp4432
F0.328767
aaI73
aa(lp4433
I1
a(lp4434
F0.276316
aaI76
aa(lp4435
I1
a(lp4436
F0.320513
aaI78
aa(lp4437
I1
a(lp4438
F0.459459
aaI37
aa(lp4439
I1
a(lp4440
F0.236842
aaI38
aa(lp4441
I1
a(lp4442
F0.268293
aaI41
aa(lp4443
I1
a(lp4444
F0.307692
aaI39
aa(lp4445
I1
a(lp4446
F0.282609
aaI46
aa(lp4447
I1
a(lp4448
F0.309524
aaI42
aa(lp4449
I1
a(lp4450
F0.236842
aaI38
aa(lp4451
I1
a(lp4452
F0.285714
aaI35
aaa(lp4453
g1014
ag1015
a(lp4454
I1
a(lp4455
F0.484848
aaI33
aa(lp4456
I1
a(lp4457
F0.409091
aaI44
aa(lp4458
I1
a(lp4459
F0.309524
aaI42
aa(lp4460
I1
a(lp4461
F0.297297
aaI37
aa(lp4462
I1
a(lp4463
F0.26087
aaI46
aa(lp4464
I1
a(lp4465
F0.363636
aaI33
aa(lp4466
I1
a(lp4467
F0.5
aaI34
aa(lp4468
I1
a(lp4469
F0.285714
aaI21
aaa(lp4470
g1019
ag1020
aa(lp4471
g1026
ag1027
aa(lp4472
g1035
ag1036
aa(lp4473
g1040
ag1041
aa(lp4474
g1043
ag1044
a(lp4475
I1
a(lp4476
F0.413793
aaI29
aa(lp4477
I1
a(lp4478
F0.325581
aaI43
aa(lp4479
I1
a(lp4480
F0.489362
aaI47
aa(lp4481
I1
a(lp4482
F0.392857
aaI28
aa(lp4483
I1
a(lp4484
F0.32
aaI25
aaa(lp4485
g1048
ag1049
a(lp4486
I1
a(lp4487
F0.269231
aaI26
aaa(lp4488
g1051
ag1052
a(lp4489
I1
a(lp4490
F0.365854
aaI41
aa(lp4491
I1
a(lp4492
F0.48
aaI25
aa(lp4493
I1
a(lp4494
F0.442308
aaI104
aa(lp4495
I1
a(lp4496
F0.657143
aaI105
aaa(lp4497
g1056
ag1057
aa(lp4498
g1059
ag1060
a(lp4499
I1
a(lp4500
F0.324324
aaI37
aa(lp4501
I1
a(lp4502
F0.2
aaI40
aa(lp4503
I1
a(lp4504
F0.375
aaI40
aa(lp4505
I1
a(lp4506
F0.488372
aaI43
aaa(lp4507
g1096
ag1097
a(lp4508
I1
a(lp4509
F0.25
aaI32
aa(lp4510
I1
a(lp4511
F0.272727
aaI33
aa(lp4512
I1
a(lp4513
F0.351351
aaI37
aaa(lp4514
g1099
ag1100
a(lp4515
I1
a(lp4516
F0.296296
aaI27
aa(lp4517
I1
a(lp4518
F0.25
aaI24
aa(lp4519
I1
a(lp4520
F0.259259
aaI27
aa(lp4521
I1
a(lp4522
F0.25
aaI28
aa(lp4523
I1
a(lp4524
F0.259259
aaI27
aa(lp4525
I1
a(lp4526
F0.222222
aaI27
aa(lp4527
I1
a(lp4528
F0.296296
aaI27
aa(lp4529
I1
a(lp4530
F0.314286
aaI35
aa(lp4531
I1
a(lp4532
F0.351351
aaI37
aa(lp4533
I1
a(lp4534
F0.341463
aaI41
aa(lp4535
I1
a(lp4536
F0.288136
aaI59
aa(lp4537
I1
a(lp4538
F0.344828
aaI58
aa(lp4539
I1
a(lp4540
F0.212121
aaI33
aaa(lp4541
g1140
ag1141
a(lp4542
I1
a(lp4543
F0.380952
aaI42
aa(lp4544
I1
a(lp4545
F0.517241
aaI29
aa(lp4546
I1
a(lp4547
F0.664286
aaI140
aaa(lp4548
g1285
ag1286
aa(lp4549
g1288
ag1289
aa(lp4550
g1291
ag1292
aa(lp4551
g1294
ag1295
aa(lp4552
g1299
ag1300
aa(lp4553
g1302
ag1303
a(lp4554
I1
a(lp4555
F0.537037
aaI54
aaa(lp4556
g1305
ag1306
a(lp4557
I1
a(lp4558
F0.305085
aaI59
aa(lp4559
I1
a(lp4560
F0.315789
aaI57
aa(lp4561
I1
a(lp4562
F0.383562
aaI73
aaa(lp4563
g1348
ag1349
a(lp4564
I1
a(lp4565
F0.212766
aaI47
aa(lp4566
I1
a(lp4567
F0.342857
aaI35
aa(lp4568
I1
a(lp4569
F0.317073
aaI41
aa(lp4570
I1
a(lp4571
F0.285714
aaI28
aa(lp4572
I1
a(lp4573
F0.294118
aaI17
aa(lp4574
I1
a(lp4575
F0.294118
aaI17
aa(lp4576
I1
a(lp4577
F0.387755
aaI49
aa(lp4578
I1
a(lp4579
F0.277778
aaI36
aa(lp4580
I1
a(lp4581
F0.3
aaI40
aa(lp4582
I1
a(lp4583
F0.266667
aaI30
aa(lp4584
I1
a(lp4585
F0.242424
aaI33
aa(lp4586
I1
a(lp4587
F0.264706
aaI34
aa(lp4588
I1
a(lp4589
F0.228571
aaI35
aa(lp4590
I1
a(lp4591
F0.214286
aaI28
aa(lp4592
I1
a(lp4593
F0.206897
aaI29
aa(lp4594
I1
a(lp4595
F0.242424
aaI33
aa(lp4596
I1
a(lp4597
F0.242424
aaI33
aaa(lp4598
g1351
ag1352
aa(lp4599
g1354
ag1355
a(lp4600
I1
a(lp4601
F0.243243
aaI37
aa(lp4602
I1
a(lp4603
F0.46875
aaI32
aa(lp4604
I1
a(lp4605
F0.527778
aaI36
aa(lp4606
I1
a(lp4607
F0.2
aaI40
aa(lp4608
I1
a(lp4609
F0.431373
aaI51
aaa(lp4610
g1361
ag1362
a(lp4611
I1
a(lp4612
F0.662162
aaI74
aaa(lp4613
g1364
ag1365
aa(lp4614
g1367
ag1368
aa(lp4615
g1370
ag1371
a(lp4616
I1
a(lp4617
F0.5
aaI40
aa(lp4618
I1
a(lp4619
F0.369565
aaI46
aa(lp4620
I1
a(lp4621
F0.342857
aaI35
aa(lp4622
I1
a(lp4623
F0.526316
aaI38
aa(lp4624
I1
a(lp4625
F0.473684
aaI38
aa(lp4626
I1
a(lp4627
F0.416667
aaI36
aa(lp4628
I1
a(lp4629
F0.275862
aaI29
aa(lp4630
I1
a(lp4631
F0.230769
aaI26
aa(lp4632
I1
a(lp4633
F0.25
aaI28
aa(lp4634
I1
a(lp4635
F0.425532
aaI47
aa(lp4636
I1
a(lp4637
F0.333333
aaI30
aa(lp4638
I1
a(lp4639
F0.333333
aaI42
aa(lp4640
I1
a(lp4641
F0.484848
aaI33
aa(lp4642
I1
a(lp4643
F0.428571
aaI49
aa(lp4644
I1
a(lp4645
F0.40625
aaI32
aa(lp4646
I1
a(lp4647
F0.4
aaI35
aa(lp4648
I1
a(lp4649
F0.206897
aaI29
aa(lp4650
I1
a(lp4651
F0.380952
aaI42
aaa(lp4652
g1387
ag1388
aa(lp4653
g1390
ag1391
aa(lp4654
g1393
ag1394
aa(lp4655
g1398
ag1399
aa(lp4656
g1401
ag1402
a(lp4657
I1
a(lp4658
F0.424242
aaI33
aa(lp4659
I1
a(lp4660
F0.403846
aaI52
aa(lp4661
I1
a(lp4662
F0.390244
aaI41
aa(lp4663
I1
a(lp4664
F0.2
aaI50
aaa(lp4665
g1404
ag1405
a(lp4666
I1
a(lp4667
F0.485714
aaI35
aa(lp4668
I1
a(lp4669
F0.512195
aaI41
aaa(lp4670
g1417
ag1418
aa(lp4671
g1432
ag1433
a(lp4672
I1
a(lp4673
F0.227273
aaI22
aa(lp4674
I1
a(lp4675
F0.428571
aaI35
aa(lp4676
I1
a(lp4677
F0.217391
aaI23
aa(lp4678
I1
a(lp4679
F0.209302
aaI43
aa(lp4680
I1
a(lp4681
F0.294118
aaI51
aa(lp4682
I1
a(lp4683
F0.387097
aaI31
aa(lp4684
I1
a(lp4685
F0.432432
aaI37
aa(lp4686
I1
a(lp4687
F0.474227
aaI97
aa(lp4688
I1
a(lp4689
F0.487179
aaI78
aa(lp4690
I1
a(lp4691
F0.243902
aaI82
aa(lp4692
I1
a(lp4693
F0.455882
aaI68
aaa(lp4694
g1435
ag1436
aa(lp4695
g1462
ag1463
aa(lp4696
g1465
ag1466
aa(lp4697
g1468
ag1469
a(lp4698
I1
a(lp4699
F0.295455
aaI44
aa(lp4700
I1
a(lp4701
F0.314286
aaI35
aa(lp4702
I1
a(lp4703
F0.434783
aaI46
aa(lp4704
I1
a(lp4705
F0.511628
aaI43
aaa(lp4706
g1471
ag1472
a(lp4707
I1
a(lp4708
F0.42
aaI50
aaa(lp4709
g1484
ag1485
aa(lp4710
g1497
ag1498
aa(lp4711
g1500
ag1501
aa(lp4712
g1513
ag1514
aa(lp4713
g1516
ag1517
a(lp4714
I1
a(lp4715
F0.392857
aaI28
aa(lp4716
I1
a(lp4717
F0.37037
aaI27
aa(lp4718
I1
a(lp4719
F0.513514
aaI37
aa(lp4720
I1
a(lp4721
F0.444444
aaI45
aa(lp4722
I1
a(lp4723
F0.538462
aaI39
aa(lp4724
I1
a(lp4725
F0.384615
aaI52
aa(lp4726
I1
a(lp4727
F0.295455
aaI44
aa(lp4728
I1
a(lp4729
F0.285714
aaI28
aa(lp4730
I1
a(lp4731
F0.553191
aaI47
aa(lp4732
I1
a(lp4733
F0.390244
aaI41
aa(lp4734
I1
a(lp4735
F0.4
aaI35
aa(lp4736
I1
a(lp4737
F0.212121
aaI33
aa(lp4738
I1
a(lp4739
F0.2
aaI35
aa(lp4740
I1
a(lp4741
F0.228571
aaI35
aa(lp4742
I1
a(lp4743
F0.243243
aaI37
aa(lp4744
I1
a(lp4745
F0.395349
aaI43
aaa(lp4746
g1519
ag1520
a(lp4747
I1
a(lp4748
F0.244444
aaI45
aa(lp4749
I1
a(lp4750
F0.282609
aaI46
aa(lp4751
I1
a(lp4752
F0.2
aaI40
aa(lp4753
I1
a(lp4754
F0.222222
aaI27
aaa(lp4755
g1522
ag1523
aa(lp4756
g1525
ag1526
a(lp4757
I1
a(lp4758
F0.310345
aaI29
aaa(lp4759
g1528
ag1529
a(lp4760
I1
a(lp4761
F0.0
aaI9
aa(lp4762
I1
a(lp4763
F0.236842
aaI38
aa(lp4764
I1
a(lp4765
F0.205128
aaI39
aa(lp4766
I1
a(lp4767
F0.394737
aaI38
aa(lp4768
I1
a(lp4769
F0.285714
aaI49
aa(lp4770
I1
a(lp4771
F0.326531
aaI49
aa(lp4772
I1
a(lp4773
F0.431818
aaI44
aa(lp4774
I1
a(lp4775
F0.365854
aaI41
aa(lp4776
I1
a(lp4777
F0.361111
aaI36
aa(lp4778
I1
a(lp4779
F0.375
aaI48
aa(lp4780
I1
a(lp4781
F0.396226
aaI53
aa(lp4782
I1
a(lp4783
F0.243243
aaI37
aa(lp4784
I1
a(lp4785
F0.297297
aaI37
aa(lp4786
I1
a(lp4787
F0.285714
aaI35
aa(lp4788
I1
a(lp4789
F0.428571
aaI42
aa(lp4790
I1
a(lp4791
F0.352941
aaI34
aa(lp4792
I1
a(lp4793
F0.465116
aaI43
aa(lp4794
I1
a(lp4795
F0.422222
aaI45
aa(lp4796
I1
a(lp4797
F0.468085
aaI47
aa(lp4798
I1
a(lp4799
F0.456522
aaI46
aaa(lp4800
g1553
ag1554
aa(lp4801
g1556
ag1557
a(lp4802
I1
a(lp4803
F0.487179
aaI39
aa(lp4804
I1
a(lp4805
F0.225
aaI40
aa(lp4806
I1
a(lp4807
F0.354839
aaI31
aa(lp4808
I1
a(lp4809
F0.357143
aaI28
aa(lp4810
I1
a(lp4811
F0.366667
aaI30
aa(lp4812
I1
a(lp4813
F0.405405
aaI37
aa(lp4814
I1
a(lp4815
F0.5
aaI40
aa(lp4816
I1
a(lp4817
F0.2
aaI25
aa(lp4818
I1
a(lp4819
F0.208333
aaI24
aa(lp4820
I1
a(lp4821
F0.264706
aaI34
aa(lp4822
I1
a(lp4823
F0.305556
aaI36
aa(lp4824
I1
a(lp4825
F0.363636
aaI33
aa(lp4826
I1
a(lp4827
F0.358974
aaI39
aaa(lp4828
g1559
ag1560
a(lp4829
I1
a(lp4830
F0.291667
aaI24
aa(lp4831
I1
a(lp4832
F0.407407
aaI27
aa(lp4833
I1
a(lp4834
F0.517241
aaI29
aa(lp4835
I1
a(lp4836
F0.358974
aaI39
aa(lp4837
I1
a(lp4838
F0.35
aaI40
aa(lp4839
I1
a(lp4840
F0.576923
aaI26
aa(lp4841
I1
a(lp4842
F0.5
aaI50
aa(lp4843
I1
a(lp4844
F0.344828
aaI29
aa(lp4845
I1
a(lp4846
F0.321429
aaI28
aaa(lp4847
g1574
ag1575
a(lp4848
I1
a(lp4849
F0.517857
aaI56
aa(lp4850
I1
a(lp4851
F0.309524
aaI42
aa(lp4852
I1
a(lp4853
F0.571429
aaI56
aa(lp4854
I1
a(lp4855
F0.214286
aaI56
aa(lp4856
I1
a(lp4857
F0.409836
aaI61
aa(lp4858
I1
a(lp4859
F0.617021
aaI47
aaa(lp4860
g1589
ag1590
aa(lp4861
g1592
ag1593
a(lp4862
I1
a(lp4863
F0.384615
aaI52
aa(lp4864
I1
a(lp4865
F0.588235
aaI34
aa(lp4866
I1
a(lp4867
F0.428571
aaI28
aa(lp4868
I1
a(lp4869
F0.441176
aaI34
aa(lp4870
I1
a(lp4871
F0.333333
aaI33
aaa(lp4872
g1599
ag1600
a(lp4873
I1
a(lp4874
F0.557692
aaI52
aa(lp4875
I1
a(lp4876
F0.6
aaI55
aa(lp4877
I1
a(lp4878
F0.484848
aaI33
aa(lp4879
I1
a(lp4880
F0.323529
aaI34
aa(lp4881
I1
a(lp4882
F0.290323
aaI31
aa(lp4883
I1
a(lp4884
F0.339286
aaI56
aa(lp4885
I1
a(lp4886
F0.323529
aaI34
aa(lp4887
I1
a(lp4888
F0.257143
aaI35
aa(lp4889
I1
a(lp4890
F0.365854
aaI41
aa(lp4891
I1
a(lp4892
F0.225806
aaI31
aa(lp4893
I1
a(lp4894
F0.5
aaI36
aa(lp4895
I1
a(lp4896
F0.483871
aaI31
aa(lp4897
I1
a(lp4898
F0.511111
aaI45
aa(lp4899
I1
a(lp4900
F0.321429
aaI28
aa(lp4901
I1
a(lp4902
F0.205128
aaI39
aa(lp4903
I1
a(lp4904
F0.375
aaI40
aa(lp4905
I1
a(lp4906
F0.466667
aaI30
aa(lp4907
I1
a(lp4908
F0.483871
aaI31
aa(lp4909
I1
a(lp4910
F0.48
aaI25
aa(lp4911
I1
a(lp4912
F0.481481
aaI27
aa(lp4913
I1
a(lp4914
F0.0
aaI26
aa(lp4915
I1
a(lp4916
F0.0
aaI23
aa(lp4917
I1
a(lp4918
F0.0
aaI24
aa(lp4919
I1
a(lp4920
F0.0
aaI35
aa(lp4921
I1
a(lp4922
F0.432432
aaI37
aa(lp4923
I1
a(lp4924
F0.487179
aaI39
aa(lp4925
I1
a(lp4926
F0.477273
aaI44
aa(lp4927
I1
a(lp4928
F0.454545
aaI44
aa(lp4929
I1
a(lp4930
F0.489362
aaI47
aa(lp4931
I1
a(lp4932
F0.3125
aaI32
aa(lp4933
I1
a(lp4934
F0.346154
aaI26
aa(lp4935
I1
a(lp4936
F0.357143
aaI28
aa(lp4937
I1
a(lp4938
F0.333333
aaI27
aa(lp4939
I1
a(lp4940
F0.363636
aaI33
aa(lp4941
I1
a(lp4942
F0.346154
aaI26
aa(lp4943
I1
a(lp4944
F0.272727
aaI33
aaa(lp4945
g1674
ag1675
aa(lp4946
g1713
ag1714
a(lp4947
I1
a(lp4948
F0.53125
aaI32
aa(lp4949
I1
a(lp4950
F0.285714
aaI21
aa(lp4951
I1
a(lp4952
F0.205882
aaI34
aa(lp4953
I1
a(lp4954
F0.212121
aaI33
aa(lp4955
I1
a(lp4956
F0.272727
aaI33
aa(lp4957
I1
a(lp4958
F0.333333
aaI30
aa(lp4959
I1
a(lp4960
F0.217391
aaI23
aa(lp4961
I1
a(lp4962
F0.322581
aaI31
aa(lp4963
I1
a(lp4964
F0.5
aaI38
aaa(lp4965
g1716
ag1717
a(lp4966
I1
a(lp4967
F0.511628
aaI43
aa(lp4968
I1
a(lp4969
F0.241379
aaI29
aa(lp4970
I1
a(lp4971
F0.352941
aaI34
aa(lp4972
I1
a(lp4973
F0.416667
aaI36
aa(lp4974
I1
a(lp4975
F0.228571
aaI35
aa(lp4976
I1
a(lp4977
F0.243243
aaI37
aa(lp4978
I1
a(lp4979
F0.257143
aaI35
aa(lp4980
I1
a(lp4981
F0.216216
aaI37
aa(lp4982
I1
a(lp4983
F0.413793
aaI29
aa(lp4984
I1
a(lp4985
F0.296296
aaI27
aa(lp4986
I1
a(lp4987
F0.2
aaI30
aa(lp4988
I1
a(lp4989
F0.411765
aaI34
aa(lp4990
I1
a(lp4991
F0.428571
aaI35
aa(lp4992
I1
a(lp4993
F0.333333
aaI42
aaa(lp4994
g1743
ag1744
aa(lp4995
g1746
ag1747
aa(lp4996
g1749
ag1750
aa(lp4997
g1752
ag1753
a(lp4998
I1
a(lp4999
F0.357143
aaI42
aa(lp5000
I1
a(lp5001
F0.272727
aaI66
aa(lp5002
I1
a(lp5003
F0.322581
aaI62
aa(lp5004
I1
a(lp5005
F0.456522
aaI46
aa(lp5006
I1
a(lp5007
F0.470588
aaI51
aa(lp5008
I1
a(lp5009
F0.447368
aaI38
aa(lp5010
I1
a(lp5011
F0.571429
aaI35
aa(lp5012
I1
a(lp5013
F0.344828
aaI29
aa(lp5014
I1
a(lp5015
F0.0
aaI28
aa(lp5016
I1
a(lp5017
F0.0
aaI25
aa(lp5018
I1
a(lp5019
F0.304348
aaI23
aa(lp5020
I1
a(lp5021
F0.470588
aaI34
aa(lp5022
I1
a(lp5023
F0.333333
aaI36
aa(lp5024
I1
a(lp5025
F0.375
aaI40
aa(lp5026
I1
a(lp5027
F0.351351
aaI37
aaa(lp5028
g1779
ag1780
aa(lp5029
g1782
ag1783
a(lp5030
I1
a(lp5031
F0.40625
aaI32
aa(lp5032
I1
a(lp5033
F0.235294
aaI34
aa(lp5034
I1
a(lp5035
F0.394737
aaI38
aa(lp5036
I1
a(lp5037
F0.259259
aaI27
aa(lp5038
I1
a(lp5039
F0.238095
aaI21
aa(lp5040
I1
a(lp5041
F0.553191
aaI47
aa(lp5042
I1
a(lp5043
F0.565217
aaI46
aa(lp5044
I1
a(lp5045
F0.530612
aaI49
aa(lp5046
I1
a(lp5047
F0.314815
aaI54
aa(lp5048
I1
a(lp5049
F0.309091
aaI55
aa(lp5050
I1
a(lp5051
F0.485714
aaI35
aa(lp5052
I1
a(lp5053
F0.488372
aaI43
aa(lp5054
I1
a(lp5055
F0.361111
aaI36
aa(lp5056
I1
a(lp5057
F0.361111
aaI36
aa(lp5058
I1
a(lp5059
F0.444444
aaI45
aa(lp5060
I1
a(lp5061
F0.555556
aaI36
aa(lp5062
I1
a(lp5063
F0.432432
aaI37
aa(lp5064
I1
a(lp5065
F0.384615
aaI39
aaa(lp5066
g1819
ag1820
aa(lp5067
g1822
ag1823
a(lp5068
I1
a(lp5069
F0.314815
aaI54
aaa(lp5070
g1843
ag1844
a(lp5071
I1
a(lp5072
F0.351351
aaI37
aa(lp5073
I1
a(lp5074
F0.361111
aaI36
aa(lp5075
I1
a(lp5076
F0.472727
aaI55
aa(lp5077
I1
a(lp5078
F0.333333
aaI36
aa(lp5079
I1
a(lp5080
F0.542857
aaI35
aa(lp5081
I1
a(lp5082
F0.5
aaI34
aa(lp5083
I1
a(lp5084
F0.289474
aaI38
aa(lp5085
I1
a(lp5086
F0.241379
aaI29
aa(lp5087
I1
a(lp5088
F0.470588
aaI34
aa(lp5089
I1
a(lp5090
F0.319149
aaI47
aa(lp5091
I1
a(lp5092
F0.342857
aaI35
aa(lp5093
I1
a(lp5094
F0.322581
aaI31
aa(lp5095
I1
a(lp5096
F0.357143
aaI42
aa(lp5097
I1
a(lp5098
F0.289474
aaI38
aa(lp5099
I1
a(lp5100
F0.52381
aaI42
aa(lp5101
I1
a(lp5102
F0.372093
aaI43
aa(lp5103
I1
a(lp5104
F0.421053
aaI38
aa(lp5105
I1
a(lp5106
F0.3
aaI30
aa(lp5107
I1
a(lp5108
F0.290323
aaI31
aa(lp5109
I1
a(lp5110
F0.428571
aaI35
aaa(lp5111
g1882
ag1883
a(lp5112
I1
a(lp5113
F0.451613
aaI31
aa(lp5114
I1
a(lp5115
F0.310345
aaI29
aaa(lp5116
g1885
ag1886
a(lp5117
I1
a(lp5118
F0.4
aaI50
aa(lp5119
I1
a(lp5120
F0.403846
aaI52
aa(lp5121
I1
a(lp5122
F0.428571
aaI49
aa(lp5123
I1
a(lp5124
F0.422222
aaI45
aa(lp5125
I1
a(lp5126
F0.542373
aaI59
aa(lp5127
I1
a(lp5128
F0.37931
aaI29
aa(lp5129
I1
a(lp5130
F0.371429
aaI35
aa(lp5131
I1
a(lp5132
F0.322581
aaI31
aa(lp5133
I1
a(lp5134
F0.285714
aaI28
aa(lp5135
I1
a(lp5136
F0.575
aaI40
aa(lp5137
I1
a(lp5138
F0.666667
aaI33
aa(lp5139
I1
a(lp5140
F0.275
aaI40
aa(lp5141
I1
a(lp5142
F0.244444
aaI45
aa(lp5143
I1
a(lp5144
F0.296296
aaI27
aa(lp5145
I1
a(lp5146
F0.296296
aaI27
aa(lp5147
I1
a(lp5148
F0.333333
aaI30
aa(lp5149
I1
a(lp5150
F0.3125
aaI32
aa(lp5151
I1
a(lp5152
F0.242424
aaI33
aa(lp5153
I1
a(lp5154
F0.258065
aaI31
aaa(lp5155
g1888
ag1889
aa(lp5156
g1891
ag1892
aa(lp5157
g1894
ag1895
a(lp5158
I1
a(lp5159
F0.325
aaI40
aa(lp5160
I1
a(lp5161
F0.518519
aaI54
aa(lp5162
I1
a(lp5163
F0.44186
aaI43
aaa(lp5164
g1897
ag1898
aa(lp5165
g1900
ag1901
aa(lp5166
g1907
ag1908
a(lp5167
I1
a(lp5168
F0.222222
aaI27
aaa(lp5169
g1912
ag1913
a(lp5170
I1
a(lp5171
F0.516667
aaI60
aaa(lp5172
g1919
ag1920
a(lp5173
I1
a(lp5174
F0.5
aaI44
aa(lp5175
I1
a(lp5176
F0.363636
aaI44
aa(lp5177
I1
a(lp5178
F0.377778
aaI45
aa(lp5179
I1
a(lp5180
F0.358974
aaI39
aa(lp5181
I1
a(lp5182
F0.333333
aaI57
aaa(lp5183
g1928
ag1929
a(lp5184
I1
a(lp5185
F0.418605
aaI43
aa(lp5186
I1
a(lp5187
F0.230769
aaI26
aa(lp5188
I1
a(lp5189
F0.230769
aaI26
aa(lp5190
I1
a(lp5191
F0.473684
aaI57
aa(lp5192
I1
a(lp5193
F0.444444
aaI45
aa(lp5194
I1
a(lp5195
F0.282051
aaI39
aa(lp5196
I1
a(lp5197
F0.315789
aaI38
aa(lp5198
I1
a(lp5199
F0.344828
aaI29
aa(lp5200
I1
a(lp5201
F0.517857
aaI56
aa(lp5202
I1
a(lp5203
F0.478261
aaI46
aa(lp5204
I1
a(lp5205
F0.434783
aaI46
aa(lp5206
I1
a(lp5207
F0.447368
aaI38
aa(lp5208
I1
a(lp5209
F0.418605
aaI43
aa(lp5210
I1
a(lp5211
F0.358974
aaI39
aa(lp5212
I1
a(lp5213
F0.258065
aaI31
aa(lp5214
I1
a(lp5215
F0.208333
aaI24
aa(lp5216
I1
a(lp5217
F0.2
aaI20
aa(lp5218
I1
a(lp5219
F0.365854
aaI41
aa(lp5220
I1
a(lp5221
F0.23913
aaI46
aa(lp5222
I1
a(lp5223
F0.304348
aaI46
aaa(lp5224
g1963
ag1964
a(lp5225
I1
a(lp5226
F0.511628
aaI43
aa(lp5227
I1
a(lp5228
F0.342105
aaI38
aa(lp5229
I1
a(lp5230
F0.361111
aaI36
aa(lp5231
I1
a(lp5232
F0.333333
aaI30
aa(lp5233
I1
a(lp5234
F0.230769
aaI39
aa(lp5235
I1
a(lp5236
F0.277778
aaI36
aa(lp5237
I1
a(lp5238
F0.44898
aaI49
aa(lp5239
I1
a(lp5240
F0.47619
aaI42
aa(lp5241
I1
a(lp5242
F0.52
aaI50
aa(lp5243
I1
a(lp5244
F0.457143
aaI35
aa(lp5245
I1
a(lp5246
F0.448276
aaI29
aa(lp5247
I1
a(lp5248
F0.392857
aaI28
aaa(lp5249
g1976
ag1977
a(lp5250
I1
a(lp5251
F0.225806
aaI31
aa(lp5252
I1
a(lp5253
F0.428571
aaI35
aa(lp5254
I1
a(lp5255
F0.405405
aaI37
aa(lp5256
I1
a(lp5257
F0.583333
aaI36
aaa(lp5258
g2015
ag2016
a(lp5259
I1
a(lp5260
F0.222222
aaI27
aa(lp5261
I1
a(lp5262
F0.210526
aaI19
aa(lp5263
I1
a(lp5264
F0.527778
aaI36
aa(lp5265
I1
a(lp5266
F0.243902
aaI41
aa(lp5267
I1
a(lp5268
F0.404255
aaI47
aa(lp5269
I1
a(lp5270
F0.382979
aaI47
aa(lp5271
I1
a(lp5272
F0.2
aaI35
aa(lp5273
I1
a(lp5274
F0.310345
aaI29
aa(lp5275
I1
a(lp5276
F0.321429
aaI28
aaa(lp5277
g2018
ag2019
aa(lp5278
g2031
ag2032
aa(lp5279
g2034
ag2035
aa(lp5280
g2037
ag2038
aa(lp5281
g2066
ag2067
a(lp5282
I1
a(lp5283
F0.242424
aaI33
aaa(lp5284
g2079
ag2080
aa(lp5285
g2082
ag2083
a(lp5286
I1
a(lp5287
F0.309524
aaI42
aa(lp5288
I1
a(lp5289
F0.421053
aaI38
aa(lp5290
I1
a(lp5291
F0.324324
aaI37
aa(lp5292
I1
a(lp5293
F0.25
aaI28
aa(lp5294
I1
a(lp5295
F0.230769
aaI26
aa(lp5296
I1
a(lp5297
F0.346154
aaI26
aa(lp5298
I1
a(lp5299
F0.375
aaI24
aa(lp5300
I1
a(lp5301
F0.25
aaI20
aa(lp5302
I1
a(lp5303
F0.333333
aaI21
aa(lp5304
I1
a(lp5305
F0.431818
aaI44
aa(lp5306
I1
a(lp5307
F0.225806
aaI31
aa(lp5308
I1
a(lp5309
F0.2
aaI35
aa(lp5310
I1
a(lp5311
F0.21875
aaI32
aa(lp5312
I1
a(lp5313
F0.206897
aaI29
aa(lp5314
I1
a(lp5315
F0.235294
aaI34
aa(lp5316
I1
a(lp5317
F0.222222
aaI36
aa(lp5318
I1
a(lp5319
F0.652174
aaI46
aa(lp5320
I1
a(lp5321
F0.243243
aaI37
aa(lp5322
I1
a(lp5323
F0.333333
aaI36
aa(lp5324
I1
a(lp5325
F0.413043
aaI46
aaa(lp5326
g2109
ag2110
aa(lp5327
g2112
ag2113
aa(lp5328
g2149
ag2150
aa(lp5329
g2156
ag2157
a(lp5330
I1
a(lp5331
F0.210526
aaI38
aa(lp5332
I1
a(lp5333
F0.25
aaI36
aa(lp5334
I1
a(lp5335
F0.21875
aaI32
aa(lp5336
I1
a(lp5337
F0.2
aaI35
aaa(lp5338
g2159
ag2160
a(lp5339
I1
a(lp5340
F0.413043
aaI46
aa(lp5341
I1
a(lp5342
F0.297297
aaI37
aa(lp5343
I1
a(lp5344
F0.261905
aaI42
aa(lp5345
I1
a(lp5346
F0.52
aaI50
aaa(lp5347
g2170
ag2171
a(lp5348
I1
a(lp5349
F0.275
aaI40
aa(lp5350
I1
a(lp5351
F0.3
aaI30
aa(lp5352
I1
a(lp5353
F0.272727
aaI33
aa(lp5354
I1
a(lp5355
F0.277778
aaI36
aa(lp5356
I1
a(lp5357
F0.234043
aaI47
aa(lp5358
I1
a(lp5359
F0.306122
aaI49
aa(lp5360
I1
a(lp5361
F0.454545
aaI44
aa(lp5362
I1
a(lp5363
F0.321429
aaI28
aa(lp5364
I1
a(lp5365
F0.55814
aaI43
aa(lp5366
I1
a(lp5367
F0.555556
aaI54
aa(lp5368
I1
a(lp5369
F0.571429
aaI49
aa(lp5370
I1
a(lp5371
F0.361111
aaI36
aa(lp5372
I1
a(lp5373
F0.25
aaI32
aa(lp5374
I1
a(lp5375
F0.421053
aaI38
aa(lp5376
I1
a(lp5377
F0.243243
aaI37
aa(lp5378
I1
a(lp5379
F0.404255
aaI47
aa(lp5380
I1
a(lp5381
F0.42
aaI50
aa(lp5382
I1
a(lp5383
F0.463415
aaI41
aa(lp5384
I1
a(lp5385
F0.384615
aaI39
aa(lp5386
I1
a(lp5387
F0.285714
aaI35
aa(lp5388
I1
a(lp5389
F0.285714
aaI35
aa(lp5390
I1
a(lp5391
F0.340426
aaI47
aa(lp5392
I1
a(lp5393
F0.205882
aaI34
aa(lp5394
I1
a(lp5395
F0.258065
aaI31
aa(lp5396
I1
a(lp5397
F0.24
aaI25
aa(lp5398
I1
a(lp5399
F0.227273
aaI22
aa(lp5400
I1
a(lp5401
F0.208333
aaI24
aa(lp5402
I1
a(lp5403
F0.24
aaI25
aa(lp5404
I1
a(lp5405
F0.28
aaI25
aa(lp5406
I1
a(lp5407
F0.346154
aaI26
aa(lp5408
I1
a(lp5409
F0.388889
aaI18
aa(lp5410
I1
a(lp5411
F0.318182
aaI44
aa(lp5412
I1
a(lp5413
F0.275862
aaI29
aa(lp5414
I1
a(lp5415
F0.275862
aaI29
aa(lp5416
I1
a(lp5417
F0.386364
aaI44
aa(lp5418
I1
a(lp5419
F0.435897
aaI39
aa(lp5420
I1
a(lp5421
F0.4375
aaI32
aa(lp5422
I1
a(lp5423
F0.40625
aaI32
aa(lp5424
I1
a(lp5425
F0.40625
aaI32
aa(lp5426
I1
a(lp5427
F0.333333
aaI48
aaa(lp5428
g2193
ag2194
a(lp5429
I1
a(lp5430
F0.243243
aaI74
aaa(lp5431
g2200
ag2201
a(lp5432
I1
a(lp5433
F0.0
aaI39
aa(lp5434
I1
a(lp5435
F0.2
aaI70
aaa(lp5436
g2211
ag2212
aa(lp5437
g2214
ag2215
aa(lp5438
g2255
ag2256
aa(lp5439
g2284
ag2285
a(lp5440
I1
a(lp5441
F0.291667
aaI48
aa(lp5442
I1
a(lp5443
F0.4
aaI50
aa(lp5444
I1
a(lp5445
F0.268293
aaI41
aa(lp5446
I1
a(lp5447
F0.258065
aaI31
aa(lp5448
I1
a(lp5449
F0.444444
aaI45
aa(lp5450
I1
a(lp5451
F0.378378
aaI37
aa(lp5452
I1
a(lp5453
F0.487179
aaI39
aa(lp5454
I1
a(lp5455
F0.32
aaI25
aa(lp5456
I1
a(lp5457
F0.416667
aaI36
aa(lp5458
I1
a(lp5459
F0.45283
aaI53
aa(lp5460
I1
a(lp5461
F0.428571
aaI28
aa(lp5462
I1
a(lp5463
F0.321429
aaI28
aa(lp5464
I1
a(lp5465
F0.294118
aaI34
aa(lp5466
I1
a(lp5467
F0.354839
aaI31
aa(lp5468
I1
a(lp5469
F0.314286
aaI35
aa(lp5470
I1
a(lp5471
F0.241379
aaI29
aa(lp5472
I1
a(lp5473
F0.296296
aaI27
aa(lp5474
I1
a(lp5475
F0.310345
aaI29
aa(lp5476
I1
a(lp5477
F0.258065
aaI31
aa(lp5478
I1
a(lp5479
F0.324324
aaI37
aa(lp5480
I1
a(lp5481
F0.333333
aaI39
aa(lp5482
I1
a(lp5483
F0.243243
aaI37
aa(lp5484
I1
a(lp5485
F0.324324
aaI37
aa(lp5486
I1
a(lp5487
F0.388889
aaI36
aa(lp5488
I1
a(lp5489
F0.243243
aaI37
aa(lp5490
I1
a(lp5491
F0.25
aaI24
aa(lp5492
I1
a(lp5493
F0.208333
aaI24
aaa(lp5494
g2293
ag2294
a(lp5495
I1
a(lp5496
F0.0
aaI12
aa(lp5497
I1
a(lp5498
F0.0
aaI5
aa(lp5499
I1
a(lp5500
F0.83871
aaI31
aa(lp5501
I1
a(lp5502
F0.0
aaI36
aa(lp5503
I1
a(lp5504
F0.0
aaI29
aaa(lp5505
g2298
ag2299
a(lp5506
I1
a(lp5507
F0.355556
aaI45
aa(lp5508
I1
a(lp5509
F0.47619
aaI42
aa(lp5510
I1
a(lp5511
F0.241379
aaI29
aa(lp5512
I1
a(lp5513
F0.242424
aaI33
aa(lp5514
I1
a(lp5515
F0.21875
aaI32
aa(lp5516
I1
a(lp5517
F0.233333
aaI30
aaa(lp5518
g2301
ag2302
aa(lp5519
g2304
ag2305
aa(lp5520
g2307
ag2308
aa(lp5521
g2350
ag2351
aa(lp5522
g2353
ag2354
aa(lp5523
g2356
ag2357
a(lp5524
I1
a(lp5525
F0.307692
aaI13
aa(lp5526
I1
a(lp5527
F0.235294
aaI17
aa(lp5528
I1
a(lp5529
F0.208333
aaI24
aa(lp5530
I1
a(lp5531
F0.208333
aaI24
aa(lp5532
I1
a(lp5533
F0.2
aaI20
aa(lp5534
I1
a(lp5535
F0.305556
aaI36
aa(lp5536
I1
a(lp5537
F0.68
aaI50
aaa(lp5538
g2359
ag2360
aa(lp5539
g2380
ag2381
a(lp5540
I1
a(lp5541
F0.404255
aaI47
aa(lp5542
I1
a(lp5543
F0.241379
aaI29
aa(lp5544
I1
a(lp5545
F0.214286
aaI42
aaa(lp5546
g2383
ag2384
aa(lp5547
g2386
ag2387
a(lp5548
I1
a(lp5549
F0.25
aaI36
aa(lp5550
I1
a(lp5551
F0.285714
aaI35
aa(lp5552
I1
a(lp5553
F0.230769
aaI26
aa(lp5554
I1
a(lp5555
F0.208333
aaI24
aaa(lp5556
g2395
ag2396
aa(lp5557
g2404
ag2405
aa(lp5558
g2413
ag2414
aa(lp5559
g2416
ag2417
a(lp5560
I1
a(lp5561
F0.269663
aaI178
aa(lp5562
I1
a(lp5563
F0.272727
aaI44
aa(lp5564
I1
a(lp5565
F0.366667
aaI30
aa(lp5566
I1
a(lp5567
F0.272727
aaI33
aa(lp5568
I1
a(lp5569
F0.333333
aaI33
aaa(lp5570
g2419
ag2420
a(lp5571
I1
a(lp5572
F0.363636
aaI33
aa(lp5573
I1
a(lp5574
F0.368421
aaI38
aa(lp5575
I1
a(lp5576
F0.323529
aaI34
aa(lp5577
I1
a(lp5578
F0.555556
aaI36
aa(lp5579
I1
a(lp5580
F0.342105
aaI38
aa(lp5581
I1
a(lp5582
F0.333333
aaI24
aa(lp5583
I1
a(lp5584
F0.307692
aaI26
aa(lp5585
I1
a(lp5586
F0.25
aaI28
aa(lp5587
I1
a(lp5588
F0.21875
aaI32
aa(lp5589
I1
a(lp5590
F0.26087
aaI23
aa(lp5591
I1
a(lp5592
F0.48
aaI25
aa(lp5593
I1
a(lp5594
F0.380952
aaI21
aa(lp5595
I1
a(lp5596
F0.305556
aaI36
aa(lp5597
I1
a(lp5598
F0.4375
aaI32
aa(lp5599
I1
a(lp5600
F0.285714
aaI35
aa(lp5601
I1
a(lp5602
F0.545455
aaI55
aa(lp5603
I1
a(lp5604
F0.48
aaI25
aa(lp5605
I1
a(lp5606
F0.534483
aaI58
aa(lp5607
I1
a(lp5608
F0.475
aaI40
aa(lp5609
I1
a(lp5610
F0.321429
aaI28
aa(lp5611
I1
a(lp5612
F0.321429
aaI28
aa(lp5613
I1
a(lp5614
F0.37931
aaI29
aa(lp5615
I1
a(lp5616
F0.34375
aaI32
aa(lp5617
I1
a(lp5618
F0.294118
aaI34
aa(lp5619
I1
a(lp5620
F0.357143
aaI42
aa(lp5621
I1
a(lp5622
F0.333333
aaI21
aa(lp5623
I1
a(lp5624
F0.227273
aaI22
aaa(lp5625
g2444
ag2445
a(lp5626
I1
a(lp5627
F0.4
aaI40
aa(lp5628
I1
a(lp5629
F0.45098
aaI51
aa(lp5630
I1
a(lp5631
F0.625
aaI40
aa(lp5632
I1
a(lp5633
F0.65
aaI40
aa(lp5634
I1
a(lp5635
F0.657143
aaI35
aa(lp5636
I1
a(lp5637
F0.6
aaI35
aa(lp5638
I1
a(lp5639
F0.55
aaI40
aa(lp5640
I1
a(lp5641
F0.5
aaI44
aa(lp5642
I1
a(lp5643
F0.380952
aaI42
aa(lp5644
I1
a(lp5645
F0.313725
aaI51
aa(lp5646
I1
a(lp5647
F0.5
aaI42
aa(lp5648
I1
a(lp5649
F0.309524
aaI42
aa(lp5650
I1
a(lp5651
F0.222222
aaI27
aa(lp5652
I1
a(lp5653
F0.289474
aaI38
aa(lp5654
I1
a(lp5655
F0.233333
aaI30
aa(lp5656
I1
a(lp5657
F0.205128
aaI39
aa(lp5658
I1
a(lp5659
F0.230769
aaI39
aa(lp5660
I1
a(lp5661
F0.342105
aaI38
aaa(lp5662
g2447
ag2448
aa(lp5663
g2470
ag2471
a(lp5664
I1
a(lp5665
F0.545455
aaI11
aa(lp5666
I1
a(lp5667
F0.358974
aaI39
aa(lp5668
I1
a(lp5669
F0.288889
aaI45
aa(lp5670
I1
a(lp5671
F0.244898
aaI49
aa(lp5672
I1
a(lp5673
F0.24
aaI50
aa(lp5674
I1
a(lp5675
F0.222222
aaI45
aa(lp5676
I1
a(lp5677
F0.217391
aaI46
aa(lp5678
I1
a(lp5679
F0.208333
aaI48
aa(lp5680
I1
a(lp5681
F0.206897
aaI29
aa(lp5682
I1
a(lp5683
F0.55814
aaI43
aa(lp5684
I1
a(lp5685
F0.375
aaI32
aa(lp5686
I1
a(lp5687
F0.548387
aaI31
aaa(lp5688
g2473
ag2474
a(lp5689
I1
a(lp5690
F0.28125
aaI32
aa(lp5691
I1
a(lp5692
F0.290323
aaI31
aa(lp5693
I1
a(lp5694
F0.307692
aaI26
aa(lp5695
I1
a(lp5696
F0.375
aaI32
aa(lp5697
I1
a(lp5698
F0.333333
aaI36
aa(lp5699
I1
a(lp5700
F0.3125
aaI32
aa(lp5701
I1
a(lp5702
F0.258065
aaI31
aa(lp5703
I1
a(lp5704
F0.242424
aaI33
aa(lp5705
I1
a(lp5706
F0.463415
aaI41
aa(lp5707
I1
a(lp5708
F0.459459
aaI37
aa(lp5709
I1
a(lp5710
F0.276596
aaI47
aaa(lp5711
g2486
ag2487
aa(lp5712
g2489
ag2490
a(lp5713
I1
a(lp5714
F0.217391
aaI23
aaa(lp5715
g2498
ag2499
aa(lp5716
g2553
ag2554
a(lp5717
I1
a(lp5718
F0.214286
aaI28
aa(lp5719
I1
a(lp5720
F0.354839
aaI31
aa(lp5721
I1
a(lp5722
F0.290323
aaI31
aa(lp5723
I1
a(lp5724
F0.342105
aaI38
aa(lp5725
I1
a(lp5726
F0.5
aaI36
aa(lp5727
I1
a(lp5728
F0.352941
aaI34
aa(lp5729
I1
a(lp5730
F0.361111
aaI36
aa(lp5731
I1
a(lp5732
F0.405405
aaI37
aa(lp5733
I1
a(lp5734
F0.461538
aaI26
aa(lp5735
I1
a(lp5736
F0.351351
aaI37
aa(lp5737
I1
a(lp5738
F0.375
aaI32
aa(lp5739
I1
a(lp5740
F0.314286
aaI35
aa(lp5741
I1
a(lp5742
F0.305556
aaI36
aa(lp5743
I1
a(lp5744
F0.521739
aaI46
aa(lp5745
I1
a(lp5746
F0.521739
aaI46
aa(lp5747
I1
a(lp5748
F0.586957
aaI46
aa(lp5749
I1
a(lp5750
F0.446809
aaI47
aa(lp5751
I1
a(lp5752
F0.422222
aaI45
aa(lp5753
I1
a(lp5754
F0.272727
aaI33
aa(lp5755
I1
a(lp5756
F0.223881
aaI67
aa(lp5757
I1
a(lp5758
F0.241379
aaI58
aa(lp5759
I1
a(lp5760
F0.290323
aaI31
aa(lp5761
I1
a(lp5762
F0.323529
aaI34
aa(lp5763
I1
a(lp5764
F0.222222
aaI27
aa(lp5765
I1
a(lp5766
F0.28125
aaI32
aa(lp5767
I1
a(lp5768
F0.235294
aaI34
aa(lp5769
I1
a(lp5770
F0.266667
aaI30
aa(lp5771
I1
a(lp5772
F0.322581
aaI31
aa(lp5773
I1
a(lp5774
F0.30303
aaI33
aa(lp5775
I1
a(lp5776
F0.21875
aaI32
aa(lp5777
I1
a(lp5778
F0.233333
aaI30
aa(lp5779
I1
a(lp5780
F0.225806
aaI31
aa(lp5781
I1
a(lp5782
F0.242424
aaI33
aa(lp5783
I1
a(lp5784
F0.25
aaI28
aa(lp5785
I1
a(lp5786
F0.2
aaI30
aa(lp5787
I1
a(lp5788
F0.266667
aaI30
aa(lp5789
I1
a(lp5790
F0.319149
aaI47
aa(lp5791
I1
a(lp5792
F0.307692
aaI39
aa(lp5793
I1
a(lp5794
F0.236842
aaI38
aa(lp5795
I1
a(lp5796
F0.305556
aaI36
aa(lp5797
I1
a(lp5798
F0.410256
aaI39
aa(lp5799
I1
a(lp5800
F0.288462
aaI52
aa(lp5801
I1
a(lp5802
F0.212121
aaI33
aaa(lp5803
g2612
ag2613
a(lp5804
I1
a(lp5805
F0.553571
aaI56
aa(lp5806
I1
a(lp5807
F0.475
aaI40
aa(lp5808
I1
a(lp5809
F0.461538
aaI39
aa(lp5810
I1
a(lp5811
F0.511111
aaI45
aa(lp5812
I1
a(lp5813
F0.214286
aaI28
aa(lp5814
I1
a(lp5815
F0.488372
aaI43
aa(lp5816
I1
a(lp5817
F0.384615
aaI52
aaa(lp5818
g2639
ag2640
aa(lp5819
g2648
ag2649
a(lp5820
I1
a(lp5821
F0.428571
aaI42
aa(lp5822
I1
a(lp5823
F0.5
aaI54
aaa(lp5824
g2673
ag2674
aa(lp5825
g2676
ag2677
a(lp5826
I1
a(lp5827
F0.4
aaI50
aa(lp5828
I1
a(lp5829
F0.472222
aaI36
aa(lp5830
I1
a(lp5831
F0.354167
aaI48
aa(lp5832
I1
a(lp5833
F0.25
aaI40
aa(lp5834
I1
a(lp5835
F0.210526
aaI38
aa(lp5836
I1
a(lp5837
F0.238095
aaI42
aa(lp5838
I1
a(lp5839
F0.368421
aaI38
aa(lp5840
I1
a(lp5841
F0.275
aaI40
aa(lp5842
I1
a(lp5843
F0.442308
aaI52
aaa(lp5844
g2699
ag2700
a(lp5845
I1
a(lp5846
F0.469388
aaI49
aa(lp5847
I1
a(lp5848
F0.461538
aaI26
aaa(lp5849
g2702
ag2703
a(lp5850
I1
a(lp5851
F0.545455
aaI33
aa(lp5852
I1
a(lp5853
F0.333333
aaI36
aa(lp5854
I1
a(lp5855
F0.352941
aaI34
aa(lp5856
I1
a(lp5857
F0.382353
aaI34
aa(lp5858
I1
a(lp5859
F0.365385
aaI52
aa(lp5860
I1
a(lp5861
F0.413793
aaI29
aa(lp5862
I1
a(lp5863
F0.5
aaI28
aa(lp5864
I1
a(lp5865
F0.346154
aaI26
aa(lp5866
I1
a(lp5867
F0.4375
aaI32
aa(lp5868
I1
a(lp5869
F0.333333
aaI30
aaa(lp5870
g2715
ag2716
a(lp5871
I1
a(lp5872
F0.230769
aaI39
aa(lp5873
I1
a(lp5874
F0.25
aaI24
aa(lp5875
I1
a(lp5876
F0.390244
aaI41
aaa(lp5877
g2718
ag2719
aa(lp5878
g2733
ag2734
a(lp5879
I1
a(lp5880
F0.282609
aaI46
aa(lp5881
I1
a(lp5882
F0.269231
aaI52
aaa(lp5883
g2736
ag2737
a(lp5884
I1
a(lp5885
F0.360656
aaI61
aa(lp5886
I1
a(lp5887
F0.363636
aaI77
aaa(lp5888
g2739
ag2740
a(lp5889
I1
a(lp5890
F0.610169
aaI59
aa(lp5891
I1
a(lp5892
F0.403226
aaI62
aaa(lp5893
g2742
ag2743
aa(lp5894
g2751
ag2752
aa(lp5895
g2754
ag2755
a(lp5896
I1
a(lp5897
F0.205128
aaI39
aa(lp5898
I1
a(lp5899
F0.368421
aaI38
aa(lp5900
I1
a(lp5901
F0.368421
aaI38
aa(lp5902
I1
a(lp5903
F0.566038
aaI53
aa(lp5904
I1
a(lp5905
F0.368421
aaI38
aa(lp5906
I1
a(lp5907
F0.486486
aaI37
aa(lp5908
I1
a(lp5909
F0.470588
aaI51
aa(lp5910
I1
a(lp5911
F0.348837
aaI43
aa(lp5912
I1
a(lp5913
F0.413043
aaI46
aa(lp5914
I1
a(lp5915
F0.325
aaI40
aaa(lp5916
g2777
ag2778
a(lp5917
I1
a(lp5918
F0.407407
aaI27
aa(lp5919
I1
a(lp5920
F0.333333
aaI39
aa(lp5921
I1
a(lp5922
F0.272727
aaI22
aa(lp5923
I1
a(lp5924
F0.25
aaI28
aa(lp5925
I1
a(lp5926
F0.285714
aaI28
aa(lp5927
I1
a(lp5928
F0.258065
aaI31
aa(lp5929
I1
a(lp5930
F0.25
aaI32
aa(lp5931
I1
a(lp5932
F0.294118
aaI34
aa(lp5933
I1
a(lp5934
F0.34375
aaI32
aa(lp5935
I1
a(lp5936
F0.375
aaI48
aa(lp5937
I1
a(lp5938
F0.214286
aaI56
aaa(lp5939
g2786
ag2787
aa(lp5940
g2789
ag2790
a(lp5941
I1
a(lp5942
F0.25
aaI40
aa(lp5943
I1
a(lp5944
F0.258065
aaI31
aaa(lp5945
g2792
ag2793
aa(lp5946
g2817
ag2818
aa(lp5947
g2834
ag2835
a(lp5948
I1
a(lp5949
F0.472222
aaI36
aa(lp5950
I1
a(lp5951
F0.534884
aaI43
aa(lp5952
I1
a(lp5953
F0.439024
aaI41
aa(lp5954
I1
a(lp5955
F0.469388
aaI49
aaa(lp5956
g2837
ag2838
aa(lp5957
g2840
ag2841
aa(lp5958
g2861
ag2862
a(lp5959
I1
a(lp5960
F0.205128
aaI39
aa(lp5961
I1
a(lp5962
F0.205128
aaI39
aa(lp5963
I1
a(lp5964
F0.206897
aaI29
aa(lp5965
I1
a(lp5966
F0.310345
aaI29
aaa(lp5967
g2866
ag2867
a(lp5968
I1
a(lp5969
F0.268293
aaI41
aa(lp5970
I1
a(lp5971
F0.509091
aaI55
aa(lp5972
I1
a(lp5973
F0.259259
aaI27
aa(lp5974
I1
a(lp5975
F0.485714
aaI35
aa(lp5976
I1
a(lp5977
F0.227273
aaI22
aaa(lp5978
g2893
ag2894
aa(lp5979
g2896
ag2897
a(lp5980
I1
a(lp5981
F0.25641
aaI39
aaa(lp5982
g2899
ag2900
a(lp5983
I1
a(lp5984
F0.222222
aaI27
aa(lp5985
I1
a(lp5986
F0.230769
aaI26
aa(lp5987
I1
a(lp5988
F0.230769
aaI26
aaa(lp5989
g2902
ag2903
aa(lp5990
g2907
ag2908
a(lp5991
I1
a(lp5992
F0.580645
aaI31
aa(lp5993
I1
a(lp5994
F0.40625
aaI32
aa(lp5995
I1
a(lp5996
F0.242424
aaI33
aa(lp5997
I1
a(lp5998
F0.27027
aaI37
aa(lp5999
I1
a(lp6000
F0.346154
aaI26
aaa(lp6001
g2912
ag2913
aa(lp6002
g2919
ag2920
aa(lp6003
g2950
ag2951
aa(lp6004
g2969
ag2970
a(lp6005
I1
a(lp6006
F0.285714
aaI28
aa(lp6007
I1
a(lp6008
F0.333333
aaI33
aa(lp6009
I1
a(lp6010
F0.545455
aaI44
aaa(lp6011
g2974
ag2975
aa(lp6012
g2977
ag2978
a(lp6013
I1
a(lp6014
F0.457143
aaI35
aa(lp6015
I1
a(lp6016
F0.225806
aaI31
aa(lp6017
I1
a(lp6018
F0.40625
aaI32
aaa(lp6019
g2980
ag2981
a(lp6020
I1
a(lp6021
F0.618182
aaI55
aa(lp6022
I1
a(lp6023
F0.448276
aaI58
aa(lp6024
I1
a(lp6025
F0.31746
aaI63
aa(lp6026
I1
a(lp6027
F0.387755
aaI49
aa(lp6028
I1
a(lp6029
F0.333333
aaI48
aa(lp6030
I1
a(lp6031
F0.438596
aaI57
aa(lp6032
I1
a(lp6033
F0.392857
aaI56
aa(lp6034
I1
a(lp6035
F0.2
aaI40
aa(lp6036
I1
a(lp6037
F0.36
aaI25
aa(lp6038
I1
a(lp6039
F0.371429
aaI35
aaa(lp6040
g2991
ag2992
aa(lp6041
g2996
ag2997
a(lp6042
I1
a(lp6043
F0.511111
aaI45
aaa(lp6044
g3001
ag3002
a(lp6045
I1
a(lp6046
F0.517857
aaI56
aa(lp6047
I1
a(lp6048
F0.580645
aaI62
aaa(lp6049
g3004
ag3005
aa(lp6050
g3017
ag3018
a(lp6051
I1
a(lp6052
F0.354167
aaI48
aa(lp6053
I1
a(lp6054
F0.382353
aaI34
aa(lp6055
I1
a(lp6056
F0.2
aaI30
aa(lp6057
I1
a(lp6058
F0.304348
aaI23
aa(lp6059
I1
a(lp6060
F0.413793
aaI29
aa(lp6061
I1
a(lp6062
F0.432432
aaI37
aa(lp6063
I1
a(lp6064
F0.388889
aaI36
aa(lp6065
I1
a(lp6066
F0.545455
aaI44
aa(lp6067
I1
a(lp6068
F0.403846
aaI52
aa(lp6069
I1
a(lp6070
F0.5
aaI50
aa(lp6071
I1
a(lp6072
F0.530612
aaI49
aa(lp6073
I1
a(lp6074
F0.0
aaI30
aa(lp6075
I1
a(lp6076
F0.228571
aaI35
aa(lp6077
I1
a(lp6078
F0.333333
aaI39
aa(lp6079
I1
a(lp6080
F0.324324
aaI37
aa(lp6081
I1
a(lp6082
F0.257143
aaI35
aa(lp6083
I1
a(lp6084
F0.241379
aaI29
aa(lp6085
I1
a(lp6086
F0.241379
aaI29
aa(lp6087
I1
a(lp6088
F0.241379
aaI29
aa(lp6089
I1
a(lp6090
F0.4
aaI25
aa(lp6091
I1
a(lp6092
F0.391304
aaI23
aaa(lp6093
g3036
ag3037
aa(lp6094
g3043
ag3044
a(lp6095
I1
a(lp6096
F0.356164
aaI73
aa(lp6097
I1
a(lp6098
F0.477273
aaI88
aa(lp6099
I1
a(lp6100
F0.214286
aaI112
aa(lp6101
I1
a(lp6102
F0.283186
aaI113
aa(lp6103
I1
a(lp6104
F0.0
aaI4
aa(lp6105
I1
a(lp6106
F0.0
aaI3
aa(lp6107
I1
a(lp6108
F0.0
aaI3
aaa(lp6109
g3068
ag3069
a(lp6110
I1
a(lp6111
F0.469388
aaI49
aa(lp6112
I1
a(lp6113
F0.24
aaI50
aa(lp6114
I1
a(lp6115
F0.314815
aaI54
aa(lp6116
I1
a(lp6117
F0.314815
aaI54
aa(lp6118
I1
a(lp6119
F0.409836
aaI61
aaa(lp6120
g3071
ag3072
a(lp6121
I1
a(lp6122
F0.46875
aaI32
aa(lp6123
I1
a(lp6124
F0.425532
aaI47
aa(lp6125
I1
a(lp6126
F0.65
aaI40
aa(lp6127
I1
a(lp6128
F0.481481
aaI54
aa(lp6129
I1
a(lp6130
F0.534483
aaI58
aa(lp6131
I1
a(lp6132
F0.489362
aaI47
aa(lp6133
I1
a(lp6134
F0.5
aaI46
aa(lp6135
I1
a(lp6136
F0.447368
aaI38
aa(lp6137
I1
a(lp6138
F0.642857
aaI42
aa(lp6139
I1
a(lp6140
F0.333333
aaI36
aa(lp6141
I1
a(lp6142
F0.404762
aaI42
aa(lp6143
I1
a(lp6144
F0.552632
aaI38
aa(lp6145
I1
a(lp6146
F0.325581
aaI43
aa(lp6147
I1
a(lp6148
F0.517241
aaI29
aa(lp6149
I1
a(lp6150
F0.462963
aaI54
aa(lp6151
I1
a(lp6152
F0.5
aaI48
aa(lp6153
I1
a(lp6154
F0.258065
aaI31
aa(lp6155
I1
a(lp6156
F0.340426
aaI47
aa(lp6157
I1
a(lp6158
F0.28125
aaI32
aa(lp6159
I1
a(lp6160
F0.446429
aaI56
aa(lp6161
I1
a(lp6162
F0.410714
aaI56
aa(lp6163
I1
a(lp6164
F0.527778
aaI36
aa(lp6165
I1
a(lp6166
F0.478261
aaI46
aa(lp6167
I1
a(lp6168
F0.384615
aaI39
aa(lp6169
I1
a(lp6170
F0.4375
aaI48
aa(lp6171
I1
a(lp6172
F0.392157
aaI51
aaa(lp6173
g3104
ag3105
a(lp6174
I1
a(lp6175
F0.216216
aaI37
aa(lp6176
I1
a(lp6177
F0.42
aaI50
aa(lp6178
I1
a(lp6179
F0.384615
aaI26
aa(lp6180
I1
a(lp6181
F0.545455
aaI33
aa(lp6182
I1
a(lp6183
F0.393939
aaI33
aa(lp6184
I1
a(lp6185
F0.340426
aaI47
aa(lp6186
I1
a(lp6187
F0.533333
aaI30
aa(lp6188
I1
a(lp6189
F0.56
aaI25
aa(lp6190
I1
a(lp6191
F0.333333
aaI18
aa(lp6192
I1
a(lp6193
F0.275
aaI40
aa(lp6194
I1
a(lp6195
F0.25641
aaI39
aa(lp6196
I1
a(lp6197
F0.425
aaI40
aa(lp6198
I1
a(lp6199
F0.351351
aaI37
aa(lp6200
I1
a(lp6201
F0.393939
aaI33
aa(lp6202
I1
a(lp6203
F0.285714
aaI35
aa(lp6204
I1
a(lp6205
F0.297297
aaI37
aa(lp6206
I1
a(lp6207
F0.206897
aaI29
aa(lp6208
I1
a(lp6209
F0.282051
aaI39
aa(lp6210
I1
a(lp6211
F0.272727
aaI33
aa(lp6212
I1
a(lp6213
F0.208333
aaI24
aa(lp6214
I1
a(lp6215
F0.225
aaI40
aa(lp6216
I1
a(lp6217
F0.305556
aaI36
aa(lp6218
I1
a(lp6219
F0.212121
aaI33
aa(lp6220
I1
a(lp6221
F0.241379
aaI29
aa(lp6222
I1
a(lp6223
F0.24
aaI25
aaa(lp6224
g3109
ag3110
a(lp6225
I1
a(lp6226
F0.461538
aaI39
aa(lp6227
I1
a(lp6228
F0.477273
aaI44
aa(lp6229
I1
a(lp6230
F0.44898
aaI49
aa(lp6231
I1
a(lp6232
F0.480769
aaI52
aa(lp6233
I1
a(lp6234
F0.468085
aaI47
aa(lp6235
I1
a(lp6236
F0.466667
aaI45
aa(lp6237
I1
a(lp6238
F0.323529
aaI34
aa(lp6239
I1
a(lp6240
F0.323529
aaI34
aa(lp6241
I1
a(lp6242
F0.418605
aaI43
aa(lp6243
I1
a(lp6244
F0.433333
aaI30
aa(lp6245
I1
a(lp6246
F0.392857
aaI28
aa(lp6247
I1
a(lp6248
F0.307692
aaI26
aa(lp6249
I1
a(lp6250
F0.294118
aaI34
aa(lp6251
I1
a(lp6252
F0.403846
aaI52
aa(lp6253
I1
a(lp6254
F0.0
aaI34
aa(lp6255
I1
a(lp6256
F0.25
aaI36
aa(lp6257
I1
a(lp6258
F0.205882
aaI34
aa(lp6259
I1
a(lp6260
F0.282051
aaI39
aa(lp6261
I1
a(lp6262
F0.3
aaI40
aa(lp6263
I1
a(lp6264
F0.214286
aaI28
aa(lp6265
I1
a(lp6266
F0.214286
aaI28
aa(lp6267
I1
a(lp6268
F0.230769
aaI26
aa(lp6269
I1
a(lp6270
F0.470588
aaI34
aa(lp6271
I1
a(lp6272
F0.454545
aaI33
aa(lp6273
I1
a(lp6274
F0.444444
aaI27
aa(lp6275
I1
a(lp6276
F0.464286
aaI28
aa(lp6277
I1
a(lp6278
F0.4
aaI30
aa(lp6279
I1
a(lp6280
F0.361111
aaI36
aa(lp6281
I1
a(lp6282
F0.302326
aaI43
aa(lp6283
I1
a(lp6284
F0.212121
aaI33
aa(lp6285
I1
a(lp6286
F0.233333
aaI30
aa(lp6287
I1
a(lp6288
F0.432432
aaI37
aa(lp6289
I1
a(lp6290
F0.257143
aaI35
aa(lp6291
I1
a(lp6292
F0.342105
aaI38
aa(lp6293
I1
a(lp6294
F0.358974
aaI39
aa(lp6295
I1
a(lp6296
F0.482759
aaI29
aa(lp6297
I1
a(lp6298
F0.416667
aaI24
aa(lp6299
I1
a(lp6300
F0.377778
aaI45
aa(lp6301
I1
a(lp6302
F0.348837
aaI43
aa(lp6303
I1
a(lp6304
F0.553571
aaI56
aa(lp6305
I1
a(lp6306
F0.5625
aaI48
aa(lp6307
I1
a(lp6308
F0.540541
aaI37
aaa(lp6309
g3128
ag3129
aa(lp6310
g3131
ag3132
a(lp6311
I1
a(lp6312
F0.432432
aaI37
aaa(lp6313
g3140
ag3141
aa(lp6314
g3157
ag3158
a(lp6315
I1
a(lp6316
F0.793103
aaI87
aa(lp6317
I1
a(lp6318
F0.409639
aaI83
aa(lp6319
I1
a(lp6320
F0.393939
aaI33
aa(lp6321
I1
a(lp6322
F0.216216
aaI37
aa(lp6323
I1
a(lp6324
F0.342105
aaI38
aa(lp6325
I1
a(lp6326
F0.390244
aaI41
aa(lp6327
I1
a(lp6328
F0.655172
aaI58
aa(lp6329
I1
a(lp6330
F0.659574
aaI47
aa(lp6331
I1
a(lp6332
F0.25
aaI36
aa(lp6333
I1
a(lp6334
F0.28125
aaI32
aa(lp6335
I1
a(lp6336
F0.4
aaI20
aa(lp6337
I1
a(lp6338
F0.344828
aaI29
aa(lp6339
I1
a(lp6340
F0.333333
aaI27
aa(lp6341
I1
a(lp6342
F0.296296
aaI27
aa(lp6343
I1
a(lp6344
F0.357143
aaI28
aa(lp6345
I1
a(lp6346
F0.230769
aaI26
aa(lp6347
I1
a(lp6348
F0.266667
aaI45
aa(lp6349
I1
a(lp6350
F0.414634
aaI41
aa(lp6351
I1
a(lp6352
F0.451613
aaI62
aa(lp6353
I1
a(lp6354
F0.409091
aaI44
aa(lp6355
I1
a(lp6356
F0.432432
aaI37
aa(lp6357
I1
a(lp6358
F0.436364
aaI55
aa(lp6359
I1
a(lp6360
F0.210526
aaI38
aaa(lp6361
g3212
ag3213
aa(lp6362
g3215
ag3216
a(lp6363
I1
a(lp6364
F0.432432
aaI37
aa(lp6365
I1
a(lp6366
F0.375
aaI40
aa(lp6367
I1
a(lp6368
F0.322581
aaI31
aa(lp6369
I1
a(lp6370
F0.387097
aaI31
aa(lp6371
I1
a(lp6372
F0.403846
aaI52
aa(lp6373
I1
a(lp6374
F0.321429
aaI28
aa(lp6375
I1
a(lp6376
F0.285714
aaI35
aa(lp6377
I1
a(lp6378
F0.297297
aaI37
aa(lp6379
I1
a(lp6380
F0.241379
aaI29
aa(lp6381
I1
a(lp6382
F0.275862
aaI29
aa(lp6383
I1
a(lp6384
F0.333333
aaI30
aa(lp6385
I1
a(lp6386
F0.448276
aaI29
aaa(lp6387
g3218
ag3219
aa(lp6388
g3289
ag3290
aa(lp6389
g3292
ag3293
a(lp6390
I1
a(lp6391
F0.603175
aaI63
aa(lp6392
I1
a(lp6393
F0.473684
aaI38
aa(lp6394
I1
a(lp6395
F0.24
aaI25
aa(lp6396
I1
a(lp6397
F0.333333
aaI33
aa(lp6398
I1
a(lp6399
F0.565217
aaI46
aa(lp6400
I1
a(lp6401
F0.307692
aaI26
aa(lp6402
I1
a(lp6403
F0.272727
aaI22
aa(lp6404
I1
a(lp6405
F0.285714
aaI28
aa(lp6406
I1
a(lp6407
F0.365385
aaI52
aa(lp6408
I1
a(lp6409
F0.25
aaI28
aaa(lp6410
g3343
ag3344
aa(lp6411
g3346
ag3347
aa(lp6412
g3371
ag3372
a(lp6413
I1
a(lp6414
F0.230769
aaI26
aa(lp6415
I1
a(lp6416
F0.222222
aaI27
aaa(lp6417
g3380
ag3381
a(lp6418
I1
a(lp6419
F0.409091
aaI44
aa(lp6420
I1
a(lp6421
F0.365385
aaI52
aa(lp6422
I1
a(lp6423
F0.580645
aaI31
aa(lp6424
I1
a(lp6425
F0.291667
aaI24
aa(lp6426
I1
a(lp6427
F0.456522
aaI46
aa(lp6428
I1
a(lp6429
F0.351351
aaI37
aa(lp6430
I1
a(lp6431
F0.463415
aaI41
aa(lp6432
I1
a(lp6433
F0.391304
aaI46
aa(lp6434
I1
a(lp6435
F0.352941
aaI34
aaa(lp6436
g3395
ag3396
aa(lp6437
g3420
ag3421
a(lp6438
I1
a(lp6439
F0.210526
aaI38
aa(lp6440
I1
a(lp6441
F0.318182
aaI22
aaa(lp6442
g3439
ag3440
a(lp6443
I1
a(lp6444
F0.529412
aaI34
aa(lp6445
I1
a(lp6446
F0.396226
aaI53
aa(lp6447
I1
a(lp6448
F0.433333
aaI30
aa(lp6449
I1
a(lp6450
F0.5
aaI42
aa(lp6451
I1
a(lp6452
F0.565217
aaI46
aaa(lp6453
g3442
ag3443
a(lp6454
I1
a(lp6455
F0.5
aaI40
aa(lp6456
I1
a(lp6457
F0.382353
aaI68
aa(lp6458
I1
a(lp6459
F0.38806
aaI67
aa(lp6460
I1
a(lp6461
F0.321429
aaI28
aa(lp6462
I1
a(lp6463
F0.375
aaI24
aa(lp6464
I1
a(lp6465
F0.32
aaI25
aa(lp6466
I1
a(lp6467
F0.32
aaI25
aa(lp6468
I1
a(lp6469
F0.321429
aaI28
aa(lp6470
I1
a(lp6471
F0.357143
aaI28
aa(lp6472
I1
a(lp6473
F0.489362
aaI47
aa(lp6474
I1
a(lp6475
F0.358974
aaI39
aa(lp6476
I1
a(lp6477
F0.371429
aaI35
aa(lp6478
I1
a(lp6479
F0.351351
aaI37
aaa(lp6480
g3445
ag3446
aa(lp6481
g3448
ag3449
a(lp6482
I1
a(lp6483
F0.324324
aaI37
aa(lp6484
I1
a(lp6485
F0.214286
aaI28
aaa(lp6486
g3451
ag3452
aa(lp6487
g3458
ag3459
aa(lp6488
g3469
ag3470
aa(lp6489
g3474
ag3475
aa(lp6490
g3483
ag3484
aassS'diploids'
p6491
(dp6492
g3
(lp6493
(lp6494
S'scaffold3626_cov240'
p6495
aS'scaffold4811_cov246'
p6496
a(lp6497
I1
a(lp6498
F0.4
aaI25
aa(lp6499
I1
a(lp6500
F0.257143
aaI35
aa(lp6501
I1
a(lp6502
F0.472222
aaI36
aa(lp6503
I1
a(lp6504
F0.371429
aaI35
aa(lp6505
I1
a(lp6506
F0.378378
aaI37
aa(lp6507
I1
a(lp6508
F0.388889
aaI36
aa(lp6509
I1
a(lp6510
F0.45
aaI40
aaa(lp6511
S'scaffold11291_cov250'
p6512
aS'scaffold3627_cov265'
p6513
a(lp6514
I1
a(lp6515
F0.27027
aaI37
aa(lp6516
I1
a(lp6517
F0.212121
aaI33
aa(lp6518
I1
a(lp6519
F0.375
aaI32
aa(lp6520
I1
a(lp6521
F0.535714
aaI28
aa(lp6522
I1
a(lp6523
F0.5
aaI40
aa(lp6524
I1
a(lp6525
F0.297872
aaI47
aa(lp6526
I1
a(lp6527
F0.25
aaI40
aa(lp6528
I1
a(lp6529
F0.422222
aaI45
aa(lp6530
I1
a(lp6531
F0.21875
aaI32
aaa(lp6532
S'scaffold1708_cov257'
p6533
aS'scaffold2991_cov233'
p6534
a(lp6535
I1
a(lp6536
F0.368421
aaI38
aa(lp6537
I1
a(lp6538
F0.442308
aaI52
aa(lp6539
I1
a(lp6540
F0.52
aaI50
aa(lp6541
I1
a(lp6542
F0.395349
aaI43
aa(lp6543
I1
a(lp6544
F0.533333
aaI45
aa(lp6545
I1
a(lp6546
F0.404255
aaI47
aa(lp6547
I1
a(lp6548
F0.510204
aaI49
aa(lp6549
I1
a(lp6550
F0.489796
aaI49
aa(lp6551
I1
a(lp6552
F0.478261
aaI46
aaa(lp6553
S'scaffold4798_cov206'
p6554
aS'scaffold8289_cov180'
p6555
a(lp6556
I1
a(lp6557
F0.529412
aaI34
aa(lp6558
I1
a(lp6559
F0.277778
aaI36
aa(lp6560
I1
a(lp6561
F0.333333
aaI42
aaa(lp6562
S'scaffold47935_cov305'
p6563
aS'scaffold774_cov229'
p6564
aa(lp6565
S'scaffold467_cov263'
p6566
aS'scaffold7247_cov286'
p6567
aa(lp6568
S'scaffold1469_cov209'
p6569
aS'scaffold3829_cov235'
p6570
a(lp6571
I1
a(lp6572
F0.259259
aaI27
aa(lp6573
I1
a(lp6574
F0.233333
aaI30
aa(lp6575
I1
a(lp6576
F0.552632
aaI38
aa(lp6577
I1
a(lp6578
F0.310345
aaI29
aa(lp6579
I1
a(lp6580
F0.28125
aaI32
aa(lp6581
I1
a(lp6582
F0.5
aaI22
aa(lp6583
I1
a(lp6584
F0.333333
aaI24
aa(lp6585
I1
a(lp6586
F0.470588
aaI17
aaa(lp6587
S'scaffold2503_cov151'
p6588
aS'scaffold3984_cov353'
p6589
aa(lp6590
S'scaffold11346_cov240'
p6591
aS'scaffold7912_cov254'
p6592
aa(lp6593
S'scaffold1511_cov206'
p6594
aS'scaffold1767_cov191'
p6595
a(lp6596
I1
a(lp6597
F0.205882
aaI34
aa(lp6598
I1
a(lp6599
F0.481481
aaI54
aa(lp6600
I1
a(lp6601
F0.341463
aaI41
aa(lp6602
I1
a(lp6603
F0.266667
aaI30
aa(lp6604
I1
a(lp6605
F0.2
aaI30
aa(lp6606
I1
a(lp6607
F0.0
aaI38
aa(lp6608
I1
a(lp6609
F0.241379
aaI29
aa(lp6610
I1
a(lp6611
F0.466667
aaI45
aaa(lp6612
S'scaffold2519_cov239'
p6613
aS'scaffold33999_cov278'
p6614
aa(lp6615
S'scaffold12689_cov256'
p6616
aS'scaffold7460_cov152'
p6617
aa(lp6618
S'scaffold2175_cov210'
p6619
aS'scaffold3666_cov227'
p6620
aa(lp6621
S'scaffold14855_cov234'
p6622
aS'scaffold34047_cov174'
p6623
a(lp6624
I1
a(lp6625
F0.404762
aaI42
aa(lp6626
I1
a(lp6627
F0.264706
aaI34
aa(lp6628
I1
a(lp6629
F0.216216
aaI37
aa(lp6630
I1
a(lp6631
F0.314815
aaI54
aaa(lp6632
S'scaffold5373_cov204'
p6633
aS'scaffold6283_cov179'
p6634
aa(lp6635
S'scaffold1228_cov289'
p6636
aS'scaffold18802_cov239'
p6637
aa(lp6638
S'scaffold34878_cov239'
p6639
aS'scaffold6446_cov191'
p6640
aa(lp6641
S'scaffold4404_cov204'
p6642
aS'scaffold53165_cov284'
p6643
aa(lp6644
S'scaffold27882_cov209'
p6645
aS'scaffold36175_cov226'
p6646
aa(lp6647
S'scaffold11428_cov295'
p6648
aS'scaffold42512_cov294'
p6649
aa(lp6650
S'scaffold10417_cov197'
p6651
aS'scaffold4396_cov166'
p6652
a(lp6653
I1
a(lp6654
F0.410256
aaI39
aa(lp6655
I1
a(lp6656
F0.416667
aaI48
aa(lp6657
I1
a(lp6658
F0.473684
aaI38
aa(lp6659
I1
a(lp6660
F0.447368
aaI38
aa(lp6661
I1
a(lp6662
F0.463415
aaI41
aa(lp6663
I1
a(lp6664
F0.454545
aaI44
aa(lp6665
I1
a(lp6666
F0.454545
aaI44
aa(lp6667
I1
a(lp6668
F0.365854
aaI41
aa(lp6669
I1
a(lp6670
F0.409091
aaI22
aa(lp6671
I1
a(lp6672
F0.366667
aaI30
aaa(lp6673
S'scaffold16317_cov210'
p6674
aS'scaffold6713_cov225'
p6675
a(lp6676
I1
a(lp6677
F0.21875
aaI32
aa(lp6678
I1
a(lp6679
F0.352941
aaI34
aa(lp6680
I1
a(lp6681
F0.470588
aaI34
aa(lp6682
I1
a(lp6683
F0.322581
aaI31
aa(lp6684
I1
a(lp6685
F0.277778
aaI36
aa(lp6686
I1
a(lp6687
F0.290323
aaI31
aa(lp6688
I1
a(lp6689
F0.25
aaI28
aaa(lp6690
S'scaffold11324_cov225'
p6691
aS'scaffold9508_cov196'
p6692
aa(lp6693
S'scaffold1404_cov156'
p6694
aS'scaffold5051_cov291'
p6695
a(lp6696
I1
a(lp6697
F0.5
aaI24
aaa(lp6698
S'scaffold34240_cov291'
p6699
aS'scaffold43247_cov305'
p6700
aa(lp6701
S'scaffold2155_cov181'
p6702
aS'scaffold54209_cov305'
p6703
aa(lp6704
S'scaffold12582_cov223'
p6705
aS'scaffold3805_cov206'
p6706
a(lp6707
I1
a(lp6708
F0.275862
aaI29
aa(lp6709
I1
a(lp6710
F0.259259
aaI27
aa(lp6711
I1
a(lp6712
F0.333333
aaI42
aa(lp6713
I1
a(lp6714
F0.348837
aaI43
aa(lp6715
I1
a(lp6716
F0.222222
aaI27
aa(lp6717
I1
a(lp6718
F0.2
aaI30
aa(lp6719
I1
a(lp6720
F0.2
aaI20
aa(lp6721
I1
a(lp6722
F0.230769
aaI39
aa(lp6723
I1
a(lp6724
F0.26087
aaI46
aa(lp6725
I1
a(lp6726
F0.297872
aaI47
aaa(lp6727
S'scaffold193_cov232'
p6728
aS'scaffold51921_cov294'
p6729
aa(lp6730
S'scaffold1488_cov177'
p6731
aS'scaffold7765_cov174'
p6732
a(lp6733
I1
a(lp6734
F0.351351
aaI37
aaa(lp6735
S'scaffold23025_cov260'
p6736
aS'scaffold34181_cov257'
p6737
aa(lp6738
S'scaffold12541_cov206'
p6739
aS'scaffold1867_cov235'
p6740
a(lp6741
I1
a(lp6742
F0.45
aaI40
aa(lp6743
I1
a(lp6744
F0.297297
aaI37
aa(lp6745
I1
a(lp6746
F0.3
aaI30
aa(lp6747
I1
a(lp6748
F0.28125
aaI32
aa(lp6749
I1
a(lp6750
F0.588235
aaI51
aaa(lp6751
S'scaffold3425_cov288'
p6752
aS'scaffold4454_cov228'
p6753
a(lp6754
I1
a(lp6755
F0.390244
aaI41
aa(lp6756
I1
a(lp6757
F0.27027
aaI37
aa(lp6758
I1
a(lp6759
F0.230769
aaI52
aa(lp6760
I1
a(lp6761
F0.722222
aaI72
aa(lp6762
I1
a(lp6763
F0.204545
aaI44
aaa(lp6764
S'scaffold13538_cov239'
p6765
aS'scaffold5402_cov179'
p6766
a(lp6767
I1
a(lp6768
F0.214286
aaI28
aa(lp6769
I1
a(lp6770
F0.222222
aaI27
aa(lp6771
I1
a(lp6772
F0.24
aaI25
aa(lp6773
I1
a(lp6774
F0.25
aaI24
aa(lp6775
I1
a(lp6776
F0.34375
aaI32
aaa(lp6777
S'scaffold3656_cov164'
p6778
aS'scaffold7174_cov157'
p6779
aa(lp6780
S'scaffold3622_cov247'
p6781
aS'scaffold45254_cov315'
p6782
aa(lp6783
S'scaffold114_cov204'
p6784
aS'scaffold12391_cov201'
p6785
a(lp6786
I1
a(lp6787
F0.5
aaI50
aa(lp6788
I1
a(lp6789
F0.275862
aaI29
aa(lp6790
I1
a(lp6791
F0.36
aaI25
aaa(lp6792
S'scaffold13021_cov287'
p6793
aS'scaffold3989_cov265'
p6794
a(lp6795
I1
a(lp6796
F0.508197
aaI61
aa(lp6797
I1
a(lp6798
F0.448276
aaI29
aa(lp6799
I1
a(lp6800
F0.482759
aaI29
aaa(lp6801
S'scaffold2864_cov140'
p6802
aS'scaffold6319_cov169'
p6803
aa(lp6804
S'scaffold2759_cov181'
p6805
aS'scaffold8772_cov153'
p6806
aa(lp6807
S'scaffold19757_cov388'
p6808
aS'scaffold1999_cov166'
p6809
a(lp6810
I1
a(lp6811
F0.5
aaI52
aa(lp6812
I1
a(lp6813
F0.631579
aaI38
aa(lp6814
I1
a(lp6815
F0.425
aaI40
aa(lp6816
I1
a(lp6817
F0.375
aaI40
aa(lp6818
I1
a(lp6819
F0.375
aaI40
aa(lp6820
I1
a(lp6821
F0.422222
aaI45
aaa(lp6822
S'scaffold1058_cov270'
p6823
aS'scaffold8732_cov275'
p6824
a(lp6825
I1
a(lp6826
F0.409091
aaI44
aa(lp6827
I1
a(lp6828
F0.390244
aaI41
aa(lp6829
I1
a(lp6830
F0.358974
aaI39
aa(lp6831
I1
a(lp6832
F0.386364
aaI44
aa(lp6833
I1
a(lp6834
F0.486486
aaI37
aa(lp6835
I1
a(lp6836
F0.541667
aaI48
aa(lp6837
I1
a(lp6838
F0.296296
aaI27
aa(lp6839
I1
a(lp6840
F0.4375
aaI32
aa(lp6841
I1
a(lp6842
F0.434783
aaI46
aa(lp6843
I1
a(lp6844
F0.432432
aaI37
aa(lp6845
I1
a(lp6846
F0.3
aaI30
aaa(lp6847
S'scaffold1208_cov229'
p6848
aS'scaffold1508_cov264'
p6849
a(lp6850
I1
a(lp6851
F0.272727
aaI33
aa(lp6852
I1
a(lp6853
F0.424242
aaI33
aaa(lp6854
S'scaffold11822_cov236'
p6855
aS'scaffold34659_cov215'
p6856
a(lp6857
I1
a(lp6858
F0.288889
aaI45
aa(lp6859
I1
a(lp6860
F0.230769
aaI39
aa(lp6861
I1
a(lp6862
F0.243243
aaI37
aa(lp6863
I1
a(lp6864
F0.225
aaI40
aa(lp6865
I1
a(lp6866
F0.243902
aaI41
aa(lp6867
I1
a(lp6868
F0.6
aaI50
aa(lp6869
I1
a(lp6870
F0.518519
aaI27
aa(lp6871
I1
a(lp6872
F0.435897
aaI39
aa(lp6873
I1
a(lp6874
F0.465116
aaI43
aa(lp6875
I1
a(lp6876
F0.411765
aaI51
aa(lp6877
I1
a(lp6878
F0.535714
aaI56
aa(lp6879
I1
a(lp6880
F0.451613
aaI31
aa(lp6881
I1
a(lp6882
F0.514286
aaI35
aaa(lp6883
S'scaffold4643_cov233'
p6884
aS'scaffold7882_cov228'
p6885
a(lp6886
I1
a(lp6887
F0.204082
aaI49
aa(lp6888
I1
a(lp6889
F0.237288
aaI59
aa(lp6890
I1
a(lp6891
F0.396226
aaI53
aa(lp6892
I1
a(lp6893
F0.226415
aaI53
aa(lp6894
I1
a(lp6895
F0.25
aaI44
aa(lp6896
I1
a(lp6897
F0.564516
aaI62
aaa(lp6898
S'scaffold6544_cov240'
p6899
aS'scaffold8921_cov268'
p6900
a(lp6901
I1
a(lp6902
F0.4
aaI30
aa(lp6903
I1
a(lp6904
F0.470588
aaI51
aaa(lp6905
S'scaffold11665_cov274'
p6906
aS'scaffold4220_cov209'
p6907
a(lp6908
I1
a(lp6909
F0.310345
aaI29
aa(lp6910
I1
a(lp6911
F0.481481
aaI27
aa(lp6912
I1
a(lp6913
F0.423077
aaI26
aa(lp6914
I1
a(lp6915
F0.519231
aaI52
aaa(lp6916
S'scaffold35079_cov288'
p6917
aS'scaffold35849_cov287'
p6918
a(lp6919
I1
a(lp6920
F0.567568
aaI37
aa(lp6921
I1
a(lp6922
F0.537037
aaI54
aa(lp6923
I1
a(lp6924
F0.217391
aaI23
aa(lp6925
I1
a(lp6926
F0.285714
aaI14
aa(lp6927
I1
a(lp6928
F0.257143
aaI35
aaa(lp6929
S'scaffold13758_cov189'
p6930
aS'scaffold7307_cov224'
p6931
a(lp6932
I1
a(lp6933
F0.382353
aaI34
aa(lp6934
I1
a(lp6935
F0.464286
aaI28
aa(lp6936
I1
a(lp6937
F0.464286
aaI28
aa(lp6938
I1
a(lp6939
F0.444444
aaI27
aa(lp6940
I1
a(lp6941
F0.258065
aaI31
aa(lp6942
I1
a(lp6943
F0.32
aaI25
aa(lp6944
I1
a(lp6945
F0.28
aaI25
aa(lp6946
I1
a(lp6947
F0.357143
aaI28
aa(lp6948
I1
a(lp6949
F0.285714
aaI28
aa(lp6950
I1
a(lp6951
F0.28
aaI25
aa(lp6952
I1
a(lp6953
F0.333333
aaI24
aa(lp6954
I1
a(lp6955
F0.4
aaI25
aa(lp6956
I1
a(lp6957
F0.28
aaI25
aa(lp6958
I1
a(lp6959
F0.259259
aaI27
aa(lp6960
I1
a(lp6961
F0.25
aaI36
aa(lp6962
I1
a(lp6963
F0.243243
aaI37
aa(lp6964
I1
a(lp6965
F0.243243
aaI37
aa(lp6966
I1
a(lp6967
F0.28125
aaI32
aa(lp6968
I1
a(lp6969
F0.752941
aaI85
aaa(lp6970
S'scaffold11481_cov169'
p6971
aS'scaffold21751_cov240'
p6972
a(lp6973
I1
a(lp6974
F0.28125
aaI32
aa(lp6975
I1
a(lp6976
F0.30303
aaI33
aa(lp6977
I1
a(lp6978
F0.333333
aaI36
aa(lp6979
I1
a(lp6980
F0.344828
aaI29
aa(lp6981
I1
a(lp6982
F0.310345
aaI29
aa(lp6983
I1
a(lp6984
F0.3125
aaI32
aa(lp6985
I1
a(lp6986
F0.258065
aaI31
aa(lp6987
I1
a(lp6988
F0.285714
aaI28
aa(lp6989
I1
a(lp6990
F0.263158
aaI19
aa(lp6991
I1
a(lp6992
F0.545455
aaI33
aa(lp6993
I1
a(lp6994
F0.571429
aaI35
aa(lp6995
I1
a(lp6996
F0.527778
aaI36
aa(lp6997
I1
a(lp6998
F0.411765
aaI34
aa(lp6999
I1
a(lp7000
F0.375
aaI32
aa(lp7001
I1
a(lp7002
F0.25
aaI28
aa(lp7003
I1
a(lp7004
F0.222222
aaI27
aa(lp7005
I1
a(lp7006
F0.304348
aaI23
aa(lp7007
I1
a(lp7008
F0.416667
aaI24
aa(lp7009
I1
a(lp7010
F0.3
aaI20
aa(lp7011
I1
a(lp7012
F0.35
aaI20
aa(lp7013
I1
a(lp7014
F0.285714
aaI21
aa(lp7015
I1
a(lp7016
F0.363636
aaI22
aa(lp7017
I1
a(lp7018
F0.45
aaI20
aa(lp7019
I1
a(lp7020
F0.5
aaI16
aa(lp7021
I1
a(lp7022
F0.4
aaI15
aa(lp7023
I1
a(lp7024
F0.214286
aaI14
aa(lp7025
I1
a(lp7026
F0.28
aaI25
aa(lp7027
I1
a(lp7028
F0.333333
aaI27
aa(lp7029
I1
a(lp7030
F0.333333
aaI27
aa(lp7031
I1
a(lp7032
F0.333333
aaI27
aa(lp7033
I1
a(lp7034
F0.37037
aaI27
aa(lp7035
I1
a(lp7036
F0.32
aaI25
aa(lp7037
I1
a(lp7038
F0.294118
aaI17
aa(lp7039
I1
a(lp7040
F0.368421
aaI19
aa(lp7041
I1
a(lp7042
F0.333333
aaI18
aa(lp7043
I1
a(lp7044
F0.363636
aaI22
aa(lp7045
I1
a(lp7046
F0.375
aaI24
aa(lp7047
I1
a(lp7048
F0.346154
aaI26
aa(lp7049
I1
a(lp7050
F0.296296
aaI27
aa(lp7051
I1
a(lp7052
F0.333333
aaI30
aa(lp7053
I1
a(lp7054
F0.333333
aaI30
aa(lp7055
I1
a(lp7056
F0.30303
aaI33
aa(lp7057
I1
a(lp7058
F0.285714
aaI35
aa(lp7059
I1
a(lp7060
F0.3125
aaI32
aa(lp7061
I1
a(lp7062
F0.346154
aaI26
aa(lp7063
I1
a(lp7064
F0.346154
aaI26
aa(lp7065
I1
a(lp7066
F0.347826
aaI23
aa(lp7067
I1
a(lp7068
F0.3
aaI20
aa(lp7069
I1
a(lp7070
F0.285714
aaI21
aa(lp7071
I1
a(lp7072
F0.3
aaI20
aa(lp7073
I1
a(lp7074
F0.272727
aaI22
aa(lp7075
I1
a(lp7076
F0.272727
aaI22
aa(lp7077
I1
a(lp7078
F0.272727
aaI22
aa(lp7079
I1
a(lp7080
F0.272727
aaI33
aa(lp7081
I1
a(lp7082
F0.322581
aaI31
aa(lp7083
I1
a(lp7084
F0.28
aaI25
aa(lp7085
I1
a(lp7086
F0.296296
aaI27
aa(lp7087
I1
a(lp7088
F0.318182
aaI22
aa(lp7089
I1
a(lp7090
F0.347826
aaI23
aa(lp7091
I1
a(lp7092
F0.434783
aaI23
aa(lp7093
I1
a(lp7094
F0.222222
aaI18
aa(lp7095
I1
a(lp7096
F0.277778
aaI36
aa(lp7097
I1
a(lp7098
F0.324324
aaI37
aa(lp7099
I1
a(lp7100
F0.275862
aaI29
aa(lp7101
I1
a(lp7102
F0.208333
aaI24
aa(lp7103
I1
a(lp7104
F0.26087
aaI23
aa(lp7105
I1
a(lp7106
F0.366667
aaI30
aaa(lp7107
S'scaffold11838_cov280'
p7108
aS'scaffold3183_cov273'
p7109
a(lp7110
I1
a(lp7111
F0.25
aaI32
aa(lp7112
I1
a(lp7113
F0.666667
aaI33
aaa(lp7114
S'scaffold2115_cov223'
p7115
aS'scaffold4466_cov187'
p7116
aa(lp7117
S'scaffold4640_cov176'
p7118
aS'scaffold6032_cov173'
p7119
aa(lp7120
S'scaffold642_cov217'
p7121
aS'scaffold7855_cov227'
p7122
a(lp7123
I1
a(lp7124
F0.235294
aaI34
aa(lp7125
I1
a(lp7126
F0.563636
aaI55
aa(lp7127
I1
a(lp7128
F0.206897
aaI29
aa(lp7129
I1
a(lp7130
F0.263158
aaI38
aa(lp7131
I1
a(lp7132
F0.371429
aaI35
aa(lp7133
I1
a(lp7134
F0.4
aaI50
aa(lp7135
I1
a(lp7136
F0.277778
aaI36
aa(lp7137
I1
a(lp7138
F0.4
aaI35
aa(lp7139
I1
a(lp7140
F0.516129
aaI31
aa(lp7141
I1
a(lp7142
F0.26087
aaI23
aa(lp7143
I1
a(lp7144
F0.269231
aaI26
aa(lp7145
I1
a(lp7146
F0.366667
aaI30
aa(lp7147
I1
a(lp7148
F0.307692
aaI13
aaa(lp7149
S'scaffold6144_cov377'
p7150
aS'scaffold6254_cov268'
p7151
aa(lp7152
S'scaffold35739_cov310'
p7153
aS'scaffold36798_cov326'
p7154
aa(lp7155
S'scaffold1948_cov236'
p7156
aS'scaffold3201_cov239'
p7157
a(lp7158
I1
a(lp7159
F0.526316
aaI57
aa(lp7160
I1
a(lp7161
F0.44186
aaI43
aa(lp7162
I1
a(lp7163
F0.425
aaI40
aa(lp7164
I1
a(lp7165
F0.386364
aaI44
aa(lp7166
I1
a(lp7167
F0.555556
aaI36
aa(lp7168
I1
a(lp7169
F0.212121
aaI33
aa(lp7170
I1
a(lp7171
F0.290323
aaI31
aa(lp7172
I1
a(lp7173
F0.5
aaI32
aa(lp7174
I1
a(lp7175
F0.484848
aaI33
aa(lp7176
I1
a(lp7177
F0.512821
aaI39
aa(lp7178
I1
a(lp7179
F0.375
aaI40
aa(lp7180
I1
a(lp7181
F0.419355
aaI31
aa(lp7182
I1
a(lp7183
F0.452381
aaI42
aaa(lp7184
S'scaffold662_cov282'
p7185
aS'scaffold663_cov256'
p7186
a(lp7187
I1
a(lp7188
F0.372093
aaI43
aa(lp7189
I1
a(lp7190
F0.25
aaI44
aa(lp7191
I1
a(lp7192
F0.369565
aaI46
aa(lp7193
I1
a(lp7194
F0.710526
aaI38
aa(lp7195
I1
a(lp7196
F0.428571
aaI35
aa(lp7197
I1
a(lp7198
F0.454545
aaI44
aa(lp7199
I1
a(lp7200
F0.529412
aaI51
aa(lp7201
I1
a(lp7202
F0.433962
aaI53
aag6116
ag6118
a(lp7203
I1
a(lp7204
F0.22449
aaI49
aa(lp7205
I1
a(lp7206
F0.290323
aaI31
aa(lp7207
I1
a(lp7208
F0.214286
aaI42
aa(lp7209
I1
a(lp7210
F0.466667
aaI45
aa(lp7211
I1
a(lp7212
F0.469388
aaI49
aa(lp7213
I1
a(lp7214
F0.42
aaI50
aa(lp7215
I1
a(lp7216
F0.423729
aaI59
aa(lp7217
I1
a(lp7218
F0.42
aaI50
aa(lp7219
I1
a(lp7220
F0.351351
aaI37
aa(lp7221
I1
a(lp7222
F0.324324
aaI37
aa(lp7223
I1
a(lp7224
F0.395349
aaI43
aa(lp7225
I1
a(lp7226
F0.0
aaI18
aa(lp7227
I1
a(lp7228
F0.304348
aaI46
aa(lp7229
I1
a(lp7230
F0.521739
aaI46
aa(lp7231
I1
a(lp7232
F0.257143
aaI35
aa(lp7233
I1
a(lp7234
F0.230769
aaI26
aa(lp7235
I1
a(lp7236
F0.394737
aaI38
aa(lp7237
I1
a(lp7238
F0.754717
aaI106
aa(lp7239
I1
a(lp7240
F0.534884
aaI43
aa(lp7241
I1
a(lp7242
F0.58
aaI50
aa(lp7243
I1
a(lp7244
F0.432432
aaI37
aaa(lp7245
S'scaffold35969_cov266'
p7246
aS'scaffold5160_cov248'
p7247
a(lp7248
I1
a(lp7249
F0.47619
aaI42
aa(lp7250
I1
a(lp7251
F0.528302
aaI53
aa(lp7252
I1
a(lp7253
F0.317073
aaI41
aa(lp7254
I1
a(lp7255
F0.4
aaI40
aa(lp7256
I1
a(lp7257
F0.384615
aaI39
aa(lp7258
I1
a(lp7259
F0.288889
aaI45
aa(lp7260
I1
a(lp7261
F0.30303
aaI33
aa(lp7262
I1
a(lp7263
F0.264706
aaI34
aaa(lp7264
S'scaffold12609_cov286'
p7265
aS'scaffold3427_cov261'
p7266
aa(lp7267
S'scaffold21079_cov185'
p7268
aS'scaffold34580_cov232'
p7269
aa(lp7270
S'scaffold4870_cov219'
p7271
aS'scaffold7504_cov226'
p7272
a(lp7273
I1
a(lp7274
F0.241379
aaI29
aa(lp7275
I1
a(lp7276
F0.205882
aaI34
aa(lp7277
I1
a(lp7278
F0.28125
aaI32
aa(lp7279
I1
a(lp7280
F0.317073
aaI41
aaa(lp7281
S'scaffold5560_cov257'
p7282
aS'scaffold8732_cov275'
p7283
a(lp7284
I1
a(lp7285
F0.367347
aaI49
aa(lp7286
I1
a(lp7287
F0.538462
aaI39
aa(lp7288
I1
a(lp7289
F0.269231
aaI26
aa(lp7290
I1
a(lp7291
F0.477273
aaI44
aaa(lp7292
S'scaffold1952_cov217'
p7293
aS'scaffold6035_cov288'
p7294
aa(lp7295
S'scaffold14801_cov267'
p7296
aS'scaffold4703_cov265'
p7297
a(lp7298
I1
a(lp7299
F0.365385
aaI52
aa(lp7300
I1
a(lp7301
F0.457143
aaI35
aa(lp7302
I1
a(lp7303
F0.592593
aaI27
aa(lp7304
I1
a(lp7305
F0.490566
aaI53
aa(lp7306
I1
a(lp7307
F0.394737
aaI38
aa(lp7308
I1
a(lp7309
F0.388889
aaI36
aa(lp7310
I1
a(lp7311
F0.4
aaI35
aa(lp7312
I1
a(lp7313
F0.388889
aaI18
aa(lp7314
I1
a(lp7315
F0.439024
aaI41
aaa(lp7316
S'scaffold15715_cov311'
p7317
aS'scaffold34618_cov281'
p7318
aa(lp7319
S'scaffold14007_cov270'
p7320
aS'scaffold181_cov231'
p7321
a(lp7322
I1
a(lp7323
F0.30303
aaI33
aa(lp7324
I1
a(lp7325
F0.37931
aaI29
aa(lp7326
I1
a(lp7327
F0.342857
aaI35
aa(lp7328
I1
a(lp7329
F0.333333
aaI36
aa(lp7330
I1
a(lp7331
F0.324324
aaI37
aa(lp7332
I1
a(lp7333
F0.375
aaI32
aa(lp7334
I1
a(lp7335
F0.411765
aaI34
aa(lp7336
I1
a(lp7337
F0.258065
aaI31
aa(lp7338
I1
a(lp7339
F0.0
aaI33
aa(lp7340
I1
a(lp7341
F0.242424
aaI33
aa(lp7342
I1
a(lp7343
F0.285714
aaI35
aa(lp7344
I1
a(lp7345
F0.567568
aaI37
aa(lp7346
I1
a(lp7347
F0.285714
aaI28
aa(lp7348
I1
a(lp7349
F0.21875
aaI32
aa(lp7350
I1
a(lp7351
F0.241379
aaI29
aa(lp7352
I1
a(lp7353
F0.413793
aaI29
aa(lp7354
I1
a(lp7355
F0.26087
aaI23
aa(lp7356
I1
a(lp7357
F0.230769
aaI26
aa(lp7358
I1
a(lp7359
F0.264706
aaI34
aa(lp7360
I1
a(lp7361
F0.264706
aaI34
aa(lp7362
I1
a(lp7363
F0.225
aaI40
aa(lp7364
I1
a(lp7365
F0.448276
aaI29
aaa(lp7366
S'scaffold18434_cov227'
p7367
aS'scaffold8280_cov208'
p7368
a(lp7369
I1
a(lp7370
F0.856164
aaI146
aaa(lp7371
S'scaffold978_cov183'
p7372
aS'scaffold979_cov154'
p7373
aa(lp7374
S'scaffold35711_cov297'
p7375
aS'scaffold6027_cov281'
p7376
a(lp7377
I1
a(lp7378
F0.4
aaI45
aa(lp7379
I1
a(lp7380
F0.365854
aaI41
aa(lp7381
I1
a(lp7382
F0.325
aaI40
aa(lp7383
I1
a(lp7384
F0.3
aaI40
aa(lp7385
I1
a(lp7386
F0.384615
aaI39
aa(lp7387
I1
a(lp7388
F0.375
aaI40
aa(lp7389
I1
a(lp7390
F0.463415
aaI41
aa(lp7391
I1
a(lp7392
F0.421875
aaI64
aa(lp7393
I1
a(lp7394
F0.4
aaI45
aa(lp7395
I1
a(lp7396
F0.333333
aaI45
aa(lp7397
I1
a(lp7398
F0.302326
aaI43
aa(lp7399
I1
a(lp7400
F0.388889
aaI36
aa(lp7401
I1
a(lp7402
F0.44186
aaI43
aa(lp7403
I1
a(lp7404
F0.5
aaI38
aa(lp7405
I1
a(lp7406
F0.435897
aaI39
aa(lp7407
I1
a(lp7408
F0.464286
aaI56
aa(lp7409
I1
a(lp7410
F0.591837
aaI49
aa(lp7411
I1
a(lp7412
F0.571429
aaI49
aa(lp7413
I1
a(lp7414
F0.557692
aaI52
aa(lp7415
I1
a(lp7416
F0.466667
aaI45
aa(lp7417
I1
a(lp7418
F0.357143
aaI42
aa(lp7419
I1
a(lp7420
F0.432432
aaI37
aa(lp7421
I1
a(lp7422
F0.4
aaI25
aa(lp7423
I1
a(lp7424
F0.531915
aaI47
aa(lp7425
I1
a(lp7426
F0.515152
aaI33
aa(lp7427
I1
a(lp7428
F0.564103
aaI39
aa(lp7429
I1
a(lp7430
F0.575
aaI40
aa(lp7431
I1
a(lp7432
F0.461538
aaI39
aa(lp7433
I1
a(lp7434
F0.352941
aaI34
aa(lp7435
I1
a(lp7436
F0.65
aaI40
aa(lp7437
I1
a(lp7438
F0.345455
aaI55
aa(lp7439
I1
a(lp7440
F0.451613
aaI31
aa(lp7441
I1
a(lp7442
F0.0
aaI22
aa(lp7443
I1
a(lp7444
F0.444444
aaI36
aa(lp7445
I1
a(lp7446
F0.487805
aaI41
aa(lp7447
I1
a(lp7448
F0.428571
aaI49
aaa(lp7449
S'scaffold33716_cov277'
p7450
aS'scaffold58_cov215'
p7451
a(lp7452
I1
a(lp7453
F0.352941
aaI34
aa(lp7454
I1
a(lp7455
F0.264706
aaI34
aa(lp7456
I1
a(lp7457
F0.285714
aaI49
aaa(lp7458
S'scaffold10657_cov306'
p7459
aS'scaffold4178_cov282'
p7460
aa(lp7461
S'scaffold10_cov225'
p7462
aS'scaffold2901_cov252'
p7463
a(lp7464
I1
a(lp7465
F0.512195
aaI41
aa(lp7466
I1
a(lp7467
F0.366667
aaI30
aa(lp7468
I1
a(lp7469
F0.405405
aaI37
aa(lp7470
I1
a(lp7471
F0.363636
aaI33
aa(lp7472
I1
a(lp7473
F0.382353
aaI34
aa(lp7474
I1
a(lp7475
F0.34375
aaI32
aa(lp7476
I1
a(lp7477
F0.333333
aaI30
aaa(lp7478
S'scaffold2246_cov240'
p7479
aS'scaffold4949_cov266'
p7480
aa(lp7481
S'scaffold1253_cov168'
p7482
aS'scaffold849_cov247'
p7483
aa(lp7484
S'scaffold33647_cov137'
p7485
aS'scaffold6177_cov155'
p7486
a(lp7487
I1
a(lp7488
F0.46875
aaI32
aaa(lp7489
S'scaffold3428_cov197'
p7490
aS'scaffold5523_cov227'
p7491
a(lp7492
I1
a(lp7493
F0.205882
aaI34
aa(lp7494
I1
a(lp7495
F0.30303
aaI33
aaa(lp7496
S'scaffold11878_cov196'
p7497
aS'scaffold1436_cov280'
p7498
a(lp7499
I1
a(lp7500
F0.452381
aaI42
aa(lp7501
I1
a(lp7502
F0.375
aaI40
aa(lp7503
I1
a(lp7504
F0.236842
aaI38
aa(lp7505
I1
a(lp7506
F0.311111
aaI45
aa(lp7507
I1
a(lp7508
F0.326087
aaI46
aa(lp7509
I1
a(lp7510
F0.321429
aaI28
aaa(lp7511
S'scaffold1999_cov166'
p7512
aS'scaffold6403_cov387'
p7513
a(lp7514
I1
a(lp7515
F0.608696
aaI46
aa(lp7516
I1
a(lp7517
F0.555556
aaI63
aa(lp7518
I1
a(lp7519
F0.254545
aaI55
aa(lp7520
I1
a(lp7521
F0.4
aaI35
aa(lp7522
I1
a(lp7523
F0.217391
aaI46
aa(lp7524
I1
a(lp7525
F0.236842
aaI38
aa(lp7526
I1
a(lp7527
F0.230769
aaI39
aa(lp7528
I1
a(lp7529
F0.222222
aaI36
aa(lp7530
I1
a(lp7531
F0.314286
aaI35
aa(lp7532
I1
a(lp7533
F0.296296
aaI27
aa(lp7534
I1
a(lp7535
F0.37931
aaI29
aa(lp7536
I1
a(lp7537
F0.4
aaI50
aaa(lp7538
S'scaffold13364_cov176'
p7539
aS'scaffold13641_cov196'
p7540
a(lp7541
I1
a(lp7542
F0.311111
aaI45
aaa(lp7543
S'scaffold34868_cov282'
p7544
aS'scaffold8469_cov191'
p7545
aa(lp7546
S'scaffold3194_cov316'
p7547
aS'scaffold3195_cov270'
p7548
a(lp7549
I1
a(lp7550
F0.409091
aaI44
aa(lp7551
I1
a(lp7552
F0.409091
aaI44
aa(lp7553
I1
a(lp7554
F0.391304
aaI46
aa(lp7555
I1
a(lp7556
F0.469388
aaI49
aa(lp7557
I1
a(lp7558
F0.458333
aaI48
aa(lp7559
I1
a(lp7560
F0.519231
aaI52
aa(lp7561
I1
a(lp7562
F0.387755
aaI49
aaa(lp7563
S'scaffold1044_cov225'
p7564
aS'scaffold21510_cov192'
p7565
a(lp7566
I1
a(lp7567
F0.233333
aaI30
aaa(lp7568
S'scaffold10673_cov201'
p7569
aS'scaffold3680_cov185'
p7570
a(lp7571
I1
a(lp7572
F0.296296
aaI27
aa(lp7573
I1
a(lp7574
F0.285714
aaI28
aa(lp7575
I1
a(lp7576
F0.3125
aaI32
aa(lp7577
I1
a(lp7578
F0.378378
aaI37
aa(lp7579
I1
a(lp7580
F0.259259
aaI27
aaa(lp7581
S'scaffold10547_cov289'
p7582
aS'scaffold11428_cov295'
p7583
a(lp7584
I1
a(lp7585
F0.414634
aaI41
aa(lp7586
I1
a(lp7587
F0.44186
aaI43
aa(lp7588
I1
a(lp7589
F0.4375
aaI32
aa(lp7590
I1
a(lp7591
F0.431818
aaI44
aa(lp7592
I1
a(lp7593
F0.404255
aaI47
aa(lp7594
I1
a(lp7595
F0.408163
aaI49
aa(lp7596
I1
a(lp7597
F0.538462
aaI39
aa(lp7598
I1
a(lp7599
F0.377778
aaI45
aa(lp7600
I1
a(lp7601
F0.469388
aaI49
aa(lp7602
I1
a(lp7603
F0.619048
aaI42
aaa(lp7604
S'scaffold22541_cov161'
p7605
aS'scaffold6820_cov173'
p7606
aa(lp7607
S'scaffold14276_cov161'
p7608
aS'scaffold6422_cov190'
p7609
a(lp7610
I1
a(lp7611
F0.0
aaI29
aa(lp7612
I1
a(lp7613
F0.371429
aaI210
aaa(lp7614
S'scaffold3188_cov246'
p7615
aS'scaffold36473_cov268'
p7616
a(lp7617
I1
a(lp7618
F0.509804
aaI51
aa(lp7619
I1
a(lp7620
F0.454545
aaI55
aa(lp7621
I1
a(lp7622
F0.317073
aaI41
aa(lp7623
I1
a(lp7624
F0.4375
aaI32
aa(lp7625
I1
a(lp7626
F0.514286
aaI35
aa(lp7627
I1
a(lp7628
F0.375
aaI40
aa(lp7629
I1
a(lp7630
F0.422222
aaI45
aa(lp7631
I1
a(lp7632
F0.340426
aaI47
aa(lp7633
I1
a(lp7634
F0.615385
aaI39
aaa(lp7635
S'scaffold3054_cov300'
p7636
aS'scaffold9545_cov229'
p7637
aa(lp7638
S'scaffold35739_cov310'
p7639
aS'scaffold9147_cov314'
p7640
aa(lp7641
S'scaffold19598_cov155'
p7642
aS'scaffold3188_cov246'
p7643
aa(lp7644
S'scaffold4966_cov298'
p7645
aS'scaffold5238_cov294'
p7646
a(lp7647
I1
a(lp7648
F0.302469
aaI162
aa(lp7649
I1
a(lp7650
F0.205674
aaI141
aa(lp7651
I1
a(lp7652
F0.245283
aaI53
aa(lp7653
I1
a(lp7654
F0.25
aaI52
aa(lp7655
I1
a(lp7656
F0.258621
aaI58
aa(lp7657
I1
a(lp7658
F0.263158
aaI57
aa(lp7659
I1
a(lp7660
F0.464789
aaI71
aaa(lp7661
S'scaffold314_cov314'
p7662
aS'scaffold315_cov308'
p7663
a(lp7664
I1
a(lp7665
F0.5
aaI50
aaa(lp7666
S'scaffold3062_cov254'
p7667
aS'scaffold34957_cov248'
p7668
a(lp7669
I1
a(lp7670
F0.342857
aaI35
aaa(lp7671
S'scaffold12737_cov227'
p7672
aS'scaffold5303_cov242'
p7673
a(lp7674
I1
a(lp7675
F0.55
aaI40
aa(lp7676
I1
a(lp7677
F0.428571
aaI35
aa(lp7678
I1
a(lp7679
F0.487179
aaI39
aa(lp7680
I1
a(lp7681
F0.314286
aaI35
aa(lp7682
I1
a(lp7683
F0.294118
aaI34
aa(lp7684
I1
a(lp7685
F0.0
aaI29
aa(lp7686
I1
a(lp7687
F0.487805
aaI41
aa(lp7688
I1
a(lp7689
F0.4
aaI40
aa(lp7690
I1
a(lp7691
F0.395349
aaI43
aa(lp7692
I1
a(lp7693
F0.403509
aaI57
aa(lp7694
I1
a(lp7695
F0.516129
aaI31
aa(lp7696
I1
a(lp7697
F0.322581
aaI31
aa(lp7698
I1
a(lp7699
F0.468085
aaI47
aaa(lp7700
S'scaffold2497_cov220'
p7701
aS'scaffold9204_cov285'
p7702
a(lp7703
I1
a(lp7704
F0.435897
aaI39
aaa(lp7705
S'scaffold4452_cov272'
p7706
aS'scaffold7051_cov276'
p7707
a(lp7708
I1
a(lp7709
F0.381818
aaI55
aaa(lp7710
S'scaffold1226_cov199'
p7711
aS'scaffold3246_cov212'
p7712
a(lp7713
I1
a(lp7714
F0.25
aaI20
aa(lp7715
I1
a(lp7716
F0.208333
aaI24
aa(lp7717
I1
a(lp7718
F0.217391
aaI23
aa(lp7719
I1
a(lp7720
F0.285714
aaI35
aa(lp7721
I1
a(lp7722
F0.217391
aaI23
aa(lp7723
I1
a(lp7724
F0.321429
aaI28
aa(lp7725
I1
a(lp7726
F0.282051
aaI39
aaa(lp7727
S'scaffold10520_cov256'
p7728
aS'scaffold4734_cov186'
p7729
a(lp7730
I1
a(lp7731
F0.340909
aaI44
aa(lp7732
I1
a(lp7733
F0.466667
aaI45
aa(lp7734
I1
a(lp7735
F0.5
aaI46
aa(lp7736
I1
a(lp7737
F0.27027
aaI37
aaa(lp7738
S'scaffold4548_cov238'
p7739
aS'scaffold8091_cov211'
p7740
a(lp7741
I1
a(lp7742
F0.212121
aaI33
aa(lp7743
I1
a(lp7744
F0.315789
aaI38
aa(lp7745
I1
a(lp7746
F0.40625
aaI32
aa(lp7747
I1
a(lp7748
F0.378378
aaI37
aaa(lp7749
S'scaffold305_cov293'
p7750
aS'scaffold437_cov301'
p7751
a(lp7752
I1
a(lp7753
F0.0
aaI32
aa(lp7754
I1
a(lp7755
F0.215
aaI200
aa(lp7756
I1
a(lp7757
F0.52
aaI25
aa(lp7758
I1
a(lp7759
F0.291667
aaI24
aaa(lp7760
S'scaffold6221_cov149'
p7761
aS'scaffold902_cov223'
p7762
a(lp7763
I1
a(lp7764
F0.243243
aaI37
aa(lp7765
I1
a(lp7766
F0.216216
aaI37
aa(lp7767
I1
a(lp7768
F0.216216
aaI37
aa(lp7769
I1
a(lp7770
F0.371429
aaI35
aa(lp7771
I1
a(lp7772
F0.342857
aaI35
aa(lp7773
I1
a(lp7774
F0.34375
aaI32
aa(lp7775
I1
a(lp7776
F0.272727
aaI33
aa(lp7777
I1
a(lp7778
F0.291667
aaI24
aa(lp7779
I1
a(lp7780
F0.25
aaI48
aaa(lp7781
S'scaffold34054_cov214'
p7782
aS'scaffold7758_cov177'
p7783
aa(lp7784
S'scaffold34753_cov325'
p7785
aS'scaffold78_cov298'
p7786
a(lp7787
I1
a(lp7788
F0.478261
aaI46
aa(lp7789
I1
a(lp7790
F0.578947
aaI38
aaa(lp7791
S'scaffold10366_cov326'
p7792
aS'scaffold17512_cov158'
p7793
aa(lp7794
S'scaffold1228_cov289'
p7795
aS'scaffold294_cov265'
p7796
aa(lp7797
S'scaffold3956_cov265'
p7798
aS'scaffold4654_cov204'
p7799
ag2634
a(lp7800
I1
a(lp7801
F0.324324
aaI37
aa(lp7802
I1
a(lp7803
F0.352941
aaI34
aa(lp7804
I1
a(lp7805
F0.363636
aaI44
aa(lp7806
I1
a(lp7807
F0.405405
aaI37
aaasg3485
(lp7808
(lp7809
g6495
ag6496
aa(lp7810
g6512
ag6513
a(lp7811
I1
a(lp7812
F0.285714
aaI28
aa(lp7813
I1
a(lp7814
F0.285714
aaI35
aa(lp7815
I1
a(lp7816
F0.305556
aaI36
aa(lp7817
I1
a(lp7818
F0.297297
aaI37
aa(lp7819
I1
a(lp7820
F0.442308
aaI52
aa(lp7821
I1
a(lp7822
F0.347826
aaI23
aa(lp7823
I1
a(lp7824
F0.380952
aaI21
aa(lp7825
I1
a(lp7826
F0.380952
aaI21
aaa(lp7827
g6533
ag6534
a(lp7828
I1
a(lp7829
F0.54
aaI50
aa(lp7830
I1
a(lp7831
F0.403846
aaI52
aa(lp7832
I1
a(lp7833
F0.391304
aaI46
aa(lp7834
I1
a(lp7835
F0.238095
aaI42
aa(lp7836
I1
a(lp7837
F0.272727
aaI44
aa(lp7838
I1
a(lp7839
F0.5
aaI52
aa(lp7840
I1
a(lp7841
F0.481481
aaI54
aa(lp7842
I1
a(lp7843
F0.37931
aaI29
aa(lp7844
I1
a(lp7845
F0.508475
aaI59
aa(lp7846
I1
a(lp7847
F0.377778
aaI45
aa(lp7848
I1
a(lp7849
F0.27907
aaI43
aa(lp7850
I1
a(lp7851
F0.210526
aaI38
aa(lp7852
I1
a(lp7853
F0.509804
aaI51
aa(lp7854
I1
a(lp7855
F0.408163
aaI49
aa(lp7856
I1
a(lp7857
F0.380952
aaI21
aaa(lp7858
g6554
ag6555
a(lp7859
I1
a(lp7860
F0.454545
aaI22
aa(lp7861
I1
a(lp7862
F0.238095
aaI21
aa(lp7863
I1
a(lp7864
F0.230769
aaI26
aa(lp7865
I1
a(lp7866
F0.4
aaI35
aa(lp7867
I1
a(lp7868
F0.294118
aaI34
aa(lp7869
I1
a(lp7870
F0.314286
aaI35
aaa(lp7871
g6563
ag6564
aa(lp7872
g6566
ag6567
a(lp7873
I1
a(lp7874
F0.414634
aaI41
aa(lp7875
I1
a(lp7876
F0.233333
aaI30
aa(lp7877
I1
a(lp7878
F0.45283
aaI53
aa(lp7879
I1
a(lp7880
F0.36
aaI25
aa(lp7881
I1
a(lp7882
F0.37037
aaI27
aa(lp7883
I1
a(lp7884
F0.352941
aaI51
aa(lp7885
I1
a(lp7886
F0.289474
aaI38
aa(lp7887
I1
a(lp7888
F0.214286
aaI42
aa(lp7889
I1
a(lp7890
F0.225
aaI40
aa(lp7891
I1
a(lp7892
F0.230769
aaI39
aa(lp7893
I1
a(lp7894
F0.292683
aaI41
aa(lp7895
I1
a(lp7896
F0.294118
aaI34
aa(lp7897
I1
a(lp7898
F0.333333
aaI36
aa(lp7899
I1
a(lp7900
F0.342857
aaI35
aa(lp7901
I1
a(lp7902
F0.333333
aaI33
aaa(lp7903
g6569
ag6570
a(lp7904
I1
a(lp7905
F0.58
aaI50
aa(lp7906
I1
a(lp7907
F0.208333
aaI24
aa(lp7908
I1
a(lp7909
F0.217391
aaI23
aaa(lp7910
g6588
ag6589
a(lp7911
I1
a(lp7912
F0.292683
aaI41
aa(lp7913
I1
a(lp7914
F0.315789
aaI38
aa(lp7915
I1
a(lp7916
F0.358974
aaI39
aa(lp7917
I1
a(lp7918
F0.333333
aaI45
aa(lp7919
I1
a(lp7920
F0.340426
aaI47
aaa(lp7921
g6591
ag6592
a(lp7922
I1
a(lp7923
F0.392857
aaI28
aa(lp7924
I1
a(lp7925
F0.434783
aaI46
aa(lp7926
I1
a(lp7927
F0.380952
aaI42
aa(lp7928
I1
a(lp7929
F0.4
aaI40
aa(lp7930
I1
a(lp7931
F0.461538
aaI39
aa(lp7932
I1
a(lp7933
F0.28
aaI25
aa(lp7934
I1
a(lp7935
F0.461538
aaI26
aa(lp7936
I1
a(lp7937
F0.282051
aaI39
aa(lp7938
I1
a(lp7939
F0.25
aaI32
aa(lp7940
I1
a(lp7941
F0.236842
aaI38
aa(lp7942
I1
a(lp7943
F0.421053
aaI38
aa(lp7944
I1
a(lp7945
F0.409091
aaI44
aa(lp7946
I1
a(lp7947
F0.341463
aaI41
aa(lp7948
I1
a(lp7949
F0.425
aaI40
aaa(lp7950
g6594
ag6595
a(lp7951
I1
a(lp7952
F0.3
aaI30
aa(lp7953
I1
a(lp7954
F0.5
aaI48
aa(lp7955
I1
a(lp7956
F0.321429
aaI28
aaa(lp7957
g6613
ag6614
a(lp7958
I1
a(lp7959
F0.210526
aaI19
aaa(lp7960
g6616
ag6617
aa(lp7961
g6619
ag6620
aa(lp7962
g6622
ag6623
a(lp7963
I1
a(lp7964
F0.24
aaI25
aaa(lp7965
g6633
ag6634
aa(lp7966
g6636
ag6637
aa(lp7967
g6639
ag6640
aa(lp7968
g6642
ag6643
aa(lp7969
g6645
ag6646
aa(lp7970
g6648
ag6649
aa(lp7971
g6651
ag6652
aa(lp7972
g6674
ag6675
a(lp7973
I1
a(lp7974
F0.342857
aaI35
aa(lp7975
I1
a(lp7976
F0.439024
aaI41
aa(lp7977
I1
a(lp7978
F0.512821
aaI39
aa(lp7979
I1
a(lp7980
F0.448276
aaI29
aa(lp7981
I1
a(lp7982
F0.259259
aaI27
aa(lp7983
I1
a(lp7984
F0.5
aaI48
aaa(lp7985
g6691
ag6692
a(lp7986
I1
a(lp7987
F0.488372
aaI43
aaa(lp7988
g6694
ag6695
aa(lp7989
g6699
ag6700
a(lp7990
I1
a(lp7991
F0.28
aaI50
aaa(lp7992
g6702
ag6703
a(lp7993
I1
a(lp7994
F0.275
aaI40
aa(lp7995
I1
a(lp7996
F0.272727
aaI33
aa(lp7997
I1
a(lp7998
F0.290323
aaI31
aa(lp7999
I1
a(lp8000
F0.366667
aaI30
aa(lp8001
I1
a(lp8002
F0.272727
aaI22
aa(lp8003
I1
a(lp8004
F0.227273
aaI22
aa(lp8005
I1
a(lp8006
F0.45
aaI20
aa(lp8007
I1
a(lp8008
F0.37037
aaI27
aaa(lp8009
g6705
ag6706
a(lp8010
I1
a(lp8011
F0.424242
aaI33
aa(lp8012
I1
a(lp8013
F0.25
aaI16
aaa(lp8014
g6728
ag6729
a(lp8015
I1
a(lp8016
F0.27451
aaI51
aa(lp8017
I1
a(lp8018
F0.25
aaI40
aa(lp8019
I1
a(lp8020
F0.30303
aaI33
aa(lp8021
I1
a(lp8022
F0.410256
aaI39
aa(lp8023
I1
a(lp8024
F0.439024
aaI41
aa(lp8025
I1
a(lp8026
F0.414634
aaI41
aa(lp8027
I1
a(lp8028
F0.211538
aaI52
aa(lp8029
I1
a(lp8030
F0.45283
aaI53
aaa(lp8031
g6731
ag6732
a(lp8032
I1
a(lp8033
F0.321429
aaI28
aa(lp8034
I1
a(lp8035
F0.28
aaI25
aa(lp8036
I1
a(lp8037
F0.25
aaI24
aa(lp8038
I1
a(lp8039
F0.357143
aaI28
aa(lp8040
I1
a(lp8041
F0.384615
aaI26
aa(lp8042
I1
a(lp8043
F0.37037
aaI27
aa(lp8044
I1
a(lp8045
F0.384615
aaI26
aa(lp8046
I1
a(lp8047
F0.448276
aaI29
aa(lp8048
I1
a(lp8049
F0.411765
aaI34
aaa(lp8050
g6736
ag6737
a(lp8051
I1
a(lp8052
F0.470588
aaI51
aa(lp8053
I1
a(lp8054
F0.409091
aaI44
aa(lp8055
I1
a(lp8056
F0.333333
aaI42
aa(lp8057
I1
a(lp8058
F0.391304
aaI46
aa(lp8059
I1
a(lp8060
F0.444444
aaI45
aa(lp8061
I1
a(lp8062
F0.479167
aaI48
aa(lp8063
I1
a(lp8064
F0.5
aaI46
aa(lp8065
I1
a(lp8066
F0.55102
aaI49
aa(lp8067
I1
a(lp8068
F0.522727
aaI44
aa(lp8069
I1
a(lp8070
F0.551724
aaI29
aa(lp8071
I1
a(lp8072
F0.2
aaI35
aa(lp8073
I1
a(lp8074
F0.32
aaI25
aa(lp8075
I1
a(lp8076
F0.310345
aaI29
aa(lp8077
I1
a(lp8078
F0.333333
aaI30
aa(lp8079
I1
a(lp8080
F0.388889
aaI36
aa(lp8081
I1
a(lp8082
F0.543478
aaI46
aa(lp8083
I1
a(lp8084
F0.318182
aaI22
aaa(lp8085
g6739
ag6740
a(lp8086
I1
a(lp8087
F0.411765
aaI34
aa(lp8088
I1
a(lp8089
F0.468085
aaI47
aaa(lp8090
g6752
ag6753
aa(lp8091
g6765
ag6766
a(lp8092
I1
a(lp8093
F0.206897
aaI29
aa(lp8094
I1
a(lp8095
F0.318182
aaI22
aa(lp8096
I1
a(lp8097
F0.28
aaI25
aa(lp8098
I1
a(lp8099
F0.285714
aaI21
aa(lp8100
I1
a(lp8101
F0.238095
aaI21
aa(lp8102
I1
a(lp8103
F0.485714
aaI35
aa(lp8104
I1
a(lp8105
F0.275862
aaI29
aaa(lp8106
g6778
ag6779
a(lp8107
I1
a(lp8108
F0.210526
aaI38
aa(lp8109
I1
a(lp8110
F0.210526
aaI38
aa(lp8111
I1
a(lp8112
F0.263158
aaI19
aa(lp8113
I1
a(lp8114
F0.263158
aaI19
aaa(lp8115
g6781
ag6782
aa(lp8116
g6784
ag6785
a(lp8117
I1
a(lp8118
F0.446809
aaI47
aaa(lp8119
g6793
ag6794
aa(lp8120
g6802
ag6803
a(lp8121
I1
a(lp8122
F0.238095
aaI21
aa(lp8123
I1
a(lp8124
F0.375
aaI24
aa(lp8125
I1
a(lp8126
F0.378378
aaI37
aaa(lp8127
g6805
ag6806
aa(lp8128
g6808
ag6809
aa(lp8129
g6823
ag6824
a(lp8130
I1
a(lp8131
F0.425926
aaI54
aa(lp8132
I1
a(lp8133
F0.2
aaI35
aa(lp8134
I1
a(lp8135
F0.243243
aaI37
aa(lp8136
I1
a(lp8137
F0.21875
aaI32
aa(lp8138
I1
a(lp8139
F0.2
aaI30
aa(lp8140
I1
a(lp8141
F0.290323
aaI31
aa(lp8142
I1
a(lp8143
F0.21875
aaI32
aa(lp8144
I1
a(lp8145
F0.552632
aaI38
aa(lp8146
I1
a(lp8147
F0.295455
aaI44
aa(lp8148
I1
a(lp8149
F0.333333
aaI42
aa(lp8150
I1
a(lp8151
F0.315789
aaI38
aa(lp8152
I1
a(lp8153
F0.351351
aaI37
aa(lp8154
I1
a(lp8155
F0.361111
aaI36
aa(lp8156
I1
a(lp8157
F0.333333
aaI33
aa(lp8158
I1
a(lp8159
F0.322581
aaI31
aa(lp8160
I1
a(lp8161
F0.26087
aaI23
aa(lp8162
I1
a(lp8163
F0.318182
aaI22
aa(lp8164
I1
a(lp8165
F0.424242
aaI33
aa(lp8166
I1
a(lp8167
F0.452381
aaI42
aa(lp8168
I1
a(lp8169
F0.0
aaI40
aaa(lp8170
g6848
ag6849
a(lp8171
I1
a(lp8172
F0.44
aaI50
aa(lp8173
I1
a(lp8174
F0.471698
aaI53
aa(lp8175
I1
a(lp8176
F0.380952
aaI42
aa(lp8177
I1
a(lp8178
F0.333333
aaI39
aa(lp8179
I1
a(lp8180
F0.6
aaI25
aaa(lp8181
g6855
ag6856
a(lp8182
I1
a(lp8183
F0.236842
aaI38
aa(lp8184
I1
a(lp8185
F0.222222
aaI36
aa(lp8186
I1
a(lp8187
F0.380952
aaI42
aa(lp8188
I1
a(lp8189
F0.457143
aaI35
aa(lp8190
I1
a(lp8191
F0.3
aaI30
aa(lp8192
I1
a(lp8193
F0.416667
aaI24
aa(lp8194
I1
a(lp8195
F0.314286
aaI35
aa(lp8196
I1
a(lp8197
F0.233333
aaI30
aa(lp8198
I1
a(lp8199
F0.461538
aaI26
aa(lp8200
I1
a(lp8201
F0.571429
aaI35
aa(lp8202
I1
a(lp8203
F0.459459
aaI37
aa(lp8204
I1
a(lp8205
F0.355556
aaI45
aa(lp8206
I1
a(lp8207
F0.439024
aaI41
aa(lp8208
I1
a(lp8209
F0.446809
aaI47
aa(lp8210
I1
a(lp8211
F0.404255
aaI47
aa(lp8212
I1
a(lp8213
F0.30303
aaI33
aa(lp8214
I1
a(lp8215
F0.292683
aaI41
aa(lp8216
I1
a(lp8217
F0.357143
aaI28
aa(lp8218
I1
a(lp8219
F0.428571
aaI28
aaa(lp8220
g6884
ag6885
a(lp8221
I1
a(lp8222
F0.285714
aaI28
aa(lp8223
I1
a(lp8224
F0.238095
aaI21
aa(lp8225
I1
a(lp8226
F0.410256
aaI39
aa(lp8227
I1
a(lp8228
F0.357143
aaI42
aa(lp8229
I1
a(lp8230
F0.411765
aaI34
aa(lp8231
I1
a(lp8232
F0.365854
aaI41
aa(lp8233
I1
a(lp8234
F0.432432
aaI37
aa(lp8235
I1
a(lp8236
F0.529412
aaI34
aa(lp8237
I1
a(lp8238
F0.222222
aaI45
aa(lp8239
I1
a(lp8240
F0.285714
aaI28
aa(lp8241
I1
a(lp8242
F0.24
aaI25
aa(lp8243
I1
a(lp8244
F0.235294
aaI17
aa(lp8245
I1
a(lp8246
F0.227273
aaI22
aa(lp8247
I1
a(lp8248
F0.26087
aaI23
aa(lp8249
I1
a(lp8250
F0.342857
aaI35
aa(lp8251
I1
a(lp8252
F0.375
aaI32
aa(lp8253
I1
a(lp8254
F0.315789
aaI19
aa(lp8255
I1
a(lp8256
F0.236842
aaI38
aaa(lp8257
g6899
ag6900
a(lp8258
I1
a(lp8259
F0.657895
aaI38
aa(lp8260
I1
a(lp8261
F0.393939
aaI33
aa(lp8262
I1
a(lp8263
F0.538462
aaI52
aa(lp8264
I1
a(lp8265
F0.377358
aaI53
aa(lp8266
I1
a(lp8267
F0.471698
aaI53
aaa(lp8268
g6906
ag6907
aa(lp8269
g6917
ag6918
a(lp8270
I1
a(lp8271
F0.414634
aaI41
aa(lp8272
I1
a(lp8273
F0.5
aaI48
aa(lp8274
I1
a(lp8275
F0.404762
aaI42
aa(lp8276
I1
a(lp8277
F0.377778
aaI45
aa(lp8278
I1
a(lp8279
F0.459459
aaI37
aa(lp8280
I1
a(lp8281
F0.48
aaI50
aa(lp8282
I1
a(lp8283
F0.464286
aaI28
aa(lp8284
I1
a(lp8285
F0.458333
aaI24
aa(lp8286
I1
a(lp8287
F0.528302
aaI53
aa(lp8288
I1
a(lp8289
F0.444444
aaI45
aa(lp8290
I1
a(lp8291
F0.512195
aaI41
aa(lp8292
I1
a(lp8293
F0.362069
aaI58
aa(lp8294
I1
a(lp8295
F0.32
aaI50
aa(lp8296
I1
a(lp8297
F0.486486
aaI37
aa(lp8298
I1
a(lp8299
F0.4
aaI40
aa(lp8300
I1
a(lp8301
F0.432432
aaI37
aa(lp8302
I1
a(lp8303
F0.567568
aaI37
aa(lp8304
I1
a(lp8305
F0.628571
aaI35
aa(lp8306
I1
a(lp8307
F0.52381
aaI42
aa(lp8308
I1
a(lp8309
F0.518519
aaI54
aa(lp8310
I1
a(lp8311
F0.452381
aaI42
aa(lp8312
I1
a(lp8313
F0.4
aaI35
aa(lp8314
I1
a(lp8315
F0.488372
aaI43
aa(lp8316
I1
a(lp8317
F0.5
aaI42
aa(lp8318
I1
a(lp8319
F0.409091
aaI44
aa(lp8320
I1
a(lp8321
F0.413043
aaI46
aa(lp8322
I1
a(lp8323
F0.625
aaI32
aa(lp8324
I1
a(lp8325
F0.463415
aaI41
aa(lp8326
I1
a(lp8327
F0.375
aaI32
aa(lp8328
I1
a(lp8329
F0.242424
aaI33
aaa(lp8330
g6930
ag6931
a(lp8331
I1
a(lp8332
F0.26087
aaI23
aa(lp8333
I1
a(lp8334
F0.380952
aaI21
aa(lp8335
I1
a(lp8336
F0.32
aaI25
aa(lp8337
I1
a(lp8338
F0.413793
aaI29
aa(lp8339
I1
a(lp8340
F0.375
aaI32
aa(lp8341
I1
a(lp8342
F0.228571
aaI35
aa(lp8343
I1
a(lp8344
F0.297297
aaI37
aa(lp8345
I1
a(lp8346
F0.324324
aaI37
aa(lp8347
I1
a(lp8348
F0.382353
aaI34
aa(lp8349
I1
a(lp8350
F0.415094
aaI53
aa(lp8351
I1
a(lp8352
F0.269231
aaI26
aa(lp8353
I1
a(lp8354
F0.377778
aaI45
aa(lp8355
I1
a(lp8356
F0.386364
aaI44
aa(lp8357
I1
a(lp8358
F0.324324
aaI37
aa(lp8359
I1
a(lp8360
F0.409091
aaI44
aa(lp8361
I1
a(lp8362
F0.34375
aaI32
aa(lp8363
I1
a(lp8364
F0.291667
aaI24
aa(lp8365
I1
a(lp8366
F0.446809
aaI47
aa(lp8367
I1
a(lp8368
F0.527273
aaI55
aa(lp8369
I1
a(lp8370
F0.310345
aaI29
aa(lp8371
I1
a(lp8372
F0.407407
aaI27
aaa(lp8373
g6971
ag6972
a(lp8374
I1
a(lp8375
F0.315789
aaI38
aa(lp8376
I1
a(lp8377
F0.21875
aaI32
aa(lp8378
I1
a(lp8379
F0.24
aaI25
aa(lp8380
I1
a(lp8381
F0.205128
aaI39
aa(lp8382
I1
a(lp8383
F0.255814
aaI43
aa(lp8384
I1
a(lp8385
F0.324324
aaI37
aa(lp8386
I1
a(lp8387
F0.388889
aaI36
aa(lp8388
I1
a(lp8389
F0.375
aaI32
aa(lp8390
I1
a(lp8391
F0.413793
aaI29
aa(lp8392
I1
a(lp8393
F0.352941
aaI34
aa(lp8394
I1
a(lp8395
F0.394737
aaI38
aa(lp8396
I1
a(lp8397
F0.351351
aaI37
aa(lp8398
I1
a(lp8399
F0.388889
aaI36
aa(lp8400
I1
a(lp8401
F0.375
aaI32
aa(lp8402
I1
a(lp8403
F0.363636
aaI33
aa(lp8404
I1
a(lp8405
F0.382353
aaI34
aa(lp8406
I1
a(lp8407
F0.34375
aaI32
aa(lp8408
I1
a(lp8409
F0.34375
aaI32
aa(lp8410
I1
a(lp8411
F0.2
aaI20
aa(lp8412
I1
a(lp8413
F0.3
aaI30
aa(lp8414
I1
a(lp8415
F0.235294
aaI17
aa(lp8416
I1
a(lp8417
F0.230769
aaI26
aa(lp8418
I1
a(lp8419
F0.302326
aaI43
aa(lp8420
I1
a(lp8421
F0.489362
aaI47
aa(lp8422
I1
a(lp8423
F0.531915
aaI47
aa(lp8424
I1
a(lp8425
F0.208333
aaI24
aaa(lp8426
g7108
ag7109
a(lp8427
I1
a(lp8428
F0.25
aaI24
aa(lp8429
I1
a(lp8430
F0.25
aaI24
aa(lp8431
I1
a(lp8432
F0.333333
aaI18
aa(lp8433
I1
a(lp8434
F0.40625
aaI32
aaa(lp8435
g7115
ag7116
a(lp8436
I1
a(lp8437
F0.236842
aaI38
aa(lp8438
I1
a(lp8439
F0.28125
aaI32
aa(lp8440
I1
a(lp8441
F0.27027
aaI37
aa(lp8442
I1
a(lp8443
F0.361111
aaI36
aa(lp8444
I1
a(lp8445
F0.310345
aaI29
aaa(lp8446
g7118
ag7119
a(lp8447
I1
a(lp8448
F0.595238
aaI42
aa(lp8449
I1
a(lp8450
F0.346154
aaI26
aa(lp8451
I1
a(lp8452
F0.387097
aaI31
aa(lp8453
I1
a(lp8454
F0.34375
aaI32
aa(lp8455
I1
a(lp8456
F0.314286
aaI35
aa(lp8457
I1
a(lp8458
F0.307692
aaI39
aa(lp8459
I1
a(lp8460
F0.257143
aaI35
aa(lp8461
I1
a(lp8462
F0.30303
aaI33
aa(lp8463
I1
a(lp8464
F0.294118
aaI34
aa(lp8465
I1
a(lp8466
F0.222222
aaI36
aa(lp8467
I1
a(lp8468
F0.285714
aaI35
aa(lp8469
I1
a(lp8470
F0.294118
aaI34
aa(lp8471
I1
a(lp8472
F0.294118
aaI34
aa(lp8473
I1
a(lp8474
F0.285714
aaI35
aa(lp8475
I1
a(lp8476
F0.290323
aaI31
aa(lp8477
I1
a(lp8478
F0.241379
aaI29
aaa(lp8479
g7121
ag7122
a(lp8480
I1
a(lp8481
F0.333333
aaI48
aa(lp8482
I1
a(lp8483
F0.462963
aaI54
aa(lp8484
I1
a(lp8485
F0.272727
aaI33
aa(lp8486
I1
a(lp8487
F0.512821
aaI39
aa(lp8488
I1
a(lp8489
F0.208333
aaI24
aa(lp8490
I1
a(lp8491
F0.230769
aaI26
aa(lp8492
I1
a(lp8493
F0.272727
aaI33
aa(lp8494
I1
a(lp8495
F0.235294
aaI34
aa(lp8496
I1
a(lp8497
F0.235294
aaI34
aa(lp8498
I1
a(lp8499
F0.394737
aaI38
aa(lp8500
I1
a(lp8501
F0.6
aaI60
aa(lp8502
I1
a(lp8503
F0.333333
aaI27
aa(lp8504
I1
a(lp8505
F0.216216
aaI37
aa(lp8506
I1
a(lp8507
F0.241379
aaI29
aaa(lp8508
g7150
ag7151
aa(lp8509
g7153
ag7154
aa(lp8510
g7156
ag7157
aa(lp8511
g7185
ag7186
a(lp8512
I1
a(lp8513
F0.510638
aaI47
aa(lp8514
I1
a(lp8515
F0.214286
aaI42
aa(lp8516
I1
a(lp8517
F0.272727
aaI22
aa(lp8518
I1
a(lp8519
F0.484848
aaI33
aa(lp8520
I1
a(lp8521
F0.458333
aaI48
aa(lp8522
I1
a(lp8523
F0.452381
aaI42
aa(lp8524
I1
a(lp8525
F0.361702
aaI47
aa(lp8526
I1
a(lp8527
F0.306122
aaI49
aa(lp8528
I1
a(lp8529
F0.294118
aaI34
aa(lp8530
I1
a(lp8531
F0.25641
aaI39
aa(lp8532
I1
a(lp8533
F0.302326
aaI43
aa(lp8534
I1
a(lp8535
F0.457143
aaI35
aa(lp8536
I1
a(lp8537
F0.307692
aaI26
aa(lp8538
I1
a(lp8539
F0.25
aaI24
aa(lp8540
I1
a(lp8541
F0.580645
aaI31
aa(lp8542
I1
a(lp8543
F0.483871
aaI31
aa(lp8544
I1
a(lp8545
F0.258065
aaI31
aaa(lp8546
g7246
ag7247
a(lp8547
I1
a(lp8548
F0.333333
aaI39
aa(lp8549
I1
a(lp8550
F0.575
aaI40
aaa(lp8551
g7265
ag7266
a(lp8552
I1
a(lp8553
F0.456522
aaI46
aa(lp8554
I1
a(lp8555
F0.45
aaI40
aa(lp8556
I1
a(lp8557
F0.297297
aaI37
aa(lp8558
I1
a(lp8559
F0.431818
aaI44
aa(lp8560
I1
a(lp8561
F0.404762
aaI42
aa(lp8562
I1
a(lp8563
F0.481481
aaI27
aaa(lp8564
g7268
ag7269
aa(lp8565
g7271
ag7272
aa(lp8566
g7282
ag7283
a(lp8567
I1
a(lp8568
F0.44898
aaI49
aa(lp8569
I1
a(lp8570
F0.447368
aaI38
aa(lp8571
I1
a(lp8572
F0.35
aaI40
aa(lp8573
I1
a(lp8574
F0.358209
aaI67
aa(lp8575
I1
a(lp8576
F0.282051
aaI39
aa(lp8577
I1
a(lp8578
F0.0
aaI34
aa(lp8579
I1
a(lp8580
F0.367347
aaI49
aa(lp8581
I1
a(lp8582
F0.361111
aaI36
aa(lp8583
I1
a(lp8584
F0.304348
aaI46
aa(lp8585
I1
a(lp8586
F0.434783
aaI46
aa(lp8587
I1
a(lp8588
F0.355556
aaI45
aa(lp8589
I1
a(lp8590
F0.333333
aaI24
aa(lp8591
I1
a(lp8592
F0.530303
aaI66
aaa(lp8593
g7293
ag7294
a(lp8594
I1
a(lp8595
F0.297872
aaI47
aa(lp8596
I1
a(lp8597
F0.484848
aaI66
aaa(lp8598
g7296
ag7297
a(lp8599
I1
a(lp8600
F0.5
aaI40
aa(lp8601
I1
a(lp8602
F0.560976
aaI41
aa(lp8603
I1
a(lp8604
F0.530612
aaI49
aaa(lp8605
g7317
ag7318
aa(lp8606
g7320
ag7321
a(lp8607
I1
a(lp8608
F0.292683
aaI41
aa(lp8609
I1
a(lp8610
F0.289474
aaI38
aa(lp8611
I1
a(lp8612
F0.377778
aaI45
aa(lp8613
I1
a(lp8614
F0.296296
aaI27
aa(lp8615
I1
a(lp8616
F0.5
aaI42
aa(lp8617
I1
a(lp8618
F0.344828
aaI29
aa(lp8619
I1
a(lp8620
F0.410256
aaI39
aa(lp8621
I1
a(lp8622
F0.372093
aaI43
aa(lp8623
I1
a(lp8624
F0.44186
aaI43
aa(lp8625
I1
a(lp8626
F0.375
aaI40
aa(lp8627
I1
a(lp8628
F0.340909
aaI44
aa(lp8629
I1
a(lp8630
F0.375
aaI40
aa(lp8631
I1
a(lp8632
F0.347826
aaI46
aa(lp8633
I1
a(lp8634
F0.372549
aaI51
aa(lp8635
I1
a(lp8636
F0.428571
aaI42
aa(lp8637
I1
a(lp8638
F0.466667
aaI30
aa(lp8639
I1
a(lp8640
F0.405405
aaI37
aa(lp8641
I1
a(lp8642
F0.421053
aaI38
aa(lp8643
I1
a(lp8644
F0.421053
aaI38
aa(lp8645
I1
a(lp8646
F0.409091
aaI22
aa(lp8647
I1
a(lp8648
F0.487179
aaI39
aa(lp8649
I1
a(lp8650
F0.473684
aaI38
aa(lp8651
I1
a(lp8652
F0.553191
aaI47
aa(lp8653
I1
a(lp8654
F0.444444
aaI36
aa(lp8655
I1
a(lp8656
F0.365385
aaI52
aa(lp8657
I1
a(lp8658
F0.4
aaI45
aa(lp8659
I1
a(lp8660
F0.411765
aaI34
aa(lp8661
I1
a(lp8662
F0.292683
aaI41
aa(lp8663
I1
a(lp8664
F0.45098
aaI51
aaa(lp8665
g7367
ag7368
a(lp8666
I1
a(lp8667
F0.217391
aaI23
aa(lp8668
I1
a(lp8669
F0.208333
aaI24
aa(lp8670
I1
a(lp8671
F0.368421
aaI38
aaa(lp8672
g7372
ag7373
a(lp8673
I1
a(lp8674
F0.2
aaI25
aaa(lp8675
g7375
ag7376
a(lp8676
I1
a(lp8677
F0.440678
aaI59
aa(lp8678
I1
a(lp8679
F0.410714
aaI56
aa(lp8680
I1
a(lp8681
F0.461538
aaI52
aa(lp8682
I1
a(lp8683
F0.446809
aaI47
aa(lp8684
I1
a(lp8685
F0.55102
aaI49
aa(lp8686
I1
a(lp8687
F0.5
aaI58
aa(lp8688
I1
a(lp8689
F0.2
aaI70
aaa(lp8690
g7450
ag7451
aa(lp8691
g7459
ag7460
aa(lp8692
g7462
ag7463
a(lp8693
I1
a(lp8694
F0.258065
aaI31
aa(lp8695
I1
a(lp8696
F0.489796
aaI49
aa(lp8697
I1
a(lp8698
F0.2
aaI20
aa(lp8699
I1
a(lp8700
F0.3125
aaI32
aaa(lp8701
g7479
ag7480
a(lp8702
I1
a(lp8703
F0.0
aaI50
aaa(lp8704
g7482
ag7483
a(lp8705
I1
a(lp8706
F0.28125
aaI32
aa(lp8707
I1
a(lp8708
F0.243243
aaI37
aa(lp8709
I1
a(lp8710
F0.446429
aaI56
aa(lp8711
I1
a(lp8712
F0.5
aaI52
aa(lp8713
I1
a(lp8714
F0.571429
aaI63
aa(lp8715
I1
a(lp8716
F0.216216
aaI74
aa(lp8717
I1
a(lp8718
F0.239437
aaI71
aa(lp8719
I1
a(lp8720
F0.296296
aaI54
aa(lp8721
I1
a(lp8722
F0.259259
aaI54
aaa(lp8723
g7485
ag7486
aa(lp8724
g7490
ag7491
a(lp8725
I1
a(lp8726
F0.307692
aaI39
aa(lp8727
I1
a(lp8728
F0.243902
aaI41
aa(lp8729
I1
a(lp8730
F0.27027
aaI37
aa(lp8731
I1
a(lp8732
F0.276596
aaI47
aa(lp8733
I1
a(lp8734
F0.365854
aaI41
aa(lp8735
I1
a(lp8736
F0.407407
aaI27
aa(lp8737
I1
a(lp8738
F0.392857
aaI28
aa(lp8739
I1
a(lp8740
F0.393939
aaI33
aa(lp8741
I1
a(lp8742
F0.438596
aaI57
aa(lp8743
I1
a(lp8744
F0.357143
aaI42
aa(lp8745
I1
a(lp8746
F0.472222
aaI36
aa(lp8747
I1
a(lp8748
F0.595238
aaI42
aa(lp8749
I1
a(lp8750
F0.5
aaI44
aa(lp8751
I1
a(lp8752
F0.509434
aaI53
aa(lp8753
I1
a(lp8754
F0.595238
aaI42
aa(lp8755
I1
a(lp8756
F0.567568
aaI37
aa(lp8757
I1
a(lp8758
F0.340909
aaI44
aa(lp8759
I1
a(lp8760
F0.0
aaI19
aa(lp8761
I1
a(lp8762
F0.325581
aaI43
aa(lp8763
I1
a(lp8764
F0.555556
aaI36
aa(lp8765
I1
a(lp8766
F0.566667
aaI30
aa(lp8767
I1
a(lp8768
F0.714286
aaI21
aa(lp8769
I1
a(lp8770
F0.25
aaI32
aa(lp8771
I1
a(lp8772
F0.363636
aaI33
aa(lp8773
I1
a(lp8774
F0.357143
aaI42
aa(lp8775
I1
a(lp8776
F0.4
aaI30
aa(lp8777
I1
a(lp8778
F0.333333
aaI21
aa(lp8779
I1
a(lp8780
F0.368421
aaI19
aa(lp8781
I1
a(lp8782
F0.32
aaI25
aa(lp8783
I1
a(lp8784
F0.333333
aaI27
aa(lp8785
I1
a(lp8786
F0.26087
aaI23
aa(lp8787
I1
a(lp8788
F0.304348
aaI23
aa(lp8789
I1
a(lp8790
F0.25
aaI24
aa(lp8791
I1
a(lp8792
F0.222222
aaI27
aa(lp8793
I1
a(lp8794
F0.241379
aaI29
aa(lp8795
I1
a(lp8796
F0.21875
aaI32
aa(lp8797
I1
a(lp8798
F0.214286
aaI28
aaa(lp8799
g7497
ag7498
aa(lp8800
g7512
ag7513
aa(lp8801
g7539
ag7540
a(lp8802
I1
a(lp8803
F0.277778
aaI36
aa(lp8804
I1
a(lp8805
F0.205882
aaI34
aa(lp8806
I1
a(lp8807
F0.369565
aaI46
aa(lp8808
I1
a(lp8809
F0.408163
aaI49
aaa(lp8810
g7544
ag7545
aa(lp8811
g7547
ag7548
a(lp8812
I1
a(lp8813
F0.463415
aaI41
aa(lp8814
I1
a(lp8815
F0.309524
aaI42
aa(lp8816
I1
a(lp8817
F0.423077
aaI52
aaa(lp8818
g7564
ag7565
a(lp8819
I1
a(lp8820
F0.272727
aaI33
aa(lp8821
I1
a(lp8822
F0.21875
aaI32
aa(lp8823
I1
a(lp8824
F0.3
aaI30
aaa(lp8825
g7569
ag7570
a(lp8826
I1
a(lp8827
F0.375
aaI24
aa(lp8828
I1
a(lp8829
F0.28125
aaI32
aa(lp8830
I1
a(lp8831
F0.242424
aaI33
aa(lp8832
I1
a(lp8833
F0.431818
aaI44
aa(lp8834
I1
a(lp8835
F0.235294
aaI34
aa(lp8836
I1
a(lp8837
F0.390244
aaI41
aaa(lp8838
g7582
ag7583
a(lp8839
I1
a(lp8840
F0.534884
aaI43
aaa(lp8841
g7605
ag7606
aa(lp8842
g7608
ag7609
aa(lp8843
g7615
ag7616
a(lp8844
I1
a(lp8845
F0.217391
aaI23
aa(lp8846
I1
a(lp8847
F0.241379
aaI29
aa(lp8848
I1
a(lp8849
F0.387097
aaI31
aa(lp8850
I1
a(lp8851
F0.246154
aaI65
aa(lp8852
I1
a(lp8853
F0.586957
aaI46
aa(lp8854
I1
a(lp8855
F0.62
aaI50
aa(lp8856
I1
a(lp8857
F0.6875
aaI96
aa(lp8858
I1
a(lp8859
F0.380952
aaI63
aa(lp8860
I1
a(lp8861
F0.313433
aaI67
aa(lp8862
I1
a(lp8863
F0.333333
aaI75
aaa(lp8864
g7636
ag7637
a(lp8865
I1
a(lp8866
F0.277778
aaI72
aaa(lp8867
g7639
ag7640
aa(lp8868
g7642
ag7643
aa(lp8869
g7645
ag7646
aa(lp8870
g7662
ag7663
a(lp8871
I1
a(lp8872
F0.444444
aaI45
aa(lp8873
I1
a(lp8874
F0.393939
aaI33
aa(lp8875
I1
a(lp8876
F0.40678
aaI59
aa(lp8877
I1
a(lp8878
F0.433333
aaI60
aa(lp8879
I1
a(lp8880
F0.451613
aaI62
aa(lp8881
I1
a(lp8882
F0.491525
aaI59
aa(lp8883
I1
a(lp8884
F0.333333
aaI60
aa(lp8885
I1
a(lp8886
F0.230769
aaI52
aa(lp8887
I1
a(lp8888
F0.297297
aaI74
aa(lp8889
I1
a(lp8890
F0.242857
aaI70
aa(lp8891
I1
a(lp8892
F0.236111
aaI72
aa(lp8893
I1
a(lp8894
F0.238806
aaI67
aa(lp8895
I1
a(lp8896
F0.455696
aaI79
aa(lp8897
I1
a(lp8898
F0.433735
aaI83
aaa(lp8899
g7667
ag7668
aa(lp8900
g7672
ag7673
a(lp8901
I1
a(lp8902
F0.44898
aaI49
aa(lp8903
I1
a(lp8904
F0.581395
aaI43
aa(lp8905
I1
a(lp8906
F0.488889
aaI45
aa(lp8907
I1
a(lp8908
F0.487805
aaI41
aa(lp8909
I1
a(lp8910
F0.425
aaI40
aa(lp8911
I1
a(lp8912
F0.421053
aaI38
aa(lp8913
I1
a(lp8914
F0.322581
aaI31
aa(lp8915
I1
a(lp8916
F0.357143
aaI28
aa(lp8917
I1
a(lp8918
F0.423077
aaI26
aa(lp8919
I1
a(lp8920
F0.243902
aaI41
aa(lp8921
I1
a(lp8922
F0.324324
aaI37
aa(lp8923
I1
a(lp8924
F0.277778
aaI36
aa(lp8925
I1
a(lp8926
F0.333333
aaI36
aa(lp8927
I1
a(lp8928
F0.4
aaI30
aa(lp8929
I1
a(lp8930
F0.482759
aaI29
aa(lp8931
I1
a(lp8932
F0.466667
aaI30
aa(lp8933
I1
a(lp8934
F0.222222
aaI27
aa(lp8935
I1
a(lp8936
F0.394737
aaI38
aa(lp8937
I1
a(lp8938
F0.439024
aaI41
aa(lp8939
I1
a(lp8940
F0.5
aaI40
aaa(lp8941
g7701
ag7702
aa(lp8942
g7706
ag7707
a(lp8943
I1
a(lp8944
F0.652174
aaI46
aaa(lp8945
g7711
ag7712
a(lp8946
I1
a(lp8947
F0.208333
aaI24
aa(lp8948
I1
a(lp8949
F0.263158
aaI38
aa(lp8950
I1
a(lp8951
F0.314286
aaI35
aa(lp8952
I1
a(lp8953
F0.405405
aaI37
aa(lp8954
I1
a(lp8955
F0.478261
aaI46
aa(lp8956
I1
a(lp8957
F0.466667
aaI45
aa(lp8958
I1
a(lp8959
F0.30303
aaI33
aaa(lp8960
g7728
ag7729
a(lp8961
I1
a(lp8962
F0.225806
aaI31
aaa(lp8963
g7739
ag7740
a(lp8964
I1
a(lp8965
F0.475
aaI40
aa(lp8966
I1
a(lp8967
F0.292683
aaI41
aa(lp8968
I1
a(lp8969
F0.307692
aaI26
aa(lp8970
I1
a(lp8971
F0.24
aaI25
aa(lp8972
I1
a(lp8973
F0.2
aaI20
aa(lp8974
I1
a(lp8975
F0.272727
aaI33
aa(lp8976
I1
a(lp8977
F0.314286
aaI35
aaa(lp8978
g7750
ag7751
aa(lp8979
g7761
ag7762
a(lp8980
I1
a(lp8981
F0.259259
aaI27
aa(lp8982
I1
a(lp8983
F0.2
aaI25
aaa(lp8984
g7782
ag7783
a(lp8985
I1
a(lp8986
F0.288889
aaI45
aa(lp8987
I1
a(lp8988
F0.272727
aaI44
aa(lp8989
I1
a(lp8990
F0.311111
aaI45
aaa(lp8991
g7785
ag7786
a(lp8992
I1
a(lp8993
F0.4
aaI30
aa(lp8994
I1
a(lp8995
F0.434783
aaI23
aa(lp8996
I1
a(lp8997
F0.631579
aaI38
aa(lp8998
I1
a(lp8999
F0.509804
aaI51
aa(lp9000
I1
a(lp9001
F0.393939
aaI33
aa(lp9002
I1
a(lp9003
F0.393939
aaI33
aa(lp9004
I1
a(lp9005
F0.352941
aaI34
aa(lp9006
I1
a(lp9007
F0.2
aaI35
aa(lp9008
I1
a(lp9009
F0.212121
aaI33
aa(lp9010
I1
a(lp9011
F0.233333
aaI30
aa(lp9012
I1
a(lp9013
F0.259259
aaI27
aa(lp9014
I1
a(lp9015
F0.454545
aaI44
aa(lp9016
I1
a(lp9017
F0.469388
aaI49
aa(lp9018
I1
a(lp9019
F0.35
aaI40
aa(lp9020
I1
a(lp9021
F0.25
aaI36
aa(lp9022
I1
a(lp9023
F0.392857
aaI28
aa(lp9024
I1
a(lp9025
F0.423077
aaI26
aa(lp9026
I1
a(lp9027
F0.378378
aaI37
aa(lp9028
I1
a(lp9029
F0.46875
aaI32
aa(lp9030
I1
a(lp9031
F0.490566
aaI53
aa(lp9032
I1
a(lp9033
F0.472727
aaI55
aa(lp9034
I1
a(lp9035
F0.529412
aaI51
aa(lp9036
I1
a(lp9037
F0.57377
aaI61
aa(lp9038
I1
a(lp9039
F0.472222
aaI36
aa(lp9040
I1
a(lp9041
F0.446809
aaI47
aa(lp9042
I1
a(lp9043
F0.644444
aaI45
aa(lp9044
I1
a(lp9045
F0.418605
aaI43
aa(lp9046
I1
a(lp9047
F0.457143
aaI35
aa(lp9048
I1
a(lp9049
F0.388889
aaI36
aa(lp9050
I1
a(lp9051
F0.375
aaI40
aa(lp9052
I1
a(lp9053
F0.490196
aaI51
aa(lp9054
I1
a(lp9055
F0.347826
aaI46
aa(lp9056
I1
a(lp9057
F0.446429
aaI56
aa(lp9058
I1
a(lp9059
F0.380952
aaI42
aa(lp9060
I1
a(lp9061
F0.24
aaI25
aa(lp9062
I1
a(lp9063
F0.484848
aaI33
aa(lp9064
I1
a(lp9065
F0.4
aaI40
aa(lp9066
I1
a(lp9067
F0.285714
aaI28
aa(lp9068
I1
a(lp9069
F0.326531
aaI49
aa(lp9070
I1
a(lp9071
F0.229814
aaI161
aa(lp9072
I1
a(lp9073
F0.375
aaI32
aa(lp9074
I1
a(lp9075
F0.266667
aaI30
aaa(lp9076
g7792
ag7793
a(lp9077
I1
a(lp9078
F0.25
aaI20
aaa(lp9079
g7795
ag7796
a(lp9080
I1
a(lp9081
F0.36
aaI50
aa(lp9082
I1
a(lp9083
F0.45
aaI40
aa(lp9084
I1
a(lp9085
F0.297872
aaI47
aa(lp9086
I1
a(lp9087
F0.357143
aaI28
aa(lp9088
I1
a(lp9089
F0.413793
aaI29
aa(lp9090
I1
a(lp9091
F0.344828
aaI29
aa(lp9092
I1
a(lp9093
F0.318182
aaI22
aa(lp9094
I1
a(lp9095
F0.24
aaI25
aa(lp9096
I1
a(lp9097
F0.423077
aaI52
aa(lp9098
I1
a(lp9099
F0.265306
aaI49
aa(lp9100
I1
a(lp9101
F0.224138
aaI58
aa(lp9102
I1
a(lp9103
F0.289474
aaI38
aaa(lp9104
g7798
ag7799
aass.