(dp0
S'triploids'
p1
(dp2
S'down'
p3
(lp4
(lp5
S'scaffold167486_cov93'
p6
aS'scaffold32268_cov68'
p7
aa(lp8
S'scaffold3954_cov94'
p9
aS'scaffold73744_cov62'
p10
aa(lp11
S'scaffold13284_cov147'
p12
aS'scaffold23977_cov68'
p13
aa(lp14
S'scaffold49814_cov72'
p15
aS'scaffold15895_cov77'
p16
a(lp17
I1
a(lp18
F0.590909
aaI88
aaa(lp19
S'scaffold10148_cov99'
p20
aS'scaffold6498_cov76'
p21
a(lp22
I1
a(lp23
F0.204545
aaI44
aa(lp24
I1
a(lp25
F0.258065
aaI31
aa(lp26
I1
a(lp27
F0.264706
aaI34
aa(lp28
I1
a(lp29
F0.277778
aaI36
aa(lp30
I1
a(lp31
F0.297297
aaI37
aa(lp32
I1
a(lp33
F0.435484
aaI62
aa(lp34
I1
a(lp35
F0.365385
aaI52
aa(lp36
I1
a(lp37
F0.507692
aaI65
aa(lp38
I1
a(lp39
F0.415385
aaI65
aa(lp40
I1
a(lp41
F0.397059
aaI68
aa(lp42
I1
a(lp43
F0.393939
aaI66
aa(lp44
I1
a(lp45
F0.434783
aaI46
aa(lp46
I1
a(lp47
F0.433333
aaI60
aa(lp48
I1
a(lp49
F0.408163
aaI49
aa(lp50
I1
a(lp51
F0.40678
aaI59
aa(lp52
I1
a(lp53
F0.206897
aaI29
aa(lp54
I1
a(lp55
F0.212121
aaI33
aa(lp56
I1
a(lp57
F0.236364
aaI55
aa(lp58
I1
a(lp59
F0.367347
aaI49
aa(lp60
I1
a(lp61
F0.411765
aaI51
aa(lp62
I1
a(lp63
F0.26
aaI100
aaa(lp64
S'scaffold2658_cov137'
p65
aS'scaffold4421_cov66'
p66
aa(lp67
S'scaffold8528_cov135'
p68
aS'scaffold10431_cov72'
p69
aa(lp70
S'scaffold160792_cov138'
p71
aS'scaffold90278_cov81'
p72
aa(lp73
S'scaffold6934_cov101'
p74
aS'scaffold5476_cov91'
p75
aa(lp76
S'scaffold167467_cov101'
p77
aS'scaffold67159_cov68'
p78
aa(lp79
S'scaffold13631_cov149'
p80
aS'scaffold1043_cov70'
p81
aa(lp82
S'scaffold4095_cov147'
p83
aS'scaffold1076_cov67'
p84
aa(lp85
S'scaffold4610_cov62'
p86
aS'scaffold20004_cov62'
p87
a(lp88
I1
a(lp89
F0.27451
aaI51
aa(lp90
I1
a(lp91
F0.269231
aaI52
aa(lp92
I1
a(lp93
F0.232558
aaI43
aa(lp94
I1
a(lp95
F0.307692
aaI39
aa(lp96
I1
a(lp97
F0.243243
aaI37
aa(lp98
I1
a(lp99
F0.230769
aaI26
aa(lp100
I1
a(lp101
F0.235294
aaI34
aa(lp102
I1
a(lp103
F0.204545
aaI44
aa(lp104
I1
a(lp105
F0.291667
aaI48
aa(lp106
I1
a(lp107
F0.316901
aaI142
aa(lp108
I1
a(lp109
F0.741935
aaI93
aa(lp110
I1
a(lp111
F0.479167
aaI144
aa(lp112
I1
a(lp113
F0.303448
aaI145
aa(lp114
I1
a(lp115
F0.433628
aaI113
aaa(lp116
S'scaffold26651_cov113'
p117
aS'scaffold2076_cov75'
p118
a(lp119
I1
a(lp120
F0.285714
aaI49
aa(lp121
I1
a(lp122
F0.0
aaI24
aaa(lp123
S'scaffold37943_cov120'
p124
aS'scaffold39367_cov97'
p125
a(lp126
I1
a(lp127
F0.428571
aaI63
aa(lp128
I1
a(lp129
F0.375
aaI64
aa(lp130
I1
a(lp131
F0.59322
aaI59
aa(lp132
I1
a(lp133
F0.362069
aaI58
aa(lp134
I1
a(lp135
F0.415385
aaI65
aa(lp136
I1
a(lp137
F0.439394
aaI66
aa(lp138
I1
a(lp139
F0.413793
aaI58
aa(lp140
I1
a(lp141
F0.42623
aaI61
aa(lp142
I1
a(lp143
F0.451613
aaI62
aa(lp144
I1
a(lp145
F0.490196
aaI51
aa(lp146
I1
a(lp147
F0.490909
aaI55
aa(lp148
I1
a(lp149
F0.490196
aaI51
aa(lp150
I1
a(lp151
F0.492308
aaI65
aa(lp152
I1
a(lp153
F0.324324
aaI37
aa(lp154
I1
a(lp155
F0.475
aaI40
aa(lp156
I1
a(lp157
F0.28
aaI50
aa(lp158
I1
a(lp159
F0.34
aaI50
aa(lp160
I1
a(lp161
F0.482143
aaI56
aa(lp162
I1
a(lp163
F0.45614
aaI57
aa(lp164
I1
a(lp165
F0.529412
aaI51
aa(lp166
I1
a(lp167
F0.485714
aaI70
aa(lp168
I1
a(lp169
F0.47619
aaI63
aa(lp170
I1
a(lp171
F0.476923
aaI65
aa(lp172
I1
a(lp173
F0.516667
aaI60
aa(lp174
I1
a(lp175
F0.448276
aaI58
aa(lp176
I1
a(lp177
F0.442857
aaI70
aa(lp178
I1
a(lp179
F0.236842
aaI38
aa(lp180
I1
a(lp181
F0.289474
aaI38
aa(lp182
I1
a(lp183
F0.333333
aaI36
aa(lp184
I1
a(lp185
F0.354839
aaI31
aa(lp186
I1
a(lp187
F0.305556
aaI36
aa(lp188
I1
a(lp189
F0.205128
aaI39
aa(lp190
I1
a(lp191
F0.219512
aaI41
aa(lp192
I1
a(lp193
F0.25641
aaI39
aa(lp194
I1
a(lp195
F0.289474
aaI38
aa(lp196
I1
a(lp197
F0.297297
aaI37
aa(lp198
I1
a(lp199
F0.333333
aaI42
aa(lp200
I1
a(lp201
F0.333333
aaI42
aa(lp202
I1
a(lp203
F0.369565
aaI46
aa(lp204
I1
a(lp205
F0.333333
aaI48
aa(lp206
I1
a(lp207
F0.311111
aaI45
aa(lp208
I1
a(lp209
F0.473684
aaI57
aa(lp210
I1
a(lp211
F0.47541
aaI61
aa(lp212
I1
a(lp213
F0.32
aaI50
aaa(lp214
S'scaffold11629_cov141'
p215
aS'scaffold11627_cov72'
p216
aa(lp217
S'scaffold2522_cov147'
p218
aS'scaffold2520_cov73'
p219
a(lp220
I1
a(lp221
F0.0
aaI51
aaa(lp222
S'scaffold16169_cov72'
p223
aS'scaffold3257_cov146'
p224
a(lp225
I1
a(lp226
F0.225
aaI40
aaa(lp227
S'scaffold33358_cov122'
p228
aS'scaffold11974_cov67'
p229
a(lp230
I1
a(lp231
F0.225806
aaI31
aaa(lp232
S'scaffold17315_cov142'
p233
aS'scaffold17316_cov65'
p234
aa(lp235
S'scaffold27512_cov124'
p236
aS'scaffold9838_cov70'
p237
a(lp238
I1
a(lp239
F0.244444
aaI45
aa(lp240
I1
a(lp241
F0.277778
aaI54
aa(lp242
I1
a(lp243
F0.344262
aaI61
aaa(lp244
S'scaffold1868_cov136'
p245
aS'scaffold7102_cov63'
p246
aa(lp247
S'scaffold165401_cov148'
p248
aS'scaffold12422_cov71'
p249
a(lp250
I1
a(lp251
F0.259259
aaI54
aa(lp252
I1
a(lp253
F0.654321
aaI81
aaa(lp254
S'scaffold108_cov145'
p255
aS'scaffold107_cov67'
p256
aa(lp257
S'scaffold96847_cov139'
p258
aS'scaffold3943_cov70'
p259
aa(lp260
S'scaffold47647_cov69'
p261
aS'scaffold7129_cov63'
p262
aa(lp263
S'scaffold6388_cov146'
p264
aS'scaffold8779_cov66'
p265
a(lp266
I1
a(lp267
F0.0
aaI24
aa(lp268
I1
a(lp269
F0.0
aaI24
aa(lp270
I1
a(lp271
F0.0
aaI30
aa(lp272
I1
a(lp273
F0.212121
aaI33
aa(lp274
I1
a(lp275
F0.28169
aaI71
aaa(lp276
S'scaffold90279_cov161'
p277
aS'scaffold90278_cov81'
p278
aa(lp279
S'scaffold6974_cov73'
p280
aS'scaffold2677_cov108'
p281
a(lp282
I1
a(lp283
F0.0
aaI15
aa(lp284
I1
a(lp285
F0.0
aaI15
aa(lp286
I1
a(lp287
F0.0
aaI16
aa(lp288
I1
a(lp289
F0.0
aaI8
aa(lp290
I1
a(lp291
F0.0
aaI2
aa(lp292
I1
a(lp293
F0.0
aaI2
aa(lp294
I1
a(lp295
F0.0
aaI2
aa(lp296
I1
a(lp297
F0.0
aaI2
aa(lp298
I1
a(lp299
F0.0
aaI5
aa(lp300
I1
a(lp301
F0.0
aaI4
aa(lp302
I1
a(lp303
F0.0
aaI2
aaa(lp304
S'scaffold33112_cov67'
p305
aS'scaffold33753_cov69'
p306
a(lp307
I1
a(lp308
F0.0
aaI13
aa(lp309
I2
a(lp310
F0.0
aF0.0
aaI8
aa(lp311
I1
a(lp312
F0.666667
aaI12
aa(lp313
I1
a(lp314
F0.555556
aaI9
aaa(lp315
S'scaffold166740_cov68'
p316
aS'scaffold167477_cov80'
p317
a(lp318
I1
a(lp319
F0.0
aaI2
aa(lp320
I1
a(lp321
F0.0
aaI14
aa(lp322
I1
a(lp323
F0.0
aaI15
aa(lp324
I1
a(lp325
F0.0
aaI15
aa(lp326
I1
a(lp327
F0.0
aaI17
aa(lp328
I1
a(lp329
F0.0
aaI2
aa(lp330
I1
a(lp331
F0.0
aaI2
aa(lp332
I1
a(lp333
F0.0
aaI15
aaa(lp334
S'scaffold1391_cov96'
p335
aS'scaffold46961_cov69'
p336
aa(lp337
S'scaffold56728_cov119'
p338
aS'scaffold11627_cov72'
p339
aa(lp340
S'scaffold2722_cov84'
p341
aS'scaffold8397_cov125'
p342
a(lp343
I1
a(lp344
F0.0
aaI2
aaa(lp345
S'scaffold2416_cov137'
p346
aS'scaffold2417_cov66'
p347
aa(lp348
S'scaffold20419_cov113'
p349
aS'scaffold114_cov72'
p350
aa(lp351
S'scaffold27148_cov73'
p352
aS'scaffold860_cov64'
p353
aa(lp354
S'scaffold4513_cov135'
p355
aS'scaffold59029_cov68'
p356
aa(lp357
S'scaffold406_cov110'
p358
aS'scaffold39105_cov66'
p359
aa(lp360
S'scaffold16084_cov74'
p361
aS'scaffold11821_cov67'
p362
a(lp363
I1
a(lp364
F0.384615
aaI39
aa(lp365
I1
a(lp366
F0.266667
aaI45
aa(lp367
I1
a(lp368
F0.574803
aaI127
aa(lp369
I1
a(lp370
F0.233766
aaI77
aa(lp371
I1
a(lp372
F0.209677
aaI62
aa(lp373
I1
a(lp374
F0.222222
aaI63
aaa(lp375
S'scaffold1716_cov94'
p376
aS'scaffold45397_cov62'
p377
aa(lp378
S'scaffold11225_cov146'
p379
aS'scaffold33238_cov67'
p380
aa(lp381
S'scaffold1158_cov100'
p382
aS'scaffold100812_cov62'
p383
aa(lp384
S'scaffold4036_cov142'
p385
aS'scaffold10658_cov62'
p386
aa(lp387
S'scaffold12688_cov135'
p388
aS'scaffold12686_cov61'
p389
a(lp390
I1
a(lp391
F0.0
aaI17
aa(lp392
I1
a(lp393
F0.0
aaI22
aaa(lp394
S'scaffold9676_cov145'
p395
aS'scaffold16231_cov68'
p396
aa(lp397
S'scaffold180_cov107'
p398
aS'scaffold1171_cov70'
p399
a(lp400
I1
a(lp401
F0.333333
aaI51
aa(lp402
I1
a(lp403
F0.0
aaI47
aa(lp404
I1
a(lp405
F0.0
aaI38
aa(lp406
I1
a(lp407
F0.0
aaI48
aa(lp408
I1
a(lp409
F0.207547
aaI53
aa(lp410
I1
a(lp411
F0.224138
aaI58
aaa(lp412
S'scaffold29230_cov135'
p413
aS'scaffold7717_cov65'
p414
aa(lp415
S'scaffold166708_cov122'
p416
aS'scaffold697_cov68'
p417
aa(lp418
S'scaffold6658_cov76'
p419
aS'scaffold860_cov64'
p420
aa(lp421
S'scaffold10313_cov102'
p422
aS'scaffold21316_cov65'
p423
aa(lp424
S'scaffold5667_cov96'
p425
aS'scaffold8355_cov67'
p426
a(lp427
I1
a(lp428
F0.259259
aaI27
aaa(lp429
S'scaffold167496_cov97'
p430
aS'scaffold29206_cov81'
p431
a(lp432
I1
a(lp433
F0.3
aaI50
aa(lp434
I1
a(lp435
F0.27451
aaI51
aa(lp436
I1
a(lp437
F0.333333
aaI51
aa(lp438
I1
a(lp439
F0.294118
aaI51
aa(lp440
I1
a(lp441
F0.276596
aaI47
aa(lp442
I1
a(lp443
F0.285714
aaI42
aa(lp444
I1
a(lp445
F0.318182
aaI44
aa(lp446
I1
a(lp447
F0.41791
aaI67
aa(lp448
I1
a(lp449
F0.372881
aaI59
aa(lp450
I1
a(lp451
F0.322034
aaI59
aaa(lp452
S'scaffold26582_cov78'
p453
aS'scaffold5481_cov69'
p454
a(lp455
I1
a(lp456
F0.229167
aaI48
aa(lp457
I1
a(lp458
F0.262295
aaI61
aaa(lp459
S'scaffold5259_cov70'
p460
aS'scaffold31513_cov82'
p461
a(lp462
I1
a(lp463
F0.25
aaI60
aa(lp464
I1
a(lp465
F0.339286
aaI56
aa(lp466
I1
a(lp467
F0.528571
aaI70
aaa(lp468
S'scaffold40887_cov133'
p469
aS'scaffold46748_cov73'
p470
aa(lp471
S'scaffold165520_cov190'
p472
aS'scaffold59464_cov122'
p473
aa(lp474
S'scaffold4555_cov123'
p475
aS'scaffold65460_cov69'
p476
aa(lp477
S'scaffold4019_cov99'
p478
aS'scaffold21633_cov84'
p479
aa(lp480
S'scaffold20825_cov153'
p481
aS'scaffold24052_cov69'
p482
aa(lp483
S'scaffold33229_cov65'
p484
aS'scaffold14473_cov147'
p485
aa(lp486
S'scaffold11599_cov105'
p487
aS'scaffold61789_cov64'
p488
aa(lp489
S'scaffold192192_cov171'
p490
aS'scaffold8532_cov71'
p491
aa(lp492
S'scaffold13917_cov148'
p493
aS'scaffold28422_cov65'
p494
aa(lp495
S'scaffold53875_cov130'
p496
aS'scaffold25755_cov75'
p497
aa(lp498
S'scaffold10275_cov68'
p499
aS'scaffold62474_cov113'
p500
aa(lp501
S'scaffold23999_cov72'
p502
aS'scaffold3701_cov67'
p503
aa(lp504
S'scaffold5203_cov76'
p505
aS'scaffold22882_cov105'
p506
a(lp507
I1
a(lp508
F0.0
aaI25
aa(lp509
I1
a(lp510
F0.0
aaI19
aa(lp511
I1
a(lp512
F0.0
aaI36
aa(lp513
I1
a(lp514
F0.0
aaI28
aa(lp515
I1
a(lp516
F0.0
aaI34
aa(lp517
I1
a(lp518
F0.0
aaI8
aa(lp519
I1
a(lp520
F0.0
aaI7
aa(lp521
I1
a(lp522
F0.0
aaI11
aa(lp523
I1
a(lp524
F0.0
aaI9
aa(lp525
I1
a(lp526
F0.205128
aaI39
aa(lp527
I1
a(lp528
F0.0
aaI10
aa(lp529
I1
a(lp530
F0.8
aaI5
aa(lp531
I1
a(lp532
F0.0
aaI5
aa(lp533
I1
a(lp534
F0.0
aaI12
aaa(lp535
S'scaffold16120_cov143'
p536
aS'scaffold9901_cov65'
p537
a(lp538
I1
a(lp539
F0.2
aaI25
aa(lp540
I1
a(lp541
F0.0
aaI7
aa(lp542
I1
a(lp543
F0.0
aaI6
aaa(lp544
S'scaffold22339_cov108'
p545
aS'scaffold15124_cov63'
p546
a(lp547
I1
a(lp548
F0.445946
aaI74
aa(lp549
I1
a(lp550
F0.375
aaI48
aaa(lp551
S'scaffold15763_cov140'
p552
aS'scaffold7011_cov67'
p553
a(lp554
I1
a(lp555
F0.324324
aaI37
aa(lp556
I1
a(lp557
F0.315789
aaI38
aaa(lp558
S'scaffold3674_cov106'
p559
aS'scaffold57150_cov68'
p560
aa(lp561
S'scaffold8694_cov129'
p562
aS'scaffold8135_cov71'
p563
a(lp564
I1
a(lp565
F0.52
aaI75
aaa(lp566
S'scaffold166685_cov152'
p567
aS'scaffold2832_cov75'
p568
aa(lp569
S'scaffold1840_cov66'
p570
aS'scaffold903_cov126'
p571
aa(lp572
S'scaffold34941_cov134'
p573
aS'scaffold1333_cov60'
p574
aa(lp575
S'scaffold561_cov86'
p576
aS'scaffold29165_cov60'
p577
aa(lp578
S'scaffold6818_cov67'
p579
aS'scaffold6820_cov103'
p580
a(lp581
I1
a(lp582
F0.0
aaI28
aa(lp583
I1
a(lp584
F0.0
aaI26
aa(lp585
I1
a(lp586
F0.0
aaI3
aa(lp587
I1
a(lp588
F0.0
aaI3
aa(lp589
I1
a(lp590
F0.0
aaI6
aaa(lp591
S'scaffold4931_cov109'
p592
aS'scaffold2702_cov92'
p593
aa(lp594
S'scaffold3133_cov141'
p595
aS'scaffold30966_cov62'
p596
aa(lp597
S'scaffold6620_cov103'
p598
aS'scaffold7907_cov67'
p599
aa(lp600
S'scaffold95367_cov139'
p601
aS'scaffold95366_cov79'
p602
aa(lp603
S'scaffold25513_cov91'
p604
aS'scaffold92575_cov70'
p605
aa(lp606
S'scaffold9131_cov93'
p607
aS'scaffold28864_cov67'
p608
a(lp609
I1
a(lp610
F0.244898
aaI49
aa(lp611
I1
a(lp612
F0.631579
aaI19
aaa(lp613
S'scaffold19827_cov125'
p614
aS'scaffold167515_cov69'
p615
a(lp616
I1
a(lp617
F0.31746
aaI63
aa(lp618
I1
a(lp619
F0.42623
aaI61
aaa(lp620
S'scaffold5296_cov115'
p621
aS'scaffold2979_cov71'
p622
aa(lp623
S'scaffold35735_cov102'
p624
aS'scaffold4162_cov69'
p625
a(lp626
I1
a(lp627
F0.586667
aaI75
aaa(lp628
S'scaffold32923_cov104'
p629
aS'scaffold36202_cov116'
p630
aa(lp631
S'scaffold14189_cov153'
p632
aS'scaffold2637_cov71'
p633
aa(lp634
S'scaffold1395_cov70'
p635
aS'scaffold1394_cov148'
p636
a(lp637
I1
a(lp638
F0.450704
aaI71
aa(lp639
I1
a(lp640
F0.309091
aaI55
aa(lp641
I1
a(lp642
F0.573529
aaI68
aa(lp643
I1
a(lp644
F0.434343
aaI99
aa(lp645
I1
a(lp646
F0.412698
aaI63
aa(lp647
I1
a(lp648
F0.342857
aaI70
aa(lp649
I1
a(lp650
F0.391892
aaI74
aa(lp651
I1
a(lp652
F0.569231
aaI65
aa(lp653
I1
a(lp654
F0.246377
aaI69
aaa(lp655
S'scaffold165441_cov141'
p656
aS'scaffold2849_cov95'
p657
a(lp658
I1
a(lp659
F0.22
aaI50
aa(lp660
I1
a(lp661
F0.235294
aaI51
aa(lp662
I1
a(lp663
F0.25
aaI48
aa(lp664
I1
a(lp665
F0.276596
aaI47
aa(lp666
I1
a(lp667
F0.214286
aaI42
aa(lp668
I1
a(lp669
F0.209302
aaI43
aa(lp670
I1
a(lp671
F0.463415
aaI82
aa(lp672
I1
a(lp673
F0.254902
aaI51
aa(lp674
I1
a(lp675
F0.24
aaI50
aaa(lp676
S'scaffold21927_cov117'
p677
aS'scaffold6252_cov71'
p678
a(lp679
I1
a(lp680
F0.245283
aaI53
aa(lp681
I1
a(lp682
F0.325
aaI40
aaa(lp683
S'scaffold8966_cov109'
p684
aS'scaffold3586_cov72'
p685
a(lp686
I1
a(lp687
F0.367347
aaI49
aa(lp688
I1
a(lp689
F0.340909
aaI44
aaa(lp690
S'scaffold514_cov77'
p691
aS'scaffold2213_cov74'
p692
aa(lp693
S'scaffold3987_cov100'
p694
aS'scaffold14924_cov62'
p695
aa(lp696
S'scaffold2987_cov88'
p697
aS'scaffold4224_cov73'
p698
a(lp699
I1
a(lp700
F0.269231
aaI26
aa(lp701
I1
a(lp702
F0.28
aaI25
aa(lp703
I1
a(lp704
F0.5
aaI62
aa(lp705
I1
a(lp706
F0.476923
aaI65
aa(lp707
I1
a(lp708
F0.363636
aaI55
aa(lp709
I1
a(lp710
F0.367347
aaI49
aa(lp711
I1
a(lp712
F0.244898
aaI49
aa(lp713
I1
a(lp714
F0.272727
aaI55
aa(lp715
I1
a(lp716
F0.386364
aaI44
aa(lp717
I1
a(lp718
F0.576923
aaI52
aa(lp719
I1
a(lp720
F0.472727
aaI55
aa(lp721
I1
a(lp722
F0.204545
aaI44
aa(lp723
I1
a(lp724
F0.230769
aaI52
aaa(lp725
S'scaffold164974_cov139'
p726
aS'scaffold2833_cov61'
p727
aa(lp728
S'scaffold3477_cov108'
p729
aS'scaffold10061_cov67'
p730
aa(lp731
S'scaffold9403_cov96'
p732
aS'scaffold23269_cov69'
p733
aa(lp734
S'scaffold48176_cov76'
p735
aS'scaffold42838_cov68'
p736
aa(lp737
S'scaffold3722_cov135'
p738
aS'scaffold3719_cov67'
p739
a(lp740
I1
a(lp741
F0.492063
aaI63
aaa(lp742
S'scaffold165461_cov100'
p743
aS'scaffold10491_cov66'
p744
aa(lp745
S'scaffold14267_cov83'
p746
aS'scaffold1125_cov68'
p747
a(lp748
I1
a(lp749
F0.380952
aaI42
aa(lp750
I1
a(lp751
F0.361702
aaI47
aa(lp752
I1
a(lp753
F0.339623
aaI53
aa(lp754
I1
a(lp755
F0.333333
aaI57
aa(lp756
I1
a(lp757
F0.306122
aaI49
aa(lp758
I1
a(lp759
F0.397436
aaI156
aa(lp760
I1
a(lp761
F0.311111
aaI135
aaa(lp762
S'scaffold32619_cov118'
p763
aS'scaffold20061_cov80'
p764
a(lp765
I1
a(lp766
F0.354839
aaI62
aa(lp767
I1
a(lp768
F0.33871
aaI62
aa(lp769
I1
a(lp770
F0.220339
aaI59
aaa(lp771
S'scaffold3738_cov114'
p772
aS'scaffold11440_cov66'
p773
aa(lp774
S'scaffold11968_cov142'
p775
aS'scaffold3404_cov63'
p776
aa(lp777
S'scaffold4957_cov147'
p778
aS'scaffold2304_cov67'
p779
aa(lp780
S'scaffold6014_cov96'
p781
aS'scaffold69980_cov67'
p782
aa(lp783
S'scaffold165395_cov77'
p784
aS'scaffold42402_cov68'
p785
a(lp786
I1
a(lp787
F0.309524
aaI42
aaa(lp788
S'scaffold12770_cov157'
p789
aS'scaffold21646_cov62'
p790
aa(lp791
S'scaffold2416_cov137'
p792
aS'scaffold16788_cov63'
p793
aa(lp794
S'scaffold167565_cov117'
p795
aS'scaffold893_cov66'
p796
aa(lp797
S'scaffold49558_cov135'
p798
aS'scaffold10462_cov135'
p799
aa(lp800
S'scaffold25651_cov100'
p801
aS'scaffold46961_cov69'
p802
aa(lp803
S'scaffold66329_cov132'
p804
aS'scaffold29989_cov70'
p805
a(lp806
I1
a(lp807
F0.2
aaI40
aa(lp808
I1
a(lp809
F0.210526
aaI38
aa(lp810
I1
a(lp811
F0.2
aaI40
aa(lp812
I1
a(lp813
F0.2
aaI50
aa(lp814
I1
a(lp815
F0.211538
aaI52
aa(lp816
I1
a(lp817
F0.230769
aaI52
aaa(lp818
S'scaffold3122_cov145'
p819
aS'scaffold3123_cov67'
p820
a(lp821
I1
a(lp822
F0.0
aaI37
aa(lp823
I1
a(lp824
F0.0
aaI39
aaa(lp825
S'scaffold8282_cov147'
p826
aS'scaffold8279_cov69'
p827
aa(lp828
S'scaffold900_cov65'
p829
aS'scaffold903_cov126'
p830
a(lp831
I1
a(lp832
F0.0
aaI27
aaa(lp833
S'scaffold167464_cov86'
p834
aS'scaffold12557_cov77'
p835
aa(lp836
S'scaffold13891_cov62'
p837
aS'scaffold26778_cov137'
p838
aa(lp839
S'scaffold7194_cov116'
p840
aS'scaffold6437_cov66'
p841
aa(lp842
S'scaffold70862_cov124'
p843
aS'scaffold34357_cov65'
p844
aa(lp845
S'scaffold14197_cov99'
p846
aS'scaffold6524_cov65'
p847
a(lp848
I1
a(lp849
F0.22807
aaI57
aa(lp850
I1
a(lp851
F0.25
aaI52
aa(lp852
I1
a(lp853
F0.285714
aaI35
aaa(lp854
S'scaffold15885_cov116'
p855
aS'scaffold15073_cov71'
p856
a(lp857
I1
a(lp858
F0.391304
aaI69
aa(lp859
I1
a(lp860
F0.222222
aaI63
aa(lp861
I1
a(lp862
F0.240741
aaI54
aa(lp863
I1
a(lp864
F0.430769
aaI65
aaa(lp865
S'scaffold3010_cov130'
p866
aS'scaffold3009_cov66'
p867
a(lp868
I1
a(lp869
F0.0
aaI53
aaa(lp870
S'scaffold34740_cov99'
p871
aS'scaffold10321_cov72'
p872
aa(lp873
S'scaffold45626_cov132'
p874
aS'scaffold26610_cov67'
p875
aa(lp876
S'scaffold19276_cov115'
p877
aS'scaffold33185_cov125'
p878
aa(lp879
S'scaffold13917_cov148'
p880
aS'scaffold5199_cov65'
p881
aa(lp882
S'scaffold4489_cov91'
p883
aS'scaffold166706_cov72'
p884
a(lp885
I1
a(lp886
F0.333333
aaI42
aa(lp887
I1
a(lp888
F0.295455
aaI44
aa(lp889
I1
a(lp890
F0.318182
aaI44
aaa(lp891
S'scaffold23696_cov107'
p892
aS'scaffold46569_cov79'
p893
aa(lp894
S'scaffold14010_cov120'
p895
aS'scaffold9558_cov65'
p896
a(lp897
I1
a(lp898
F0.0
aaI37
aaa(lp899
S'scaffold7174_cov138'
p900
aS'scaffold6615_cov72'
p901
a(lp902
I1
a(lp903
F0.289474
aaI38
aa(lp904
I1
a(lp905
F0.0
aaI8
aa(lp906
I1
a(lp907
F0.25
aaI12
aa(lp908
I1
a(lp909
F0.0
aaI6
aaa(lp910
S'scaffold8983_cov110'
p911
aS'scaffold5722_cov65'
p912
aa(lp913
S'scaffold165507_cov120'
p914
aS'scaffold1649_cov91'
p915
a(lp916
I1
a(lp917
F0.333333
aaI81
aa(lp918
I1
a(lp919
F0.365385
aaI52
aa(lp920
I1
a(lp921
F0.236364
aaI55
aa(lp922
I1
a(lp923
F0.25
aaI56
aa(lp924
I1
a(lp925
F0.276596
aaI47
aa(lp926
I1
a(lp927
F0.380952
aaI42
aa(lp928
I1
a(lp929
F0.255319
aaI47
aa(lp930
I1
a(lp931
F0.416667
aaI36
aa(lp932
I1
a(lp933
F0.446154
aaI65
aa(lp934
I1
a(lp935
F0.423077
aaI78
aa(lp936
I1
a(lp937
F0.458333
aaI48
aa(lp938
I1
a(lp939
F0.431373
aaI51
aa(lp940
I1
a(lp941
F0.333333
aaI54
aa(lp942
I1
a(lp943
F0.229508
aaI61
aa(lp944
I1
a(lp945
F0.245283
aaI53
aa(lp946
I1
a(lp947
F0.309091
aaI55
aa(lp948
I1
a(lp949
F0.267857
aaI56
aa(lp950
I1
a(lp951
F0.3125
aaI48
aa(lp952
I1
a(lp953
F0.226415
aaI53
aa(lp954
I1
a(lp955
F0.285714
aaI49
aa(lp956
I1
a(lp957
F0.285714
aaI49
aa(lp958
I1
a(lp959
F0.285714
aaI49
aa(lp960
I1
a(lp961
F0.280702
aaI57
aa(lp962
I1
a(lp963
F0.241379
aaI58
aa(lp964
I1
a(lp965
F0.245902
aaI61
aa(lp966
I1
a(lp967
F0.206897
aaI58
aa(lp968
I1
a(lp969
F0.24
aaI50
aa(lp970
I1
a(lp971
F0.444444
aaI54
aaa(lp972
S'scaffold7147_cov103'
p973
aS'scaffold7146_cov65'
p974
a(lp975
I1
a(lp976
F0.3125
aaI48
aaa(lp977
S'scaffold166767_cov133'
p978
aS'scaffold166788_cov64'
p979
aa(lp980
S'scaffold14010_cov120'
p981
aS'scaffold20924_cov70'
p982
aa(lp983
S'scaffold14968_cov70'
p984
aS'scaffold5208_cov124'
p985
aa(lp986
S'scaffold33079_cov127'
p987
aS'scaffold21398_cov73'
p988
aa(lp989
S'scaffold45339_cov132'
p990
aS'scaffold5542_cov64'
p991
aa(lp992
S'scaffold37263_cov117'
p993
aS'scaffold4202_cov67'
p994
a(lp995
I1
a(lp996
F0.0
aaI23
aa(lp997
I1
a(lp998
F0.0
aaI2
aa(lp999
I1
a(lp1000
F0.0
aaI2
aa(lp1001
I1
a(lp1002
F0.0
aaI2
aa(lp1003
I1
a(lp1004
F0.0
aaI2
aa(lp1005
I1
a(lp1006
F0.0
aaI2
aa(lp1007
I1
a(lp1008
F0.0
aaI4
aa(lp1009
I1
a(lp1010
F0.0
aaI6
aa(lp1011
I1
a(lp1012
F0.0
aaI7
aa(lp1013
I1
a(lp1014
F0.0
aaI8
aa(lp1015
I1
a(lp1016
F0.0
aaI12
aa(lp1017
I1
a(lp1018
F0.0
aaI15
aa(lp1019
I1
a(lp1020
F0.0
aaI15
aa(lp1021
I1
a(lp1022
F0.0
aaI9
aa(lp1023
I1
a(lp1024
F0.0
aaI14
aa(lp1025
I1
a(lp1026
F0.0
aaI14
aa(lp1027
I1
a(lp1028
F0.0
aaI24
aa(lp1029
I1
a(lp1030
F0.0
aaI2
aa(lp1031
I1
a(lp1032
F0.0
aaI8
aa(lp1033
I1
a(lp1034
F0.0
aaI8
aa(lp1035
I1
a(lp1036
F0.0
aaI2
aa(lp1037
I1
a(lp1038
F0.0
aaI11
aa(lp1039
I1
a(lp1040
F0.0
aaI11
aa(lp1041
I1
a(lp1042
F0.0
aaI4
aa(lp1043
I1
a(lp1044
F0.0
aaI5
aa(lp1045
I1
a(lp1046
F0.0
aaI5
aa(lp1047
I1
a(lp1048
F0.0
aaI5
aa(lp1049
I1
a(lp1050
F0.0
aaI6
aa(lp1051
I1
a(lp1052
F0.0
aaI4
aa(lp1053
I1
a(lp1054
F0.0
aaI2
aa(lp1055
I1
a(lp1056
F0.0
aaI4
aa(lp1057
I1
a(lp1058
F0.0
aaI3
aa(lp1059
I1
a(lp1060
F0.0
aaI4
aa(lp1061
I1
a(lp1062
F0.0
aaI4
aaa(lp1063
S'scaffold62223_cov138'
p1064
aS'scaffold41553_cov82'
p1065
aa(lp1066
S'scaffold540_cov68'
p1067
aS'scaffold167537_cov112'
p1068
a(lp1069
I1
a(lp1070
F0.466667
aaI60
aa(lp1071
I1
a(lp1072
F0.235294
aaI34
aa(lp1073
I1
a(lp1074
F0.242424
aaI33
aa(lp1075
I1
a(lp1076
F0.338462
aaI65
aaa(lp1077
S'scaffold1030_cov88'
p1078
aS'scaffold20924_cov70'
p1079
a(lp1080
I1
a(lp1081
F0.267857
aaI56
aaa(lp1082
S'scaffold5060_cov136'
p1083
aS'scaffold5059_cov70'
p1084
a(lp1085
I1
a(lp1086
F0.217949
aaI78
aaa(lp1087
S'scaffold2398_cov98'
p1088
aS'scaffold2617_cov76'
p1089
a(lp1090
I1
a(lp1091
F0.774194
aaI31
aa(lp1092
I1
a(lp1093
F0.8
aaI35
aa(lp1094
I1
a(lp1095
F0.506667
aaI75
aa(lp1096
I1
a(lp1097
F0.380952
aaI63
aa(lp1098
I1
a(lp1099
F0.507463
aaI67
aa(lp1100
I1
a(lp1101
F0.619048
aaI63
aa(lp1102
I1
a(lp1103
F0.29703
aaI101
aa(lp1104
I1
a(lp1105
F0.384615
aaI65
aa(lp1106
I1
a(lp1107
F0.378788
aaI66
aa(lp1108
I1
a(lp1109
F0.36
aaI75
aaa(lp1110
S'scaffold9303_cov137'
p1111
aS'scaffold3018_cov62'
p1112
aa(lp1113
S'scaffold28224_cov147'
p1114
aS'scaffold166774_cov71'
p1115
aa(lp1116
S'scaffold165413_cov124'
p1117
aS'scaffold1323_cov67'
p1118
aa(lp1119
S'scaffold1637_cov151'
p1120
aS'scaffold20670_cov68'
p1121
aa(lp1122
S'scaffold36067_cov121'
p1123
aS'scaffold10421_cov69'
p1124
aa(lp1125
S'scaffold9037_cov132'
p1126
aS'scaffold7705_cov77'
p1127
aa(lp1128
S'scaffold38008_cov141'
p1129
aS'scaffold5960_cov65'
p1130
aa(lp1131
S'scaffold7174_cov138'
p1132
aS'scaffold2501_cov70'
p1133
aa(lp1134
S'scaffold7264_cov122'
p1135
aS'scaffold10275_cov68'
p1136
aa(lp1137
S'scaffold90706_cov103'
p1138
aS'scaffold2061_cov67'
p1139
a(lp1140
I1
a(lp1141
F0.288889
aaI45
aa(lp1142
I1
a(lp1143
F0.204082
aaI49
aa(lp1144
I1
a(lp1145
F0.2
aaI50
aa(lp1146
I1
a(lp1147
F0.883721
aaI344
aaa(lp1148
S'scaffold25662_cov161'
p1149
aS'scaffold25660_cov79'
p1150
aa(lp1151
S'scaffold3559_cov143'
p1152
aS'scaffold9683_cov69'
p1153
a(lp1154
I1
a(lp1155
F0.75
aaI4
aaa(lp1156
S'scaffold25492_cov142'
p1157
aS'scaffold24079_cov69'
p1158
a(lp1159
I2
a(lp1160
F0.205882
aF0.235294
aaI34
aa(lp1161
I1
a(lp1162
F0.222222
aaI36
aaa(lp1163
S'scaffold167535_cov101'
p1164
aS'scaffold18420_cov96'
p1165
aa(lp1166
S'scaffold51750_cov85'
p1167
aS'scaffold39128_cov65'
p1168
aa(lp1169
S'scaffold12601_cov106'
p1170
aS'scaffold12765_cov63'
p1171
a(lp1172
I1
a(lp1173
F0.208333
aaI48
aa(lp1174
I1
a(lp1175
F0.227273
aaI44
aaa(lp1176
S'scaffold4941_cov130'
p1177
aS'scaffold29738_cov68'
p1178
aa(lp1179
S'scaffold9324_cov148'
p1180
aS'scaffold9325_cov63'
p1181
aa(lp1182
S'scaffold29312_cov132'
p1183
aS'scaffold9996_cov69'
p1184
aa(lp1185
S'scaffold17051_cov101'
p1186
aS'scaffold2939_cov64'
p1187
aa(lp1188
S'scaffold10858_cov149'
p1189
aS'scaffold10857_cov70'
p1190
a(lp1191
I1
a(lp1192
F0.25641
aaI39
aaa(lp1193
S'scaffold43497_cov152'
p1194
aS'scaffold48022_cov63'
p1195
aa(lp1196
S'scaffold35435_cov126'
p1197
aS'scaffold9757_cov95'
p1198
a(lp1199
I1
a(lp1200
F0.220339
aaI59
aa(lp1201
I1
a(lp1202
F0.288136
aaI59
aa(lp1203
I1
a(lp1204
F0.222222
aaI45
aaa(lp1205
S'scaffold6824_cov114'
p1206
aS'scaffold542_cov70'
p1207
aa(lp1208
S'scaffold10713_cov124'
p1209
aS'scaffold4604_cov80'
p1210
a(lp1211
I1
a(lp1212
F0.0
aaI16
aaa(lp1213
S'scaffold21338_cov100'
p1214
aS'scaffold8647_cov65'
p1215
a(lp1216
I1
a(lp1217
F0.0
aaI42
aaa(lp1218
S'scaffold18416_cov135'
p1219
aS'scaffold16862_cov66'
p1220
aa(lp1221
S'scaffold17874_cov144'
p1222
aS'scaffold38164_cov70'
p1223
aa(lp1224
S'scaffold19924_cov91'
p1225
aS'scaffold10385_cov64'
p1226
a(lp1227
I1
a(lp1228
F0.212766
aaI47
aa(lp1229
I1
a(lp1230
F0.204082
aaI49
aaa(lp1231
S'scaffold1491_cov109'
p1232
aS'scaffold3256_cov68'
p1233
a(lp1234
I1
a(lp1235
F0.33871
aaI62
aa(lp1236
I1
a(lp1237
F0.0
aaI15
aa(lp1238
I1
a(lp1239
F0.454545
aaI55
aaa(lp1240
S'scaffold167598_cov96'
p1241
aS'scaffold7183_cov82'
p1242
a(lp1243
I1
a(lp1244
F0.258621
aaI58
aaa(lp1245
S'scaffold3807_cov105'
p1246
aS'scaffold3967_cov66'
p1247
aa(lp1248
S'scaffold12335_cov66'
p1249
aS'scaffold8993_cov67'
p1250
a(lp1251
I1
a(lp1252
F0.0
aaI9
aa(lp1253
I1
a(lp1254
F0.4375
aaI16
aa(lp1255
I1
a(lp1256
F0.409091
aaI44
aaa(lp1257
S'scaffold2675_cov72'
p1258
aS'scaffold182819_cov255'
p1259
aa(lp1260
S'scaffold1354_cov130'
p1261
aS'scaffold8335_cov68'
p1262
a(lp1263
I1
a(lp1264
F0.0
aaI40
aaa(lp1265
S'scaffold10215_cov75'
p1266
aS'scaffold16998_cov67'
p1267
aa(lp1268
S'scaffold66380_cov110'
p1269
aS'scaffold15785_cov113'
p1270
aa(lp1271
S'scaffold43353_cov68'
p1272
aS'scaffold77207_cov117'
p1273
a(lp1274
I1
a(lp1275
F0.462687
aaI67
aaa(lp1276
S'scaffold36663_cov134'
p1277
aS'scaffold75670_cov64'
p1278
aa(lp1279
S'scaffold8548_cov121'
p1280
aS'scaffold9073_cov65'
p1281
aa(lp1282
S'scaffold843_cov127'
p1283
aS'scaffold844_cov69'
p1284
aa(lp1285
S'scaffold47796_cov64'
p1286
aS'scaffold6481_cov91'
p1287
a(lp1288
I1
a(lp1289
F0.0
aaI35
aa(lp1290
I1
a(lp1291
F0.0
aaI6
aa(lp1292
I1
a(lp1293
F0.0
aaI7
aa(lp1294
I1
a(lp1295
F0.0
aaI25
aaa(lp1296
S'scaffold10670_cov88'
p1297
aS'scaffold7453_cov60'
p1298
a(lp1299
I1
a(lp1300
F0.324324
aaI37
aaa(lp1301
S'scaffold18914_cov65'
p1302
aS'scaffold18912_cov140'
p1303
a(lp1304
I1
a(lp1305
F0.352941
aaI51
aa(lp1306
I1
a(lp1307
F0.0
aaI22
aaa(lp1308
S'scaffold3349_cov142'
p1309
aS'scaffold5670_cov74'
p1310
aa(lp1311
S'scaffold2048_cov125'
p1312
aS'scaffold7977_cov71'
p1313
a(lp1314
I1
a(lp1315
F0.214286
aaI28
aaa(lp1316
S'scaffold30140_cov63'
p1317
aS'scaffold11204_cov106'
p1318
a(lp1319
I1
a(lp1320
F0.0
aaI12
aa(lp1321
I1
a(lp1322
F0.0
aaI37
aa(lp1323
I1
a(lp1324
F0.0
aaI13
aaa(lp1325
S'scaffold167504_cov85'
p1326
aS'scaffold17931_cov63'
p1327
aa(lp1328
S'scaffold6426_cov139'
p1329
aS'scaffold6427_cov67'
p1330
aa(lp1331
S'scaffold165417_cov143'
p1332
aS'scaffold16672_cov63'
p1333
aa(lp1334
S'scaffold36663_cov134'
p1335
aS'scaffold30167_cov70'
p1336
a(lp1337
I1
a(lp1338
F0.212766
aaI47
aa(lp1339
I1
a(lp1340
F0.22449
aaI49
aa(lp1341
I1
a(lp1342
F0.263158
aaI57
aa(lp1343
I1
a(lp1344
F0.545455
aaI88
aaa(lp1345
S'scaffold18584_cov139'
p1346
aS'scaffold15986_cov63'
p1347
aa(lp1348
S'scaffold73411_cov102'
p1349
aS'scaffold25947_cov73'
p1350
aa(lp1351
S'scaffold14567_cov126'
p1352
aS'scaffold42400_cov69'
p1353
aa(lp1354
S'scaffold6704_cov127'
p1355
aS'scaffold6524_cov65'
p1356
aa(lp1357
S'scaffold18457_cov115'
p1358
aS'scaffold32162_cov89'
p1359
a(lp1360
I1
a(lp1361
F0.32
aaI100
aa(lp1362
I1
a(lp1363
F0.21875
aaI96
aa(lp1364
I1
a(lp1365
F0.287671
aaI73
aa(lp1366
I1
a(lp1367
F0.25
aaI64
aa(lp1368
I1
a(lp1369
F0.265823
aaI79
aaa(lp1370
S'scaffold2699_cov70'
p1371
aS'scaffold1978_cov92'
p1372
a(lp1373
I1
a(lp1374
F0.0
aaI3
aa(lp1375
I1
a(lp1376
F0.0
aaI3
aa(lp1377
I1
a(lp1378
F0.0
aaI10
aaa(lp1379
S'scaffold7672_cov74'
p1380
aS'scaffold43863_cov126'
p1381
aa(lp1382
S'scaffold10581_cov98'
p1383
aS'scaffold17516_cov69'
p1384
a(lp1385
I1
a(lp1386
F0.384615
aaI39
aa(lp1387
I1
a(lp1388
F0.227273
aaI44
aa(lp1389
I1
a(lp1390
F0.418605
aaI43
aa(lp1391
I1
a(lp1392
F0.447368
aaI38
aaa(lp1393
S'scaffold4107_cov90'
p1394
aS'scaffold6409_cov65'
p1395
a(lp1396
I1
a(lp1397
F0.0
aaI5
aaa(lp1398
S'scaffold165573_cov134'
p1399
aS'scaffold6928_cov65'
p1400
aa(lp1401
S'scaffold721_cov134'
p1402
aS'scaffold720_cov79'
p1403
aa(lp1404
S'scaffold9757_cov95'
p1405
aS'scaffold3630_cov66'
p1406
a(lp1407
I1
a(lp1408
F0.319444
aaI72
aaa(lp1409
S'scaffold4321_cov104'
p1410
aS'scaffold9387_cov68'
p1411
aa(lp1412
S'scaffold167650_cov100'
p1413
aS'scaffold21768_cov66'
p1414
aa(lp1415
S'scaffold34203_cov139'
p1416
aS'scaffold18396_cov65'
p1417
aa(lp1418
S'scaffold3745_cov115'
p1419
aS'scaffold7430_cov66'
p1420
a(lp1421
I1
a(lp1422
F0.384615
aaI91
aa(lp1423
I1
a(lp1424
F0.205882
aaI34
aa(lp1425
I1
a(lp1426
F0.338462
aaI65
aa(lp1427
I1
a(lp1428
F0.307692
aaI52
aa(lp1429
I1
a(lp1430
F0.25
aaI52
aaa(lp1431
S'scaffold181240_cov148'
p1432
aS'scaffold59620_cov74'
p1433
a(lp1434
I1
a(lp1435
F0.0
aaI5
aaa(lp1436
S'scaffold27354_cov105'
p1437
aS'scaffold16165_cov73'
p1438
aa(lp1439
S'scaffold11499_cov143'
p1440
aS'scaffold19165_cov65'
p1441
aa(lp1442
S'scaffold6268_cov78'
p1443
aS'scaffold4585_cov69'
p1444
aa(lp1445
S'scaffold11274_cov111'
p1446
aS'scaffold2804_cov69'
p1447
aa(lp1448
S'scaffold73058_cov93'
p1449
aS'scaffold5775_cov75'
p1450
a(lp1451
I1
a(lp1452
F0.352941
aaI68
aa(lp1453
I1
a(lp1454
F0.52459
aaI61
aa(lp1455
I1
a(lp1456
F0.333333
aaI63
aa(lp1457
I1
a(lp1458
F0.358209
aaI67
aa(lp1459
I1
a(lp1460
F0.416667
aaI48
aa(lp1461
I1
a(lp1462
F0.285714
aaI56
aa(lp1463
I1
a(lp1464
F0.222222
aaI45
aa(lp1465
I1
a(lp1466
F0.298246
aaI57
aa(lp1467
I1
a(lp1468
F0.204082
aaI49
aa(lp1469
I1
a(lp1470
F0.2
aaI45
aaa(lp1471
S'scaffold3566_cov79'
p1472
aS'scaffold4610_cov62'
p1473
aa(lp1474
S'scaffold12892_cov134'
p1475
aS'scaffold47938_cov75'
p1476
aa(lp1477
S'scaffold4939_cov152'
p1478
aS'scaffold4940_cov72'
p1479
aa(lp1480
S'scaffold8565_cov73'
p1481
aS'scaffold166331_cov132'
p1482
a(lp1483
I1
a(lp1484
F0.0
aaI23
aa(lp1485
I1
a(lp1486
F0.228571
aaI35
aa(lp1487
I1
a(lp1488
F0.0
aaI46
aaa(lp1489
S'scaffold9117_cov151'
p1490
aS'scaffold9115_cov70'
p1491
aa(lp1492
S'scaffold1006_cov111'
p1493
aS'scaffold1003_cov64'
p1494
aa(lp1495
S'scaffold5572_cov101'
p1496
aS'scaffold7298_cov66'
p1497
aa(lp1498
S'scaffold14527_cov64'
p1499
aS'scaffold1873_cov63'
p1500
aa(lp1501
S'scaffold19598_cov123'
p1502
aS'scaffold12870_cov60'
p1503
aa(lp1504
S'scaffold25966_cov129'
p1505
aS'scaffold20513_cov68'
p1506
aa(lp1507
S'scaffold6206_cov112'
p1508
aS'scaffold19927_cov67'
p1509
aa(lp1510
S'scaffold1808_cov87'
p1511
aS'scaffold18178_cov78'
p1512
aa(lp1513
S'scaffold4678_cov116'
p1514
aS'scaffold46295_cov125'
p1515
aa(lp1516
S'scaffold3133_cov141'
p1517
aS'scaffold3135_cov68'
p1518
a(lp1519
I1
a(lp1520
F0.0
aaI2
aa(lp1521
I1
a(lp1522
F0.0
aaI2
aaa(lp1523
S'scaffold20825_cov153'
p1524
aS'scaffold20824_cov72'
p1525
aa(lp1526
S'scaffold94664_cov148'
p1527
aS'scaffold11692_cov72'
p1528
aa(lp1529
S'scaffold15386_cov80'
p1530
aS'scaffold23731_cov68'
p1531
aa(lp1532
S'scaffold45520_cov151'
p1533
aS'scaffold45518_cov71'
p1534
aa(lp1535
S'scaffold1071_cov92'
p1536
aS'scaffold49421_cov62'
p1537
a(lp1538
I1
a(lp1539
F0.285714
aaI42
aaa(lp1540
S'scaffold3432_cov123'
p1541
aS'scaffold3406_cov67'
p1542
a(lp1543
I1
a(lp1544
F0.232558
aaI43
aa(lp1545
I1
a(lp1546
F0.344262
aaI61
aa(lp1547
I1
a(lp1548
F0.282828
aaI99
aa(lp1549
I1
a(lp1550
F0.362069
aaI58
aa(lp1551
I1
a(lp1552
F0.294118
aaI51
aa(lp1553
I1
a(lp1554
F0.548387
aaI62
aa(lp1555
I1
a(lp1556
F0.257143
aaI35
aa(lp1557
I1
a(lp1558
F0.264706
aaI34
aa(lp1559
I1
a(lp1560
F0.478261
aaI46
aa(lp1561
I1
a(lp1562
F0.2
aaI45
aa(lp1563
I1
a(lp1564
F0.219512
aaI41
aa(lp1565
I1
a(lp1566
F0.275862
aaI29
aa(lp1567
I1
a(lp1568
F0.242424
aaI33
aa(lp1569
I1
a(lp1570
F0.219512
aaI41
aa(lp1571
I1
a(lp1572
F0.255814
aaI43
aa(lp1573
I1
a(lp1574
F0.219512
aaI41
aaa(lp1575
S'scaffold12001_cov141'
p1576
aS'scaffold12003_cov68'
p1577
aa(lp1578
S'scaffold5456_cov152'
p1579
aS'scaffold67160_cov58'
p1580
aa(lp1581
S'scaffold166729_cov102'
p1582
aS'scaffold165425_cov72'
p1583
aa(lp1584
S'scaffold21534_cov145'
p1585
aS'scaffold21531_cov67'
p1586
aa(lp1587
S'scaffold35511_cov69'
p1588
aS'scaffold9312_cov104'
p1589
a(lp1590
I1
a(lp1591
F0.394737
aaI38
aa(lp1592
I1
a(lp1593
F0.605263
aaI38
aa(lp1594
I1
a(lp1595
F0.0
aaI9
aa(lp1596
I1
a(lp1597
F0.666667
aaI9
aa(lp1598
I1
a(lp1599
F0.625
aaI8
aa(lp1600
I1
a(lp1601
F0.5
aaI6
aa(lp1602
I1
a(lp1603
F0.5
aaI6
aa(lp1604
I1
a(lp1605
F0.5
aaI6
aa(lp1606
I1
a(lp1607
F0.5
aaI6
aa(lp1608
I1
a(lp1609
F0.4
aaI5
aa(lp1610
I1
a(lp1611
F0.5
aaI4
aa(lp1612
I1
a(lp1613
F0.0
aaI8
aa(lp1614
I1
a(lp1615
F0.0
aaI9
aaa(lp1616
S'scaffold55111_cov144'
p1617
aS'scaffold55112_cov70'
p1618
aa(lp1619
S'scaffold25594_cov137'
p1620
aS'scaffold19109_cov84'
p1621
a(lp1622
I1
a(lp1623
F0.0
aaI37
aa(lp1624
I1
a(lp1625
F0.289474
aaI114
aa(lp1626
I1
a(lp1627
F0.204545
aaI88
aa(lp1628
I1
a(lp1629
F0.235294
aaI85
aa(lp1630
I1
a(lp1631
F0.2375
aaI80
aa(lp1632
I1
a(lp1633
F0.202247
aaI89
aa(lp1634
I1
a(lp1635
F0.3
aaI110
aa(lp1636
I1
a(lp1637
F0.306306
aaI111
aaa(lp1638
S'scaffold27219_cov142'
p1639
aS'scaffold16554_cov65'
p1640
aa(lp1641
S'scaffold165434_cov141'
p1642
aS'scaffold29886_cov66'
p1643
a(lp1644
I1
a(lp1645
F0.0
aaI2
aa(lp1646
I1
a(lp1647
F0.0
aaI2
aa(lp1648
I1
a(lp1649
F0.0
aaI2
aa(lp1650
I1
a(lp1651
F0.0
aaI2
aaa(lp1652
S'scaffold1435_cov93'
p1653
aS'scaffold4122_cov62'
p1654
a(lp1655
I1
a(lp1656
F0.0
aaI5
aa(lp1657
I1
a(lp1658
F0.0
aaI38
aa(lp1659
I1
a(lp1660
F0.44898
aaI49
aaa(lp1661
S'scaffold95123_cov91'
p1662
aS'scaffold2350_cov77'
p1663
a(lp1664
I1
a(lp1665
F0.0
aaI30
aa(lp1666
I1
a(lp1667
F0.0
aaI28
aa(lp1668
I1
a(lp1669
F0.25
aaI40
aaa(lp1670
S'scaffold11842_cov94'
p1671
aS'scaffold158_cov68'
p1672
a(lp1673
I1
a(lp1674
F0.22449
aaI49
aa(lp1675
I1
a(lp1676
F0.207547
aaI53
aaa(lp1677
S'scaffold34153_cov147'
p1678
aS'scaffold48213_cov76'
p1679
aa(lp1680
S'scaffold141950_cov79'
p1681
aS'scaffold9327_cov109'
p1682
aa(lp1683
S'scaffold7481_cov74'
p1684
aS'scaffold89446_cov79'
p1685
aa(lp1686
S'scaffold5399_cov135'
p1687
aS'scaffold14003_cov64'
p1688
aa(lp1689
S'scaffold19197_cov73'
p1690
aS'scaffold4030_cov67'
p1691
aa(lp1692
S'scaffold16608_cov151'
p1693
aS'scaffold117332_cov60'
p1694
aa(lp1695
S'scaffold165470_cov102'
p1696
aS'scaffold48928_cov92'
p1697
a(lp1698
I1
a(lp1699
F0.541667
aaI72
aa(lp1700
I1
a(lp1701
F0.508475
aaI59
aa(lp1702
I1
a(lp1703
F0.515152
aaI66
aa(lp1704
I1
a(lp1705
F0.465753
aaI73
aa(lp1706
I1
a(lp1707
F0.549296
aaI71
aa(lp1708
I1
a(lp1709
F0.333333
aaI66
aa(lp1710
I1
a(lp1711
F0.28
aaI75
aa(lp1712
I1
a(lp1713
F0.25
aaI60
aa(lp1714
I1
a(lp1715
F0.384615
aaI52
aaa(lp1716
S'scaffold5433_cov148'
p1717
aS'scaffold4791_cov68'
p1718
aa(lp1719
S'scaffold16606_cov107'
p1720
aS'scaffold42581_cov70'
p1721
a(lp1722
I1
a(lp1723
F0.211538
aaI52
aa(lp1724
I1
a(lp1725
F0.259259
aaI54
aa(lp1726
I1
a(lp1727
F0.280702
aaI57
aa(lp1728
I1
a(lp1729
F0.283019
aaI53
aa(lp1730
I1
a(lp1731
F0.275862
aaI58
aa(lp1732
I1
a(lp1733
F0.327869
aaI61
aa(lp1734
I1
a(lp1735
F0.344828
aaI58
aa(lp1736
I1
a(lp1737
F0.34
aaI50
aaa(lp1738
S'scaffold2507_cov119'
p1739
aS'scaffold414_cov67'
p1740
a(lp1741
I1
a(lp1742
F0.25
aaI56
aaa(lp1743
S'scaffold6378_cov134'
p1744
aS'scaffold6379_cov64'
p1745
aa(lp1746
S'scaffold6580_cov70'
p1747
aS'scaffold36738_cov76'
p1748
aa(lp1749
S'scaffold27251_cov134'
p1750
aS'scaffold26715_cov65'
p1751
aa(lp1752
S'scaffold7224_cov118'
p1753
aS'scaffold775_cov72'
p1754
a(lp1755
I1
a(lp1756
F0.2
aaI15
aa(lp1757
I1
a(lp1758
F0.254902
aaI51
aaa(lp1759
S'scaffold1760_cov96'
p1760
aS'scaffold1762_cov75'
p1761
a(lp1762
I1
a(lp1763
F0.28
aaI50
aa(lp1764
I1
a(lp1765
F0.244898
aaI49
aa(lp1766
I1
a(lp1767
F0.389831
aaI59
aa(lp1768
I1
a(lp1769
F0.591549
aaI71
aaa(lp1770
S'scaffold213265_cov125'
p1771
aS'scaffold13885_cov142'
p1772
aa(lp1773
S'scaffold36163_cov117'
p1774
aS'scaffold6928_cov65'
p1775
a(lp1776
I1
a(lp1777
F0.228571
aaI35
aaa(lp1778
S'scaffold7473_cov63'
p1779
aS'scaffold167503_cov98'
p1780
a(lp1781
I1
a(lp1782
F0.0
aaI2
aa(lp1783
I1
a(lp1784
F0.0
aaI2
aa(lp1785
I1
a(lp1786
F0.0
aaI3
aa(lp1787
I1
a(lp1788
F0.0
aaI3
aa(lp1789
I1
a(lp1790
F0.0
aaI2
aa(lp1791
I1
a(lp1792
F0.0
aaI5
aa(lp1793
I1
a(lp1794
F0.0
aaI6
aa(lp1795
I1
a(lp1796
F0.0
aaI8
aaa(lp1797
S'scaffold1316_cov119'
p1798
aS'scaffold5085_cov79'
p1799
a(lp1800
I1
a(lp1801
F0.42
aaI50
aa(lp1802
I1
a(lp1803
F0.325
aaI40
aa(lp1804
I1
a(lp1805
F0.301887
aaI53
aa(lp1806
I1
a(lp1807
F0.32
aaI50
aa(lp1808
I1
a(lp1809
F0.397059
aaI68
aa(lp1810
I1
a(lp1811
F0.229167
aaI48
aa(lp1812
I1
a(lp1813
F0.217391
aaI46
aa(lp1814
I1
a(lp1815
F0.3125
aaI48
aa(lp1816
I1
a(lp1817
F0.261905
aaI42
aa(lp1818
I1
a(lp1819
F0.268293
aaI41
aa(lp1820
I1
a(lp1821
F0.309524
aaI42
aaa(lp1822
S'scaffold17086_cov103'
p1823
aS'scaffold17615_cov61'
p1824
aa(lp1825
S'scaffold107606_cov134'
p1826
aS'scaffold107607_cov79'
p1827
aa(lp1828
S'scaffold164980_cov146'
p1829
aS'scaffold3955_cov67'
p1830
a(lp1831
I1
a(lp1832
F0.583333
aaI12
aaa(lp1833
S'scaffold21352_cov62'
p1834
aS'scaffold78461_cov65'
p1835
aa(lp1836
S'scaffold22791_cov67'
p1837
aS'scaffold22793_cov63'
p1838
aa(lp1839
S'scaffold5694_cov90'
p1840
aS'scaffold21004_cov60'
p1841
a(lp1842
I1
a(lp1843
F0.209302
aaI43
aaa(lp1844
S'scaffold10298_cov88'
p1845
aS'scaffold12318_cov65'
p1846
aa(lp1847
S'scaffold1518_cov144'
p1848
aS'scaffold7273_cov73'
p1849
aa(lp1850
S'scaffold3714_cov147'
p1851
aS'scaffold3718_cov71'
p1852
a(lp1853
I1
a(lp1854
F0.26
aaI50
aa(lp1855
I1
a(lp1856
F0.0
aaI42
aaa(lp1857
S'scaffold20332_cov97'
p1858
aS'scaffold7080_cov68'
p1859
aa(lp1860
S'scaffold10475_cov143'
p1861
aS'scaffold10474_cov65'
p1862
a(lp1863
I1
a(lp1864
F0.0
aaI38
aa(lp1865
I1
a(lp1866
F0.0
aaI38
aa(lp1867
I1
a(lp1868
F0.0
aaI36
aaa(lp1869
S'scaffold6306_cov146'
p1870
aS'scaffold6305_cov69'
p1871
aa(lp1872
S'scaffold1865_cov101'
p1873
aS'scaffold58306_cov63'
p1874
aa(lp1875
S'scaffold11499_cov143'
p1876
aS'scaffold11874_cov70'
p1877
aa(lp1878
S'scaffold34203_cov139'
p1879
aS'scaffold15986_cov63'
p1880
aa(lp1881
S'scaffold4589_cov98'
p1882
aS'scaffold4585_cov69'
p1883
aa(lp1884
S'scaffold2767_cov75'
p1885
aS'scaffold9955_cov79'
p1886
aa(lp1887
S'scaffold2129_cov167'
p1888
aS'scaffold92330_cov67'
p1889
a(lp1890
I1
a(lp1891
F0.347826
aaI23
aaa(lp1892
S'scaffold34203_cov139'
p1893
aS'scaffold4395_cov68'
p1894
aa(lp1895
S'scaffold10574_cov127'
p1896
aS'scaffold11171_cov138'
p1897
aa(lp1898
S'scaffold5348_cov143'
p1899
aS'scaffold91295_cov60'
p1900
aa(lp1901
S'scaffold22816_cov146'
p1902
aS'scaffold22815_cov69'
p1903
aa(lp1904
S'scaffold16169_cov72'
p1905
aS'scaffold18351_cov137'
p1906
aa(lp1907
S'scaffold15731_cov124'
p1908
aS'scaffold1701_cov70'
p1909
a(lp1910
I1
a(lp1911
F0.0
aaI35
aa(lp1912
I1
a(lp1913
F0.27451
aaI51
aaa(lp1914
S'scaffold3741_cov108'
p1915
aS'scaffold2061_cov67'
p1916
aa(lp1917
S'scaffold1461_cov134'
p1918
aS'scaffold13020_cov66'
p1919
aa(lp1920
S'scaffold16201_cov125'
p1921
aS'scaffold51827_cov73'
p1922
aa(lp1923
S'scaffold6532_cov126'
p1924
aS'scaffold5058_cov63'
p1925
a(lp1926
I1
a(lp1927
F0.0
aaI47
aa(lp1928
I1
a(lp1929
F0.324324
aaI37
aaa(lp1930
S'scaffold38959_cov135'
p1931
aS'scaffold57178_cov79'
p1932
a(lp1933
I1
a(lp1934
F0.365854
aaI41
aa(lp1935
I1
a(lp1936
F0.416667
aaI48
aaa(lp1937
S'scaffold17601_cov135'
p1938
aS'scaffold1994_cov63'
p1939
a(lp1940
I1
a(lp1941
F0.28
aaI25
aaa(lp1942
S'scaffold16294_cov110'
p1943
aS'scaffold7481_cov74'
p1944
a(lp1945
I1
a(lp1946
F0.449275
aaI69
aa(lp1947
I1
a(lp1948
F0.402985
aaI67
aa(lp1949
I1
a(lp1950
F0.402985
aaI67
aa(lp1951
I1
a(lp1952
F0.518987
aaI79
aa(lp1953
I1
a(lp1954
F0.415385
aaI65
aa(lp1955
I1
a(lp1956
F0.428571
aaI63
aa(lp1957
I1
a(lp1958
F0.45
aaI60
aa(lp1959
I1
a(lp1960
F0.435484
aaI62
aa(lp1961
I1
a(lp1962
F0.292683
aaI41
aa(lp1963
I1
a(lp1964
F0.346939
aaI49
aa(lp1965
I1
a(lp1966
F0.314815
aaI54
aa(lp1967
I1
a(lp1968
F0.339623
aaI53
aa(lp1969
I1
a(lp1970
F0.347826
aaI46
aa(lp1971
I1
a(lp1972
F0.388889
aaI54
aa(lp1973
I1
a(lp1974
F0.4
aaI55
aa(lp1975
I1
a(lp1976
F0.408163
aaI49
aa(lp1977
I1
a(lp1978
F0.377778
aaI45
aa(lp1979
I1
a(lp1980
F0.266667
aaI60
aa(lp1981
I1
a(lp1982
F0.344828
aaI58
aa(lp1983
I1
a(lp1984
F0.235294
aaI51
aa(lp1985
I1
a(lp1986
F0.529412
aaI17
aa(lp1987
I1
a(lp1988
F0.327586
aaI58
aa(lp1989
I1
a(lp1990
F0.205128
aaI39
aaa(lp1991
S'scaffold31627_cov123'
p1992
aS'scaffold1614_cov71'
p1993
aa(lp1994
S'scaffold5399_cov135'
p1995
aS'scaffold8409_cov62'
p1996
aa(lp1997
S'scaffold4605_cov69'
p1998
aS'scaffold4604_cov80'
p1999
a(lp2000
I1
a(lp2001
F0.0
aaI20
aaa(lp2002
S'scaffold13624_cov94'
p2003
aS'scaffold72210_cov77'
p2004
aa(lp2005
S'scaffold19315_cov107'
p2006
aS'scaffold7113_cov70'
p2007
a(lp2008
I1
a(lp2009
F0.320755
aaI53
aaa(lp2010
S'scaffold165629_cov145'
p2011
aS'scaffold33634_cov72'
p2012
aa(lp2013
S'scaffold183201_cov134'
p2014
aS'scaffold6997_cov65'
p2015
aa(lp2016
S'scaffold22010_cov97'
p2017
aS'scaffold401_cov67'
p2018
aa(lp2019
S'scaffold17015_cov140'
p2020
aS'scaffold4528_cov69'
p2021
aa(lp2022
S'scaffold21453_cov86'
p2023
aS'scaffold4784_cov67'
p2024
aa(lp2025
S'scaffold13852_cov94'
p2026
aS'scaffold7585_cov68'
p2027
a(lp2028
I1
a(lp2029
F0.0
aaI13
aaa(lp2030
S'scaffold165420_cov139'
p2031
aS'scaffold27291_cov70'
p2032
aa(lp2033
S'scaffold9044_cov136'
p2034
aS'scaffold2501_cov70'
p2035
a(lp2036
I1
a(lp2037
F0.494624
aaI93
aa(lp2038
I1
a(lp2039
F0.0
aaI66
aa(lp2040
I1
a(lp2041
F0.0
aaI69
aa(lp2042
I1
a(lp2043
F0.377049
aaI61
aa(lp2044
I1
a(lp2045
F0.25
aaI48
aa(lp2046
I1
a(lp2047
F0.294118
aaI51
aa(lp2048
I1
a(lp2049
F0.314815
aaI54
aaa(lp2050
S'scaffold60916_cov101'
p2051
aS'scaffold2562_cov78'
p2052
aa(lp2053
S'scaffold6452_cov96'
p2054
aS'scaffold5694_cov90'
p2055
a(lp2056
I1
a(lp2057
F0.423077
aaI52
aa(lp2058
I1
a(lp2059
F0.285714
aaI42
aa(lp2060
I1
a(lp2061
F0.421053
aaI57
aa(lp2062
I1
a(lp2063
F0.415094
aaI53
aa(lp2064
I1
a(lp2065
F0.388889
aaI54
aa(lp2066
I1
a(lp2067
F0.372549
aaI51
aa(lp2068
I1
a(lp2069
F0.433962
aaI53
aa(lp2070
I1
a(lp2071
F0.425926
aaI54
aa(lp2072
I1
a(lp2073
F0.425926
aaI54
aa(lp2074
I1
a(lp2075
F0.325581
aaI43
aa(lp2076
I1
a(lp2077
F0.318182
aaI44
aa(lp2078
I1
a(lp2079
F0.304348
aaI23
aa(lp2080
I1
a(lp2081
F0.25
aaI28
aa(lp2082
I1
a(lp2083
F0.233333
aaI30
aa(lp2084
I1
a(lp2085
F0.2
aaI35
aa(lp2086
I1
a(lp2087
F0.228571
aaI35
aa(lp2088
I1
a(lp2089
F0.208333
aaI48
aa(lp2090
I1
a(lp2091
F0.227273
aaI44
aa(lp2092
I1
a(lp2093
F0.232558
aaI43
aa(lp2094
I1
a(lp2095
F0.227273
aaI44
aa(lp2096
I1
a(lp2097
F0.227273
aaI44
aa(lp2098
I1
a(lp2099
F0.209302
aaI43
aa(lp2100
I1
a(lp2101
F0.481481
aaI54
aa(lp2102
I1
a(lp2103
F0.327586
aaI58
aa(lp2104
I1
a(lp2105
F0.333333
aaI57
aa(lp2106
I1
a(lp2107
F0.384615
aaI52
aa(lp2108
I1
a(lp2109
F0.346154
aaI52
aa(lp2110
I1
a(lp2111
F0.384615
aaI52
aa(lp2112
I1
a(lp2113
F0.40678
aaI59
aa(lp2114
I1
a(lp2115
F0.290323
aaI31
aa(lp2116
I1
a(lp2117
F0.234043
aaI47
aa(lp2118
I1
a(lp2119
F0.243243
aaI37
aa(lp2120
I1
a(lp2121
F0.26087
aaI46
aa(lp2122
I1
a(lp2123
F0.33871
aaI62
aa(lp2124
I1
a(lp2125
F0.355932
aaI59
aa(lp2126
I1
a(lp2127
F0.319149
aaI47
aa(lp2128
I1
a(lp2129
F0.386364
aaI44
aa(lp2130
I1
a(lp2131
F0.382979
aaI47
aa(lp2132
I1
a(lp2133
F0.404255
aaI47
aaa(lp2134
S'scaffold451_cov146'
p2135
aS'scaffold449_cov70'
p2136
aa(lp2137
S'scaffold540_cov68'
p2138
aS'scaffold167824_cov153'
p2139
aa(lp2140
S'scaffold182_cov83'
p2141
aS'scaffold3533_cov68'
p2142
a(lp2143
I1
a(lp2144
F0.433962
aaI53
aaa(lp2145
S'scaffold167494_cov111'
p2146
aS'scaffold12899_cov60'
p2147
aa(lp2148
S'scaffold3456_cov132'
p2149
aS'scaffold166714_cov62'
p2150
aa(lp2151
S'scaffold37213_cov79'
p2152
aS'scaffold29941_cov91'
p2153
aa(lp2154
S'scaffold183613_cov153'
p2155
aS'scaffold5720_cov71'
p2156
aa(lp2157
S'scaffold10462_cov135'
p2158
aS'scaffold10461_cov66'
p2159
aa(lp2160
S'scaffold5049_cov88'
p2161
aS'scaffold5046_cov63'
p2162
aa(lp2163
S'scaffold19586_cov139'
p2164
aS'scaffold30711_cov65'
p2165
aasS'up'
p2166
(lp2167
(lp2168
g6
ag7
a(lp2169
I1
a(lp2170
F0.466667
aaI75
aa(lp2171
I1
a(lp2172
F0.268293
aaI41
aa(lp2173
I1
a(lp2174
F0.3125
aaI48
aa(lp2175
I1
a(lp2176
F0.3125
aaI48
aa(lp2177
I1
a(lp2178
F0.222222
aaI45
aa(lp2179
I1
a(lp2180
F0.209302
aaI43
aa(lp2181
I1
a(lp2182
F0.204545
aaI44
aa(lp2183
I1
a(lp2184
F0.366667
aaI60
aa(lp2185
I1
a(lp2186
F0.245902
aaI61
aa(lp2187
I1
a(lp2188
F0.276596
aaI47
aa(lp2189
I1
a(lp2190
F0.54386
aaI57
aa(lp2191
I1
a(lp2192
F0.583333
aaI60
aa(lp2193
I1
a(lp2194
F0.454545
aaI66
aa(lp2195
I1
a(lp2196
F0.387755
aaI49
aa(lp2197
I1
a(lp2198
F0.2
aaI45
aa(lp2199
I1
a(lp2200
F0.421875
aaI64
aa(lp2201
I1
a(lp2202
F0.269231
aaI52
aaa(lp2203
g9
ag10
a(lp2204
I1
a(lp2205
F0.0
aaI62
aaa(lp2206
g12
ag13
a(lp2207
I1
a(lp2208
F0.386364
aaI44
aaa(lp2209
g15
ag16
aa(lp2210
g20
ag21
aa(lp2211
g65
ag66
a(lp2212
I1
a(lp2213
F0.0
aaI49
aa(lp2214
I1
a(lp2215
F0.372849
aaI523
aaa(lp2216
g68
ag69
a(lp2217
I1
a(lp2218
F0.235294
aaI51
aa(lp2219
I1
a(lp2220
F0.232143
aaI56
aa(lp2221
I1
a(lp2222
F0.26087
aaI46
aa(lp2223
I1
a(lp2224
F0.285714
aaI49
aaa(lp2225
g71
ag72
aa(lp2226
g74
ag75
aa(lp2227
g77
ag78
a(lp2228
I1
a(lp2229
F0.489362
aaI47
aa(lp2230
I1
a(lp2231
F0.240385
aaI104
aa(lp2232
I1
a(lp2233
F0.402778
aaI72
aaa(lp2234
g80
ag81
a(lp2235
I1
a(lp2236
F0.3
aaI60
aa(lp2237
I1
a(lp2238
F0.375
aaI56
aa(lp2239
I1
a(lp2240
F0.389831
aaI59
aa(lp2241
I1
a(lp2242
F0.405405
aaI74
aaa(lp2243
g83
ag84
aa(lp2244
g86
ag87
a(lp2245
I1
a(lp2246
F0.333333
aaI63
aa(lp2247
I1
a(lp2248
F0.212766
aaI47
aa(lp2249
I1
a(lp2250
F0.392857
aaI56
aaa(lp2251
g117
ag118
a(lp2252
I1
a(lp2253
F0.385965
aaI57
aa(lp2254
I1
a(lp2255
F0.265823
aaI79
aa(lp2256
I1
a(lp2257
F0.38
aaI50
aa(lp2258
I1
a(lp2259
F0.347826
aaI46
aa(lp2260
I1
a(lp2261
F0.282609
aaI46
aa(lp2262
I1
a(lp2263
F0.571429
aaI42
aaa(lp2264
g124
ag125
a(lp2265
I1
a(lp2266
F0.2
aaI70
aa(lp2267
I1
a(lp2268
F0.403509
aaI57
aa(lp2269
I1
a(lp2270
F0.333333
aaI81
aa(lp2271
I1
a(lp2272
F0.316456
aaI79
aa(lp2273
I1
a(lp2274
F0.265823
aaI79
aa(lp2275
I1
a(lp2276
F0.272727
aaI77
aaa(lp2277
g215
ag216
a(lp2278
I1
a(lp2279
F0.270833
aaI48
aa(lp2280
I1
a(lp2281
F0.466667
aaI75
aa(lp2282
I1
a(lp2283
F0.293103
aaI58
aa(lp2284
I1
a(lp2285
F0.363636
aaI88
aaa(lp2286
g218
ag219
a(lp2287
I1
a(lp2288
F0.538462
aaI65
aa(lp2289
I1
a(lp2290
F0.494382
aaI89
aa(lp2291
I1
a(lp2292
F0.452381
aaI84
aa(lp2293
I1
a(lp2294
F0.388889
aaI90
aa(lp2295
I1
a(lp2296
F0.510204
aaI98
aa(lp2297
I1
a(lp2298
F0.487179
aaI78
aa(lp2299
I1
a(lp2300
F0.426667
aaI75
aa(lp2301
I1
a(lp2302
F0.458333
aaI96
aa(lp2303
I1
a(lp2304
F0.209877
aaI81
aa(lp2305
I1
a(lp2306
F0.21519
aaI79
aaa(lp2307
g223
ag224
a(lp2308
I1
a(lp2309
F0.321782
aaI202
aa(lp2310
I1
a(lp2311
F0.0
aaI194
aaa(lp2312
g228
ag229
a(lp2313
I1
a(lp2314
F0.449275
aaI69
aa(lp2315
I1
a(lp2316
F0.283019
aaI53
aa(lp2317
I1
a(lp2318
F0.283019
aaI53
aa(lp2319
I1
a(lp2320
F0.285714
aaI56
aa(lp2321
I1
a(lp2322
F0.244898
aaI49
aa(lp2323
I1
a(lp2324
F0.457627
aaI59
aa(lp2325
I1
a(lp2326
F0.446154
aaI65
aa(lp2327
I1
a(lp2328
F0.376812
aaI69
aa(lp2329
I1
a(lp2330
F0.381818
aaI55
aa(lp2331
I1
a(lp2332
F0.268657
aaI67
aa(lp2333
I1
a(lp2334
F0.233333
aaI60
aa(lp2335
I1
a(lp2336
F0.229508
aaI61
aa(lp2337
I1
a(lp2338
F0.265625
aaI64
aa(lp2339
I1
a(lp2340
F0.306452
aaI62
aa(lp2341
I1
a(lp2342
F0.31746
aaI63
aa(lp2343
I1
a(lp2344
F0.357143
aaI56
aa(lp2345
I1
a(lp2346
F0.320755
aaI53
aa(lp2347
I1
a(lp2348
F0.40678
aaI59
aa(lp2349
I1
a(lp2350
F0.448276
aaI58
aa(lp2351
I1
a(lp2352
F0.392857
aaI56
aa(lp2353
I1
a(lp2354
F0.301587
aaI63
aaa(lp2355
g233
ag234
aa(lp2356
g236
ag237
a(lp2357
I1
a(lp2358
F0.255814
aaI43
aaa(lp2359
g245
ag246
a(lp2360
I1
a(lp2361
F0.0
aaI26
aa(lp2362
I1
a(lp2363
F0.204082
aaI49
aa(lp2364
I1
a(lp2365
F0.210526
aaI38
aa(lp2366
I1
a(lp2367
F0.235294
aaI51
aa(lp2368
I1
a(lp2369
F0.255319
aaI47
aaa(lp2370
g248
ag249
aa(lp2371
g255
ag256
aa(lp2372
g258
ag259
aa(lp2373
g261
ag262
aa(lp2374
g264
ag265
aa(lp2375
g277
ag278
aa(lp2376
g280
ag281
aa(lp2377
g305
ag306
a(lp2378
I1
a(lp2379
F0.375
aaI72
aa(lp2380
I1
a(lp2381
F0.367347
aaI49
aa(lp2382
I1
a(lp2383
F0.387755
aaI49
aa(lp2384
I1
a(lp2385
F0.390625
aaI64
aa(lp2386
I1
a(lp2387
F0.0
aaI56
aa(lp2388
I1
a(lp2389
F0.333333
aaI54
aa(lp2390
I1
a(lp2391
F0.245283
aaI53
aa(lp2392
I1
a(lp2393
F0.448276
aaI58
aa(lp2394
I1
a(lp2395
F0.428571
aaI49
aa(lp2396
I1
a(lp2397
F0.261538
aaI65
aaa(lp2398
g316
ag317
aa(lp2399
g335
ag336
a(lp2400
I1
a(lp2401
F0.403509
aaI57
aa(lp2402
I1
a(lp2403
F0.349206
aaI63
aa(lp2404
I1
a(lp2405
F0.363636
aaI55
aa(lp2406
I1
a(lp2407
F0.309091
aaI55
aa(lp2408
I1
a(lp2409
F0.34
aaI50
aa(lp2410
I1
a(lp2411
F0.448276
aaI58
aa(lp2412
I1
a(lp2413
F0.425926
aaI54
aa(lp2414
I1
a(lp2415
F0.285714
aaI56
aa(lp2416
I1
a(lp2417
F0.275862
aaI29
aaa(lp2418
g338
ag339
a(lp2419
I1
a(lp2420
F0.25
aaI56
aa(lp2421
I1
a(lp2422
F0.386667
aaI75
aaa(lp2423
g341
ag342
a(lp2424
I1
a(lp2425
F0.0
aaI52
aa(lp2426
I1
a(lp2427
F0.0
aaI60
aa(lp2428
I1
a(lp2429
F0.0
aaI66
aaa(lp2430
g346
ag347
aa(lp2431
g349
ag350
aa(lp2432
g352
ag353
aa(lp2433
g355
ag356
a(lp2434
I1
a(lp2435
F0.426667
aaI150
aa(lp2436
I1
a(lp2437
F0.311475
aaI61
aa(lp2438
I1
a(lp2439
F0.431034
aaI58
aa(lp2440
I1
a(lp2441
F0.227273
aaI44
aa(lp2442
I1
a(lp2443
F0.230769
aaI39
aa(lp2444
I1
a(lp2445
F0.3125
aaI48
aa(lp2446
I1
a(lp2447
F0.339286
aaI56
aa(lp2448
I1
a(lp2449
F0.254902
aaI51
aa(lp2450
I1
a(lp2451
F0.270833
aaI48
aa(lp2452
I1
a(lp2453
F0.372093
aaI43
aa(lp2454
I1
a(lp2455
F0.307692
aaI52
aa(lp2456
I1
a(lp2457
F0.327586
aaI58
aa(lp2458
I1
a(lp2459
F0.28
aaI50
aa(lp2460
I1
a(lp2461
F0.297872
aaI47
aa(lp2462
I1
a(lp2463
F0.285714
aaI49
aa(lp2464
I1
a(lp2465
F0.23913
aaI46
aaa(lp2466
g358
ag359
a(lp2467
I1
a(lp2468
F0.285714
aaI42
aa(lp2469
I1
a(lp2470
F0.358974
aaI39
aa(lp2471
I1
a(lp2472
F0.390244
aaI41
aa(lp2473
I1
a(lp2474
F0.372093
aaI43
aa(lp2475
I1
a(lp2476
F0.266667
aaI30
aa(lp2477
I1
a(lp2478
F0.456522
aaI46
aa(lp2479
I1
a(lp2480
F0.276596
aaI47
aa(lp2481
I1
a(lp2482
F0.355556
aaI45
aa(lp2483
I1
a(lp2484
F0.317073
aaI41
aa(lp2485
I1
a(lp2486
F0.315789
aaI57
aa(lp2487
I1
a(lp2488
F0.310345
aaI58
aa(lp2489
I1
a(lp2490
F0.381818
aaI55
aa(lp2491
I1
a(lp2492
F0.37037
aaI54
aa(lp2493
I1
a(lp2494
F0.4375
aaI64
aa(lp2495
I1
a(lp2496
F0.215385
aaI65
aaa(lp2497
g361
ag362
a(lp2498
I1
a(lp2499
F0.257143
aaI35
aa(lp2500
I1
a(lp2501
F0.205882
aaI34
aa(lp2502
I1
a(lp2503
F0.217391
aaI46
aa(lp2504
I1
a(lp2505
F0.222222
aaI54
aa(lp2506
I1
a(lp2507
F0.238095
aaI63
aa(lp2508
I1
a(lp2509
F0.245614
aaI57
aa(lp2510
I1
a(lp2511
F0.428571
aaI70
aa(lp2512
I1
a(lp2513
F0.382353
aaI68
aa(lp2514
I1
a(lp2515
F0.493827
aaI81
aa(lp2516
I1
a(lp2517
F0.506173
aaI81
aa(lp2518
I1
a(lp2519
F0.553846
aaI65
aa(lp2520
I1
a(lp2521
F0.588235
aaI85
aa(lp2522
I1
a(lp2523
F0.580645
aaI93
aa(lp2524
I1
a(lp2525
F0.589474
aaI95
aaa(lp2526
g376
ag377
a(lp2527
I1
a(lp2528
F0.45283
aaI53
aa(lp2529
I1
a(lp2530
F0.468085
aaI47
aa(lp2531
I1
a(lp2532
F0.288462
aaI52
aaa(lp2533
g379
ag380
aa(lp2534
g382
ag383
a(lp2535
I1
a(lp2536
F0.542169
aaI83
aa(lp2537
I1
a(lp2538
F0.266667
aaI45
aa(lp2539
I1
a(lp2540
F0.244444
aaI45
aaa(lp2541
g385
ag386
aa(lp2542
g388
ag389
a(lp2543
I1
a(lp2544
F0.6
aaI60
aaa(lp2545
g395
ag396
aa(lp2546
g398
ag399
a(lp2547
I1
a(lp2548
F0.310345
aaI58
aa(lp2549
I1
a(lp2550
F0.434211
aaI76
aa(lp2551
I1
a(lp2552
F0.296875
aaI64
aa(lp2553
I1
a(lp2554
F0.428571
aaI63
aaa(lp2555
g413
ag414
aa(lp2556
g416
ag417
a(lp2557
I1
a(lp2558
F0.28125
aaI64
aa(lp2559
I1
a(lp2560
F0.297872
aaI47
aa(lp2561
I1
a(lp2562
F0.304348
aaI46
aa(lp2563
I1
a(lp2564
F0.243902
aaI41
aa(lp2565
I1
a(lp2566
F0.431373
aaI51
aa(lp2567
I1
a(lp2568
F0.212121
aaI33
aaa(lp2569
g419
ag420
aa(lp2570
g422
ag423
a(lp2571
I1
a(lp2572
F0.538462
aaI78
aa(lp2573
I1
a(lp2574
F0.40678
aaI59
aaa(lp2575
g425
ag426
a(lp2576
I1
a(lp2577
F0.23913
aaI46
aa(lp2578
I1
a(lp2579
F0.275
aaI80
aa(lp2580
I1
a(lp2581
F0.706667
aaI75
aa(lp2582
I1
a(lp2583
F0.454545
aaI66
aa(lp2584
I1
a(lp2585
F0.396825
aaI63
aa(lp2586
I1
a(lp2587
F0.642857
aaI56
aa(lp2588
I1
a(lp2589
F0.2
aaI35
aa(lp2590
I1
a(lp2591
F0.339286
aaI56
aa(lp2592
I1
a(lp2593
F0.268293
aaI41
aa(lp2594
I1
a(lp2595
F0.244898
aaI49
aa(lp2596
I1
a(lp2597
F0.276596
aaI47
aaa(lp2598
g430
ag431
a(lp2599
I1
a(lp2600
F0.315789
aaI76
aa(lp2601
I1
a(lp2602
F0.285714
aaI105
aa(lp2603
I1
a(lp2604
F0.278846
aaI104
aa(lp2605
I1
a(lp2606
F0.279279
aaI111
aa(lp2607
I1
a(lp2608
F0.23913
aaI46
aa(lp2609
I1
a(lp2610
F0.245902
aaI61
aa(lp2611
I1
a(lp2612
F0.266667
aaI60
aa(lp2613
I1
a(lp2614
F0.478873
aaI71
aa(lp2615
I1
a(lp2616
F0.37037
aaI54
aaa(lp2617
g453
ag454
a(lp2618
I1
a(lp2619
F0.467742
aaI62
aa(lp2620
I1
a(lp2621
F0.23913
aaI46
aa(lp2622
I1
a(lp2623
F0.421687
aaI83
aa(lp2624
I1
a(lp2625
F0.289474
aaI38
aaa(lp2626
g460
ag461
aa(lp2627
g469
ag470
a(lp2628
I1
a(lp2629
F0.217391
aaI46
aaa(lp2630
g472
ag473
aa(lp2631
g475
ag476
aa(lp2632
g478
ag479
a(lp2633
I1
a(lp2634
F0.288462
aaI52
aa(lp2635
I1
a(lp2636
F0.244444
aaI45
aa(lp2637
I1
a(lp2638
F0.232558
aaI43
aa(lp2639
I1
a(lp2640
F0.232558
aaI43
aa(lp2641
I1
a(lp2642
F0.232558
aaI43
aa(lp2643
I1
a(lp2644
F0.386364
aaI44
aa(lp2645
I1
a(lp2646
F0.4375
aaI48
aa(lp2647
I1
a(lp2648
F0.423729
aaI59
aa(lp2649
I1
a(lp2650
F0.351852
aaI54
aa(lp2651
I1
a(lp2652
F0.339623
aaI53
aa(lp2653
I1
a(lp2654
F0.282609
aaI46
aa(lp2655
I1
a(lp2656
F0.310345
aaI58
aa(lp2657
I1
a(lp2658
F0.4125
aaI80
aa(lp2659
I1
a(lp2660
F0.377358
aaI53
aa(lp2661
I1
a(lp2662
F0.0
aaI44
aaa(lp2663
g481
ag482
aa(lp2664
g484
ag485
aa(lp2665
g487
ag488
a(lp2666
I1
a(lp2667
F0.268293
aaI41
aa(lp2668
I1
a(lp2669
F0.243902
aaI41
aa(lp2670
I1
a(lp2671
F0.209302
aaI43
aa(lp2672
I1
a(lp2673
F0.272727
aaI55
aa(lp2674
I1
a(lp2675
F0.32
aaI50
aa(lp2676
I1
a(lp2677
F0.304348
aaI46
aa(lp2678
I1
a(lp2679
F0.311111
aaI45
aa(lp2680
I1
a(lp2681
F0.261905
aaI42
aa(lp2682
I1
a(lp2683
F0.380952
aaI42
aa(lp2684
I1
a(lp2685
F0.305556
aaI36
aa(lp2686
I1
a(lp2687
F0.317073
aaI41
aa(lp2688
I1
a(lp2689
F0.333333
aaI45
aaa(lp2690
g490
ag491
aa(lp2691
g493
ag494
aa(lp2692
g496
ag497
a(lp2693
I1
a(lp2694
F0.0
aaI2
aa(lp2695
I1
a(lp2696
F0.0
aaI2
aaa(lp2697
g499
ag500
aa(lp2698
g502
ag503
aa(lp2699
g505
ag506
aa(lp2700
g536
ag537
aa(lp2701
g545
ag546
a(lp2702
I1
a(lp2703
F0.230769
aaI39
aa(lp2704
I1
a(lp2705
F0.444444
aaI72
aa(lp2706
I1
a(lp2707
F0.444444
aaI54
aa(lp2708
I1
a(lp2709
F0.59322
aaI59
aa(lp2710
I1
a(lp2711
F0.464789
aaI71
aa(lp2712
I1
a(lp2713
F0.514286
aaI70
aa(lp2714
I1
a(lp2715
F0.507246
aaI69
aa(lp2716
I1
a(lp2717
F0.521739
aaI69
aa(lp2718
I1
a(lp2719
F0.549296
aaI71
aa(lp2720
I1
a(lp2721
F0.425532
aaI47
aa(lp2722
I1
a(lp2723
F0.433962
aaI53
aa(lp2724
I1
a(lp2725
F0.462963
aaI54
aa(lp2726
I1
a(lp2727
F0.482759
aaI58
aa(lp2728
I1
a(lp2729
F0.388889
aaI54
aa(lp2730
I1
a(lp2731
F0.4
aaI60
aa(lp2732
I1
a(lp2733
F0.311475
aaI61
aa(lp2734
I1
a(lp2735
F0.508197
aaI61
aa(lp2736
I1
a(lp2737
F0.474576
aaI59
aa(lp2738
I1
a(lp2739
F0.550725
aaI69
aa(lp2740
I1
a(lp2741
F0.558824
aaI68
aa(lp2742
I1
a(lp2743
F0.0
aaI51
aa(lp2744
I1
a(lp2745
F0.305556
aaI36
aaa(lp2746
g552
ag553
aa(lp2747
g559
ag560
a(lp2748
I1
a(lp2749
F0.212766
aaI47
aa(lp2750
I1
a(lp2751
F0.228571
aaI35
aaa(lp2752
g562
ag563
a(lp2753
I1
a(lp2754
F0.257576
aaI66
aa(lp2755
I1
a(lp2756
F0.419355
aaI62
aaa(lp2757
g567
ag568
aa(lp2758
g570
ag571
aa(lp2759
g573
ag574
aa(lp2760
g576
ag577
aa(lp2761
g579
ag580
a(lp2762
I1
a(lp2763
F0.264706
aaI34
aa(lp2764
I1
a(lp2765
F0.0
aaI35
aa(lp2766
I1
a(lp2767
F0.5
aaI54
aa(lp2768
I1
a(lp2769
F0.538462
aaI52
aaa(lp2770
g592
ag593
aa(lp2771
g595
ag596
aa(lp2772
g598
ag599
a(lp2773
I1
a(lp2774
F0.402778
aaI72
aa(lp2775
I1
a(lp2776
F0.32
aaI50
aa(lp2777
I1
a(lp2778
F0.326087
aaI46
aa(lp2779
I1
a(lp2780
F0.264706
aaI34
aa(lp2781
I1
a(lp2782
F0.218182
aaI55
aa(lp2783
I1
a(lp2784
F0.55102
aaI49
aa(lp2785
I1
a(lp2786
F0.2
aaI45
aa(lp2787
I1
a(lp2788
F0.204545
aaI44
aa(lp2789
I1
a(lp2790
F0.25
aaI36
aa(lp2791
I1
a(lp2792
F0.357143
aaI42
aa(lp2793
I1
a(lp2794
F0.26087
aaI46
aa(lp2795
I1
a(lp2796
F0.292683
aaI41
aa(lp2797
I1
a(lp2798
F0.205128
aaI39
aaa(lp2799
g601
ag602
aa(lp2800
g604
ag605
aa(lp2801
g607
ag608
aa(lp2802
g614
ag615
a(lp2803
I1
a(lp2804
F0.508197
aaI61
aa(lp2805
I1
a(lp2806
F0.514706
aaI68
aa(lp2807
I1
a(lp2808
F0.445946
aaI74
aaa(lp2809
g621
ag622
a(lp2810
I1
a(lp2811
F0.313433
aaI67
aa(lp2812
I1
a(lp2813
F0.306452
aaI62
aa(lp2814
I1
a(lp2815
F0.323529
aaI68
aa(lp2816
I1
a(lp2817
F0.25
aaI60
aa(lp2818
I1
a(lp2819
F0.285714
aaI63
aa(lp2820
I1
a(lp2821
F0.328125
aaI64
aa(lp2822
I1
a(lp2823
F0.349206
aaI63
aa(lp2824
I1
a(lp2825
F0.327869
aaI61
aa(lp2826
I1
a(lp2827
F0.264151
aaI53
aa(lp2828
I1
a(lp2829
F0.259259
aaI54
aa(lp2830
I1
a(lp2831
F0.269231
aaI52
aa(lp2832
I1
a(lp2833
F0.369231
aaI65
aaa(lp2834
g624
ag625
a(lp2835
I1
a(lp2836
F0.22449
aaI49
aa(lp2837
I1
a(lp2838
F0.333333
aaI66
aa(lp2839
I1
a(lp2840
F0.342857
aaI70
aa(lp2841
I1
a(lp2842
F0.363636
aaI66
aa(lp2843
I1
a(lp2844
F0.322034
aaI59
aa(lp2845
I1
a(lp2846
F0.363636
aaI55
aa(lp2847
I1
a(lp2848
F0.316667
aaI60
aa(lp2849
I1
a(lp2850
F0.255319
aaI47
aa(lp2851
I1
a(lp2852
F0.255319
aaI47
aaa(lp2853
g629
ag630
a(lp2854
I1
a(lp2855
F0.245283
aaI53
aa(lp2856
I1
a(lp2857
F0.235294
aaI51
aaa(lp2858
g632
ag633
aa(lp2859
g635
ag636
aa(lp2860
g656
ag657
aa(lp2861
g677
ag678
aa(lp2862
g684
ag685
aa(lp2863
g691
ag692
a(lp2864
I1
a(lp2865
F0.318182
aaI44
aa(lp2866
I1
a(lp2867
F0.26087
aaI46
aa(lp2868
I1
a(lp2869
F0.387755
aaI49
aa(lp2870
I1
a(lp2871
F0.431818
aaI44
aaa(lp2872
g694
ag695
a(lp2873
I1
a(lp2874
F0.888889
aaI9
aa(lp2875
I1
a(lp2876
F0.0
aaI8
aa(lp2877
I1
a(lp2878
F0.0
aaI8
aa(lp2879
I1
a(lp2880
F0.0
aaI7
aa(lp2881
I1
a(lp2882
F0.0
aaI8
aa(lp2883
I1
a(lp2884
F0.0
aaI9
aa(lp2885
I1
a(lp2886
F0.0
aaI11
aa(lp2887
I1
a(lp2888
F0.0
aaI11
aa(lp2889
I1
a(lp2890
F0.0
aaI7
aa(lp2891
I1
a(lp2892
F0.0
aaI7
aa(lp2893
I1
a(lp2894
F0.0
aaI7
aa(lp2895
I1
a(lp2896
F0.0
aaI28
aa(lp2897
I1
a(lp2898
F0.0
aaI60
aa(lp2899
I1
a(lp2900
F0.0
aaI49
aa(lp2901
I1
a(lp2902
F0.0
aaI60
aaa(lp2903
g697
ag698
a(lp2904
I1
a(lp2905
F0.259259
aaI27
aa(lp2906
I1
a(lp2907
F0.222222
aaI27
aa(lp2908
I1
a(lp2909
F0.288889
aaI45
aa(lp2910
I1
a(lp2911
F0.321429
aaI56
aa(lp2912
I1
a(lp2913
F0.27451
aaI51
aa(lp2914
I1
a(lp2915
F0.26087
aaI46
aa(lp2916
I1
a(lp2917
F0.333333
aaI45
aa(lp2918
I1
a(lp2919
F0.2
aaI75
aa(lp2920
I1
a(lp2921
F0.255319
aaI47
aa(lp2922
I1
a(lp2923
F0.255319
aaI47
aa(lp2924
I1
a(lp2925
F0.266667
aaI45
aa(lp2926
I1
a(lp2927
F0.275
aaI40
aa(lp2928
I1
a(lp2929
F0.347826
aaI46
aa(lp2930
I1
a(lp2931
F0.348485
aaI66
aa(lp2932
I1
a(lp2933
F0.362069
aaI58
aa(lp2934
I1
a(lp2935
F0.313725
aaI51
aa(lp2936
I1
a(lp2937
F0.306122
aaI49
aa(lp2938
I1
a(lp2939
F0.276596
aaI47
aa(lp2940
I1
a(lp2941
F0.493671
aaI79
aa(lp2942
I1
a(lp2943
F0.241379
aaI58
aa(lp2944
I1
a(lp2945
F0.327869
aaI61
aa(lp2946
I1
a(lp2947
F0.347826
aaI69
aa(lp2948
I1
a(lp2949
F0.3875
aaI80
aa(lp2950
I1
a(lp2951
F0.340426
aaI47
aa(lp2952
I1
a(lp2953
F0.235294
aaI51
aa(lp2954
I1
a(lp2955
F0.229167
aaI48
aa(lp2956
I1
a(lp2957
F0.244444
aaI45
aa(lp2958
I1
a(lp2959
F0.232558
aaI43
aa(lp2960
I1
a(lp2961
F0.25
aaI44
aa(lp2962
I1
a(lp2963
F0.208333
aaI48
aa(lp2964
I1
a(lp2965
F0.229167
aaI48
aa(lp2966
I1
a(lp2967
F0.277778
aaI54
aa(lp2968
I1
a(lp2969
F0.421875
aaI64
aa(lp2970
I1
a(lp2971
F0.542857
aaI70
aa(lp2972
I1
a(lp2973
F0.402597
aaI77
aa(lp2974
I1
a(lp2975
F0.477612
aaI67
aa(lp2976
I1
a(lp2977
F0.411765
aaI51
aa(lp2978
I1
a(lp2979
F0.415094
aaI53
aa(lp2980
I1
a(lp2981
F0.425532
aaI47
aaa(lp2982
g726
ag727
aa(lp2983
g729
ag730
a(lp2984
I1
a(lp2985
F0.351852
aaI54
aa(lp2986
I1
a(lp2987
F0.385965
aaI57
aa(lp2988
I1
a(lp2989
F0.388889
aaI54
aa(lp2990
I1
a(lp2991
F0.325
aaI40
aa(lp2992
I1
a(lp2993
F0.302326
aaI43
aa(lp2994
I1
a(lp2995
F0.275
aaI40
aa(lp2996
I1
a(lp2997
F0.361702
aaI47
aa(lp2998
I1
a(lp2999
F0.0
aaI826
aaa(lp3000
g732
ag733
a(lp3001
I1
a(lp3002
F0.40625
aaI64
aa(lp3003
I1
a(lp3004
F0.344262
aaI61
aa(lp3005
I1
a(lp3006
F0.470588
aaI51
aa(lp3007
I1
a(lp3008
F0.470588
aaI51
aa(lp3009
I1
a(lp3010
F0.464286
aaI56
aa(lp3011
I1
a(lp3012
F0.466667
aaI60
aaa(lp3013
g735
ag736
aa(lp3014
g738
ag739
a(lp3015
I1
a(lp3016
F0.209302
aaI43
aa(lp3017
I1
a(lp3018
F0.26
aaI50
aa(lp3019
I1
a(lp3020
F0.3
aaI50
aa(lp3021
I1
a(lp3022
F0.245283
aaI53
aa(lp3023
I1
a(lp3024
F0.446154
aaI65
aaa(lp3025
g743
ag744
aa(lp3026
g746
ag747
a(lp3027
I1
a(lp3028
F0.209302
aaI43
aa(lp3029
I1
a(lp3030
F0.264151
aaI53
aa(lp3031
I1
a(lp3032
F0.22
aaI50
aa(lp3033
I1
a(lp3034
F0.22807
aaI57
aa(lp3035
I1
a(lp3036
F0.25
aaI52
aa(lp3037
I1
a(lp3038
F0.290909
aaI55
aa(lp3039
I1
a(lp3040
F0.265306
aaI49
aa(lp3041
I1
a(lp3042
F0.219512
aaI41
aa(lp3043
I1
a(lp3044
F0.25
aaI40
aa(lp3045
I1
a(lp3046
F0.211538
aaI52
aa(lp3047
I1
a(lp3048
F0.423729
aaI59
aaa(lp3049
g763
ag764
a(lp3050
I1
a(lp3051
F0.254545
aaI55
aa(lp3052
I1
a(lp3053
F0.280702
aaI57
aa(lp3054
I1
a(lp3055
F0.346154
aaI52
aa(lp3056
I1
a(lp3057
F0.424242
aaI66
aa(lp3058
I1
a(lp3059
F0.421053
aaI57
aa(lp3060
I1
a(lp3061
F0.357143
aaI56
aa(lp3062
I1
a(lp3063
F0.382716
aaI81
aa(lp3064
I1
a(lp3065
F0.431818
aaI44
aa(lp3066
I1
a(lp3067
F0.475
aaI40
aaa(lp3068
g772
ag773
a(lp3069
I1
a(lp3070
F0.2
aaI65
aa(lp3071
I1
a(lp3072
F0.440678
aaI59
aa(lp3073
I1
a(lp3074
F0.433333
aaI60
aa(lp3075
I1
a(lp3076
F0.5
aaI66
aa(lp3077
I1
a(lp3078
F0.463768
aaI69
aa(lp3079
I1
a(lp3080
F0.348485
aaI66
aa(lp3081
I1
a(lp3082
F0.432099
aaI81
aa(lp3083
I1
a(lp3084
F0.350877
aaI57
aa(lp3085
I1
a(lp3086
F0.32
aaI50
aa(lp3087
I1
a(lp3088
F0.446429
aaI56
aaa(lp3089
g775
ag776
aa(lp3090
g778
ag779
aa(lp3091
g781
ag782
a(lp3092
I1
a(lp3093
F0.277778
aaI54
aa(lp3094
I1
a(lp3095
F0.353846
aaI65
aa(lp3096
I1
a(lp3097
F0.215686
aaI51
aa(lp3098
I1
a(lp3099
F0.22
aaI50
aa(lp3100
I1
a(lp3101
F0.215686
aaI51
aa(lp3102
I1
a(lp3103
F0.240741
aaI54
aa(lp3104
I1
a(lp3105
F0.333333
aaI63
aa(lp3106
I1
a(lp3107
F0.283019
aaI53
aa(lp3108
I1
a(lp3109
F0.0
aaI57
aa(lp3110
I1
a(lp3111
F0.0
aaI61
aa(lp3112
I1
a(lp3113
F0.293103
aaI58
aa(lp3114
I1
a(lp3115
F0.348485
aaI66
aa(lp3116
I1
a(lp3117
F0.333333
aaI57
aaa(lp3118
g784
ag785
a(lp3119
I1
a(lp3120
F0.208333
aaI48
aa(lp3121
I1
a(lp3122
F0.277778
aaI54
aa(lp3123
I1
a(lp3124
F0.285714
aaI63
aaa(lp3125
g789
ag790
a(lp3126
I1
a(lp3127
F0.207792
aaI77
aa(lp3128
I1
a(lp3129
F0.207792
aaI77
aaa(lp3130
g792
ag793
a(lp3131
I1
a(lp3132
F0.416667
aaI60
aa(lp3133
I1
a(lp3134
F0.446809
aaI47
aaa(lp3135
g795
ag796
aa(lp3136
g798
ag799
aa(lp3137
g801
ag802
aa(lp3138
g804
ag805
aa(lp3139
g819
ag820
a(lp3140
I1
a(lp3141
F0.492754
aaI69
aaa(lp3142
g826
ag827
aa(lp3143
g829
ag830
aa(lp3144
g834
ag835
a(lp3145
I1
a(lp3146
F0.545455
aaI55
aa(lp3147
I1
a(lp3148
F0.340426
aaI47
aa(lp3149
I1
a(lp3150
F0.315789
aaI38
aa(lp3151
I1
a(lp3152
F0.243243
aaI37
aaa(lp3153
g837
ag838
aa(lp3154
g840
ag841
a(lp3155
I1
a(lp3156
F0.54902
aaI51
aa(lp3157
I1
a(lp3158
F0.555556
aaI45
aa(lp3159
I1
a(lp3160
F0.565217
aaI46
aa(lp3161
I1
a(lp3162
F0.478261
aaI46
aa(lp3163
I1
a(lp3164
F0.528302
aaI53
aa(lp3165
I1
a(lp3166
F0.542373
aaI59
aa(lp3167
I1
a(lp3168
F0.546875
aaI64
aa(lp3169
I1
a(lp3170
F0.490909
aaI55
aa(lp3171
I1
a(lp3172
F0.4
aaI55
aa(lp3173
I1
a(lp3174
F0.4
aaI45
aa(lp3175
I1
a(lp3176
F0.243243
aaI37
aa(lp3177
I1
a(lp3178
F0.275862
aaI58
aa(lp3179
I1
a(lp3180
F0.288136
aaI59
aa(lp3181
I1
a(lp3182
F0.293103
aaI58
aaa(lp3183
g843
ag844
aa(lp3184
g846
ag847
a(lp3185
I1
a(lp3186
F0.25
aaI52
aa(lp3187
I1
a(lp3188
F0.283019
aaI53
aa(lp3189
I1
a(lp3190
F0.304348
aaI46
aa(lp3191
I1
a(lp3192
F0.264151
aaI53
aa(lp3193
I1
a(lp3194
F0.263158
aaI57
aa(lp3195
I1
a(lp3196
F0.26087
aaI46
aa(lp3197
I1
a(lp3198
F0.234043
aaI47
aa(lp3199
I1
a(lp3200
F0.240741
aaI54
aa(lp3201
I1
a(lp3202
F0.22449
aaI49
aa(lp3203
I1
a(lp3204
F0.362069
aaI58
aa(lp3205
I1
a(lp3206
F0.338983
aaI59
aa(lp3207
I1
a(lp3208
F0.305085
aaI59
aa(lp3209
I1
a(lp3210
F0.245283
aaI53
aa(lp3211
I1
a(lp3212
F0.297872
aaI47
aa(lp3213
I1
a(lp3214
F0.297872
aaI47
aaa(lp3215
g855
ag856
a(lp3216
I1
a(lp3217
F0.306122
aaI49
aa(lp3218
I1
a(lp3219
F0.313725
aaI51
aa(lp3220
I1
a(lp3221
F0.405405
aaI74
aa(lp3222
I1
a(lp3223
F0.333333
aaI51
aa(lp3224
I1
a(lp3225
F0.333333
aaI48
aa(lp3226
I1
a(lp3227
F0.377778
aaI45
aa(lp3228
I1
a(lp3229
F0.309524
aaI42
aaa(lp3230
g866
ag867
a(lp3231
I1
a(lp3232
F0.4
aaI65
aa(lp3233
I1
a(lp3234
F0.28169
aaI71
aa(lp3235
I1
a(lp3236
F0.472222
aaI72
aa(lp3237
I1
a(lp3238
F0.205128
aaI39
aaa(lp3239
g871
ag872
a(lp3240
I1
a(lp3241
F0.423077
aaI52
aa(lp3242
I1
a(lp3243
F0.411765
aaI51
aa(lp3244
I1
a(lp3245
F0.4375
aaI48
aa(lp3246
I1
a(lp3247
F0.416667
aaI48
aaa(lp3248
g874
ag875
aa(lp3249
g877
ag878
aa(lp3250
g880
ag881
aa(lp3251
g883
ag884
a(lp3252
I1
a(lp3253
F0.290323
aaI31
aa(lp3254
I1
a(lp3255
F0.28125
aaI32
aa(lp3256
I1
a(lp3257
F0.225806
aaI31
aa(lp3258
I1
a(lp3259
F0.294118
aaI34
aa(lp3260
I1
a(lp3261
F0.259259
aaI54
aa(lp3262
I1
a(lp3263
F0.25
aaI52
aa(lp3264
I1
a(lp3265
F0.254545
aaI55
aa(lp3266
I1
a(lp3267
F0.259259
aaI54
aaa(lp3268
g892
ag893
a(lp3269
I1
a(lp3270
F0.226415
aaI53
aa(lp3271
I1
a(lp3272
F0.44
aaI75
aaa(lp3273
g895
ag896
a(lp3274
I1
a(lp3275
F0.263158
aaI38
aa(lp3276
I1
a(lp3277
F0.22449
aaI49
aa(lp3278
I1
a(lp3279
F0.450704
aaI71
aa(lp3280
I1
a(lp3281
F0.285714
aaI42
aa(lp3282
I1
a(lp3283
F0.235294
aaI51
aa(lp3284
I1
a(lp3285
F0.384615
aaI65
aa(lp3286
I1
a(lp3287
F0.394366
aaI71
aa(lp3288
I1
a(lp3289
F0.467532
aaI77
aaa(lp3290
g900
ag901
aa(lp3291
g911
ag912
aa(lp3292
g914
ag915
a(lp3293
I1
a(lp3294
F0.4
aaI50
aa(lp3295
I1
a(lp3296
F0.5
aaI54
aa(lp3297
I1
a(lp3298
F0.26
aaI50
aa(lp3299
I1
a(lp3300
F0.319149
aaI47
aa(lp3301
I1
a(lp3302
F0.375
aaI40
aa(lp3303
I1
a(lp3304
F0.263158
aaI38
aa(lp3305
I1
a(lp3306
F0.263158
aaI38
aa(lp3307
I1
a(lp3308
F0.236842
aaI38
aa(lp3309
I1
a(lp3310
F0.327273
aaI55
aa(lp3311
I1
a(lp3312
F0.321429
aaI56
aa(lp3313
I1
a(lp3314
F0.3
aaI50
aa(lp3315
I1
a(lp3316
F0.303571
aaI56
aa(lp3317
I1
a(lp3318
F0.322034
aaI59
aa(lp3319
I1
a(lp3320
F0.37931
aaI58
aa(lp3321
I1
a(lp3322
F0.428571
aaI70
aa(lp3323
I1
a(lp3324
F0.428571
aaI56
aa(lp3325
I1
a(lp3326
F0.4875
aaI80
aa(lp3327
I1
a(lp3328
F0.272727
aaI55
aa(lp3329
I1
a(lp3330
F0.222222
aaI54
aaa(lp3331
g973
ag974
a(lp3332
I1
a(lp3333
F0.297872
aaI47
aa(lp3334
I1
a(lp3335
F0.32
aaI50
aa(lp3336
I1
a(lp3337
F0.339286
aaI56
aa(lp3338
I1
a(lp3339
F0.333333
aaI60
aa(lp3340
I1
a(lp3341
F0.422535
aaI71
aa(lp3342
I1
a(lp3343
F0.327273
aaI55
aa(lp3344
I1
a(lp3345
F0.216216
aaI37
aa(lp3346
I1
a(lp3347
F0.2
aaI35
aa(lp3348
I1
a(lp3349
F0.228571
aaI35
aa(lp3350
I1
a(lp3351
F0.212766
aaI47
aaa(lp3352
g978
ag979
aa(lp3353
g981
ag982
a(lp3354
I1
a(lp3355
F0.283186
aaI113
aa(lp3356
I1
a(lp3357
F0.342857
aaI35
aaa(lp3358
g984
ag985
aa(lp3359
g987
ag988
aa(lp3360
g990
ag991
aa(lp3361
g993
ag994
a(lp3362
I1
a(lp3363
F0.40678
aaI59
aa(lp3364
I1
a(lp3365
F0.341772
aaI79
aa(lp3366
I1
a(lp3367
F0.212121
aaI33
aa(lp3368
I1
a(lp3369
F0.275
aaI40
aa(lp3370
I1
a(lp3371
F0.295455
aaI44
aa(lp3372
I1
a(lp3373
F0.314815
aaI54
aa(lp3374
I1
a(lp3375
F0.294118
aaI51
aa(lp3376
I1
a(lp3377
F0.282609
aaI46
aa(lp3378
I1
a(lp3379
F0.27907
aaI43
aa(lp3380
I1
a(lp3381
F0.506667
aaI75
aa(lp3382
I1
a(lp3383
F0.393443
aaI61
aa(lp3384
I1
a(lp3385
F0.488372
aaI86
aa(lp3386
I1
a(lp3387
F0.384615
aaI78
aa(lp3388
I1
a(lp3389
F0.4625
aaI80
aa(lp3390
I1
a(lp3391
F0.411111
aaI90
aa(lp3392
I1
a(lp3393
F0.489583
aaI96
aa(lp3394
I1
a(lp3395
F0.410526
aaI95
aa(lp3396
I1
a(lp3397
F0.368421
aaI76
aa(lp3398
I1
a(lp3399
F0.528736
aaI87
aa(lp3400
I1
a(lp3401
F0.259259
aaI54
aa(lp3402
I1
a(lp3403
F0.255319
aaI47
aa(lp3404
I1
a(lp3405
F0.450549
aaI91
aa(lp3406
I1
a(lp3407
F0.504587
aaI109
aaa(lp3408
g1064
ag1065
aa(lp3409
g1067
ag1068
aa(lp3410
g1078
ag1079
a(lp3411
I1
a(lp3412
F0.4
aaI80
aa(lp3413
I1
a(lp3414
F0.45
aaI80
aaa(lp3415
g1083
ag1084
a(lp3416
I1
a(lp3417
F0.0
aaI79
aaa(lp3418
g1088
ag1089
a(lp3419
I1
a(lp3420
F0.264151
aaI53
aa(lp3421
I1
a(lp3422
F0.471429
aaI70
aa(lp3423
I1
a(lp3424
F0.449275
aaI69
aa(lp3425
I1
a(lp3426
F0.490909
aaI55
aa(lp3427
I1
a(lp3428
F0.229508
aaI61
aa(lp3429
I1
a(lp3430
F0.322581
aaI62
aa(lp3431
I1
a(lp3432
F0.285714
aaI63
aa(lp3433
I1
a(lp3434
F0.25
aaI56
aa(lp3435
I1
a(lp3436
F0.372549
aaI51
aa(lp3437
I1
a(lp3438
F0.418605
aaI43
aa(lp3439
I1
a(lp3440
F0.404255
aaI47
aa(lp3441
I1
a(lp3442
F0.431818
aaI44
aa(lp3443
I1
a(lp3444
F0.333333
aaI42
aa(lp3445
I1
a(lp3446
F0.363636
aaI55
aa(lp3447
I1
a(lp3448
F0.224138
aaI58
aa(lp3449
I1
a(lp3450
F0.363636
aaI55
aa(lp3451
I1
a(lp3452
F0.23913
aaI46
aa(lp3453
I1
a(lp3454
F0.42029
aaI69
aa(lp3455
I1
a(lp3456
F0.367647
aaI68
aa(lp3457
I1
a(lp3458
F0.304348
aaI46
aa(lp3459
I1
a(lp3460
F0.288462
aaI52
aa(lp3461
I1
a(lp3462
F0.228571
aaI35
aa(lp3463
I1
a(lp3464
F0.419355
aaI62
aa(lp3465
I1
a(lp3466
F0.410714
aaI56
aa(lp3467
I1
a(lp3468
F0.2
aaI50
aa(lp3469
I1
a(lp3470
F0.370968
aaI62
aa(lp3471
I1
a(lp3472
F0.28125
aaI64
aa(lp3473
I1
a(lp3474
F0.285714
aaI63
aa(lp3475
I1
a(lp3476
F0.402985
aaI67
aa(lp3477
I1
a(lp3478
F0.380282
aaI71
aa(lp3479
I1
a(lp3480
F0.352941
aaI68
aa(lp3481
I1
a(lp3482
F0.372549
aaI51
aa(lp3483
I1
a(lp3484
F0.387097
aaI62
aa(lp3485
I1
a(lp3486
F0.345455
aaI55
aa(lp3487
I1
a(lp3488
F0.209302
aaI43
aa(lp3489
I1
a(lp3490
F0.375
aaI56
aa(lp3491
I1
a(lp3492
F0.340426
aaI47
aaa(lp3493
g1111
ag1112
aa(lp3494
g1114
ag1115
aa(lp3495
g1117
ag1118
aa(lp3496
g1120
ag1121
aa(lp3497
g1123
ag1124
aa(lp3498
g1126
ag1127
a(lp3499
I1
a(lp3500
F0.328125
aaI64
aa(lp3501
I1
a(lp3502
F0.285714
aaI56
aa(lp3503
I1
a(lp3504
F0.271186
aaI59
aa(lp3505
I1
a(lp3506
F0.271186
aaI59
aa(lp3507
I1
a(lp3508
F0.38806
aaI67
aaa(lp3509
g1129
ag1130
a(lp3510
I1
a(lp3511
F0.486486
aaI74
aa(lp3512
I1
a(lp3513
F0.411765
aaI68
aa(lp3514
I1
a(lp3515
F0.393443
aaI61
aaa(lp3516
g1132
ag1133
aa(lp3517
g1135
ag1136
aa(lp3518
g1138
ag1139
a(lp3519
I1
a(lp3520
F0.338983
aaI59
aa(lp3521
I1
a(lp3522
F0.45098
aaI51
aa(lp3523
I1
a(lp3524
F0.2
aaI45
aa(lp3525
I1
a(lp3526
F0.25
aaI36
aa(lp3527
I1
a(lp3528
F0.204545
aaI44
aa(lp3529
I1
a(lp3530
F0.258065
aaI62
aa(lp3531
I1
a(lp3532
F0.278689
aaI61
aa(lp3533
I1
a(lp3534
F0.310345
aaI58
aa(lp3535
I1
a(lp3536
F0.211268
aaI71
aa(lp3537
I1
a(lp3538
F0.325581
aaI43
aa(lp3539
I1
a(lp3540
F0.346939
aaI49
aa(lp3541
I1
a(lp3542
F0.372093
aaI43
aa(lp3543
I1
a(lp3544
F0.333333
aaI42
aa(lp3545
I1
a(lp3546
F0.485714
aaI70
aa(lp3547
I1
a(lp3548
F0.5
aaI70
aa(lp3549
I1
a(lp3550
F0.472222
aaI72
aa(lp3551
I1
a(lp3552
F0.467742
aaI62
aa(lp3553
I1
a(lp3554
F0.444444
aaI63
aa(lp3555
I1
a(lp3556
F0.444444
aaI63
aa(lp3557
I1
a(lp3558
F0.36
aaI50
aa(lp3559
I1
a(lp3560
F0.413043
aaI46
aa(lp3561
I1
a(lp3562
F0.355556
aaI45
aa(lp3563
I1
a(lp3564
F0.290909
aaI55
aa(lp3565
I1
a(lp3566
F0.294118
aaI51
aa(lp3567
I1
a(lp3568
F0.229167
aaI48
aa(lp3569
I1
a(lp3570
F0.43662
aaI71
aa(lp3571
I1
a(lp3572
F0.442857
aaI70
aa(lp3573
I1
a(lp3574
F0.244898
aaI49
aa(lp3575
I1
a(lp3576
F0.444444
aaI45
aa(lp3577
I1
a(lp3578
F0.666667
aaI6
aaa(lp3579
g1149
ag1150
aa(lp3580
g1152
ag1153
a(lp3581
I1
a(lp3582
F0.353659
aaI82
aa(lp3583
I1
a(lp3584
F0.380952
aaI63
aaa(lp3585
g1157
ag1158
aa(lp3586
g1164
ag1165
a(lp3587
I1
a(lp3588
F0.0
aaI44
aa(lp3589
I1
a(lp3590
F0.0
aaI7
aa(lp3591
I1
a(lp3592
F0.0
aaI9
aa(lp3593
I1
a(lp3594
F0.0
aaI7
aaa(lp3595
g1167
ag1168
aa(lp3596
g1170
ag1171
a(lp3597
I1
a(lp3598
F0.462963
aaI54
aa(lp3599
I1
a(lp3600
F0.559322
aaI59
aa(lp3601
I1
a(lp3602
F0.428571
aaI63
aa(lp3603
I1
a(lp3604
F0.485294
aaI68
aa(lp3605
I1
a(lp3606
F0.460317
aaI63
aa(lp3607
I1
a(lp3608
F0.228571
aaI35
aa(lp3609
I1
a(lp3610
F0.242424
aaI66
aa(lp3611
I1
a(lp3612
F0.271186
aaI59
aa(lp3613
I1
a(lp3614
F0.298246
aaI57
aa(lp3615
I1
a(lp3616
F0.344828
aaI58
aa(lp3617
I1
a(lp3618
F0.40625
aaI64
aa(lp3619
I1
a(lp3620
F0.378788
aaI66
aa(lp3621
I1
a(lp3622
F0.31746
aaI63
aa(lp3623
I1
a(lp3624
F0.233333
aaI60
aa(lp3625
I1
a(lp3626
F0.333333
aaI66
aa(lp3627
I1
a(lp3628
F0.375
aaI48
aa(lp3629
I1
a(lp3630
F0.2
aaI50
aaa(lp3631
g1177
ag1178
aa(lp3632
g1180
ag1181
aa(lp3633
g1183
ag1184
aa(lp3634
g1186
ag1187
a(lp3635
I1
a(lp3636
F0.219512
aaI41
aa(lp3637
I1
a(lp3638
F0.367347
aaI49
aaa(lp3639
g1189
ag1190
aa(lp3640
g1194
ag1195
aa(lp3641
g1197
ag1198
aa(lp3642
g1206
ag1207
a(lp3643
I1
a(lp3644
F0.508772
aaI57
aa(lp3645
I1
a(lp3646
F0.364865
aaI74
aa(lp3647
I1
a(lp3648
F0.362319
aaI69
aa(lp3649
I1
a(lp3650
F0.452381
aaI84
aa(lp3651
I1
a(lp3652
F0.240741
aaI54
aa(lp3653
I1
a(lp3654
F0.294118
aaI51
aa(lp3655
I1
a(lp3656
F0.237288
aaI59
aa(lp3657
I1
a(lp3658
F0.28169
aaI71
aa(lp3659
I1
a(lp3660
F0.409091
aaI66
aa(lp3661
I1
a(lp3662
F0.313725
aaI51
aa(lp3663
I1
a(lp3664
F0.527273
aaI55
aaa(lp3665
g1209
ag1210
a(lp3666
I1
a(lp3667
F0.309091
aaI55
aaa(lp3668
g1214
ag1215
a(lp3669
I1
a(lp3670
F0.363636
aaI44
aa(lp3671
I1
a(lp3672
F0.361702
aaI47
aa(lp3673
I1
a(lp3674
F0.382979
aaI47
aa(lp3675
I1
a(lp3676
F0.413043
aaI46
aa(lp3677
I1
a(lp3678
F0.4
aaI45
aa(lp3679
I1
a(lp3680
F0.391304
aaI46
aa(lp3681
I1
a(lp3682
F0.272727
aaI44
aa(lp3683
I1
a(lp3684
F0.272727
aaI44
aaa(lp3685
g1219
ag1220
a(lp3686
I1
a(lp3687
F0.4375
aaI128
aaa(lp3688
g1222
ag1223
aa(lp3689
g1225
ag1226
a(lp3690
I1
a(lp3691
F0.47619
aaI42
aa(lp3692
I1
a(lp3693
F0.394366
aaI71
aa(lp3694
I1
a(lp3695
F0.375
aaI56
aa(lp3696
I1
a(lp3697
F0.45
aaI60
aa(lp3698
I1
a(lp3699
F0.433333
aaI60
aa(lp3700
I1
a(lp3701
F0.438596
aaI57
aa(lp3702
I1
a(lp3703
F0.0
aaI38
aaa(lp3704
g1232
ag1233
a(lp3705
I1
a(lp3706
F0.28125
aaI64
aa(lp3707
I1
a(lp3708
F0.287879
aaI66
aa(lp3709
I1
a(lp3710
F0.295082
aaI61
aa(lp3711
I1
a(lp3712
F0.31746
aaI63
aa(lp3713
I1
a(lp3714
F0.298246
aaI57
aa(lp3715
I1
a(lp3716
F0.275862
aaI58
aa(lp3717
I1
a(lp3718
F0.322581
aaI62
aa(lp3719
I1
a(lp3720
F0.285714
aaI63
aa(lp3721
I1
a(lp3722
F0.442623
aaI61
aa(lp3723
I1
a(lp3724
F0.208333
aaI24
aa(lp3725
I1
a(lp3726
F0.363636
aaI66
aa(lp3727
I1
a(lp3728
F0.477612
aaI67
aa(lp3729
I1
a(lp3730
F0.45283
aaI53
aa(lp3731
I1
a(lp3732
F0.377778
aaI45
aa(lp3733
I1
a(lp3734
F0.347826
aaI46
aa(lp3735
I1
a(lp3736
F0.235294
aaI68
aa(lp3737
I1
a(lp3738
F0.204082
aaI49
aa(lp3739
I1
a(lp3740
F0.275
aaI40
aa(lp3741
I1
a(lp3742
F0.238095
aaI42
aa(lp3743
I1
a(lp3744
F0.424242
aaI66
aa(lp3745
I1
a(lp3746
F0.577465
aaI71
aa(lp3747
I1
a(lp3748
F0.380282
aaI71
aa(lp3749
I1
a(lp3750
F0.204545
aaI44
aa(lp3751
I1
a(lp3752
F0.292683
aaI41
aa(lp3753
I1
a(lp3754
F0.818182
aaI44
aa(lp3755
I1
a(lp3756
F0.333333
aaI60
aa(lp3757
I1
a(lp3758
F0.333333
aaI51
aa(lp3759
I1
a(lp3760
F0.291667
aaI48
aa(lp3761
I1
a(lp3762
F0.355932
aaI59
aa(lp3763
I1
a(lp3764
F0.339286
aaI56
aa(lp3765
I1
a(lp3766
F0.4375
aaI48
aa(lp3767
I1
a(lp3768
F0.428571
aaI49
aa(lp3769
I1
a(lp3770
F0.288462
aaI52
aa(lp3771
I1
a(lp3772
F0.379747
aaI79
aa(lp3773
I1
a(lp3774
F0.375
aaI64
aa(lp3775
I1
a(lp3776
F0.357143
aaI56
aa(lp3777
I1
a(lp3778
F0.313725
aaI51
aa(lp3779
I1
a(lp3780
F0.218182
aaI55
aa(lp3781
I1
a(lp3782
F0.321429
aaI56
aa(lp3783
I1
a(lp3784
F0.315789
aaI57
aa(lp3785
I1
a(lp3786
F0.275862
aaI58
aa(lp3787
I1
a(lp3788
F0.345455
aaI55
aa(lp3789
I1
a(lp3790
F0.363636
aaI55
aa(lp3791
I1
a(lp3792
F0.344828
aaI58
aa(lp3793
I1
a(lp3794
F0.327586
aaI58
aa(lp3795
I1
a(lp3796
F0.285714
aaI56
aa(lp3797
I1
a(lp3798
F0.363636
aaI55
aa(lp3799
I1
a(lp3800
F0.672727
aaI55
aa(lp3801
I1
a(lp3802
F0.428571
aaI70
aaa(lp3803
g1241
ag1242
a(lp3804
I1
a(lp3805
F0.255814
aaI43
aa(lp3806
I1
a(lp3807
F0.234043
aaI47
aa(lp3808
I1
a(lp3809
F0.235294
aaI51
aa(lp3810
I1
a(lp3811
F0.229167
aaI48
aa(lp3812
I1
a(lp3813
F0.228571
aaI35
aa(lp3814
I1
a(lp3815
F0.30303
aaI33
aaa(lp3816
g1246
ag1247
aa(lp3817
g1249
ag1250
aa(lp3818
g1258
ag1259
aa(lp3819
g1261
ag1262
a(lp3820
I1
a(lp3821
F0.483333
aaI60
aa(lp3822
I1
a(lp3823
F0.25
aaI56
aa(lp3824
I1
a(lp3825
F0.408163
aaI49
aa(lp3826
I1
a(lp3827
F0.436782
aaI87
aa(lp3828
I1
a(lp3829
F0.449275
aaI69
aaa(lp3830
g1266
ag1267
aa(lp3831
g1269
ag1270
aa(lp3832
g1272
ag1273
aa(lp3833
g1277
ag1278
aa(lp3834
g1280
ag1281
a(lp3835
I1
a(lp3836
F0.285714
aaI35
aa(lp3837
I1
a(lp3838
F0.243243
aaI37
aa(lp3839
I1
a(lp3840
F0.264706
aaI34
aa(lp3841
I1
a(lp3842
F0.225806
aaI31
aa(lp3843
I1
a(lp3844
F0.311111
aaI45
aa(lp3845
I1
a(lp3846
F0.224138
aaI58
aa(lp3847
I1
a(lp3848
F0.285714
aaI35
aa(lp3849
I1
a(lp3850
F0.333333
aaI57
aa(lp3851
I1
a(lp3852
F0.348485
aaI66
aa(lp3853
I1
a(lp3854
F0.275862
aaI58
aa(lp3855
I1
a(lp3856
F0.393443
aaI61
aaa(lp3857
g1283
ag1284
aa(lp3858
g1286
ag1287
aa(lp3859
g1297
ag1298
aa(lp3860
g1302
ag1303
aa(lp3861
g1309
ag1310
a(lp3862
I1
a(lp3863
F0.45283
aaI53
aaa(lp3864
g1312
ag1313
aa(lp3865
g1317
ag1318
a(lp3866
I1
a(lp3867
F0.0
aaI48
aa(lp3868
I1
a(lp3869
F0.0
aaI58
aa(lp3870
I1
a(lp3871
F0.0
aaI64
aaa(lp3872
g1326
ag1327
a(lp3873
I1
a(lp3874
F0.442623
aaI61
aa(lp3875
I1
a(lp3876
F0.558824
aaI68
aaa(lp3877
g1329
ag1330
a(lp3878
I1
a(lp3879
F0.214286
aaI84
aa(lp3880
I1
a(lp3881
F0.233333
aaI90
aa(lp3882
I1
a(lp3883
F0.227848
aaI79
aa(lp3884
I1
a(lp3885
F0.204545
aaI88
aaa(lp3886
g1332
ag1333
a(lp3887
I1
a(lp3888
F0.290909
aaI55
aa(lp3889
I1
a(lp3890
F0.290909
aaI55
aaa(lp3891
g1335
ag1336
a(lp3892
I1
a(lp3893
F0.38961
aaI77
aa(lp3894
I1
a(lp3895
F0.567568
aaI74
aaa(lp3896
g1346
ag1347
a(lp3897
I1
a(lp3898
F0.54321
aaI81
aaa(lp3899
g1349
ag1350
aa(lp3900
g1352
ag1353
a(lp3901
I1
a(lp3902
F0.469136
aaI81
aaa(lp3903
g1355
ag1356
a(lp3904
I1
a(lp3905
F0.2
aaI50
aa(lp3906
I1
a(lp3907
F0.304348
aaI69
aa(lp3908
I1
a(lp3909
F0.309859
aaI71
aa(lp3910
I1
a(lp3911
F0.283333
aaI60
aa(lp3912
I1
a(lp3913
F0.208333
aaI48
aa(lp3914
I1
a(lp3915
F0.204545
aaI44
aa(lp3916
I1
a(lp3917
F0.38806
aaI67
aa(lp3918
I1
a(lp3919
F0.288462
aaI52
aa(lp3920
I1
a(lp3921
F0.212766
aaI47
aa(lp3922
I1
a(lp3923
F0.38806
aaI67
aaa(lp3924
g1358
ag1359
aa(lp3925
g1371
ag1372
a(lp3926
I1
a(lp3927
F0.0
aaI82
aa(lp3928
I1
a(lp3929
F0.0
aaI11
aa(lp3930
I1
a(lp3931
F0.0
aaI7
aa(lp3932
I1
a(lp3933
F0.0
aaI31
aa(lp3934
I1
a(lp3935
F0.0
aaI35
aa(lp3936
I1
a(lp3937
F0.0
aaI38
aa(lp3938
I1
a(lp3939
F0.0
aaI37
aaa(lp3940
g1380
ag1381
a(lp3941
I1
a(lp3942
F0.340426
aaI47
aa(lp3943
I1
a(lp3944
F0.615385
aaI78
aa(lp3945
I1
a(lp3946
F0.577778
aaI90
aa(lp3947
I1
a(lp3948
F0.203704
aaI54
aa(lp3949
I1
a(lp3950
F0.389831
aaI59
aa(lp3951
I1
a(lp3952
F0.40625
aaI96
aa(lp3953
I1
a(lp3954
F0.204819
aaI83
aa(lp3955
I1
a(lp3956
F0.255814
aaI86
aa(lp3957
I1
a(lp3958
F0.255814
aaI86
aa(lp3959
I1
a(lp3960
F0.256098
aaI82
aaa(lp3961
g1383
ag1384
a(lp3962
I1
a(lp3963
F0.416667
aaI60
aa(lp3964
I1
a(lp3965
F0.523077
aaI65
aa(lp3966
I1
a(lp3967
F0.453125
aaI64
aa(lp3968
I1
a(lp3969
F0.275
aaI40
aa(lp3970
I1
a(lp3971
F0.25
aaI36
aa(lp3972
I1
a(lp3973
F0.22
aaI50
aa(lp3974
I1
a(lp3975
F0.0
aaI40
aa(lp3976
I1
a(lp3977
F0.40625
aaI96
aa(lp3978
I1
a(lp3979
F0.389831
aaI59
aa(lp3980
I1
a(lp3981
F0.301887
aaI53
aa(lp3982
I1
a(lp3983
F0.301887
aaI53
aa(lp3984
I1
a(lp3985
F0.285714
aaI56
aa(lp3986
I1
a(lp3987
F0.326531
aaI49
aa(lp3988
I1
a(lp3989
F0.388889
aaI54
aa(lp3990
I1
a(lp3991
F0.4
aaI55
aa(lp3992
I1
a(lp3993
F0.350877
aaI57
aa(lp3994
I1
a(lp3995
F0.347826
aaI46
aa(lp3996
I1
a(lp3997
F0.292683
aaI41
aa(lp3998
I1
a(lp3999
F0.294118
aaI34
aa(lp4000
I1
a(lp4001
F0.203704
aaI54
aa(lp4002
I1
a(lp4003
F0.224138
aaI58
aa(lp4004
I1
a(lp4005
F0.483333
aaI60
aa(lp4006
I1
a(lp4007
F0.5
aaI54
aa(lp4008
I1
a(lp4009
F0.443038
aaI79
aa(lp4010
I1
a(lp4011
F0.4
aaI70
aa(lp4012
I1
a(lp4013
F0.357143
aaI56
aa(lp4014
I1
a(lp4015
F0.614286
aaI70
aa(lp4016
I1
a(lp4017
F0.5
aaI78
aa(lp4018
I1
a(lp4019
F0.486842
aaI76
aaa(lp4020
g1394
ag1395
a(lp4021
I1
a(lp4022
F0.507937
aaI63
aa(lp4023
I1
a(lp4024
F0.515625
aaI64
aa(lp4025
I1
a(lp4026
F0.413043
aaI46
aa(lp4027
I1
a(lp4028
F0.661157
aaI121
aa(lp4029
I1
a(lp4030
F0.560976
aaI82
aa(lp4031
I1
a(lp4032
F0.590361
aaI83
aa(lp4033
I1
a(lp4034
F0.602564
aaI78
aa(lp4035
I1
a(lp4036
F0.510638
aaI47
aa(lp4037
I1
a(lp4038
F0.545455
aaI44
aa(lp4039
I1
a(lp4040
F0.54902
aaI51
aa(lp4041
I1
a(lp4042
F0.530612
aaI49
aa(lp4043
I1
a(lp4044
F0.553191
aaI47
aa(lp4045
I1
a(lp4046
F0.0
aaI22
aaa(lp4047
g1399
ag1400
aa(lp4048
g1402
ag1403
a(lp4049
I1
a(lp4050
F0.511628
aaI43
aa(lp4051
I1
a(lp4052
F0.354978
aaI231
aa(lp4053
I1
a(lp4054
F0.227848
aaI79
aa(lp4055
I1
a(lp4056
F0.202381
aaI84
aa(lp4057
I1
a(lp4058
F0.204819
aaI83
aa(lp4059
I1
a(lp4060
F0.609756
aaI82
aa(lp4061
I1
a(lp4062
F0.227848
aaI79
aa(lp4063
I1
a(lp4064
F0.207317
aaI82
aa(lp4065
I1
a(lp4066
F0.205128
aaI78
aaa(lp4067
g1405
ag1406
a(lp4068
I1
a(lp4069
F0.473684
aaI76
aa(lp4070
I1
a(lp4071
F0.428571
aaI63
aa(lp4072
I1
a(lp4073
F0.321429
aaI56
aa(lp4074
I1
a(lp4075
F0.234043
aaI47
aa(lp4076
I1
a(lp4077
F0.264706
aaI34
aa(lp4078
I1
a(lp4079
F0.377049
aaI61
aa(lp4080
I1
a(lp4081
F0.266667
aaI45
aa(lp4082
I1
a(lp4083
F0.285714
aaI42
aa(lp4084
I1
a(lp4085
F0.291667
aaI48
aa(lp4086
I1
a(lp4087
F0.327273
aaI55
aa(lp4088
I1
a(lp4089
F0.293103
aaI58
aa(lp4090
I1
a(lp4091
F0.338235
aaI68
aa(lp4092
I1
a(lp4093
F0.236842
aaI38
aa(lp4094
I1
a(lp4095
F0.5
aaI62
aa(lp4096
I1
a(lp4097
F0.484375
aaI64
aa(lp4098
I1
a(lp4099
F0.268293
aaI41
aaa(lp4100
g1410
ag1411
a(lp4101
I1
a(lp4102
F0.245614
aaI57
aa(lp4103
I1
a(lp4104
F0.276596
aaI47
aa(lp4105
I1
a(lp4106
F0.309091
aaI55
aa(lp4107
I1
a(lp4108
F0.269231
aaI52
aa(lp4109
I1
a(lp4110
F0.679245
aaI53
aa(lp4111
I1
a(lp4112
F0.423077
aaI52
aa(lp4113
I1
a(lp4114
F0.229167
aaI48
aa(lp4115
I1
a(lp4116
F0.5
aaI66
aa(lp4117
I1
a(lp4118
F0.35
aaI60
aa(lp4119
I1
a(lp4120
F0.35
aaI60
aa(lp4121
I1
a(lp4122
F0.355932
aaI59
aa(lp4123
I1
a(lp4124
F0.204545
aaI44
aa(lp4125
I1
a(lp4126
F0.227273
aaI44
aa(lp4127
I1
a(lp4128
F0.204545
aaI44
aa(lp4129
I1
a(lp4130
F0.484375
aaI64
aaa(lp4131
g1413
ag1414
a(lp4132
I1
a(lp4133
F0.0
aaI11
aa(lp4134
I1
a(lp4135
F0.466667
aaI60
aa(lp4136
I1
a(lp4137
F0.457627
aaI59
aa(lp4138
I1
a(lp4139
F0.393939
aaI66
aa(lp4140
I1
a(lp4141
F0.438356
aaI73
aa(lp4142
I1
a(lp4143
F0.432836
aaI67
aa(lp4144
I1
a(lp4145
F0.414286
aaI70
aa(lp4146
I1
a(lp4147
F0.34375
aaI32
aa(lp4148
I1
a(lp4149
F0.270833
aaI48
aa(lp4150
I1
a(lp4151
F0.372093
aaI43
aa(lp4152
I1
a(lp4153
F0.395833
aaI48
aa(lp4154
I1
a(lp4155
F0.407407
aaI54
aa(lp4156
I1
a(lp4157
F0.25
aaI40
aa(lp4158
I1
a(lp4159
F0.40625
aaI64
aa(lp4160
I1
a(lp4161
F0.358209
aaI67
aa(lp4162
I1
a(lp4163
F0.326923
aaI52
aa(lp4164
I1
a(lp4165
F0.25
aaI36
aa(lp4166
I1
a(lp4167
F0.25
aaI36
aa(lp4168
I1
a(lp4169
F0.305085
aaI59
aa(lp4170
I1
a(lp4171
F0.339286
aaI56
aa(lp4172
I1
a(lp4173
F0.392157
aaI51
aa(lp4174
I1
a(lp4175
F0.375
aaI48
aa(lp4176
I1
a(lp4177
F0.27027
aaI37
aa(lp4178
I1
a(lp4179
F0.285714
aaI42
aaa(lp4180
g1416
ag1417
aa(lp4181
g1419
ag1420
a(lp4182
I1
a(lp4183
F0.266667
aaI45
aa(lp4184
I1
a(lp4185
F0.238095
aaI42
aa(lp4186
I1
a(lp4187
F0.216216
aaI37
aa(lp4188
I1
a(lp4189
F0.232558
aaI43
aa(lp4190
I1
a(lp4191
F0.391304
aaI46
aaa(lp4192
g1432
ag1433
aa(lp4193
g1437
ag1438
a(lp4194
I1
a(lp4195
F0.207547
aaI53
aa(lp4196
I1
a(lp4197
F0.23913
aaI46
aaa(lp4198
g1440
ag1441
aa(lp4199
g1443
ag1444
aa(lp4200
g1446
ag1447
a(lp4201
I1
a(lp4202
F0.435484
aaI62
aa(lp4203
I1
a(lp4204
F0.407407
aaI54
aa(lp4205
I1
a(lp4206
F0.591837
aaI49
aa(lp4207
I1
a(lp4208
F0.357143
aaI70
aa(lp4209
I1
a(lp4210
F0.357143
aaI42
aa(lp4211
I1
a(lp4212
F0.382979
aaI47
aa(lp4213
I1
a(lp4214
F0.27027
aaI37
aa(lp4215
I1
a(lp4216
F0.212766
aaI47
aa(lp4217
I1
a(lp4218
F0.26
aaI50
aa(lp4219
I1
a(lp4220
F0.386364
aaI44
aa(lp4221
I1
a(lp4222
F0.311111
aaI45
aa(lp4223
I1
a(lp4224
F0.277778
aaI54
aa(lp4225
I1
a(lp4226
F0.22807
aaI57
aa(lp4227
I1
a(lp4228
F0.227273
aaI44
aaa(lp4229
g1449
ag1450
a(lp4230
I1
a(lp4231
F0.319149
aaI47
aa(lp4232
I1
a(lp4233
F0.27907
aaI43
aa(lp4234
I1
a(lp4235
F0.216667
aaI60
aa(lp4236
I1
a(lp4237
F0.492537
aaI67
aa(lp4238
I1
a(lp4239
F0.492308
aaI65
aa(lp4240
I1
a(lp4241
F0.396226
aaI53
aa(lp4242
I1
a(lp4243
F0.385965
aaI57
aa(lp4244
I1
a(lp4245
F0.204082
aaI49
aa(lp4246
I1
a(lp4247
F0.222222
aaI45
aa(lp4248
I1
a(lp4249
F0.232558
aaI43
aa(lp4250
I1
a(lp4251
F0.275
aaI40
aa(lp4252
I1
a(lp4253
F0.265306
aaI49
aa(lp4254
I1
a(lp4255
F0.431818
aaI44
aaa(lp4256
g1472
ag1473
aa(lp4257
g1475
ag1476
a(lp4258
I1
a(lp4259
F0.488372
aaI86
aaa(lp4260
g1478
ag1479
aa(lp4261
g1481
ag1482
a(lp4262
I1
a(lp4263
F0.0
aaI24
aaa(lp4264
g1490
ag1491
aa(lp4265
g1493
ag1494
a(lp4266
I1
a(lp4267
F0.457143
aaI70
aa(lp4268
I1
a(lp4269
F0.464789
aaI71
aa(lp4270
I1
a(lp4271
F0.339286
aaI56
aa(lp4272
I1
a(lp4273
F0.351852
aaI54
aa(lp4274
I1
a(lp4275
F0.358974
aaI39
aa(lp4276
I1
a(lp4277
F0.216216
aaI37
aa(lp4278
I1
a(lp4279
F0.230769
aaI39
aa(lp4280
I1
a(lp4281
F0.26087
aaI46
aa(lp4282
I1
a(lp4283
F0.302326
aaI43
aa(lp4284
I1
a(lp4285
F0.318182
aaI44
aa(lp4286
I1
a(lp4287
F0.261905
aaI42
aa(lp4288
I1
a(lp4289
F0.366667
aaI60
aa(lp4290
I1
a(lp4291
F0.354839
aaI62
aa(lp4292
I1
a(lp4293
F0.333333
aaI60
aa(lp4294
I1
a(lp4295
F0.232143
aaI56
aa(lp4296
I1
a(lp4297
F0.245283
aaI53
aa(lp4298
I1
a(lp4299
F0.293103
aaI58
aa(lp4300
I1
a(lp4301
F0.309091
aaI55
aa(lp4302
I1
a(lp4303
F0.452055
aaI73
aa(lp4304
I1
a(lp4305
F0.385714
aaI70
aa(lp4306
I1
a(lp4307
F0.222222
aaI45
aa(lp4308
I1
a(lp4309
F0.227273
aaI44
aa(lp4310
I1
a(lp4311
F0.210526
aaI38
aa(lp4312
I1
a(lp4313
F0.268293
aaI41
aa(lp4314
I1
a(lp4315
F0.307692
aaI39
aa(lp4316
I1
a(lp4317
F0.342105
aaI38
aa(lp4318
I1
a(lp4319
F0.245902
aaI61
aa(lp4320
I1
a(lp4321
F0.245614
aaI57
aaa(lp4322
g1496
ag1497
a(lp4323
I1
a(lp4324
F0.27027
aaI37
aa(lp4325
I1
a(lp4326
F0.229167
aaI48
aa(lp4327
I1
a(lp4328
F0.255814
aaI43
aa(lp4329
I1
a(lp4330
F0.205128
aaI39
aa(lp4331
I1
a(lp4332
F0.222222
aaI36
aaa(lp4333
g1499
ag1500
a(lp4334
I1
a(lp4335
F0.235294
aaI51
aa(lp4336
I1
a(lp4337
F0.25
aaI52
aa(lp4338
I1
a(lp4339
F0.339286
aaI56
aa(lp4340
I1
a(lp4341
F0.4625
aaI80
aaa(lp4342
g1502
ag1503
aa(lp4343
g1505
ag1506
aa(lp4344
g1508
ag1509
aa(lp4345
g1511
ag1512
aa(lp4346
g1514
ag1515
a(lp4347
I1
a(lp4348
F0.372881
aaI59
aa(lp4349
I1
a(lp4350
F0.237288
aaI59
aaa(lp4351
g1517
ag1518
aa(lp4352
g1524
ag1525
aa(lp4353
g1527
ag1528
aa(lp4354
g1530
ag1531
aa(lp4355
g1533
ag1534
aa(lp4356
g1536
ag1537
aa(lp4357
g1541
ag1542
aa(lp4358
g1576
ag1577
aa(lp4359
g1579
ag1580
a(lp4360
I1
a(lp4361
F0.412698
aaI63
aaa(lp4362
g1582
ag1583
a(lp4363
I1
a(lp4364
F0.343284
aaI67
aa(lp4365
I1
a(lp4366
F0.356164
aaI73
aa(lp4367
I1
a(lp4368
F0.59322
aaI59
aa(lp4369
I1
a(lp4370
F0.415385
aaI65
aa(lp4371
I1
a(lp4372
F0.219512
aaI41
aa(lp4373
I1
a(lp4374
F0.243243
aaI37
aaa(lp4375
g1585
ag1586
aa(lp4376
g1588
ag1589
aa(lp4377
g1617
ag1618
aa(lp4378
g1620
ag1621
aa(lp4379
g1639
ag1640
aa(lp4380
g1642
ag1643
a(lp4381
I1
a(lp4382
F0.322314
aaI121
aaa(lp4383
g1653
ag1654
aa(lp4384
g1662
ag1663
aa(lp4385
g1671
ag1672
a(lp4386
I1
a(lp4387
F0.333333
aaI69
aa(lp4388
I1
a(lp4389
F0.215385
aaI65
aa(lp4390
I1
a(lp4391
F0.225806
aaI62
aa(lp4392
I1
a(lp4393
F0.234375
aaI64
aa(lp4394
I1
a(lp4395
F0.255814
aaI43
aa(lp4396
I1
a(lp4397
F0.359375
aaI64
aa(lp4398
I1
a(lp4399
F0.333333
aaI69
aa(lp4400
I1
a(lp4401
F0.354839
aaI62
aa(lp4402
I1
a(lp4403
F0.245902
aaI61
aa(lp4404
I1
a(lp4405
F0.213115
aaI61
aa(lp4406
I1
a(lp4407
F0.258065
aaI62
aa(lp4408
I1
a(lp4409
F0.262295
aaI61
aa(lp4410
I1
a(lp4411
F0.258065
aaI31
aa(lp4412
I1
a(lp4413
F0.255319
aaI47
aaa(lp4414
g1678
ag1679
aa(lp4415
g1681
ag1682
aa(lp4416
g1684
ag1685
a(lp4417
I1
a(lp4418
F0.0
aaI38
aa(lp4419
I1
a(lp4420
F0.307692
aaI52
aa(lp4421
I1
a(lp4422
F0.321429
aaI56
aa(lp4423
I1
a(lp4424
F0.333333
aaI57
aa(lp4425
I1
a(lp4426
F0.344828
aaI58
aa(lp4427
I1
a(lp4428
F0.344828
aaI58
aa(lp4429
I1
a(lp4430
F0.5
aaI62
aa(lp4431
I1
a(lp4432
F0.538462
aaI65
aa(lp4433
I1
a(lp4434
F0.507937
aaI63
aa(lp4435
I1
a(lp4436
F0.373134
aaI67
aa(lp4437
I1
a(lp4438
F0.459459
aaI74
aa(lp4439
I1
a(lp4440
F0.424242
aaI66
aaa(lp4441
g1687
ag1688
aa(lp4442
g1690
ag1691
a(lp4443
I1
a(lp4444
F0.0
aaI18
aa(lp4445
I1
a(lp4446
F0.0
aaI18
aa(lp4447
I1
a(lp4448
F0.0
aaI30
aa(lp4449
I1
a(lp4450
F0.75
aaI4
aa(lp4451
I1
a(lp4452
F0.818182
aaI11
aa(lp4453
I1
a(lp4454
F0.0
aaI6
aa(lp4455
I1
a(lp4456
F0.0
aaI27
aa(lp4457
I1
a(lp4458
F0.0
aaI27
aa(lp4459
I1
a(lp4460
F0.0
aaI34
aa(lp4461
I1
a(lp4462
F0.0
aaI36
aa(lp4463
I1
a(lp4464
F0.0
aaI6
aa(lp4465
I1
a(lp4466
F0.0
aaI5
aaa(lp4467
g1693
ag1694
aa(lp4468
g1696
ag1697
a(lp4469
I1
a(lp4470
F0.0
aaI28
aa(lp4471
I1
a(lp4472
F0.0
aaI28
aa(lp4473
I1
a(lp4474
F0.0
aaI30
aa(lp4475
I1
a(lp4476
F0.0
aaI25
aa(lp4477
I1
a(lp4478
F0.0
aaI30
aa(lp4479
I1
a(lp4480
F0.0
aaI29
aaa(lp4481
g1717
ag1718
aa(lp4482
g1720
ag1721
a(lp4483
I1
a(lp4484
F0.393443
aaI61
aa(lp4485
I1
a(lp4486
F0.40678
aaI59
aa(lp4487
I1
a(lp4488
F0.454545
aaI77
aa(lp4489
I1
a(lp4490
F0.444444
aaI63
aa(lp4491
I1
a(lp4492
F0.442623
aaI61
aa(lp4493
I1
a(lp4494
F0.205882
aaI34
aa(lp4495
I1
a(lp4496
F0.34375
aaI32
aa(lp4497
I1
a(lp4498
F0.314286
aaI35
aa(lp4499
I1
a(lp4500
F0.376812
aaI69
aa(lp4501
I1
a(lp4502
F0.365385
aaI52
aa(lp4503
I1
a(lp4504
F0.431373
aaI51
aa(lp4505
I1
a(lp4506
F0.42
aaI50
aa(lp4507
I1
a(lp4508
F0.392157
aaI51
aa(lp4509
I1
a(lp4510
F0.372549
aaI51
aa(lp4511
I1
a(lp4512
F0.302326
aaI43
aa(lp4513
I1
a(lp4514
F0.297872
aaI47
aa(lp4515
I1
a(lp4516
F0.212766
aaI47
aa(lp4517
I1
a(lp4518
F0.268293
aaI41
aa(lp4519
I1
a(lp4520
F0.27027
aaI37
aa(lp4521
I1
a(lp4522
F0.275
aaI40
aa(lp4523
I1
a(lp4524
F0.254237
aaI59
aa(lp4525
I1
a(lp4526
F0.275862
aaI58
aa(lp4527
I1
a(lp4528
F0.245902
aaI61
aa(lp4529
I1
a(lp4530
F0.240741
aaI54
aa(lp4531
I1
a(lp4532
F0.283019
aaI53
aaa(lp4533
g1739
ag1740
a(lp4534
I1
a(lp4535
F0.25641
aaI39
aa(lp4536
I1
a(lp4537
F0.32
aaI50
aa(lp4538
I1
a(lp4539
F0.6
aaI125
aa(lp4540
I1
a(lp4541
F0.4375
aaI80
aa(lp4542
I1
a(lp4543
F0.488095
aaI84
aa(lp4544
I1
a(lp4545
F0.371795
aaI78
aa(lp4546
I1
a(lp4547
F0.39726
aaI73
aa(lp4548
I1
a(lp4549
F0.565217
aaI69
aa(lp4550
I1
a(lp4551
F0.538462
aaI65
aa(lp4552
I1
a(lp4553
F0.540984
aaI61
aa(lp4554
I1
a(lp4555
F0.282828
aaI99
aa(lp4556
I1
a(lp4557
F0.688312
aaI77
aa(lp4558
I1
a(lp4559
F0.5
aaI78
aa(lp4560
I1
a(lp4561
F0.209302
aaI43
aa(lp4562
I1
a(lp4563
F0.214286
aaI70
aa(lp4564
I1
a(lp4565
F0.234375
aaI64
aaa(lp4566
g1744
ag1745
a(lp4567
I1
a(lp4568
F0.318182
aaI22
aaa(lp4569
g1747
ag1748
aa(lp4570
g1750
ag1751
aa(lp4571
g1753
ag1754
a(lp4572
I1
a(lp4573
F0.265306
aaI49
aaa(lp4574
g1760
ag1761
a(lp4575
I1
a(lp4576
F0.205882
aaI34
aa(lp4577
I1
a(lp4578
F0.285714
aaI56
aa(lp4579
I1
a(lp4580
F0.428571
aaI63
aa(lp4581
I1
a(lp4582
F0.230769
aaI52
aaa(lp4583
g1771
ag1772
aa(lp4584
g1774
ag1775
a(lp4585
I1
a(lp4586
F0.416667
aaI60
aa(lp4587
I1
a(lp4588
F0.416667
aaI60
aa(lp4589
I1
a(lp4590
F0.38
aaI50
aa(lp4591
I1
a(lp4592
F0.480769
aaI52
aa(lp4593
I1
a(lp4594
F0.509434
aaI53
aa(lp4595
I1
a(lp4596
F0.45283
aaI53
aa(lp4597
I1
a(lp4598
F0.309091
aaI55
aa(lp4599
I1
a(lp4600
F0.204082
aaI49
aa(lp4601
I1
a(lp4602
F0.235294
aaI51
aaa(lp4603
g1779
ag1780
a(lp4604
I1
a(lp4605
F0.264151
aaI212
aa(lp4606
I1
a(lp4607
F0.231343
aaI134
aa(lp4608
I1
a(lp4609
F0.333333
aaI105
aa(lp4610
I1
a(lp4611
F0.24
aaI75
aaa(lp4612
g1798
ag1799
a(lp4613
I1
a(lp4614
F0.474576
aaI59
aa(lp4615
I1
a(lp4616
F0.5
aaI60
aa(lp4617
I1
a(lp4618
F0.339623
aaI53
aa(lp4619
I1
a(lp4620
F0.265306
aaI49
aa(lp4621
I1
a(lp4622
F0.428571
aaI63
aa(lp4623
I1
a(lp4624
F0.322034
aaI59
aa(lp4625
I1
a(lp4626
F0.321429
aaI56
aa(lp4627
I1
a(lp4628
F0.3
aaI50
aa(lp4629
I1
a(lp4630
F0.393939
aaI33
aa(lp4631
I1
a(lp4632
F0.44898
aaI49
aa(lp4633
I1
a(lp4634
F0.205128
aaI39
aa(lp4635
I1
a(lp4636
F0.370968
aaI62
aa(lp4637
I1
a(lp4638
F0.350877
aaI57
aa(lp4639
I1
a(lp4640
F0.516129
aaI62
aa(lp4641
I1
a(lp4642
F0.5
aaI58
aa(lp4643
I1
a(lp4644
F0.457627
aaI59
aa(lp4645
I1
a(lp4646
F0.474576
aaI59
aaa(lp4647
g1823
ag1824
a(lp4648
I1
a(lp4649
F0.571429
aaI70
aa(lp4650
I1
a(lp4651
F0.210526
aaI57
aa(lp4652
I1
a(lp4653
F0.232558
aaI43
aa(lp4654
I1
a(lp4655
F0.235294
aaI34
aa(lp4656
I1
a(lp4657
F0.268293
aaI41
aaa(lp4658
g1826
ag1827
aa(lp4659
g1829
ag1830
a(lp4660
I1
a(lp4661
F0.471429
aaI70
aaa(lp4662
g1834
ag1835
a(lp4663
I1
a(lp4664
F0.291667
aaI48
aa(lp4665
I1
a(lp4666
F0.314815
aaI54
aa(lp4667
I1
a(lp4668
F0.2
aaI45
aa(lp4669
I1
a(lp4670
F0.4
aaI60
aaa(lp4671
g1837
ag1838
a(lp4672
I1
a(lp4673
F0.333333
aaI12
aa(lp4674
I1
a(lp4675
F0.515152
aaI66
aa(lp4676
I1
a(lp4677
F0.362069
aaI58
aa(lp4678
I1
a(lp4679
F0.288462
aaI52
aa(lp4680
I1
a(lp4681
F0.245283
aaI53
aa(lp4682
I1
a(lp4683
F0.419355
aaI62
aa(lp4684
I1
a(lp4685
F0.42
aaI50
aa(lp4686
I1
a(lp4687
F0.415094
aaI53
aa(lp4688
I1
a(lp4689
F0.410714
aaI56
aa(lp4690
I1
a(lp4691
F0.354839
aaI62
aa(lp4692
I1
a(lp4693
F0.211538
aaI52
aa(lp4694
I1
a(lp4695
F0.283019
aaI53
aa(lp4696
I1
a(lp4697
F0.265306
aaI49
aa(lp4698
I1
a(lp4699
F0.255319
aaI47
aa(lp4700
I1
a(lp4701
F0.243902
aaI41
aa(lp4702
I1
a(lp4703
F0.295455
aaI44
aa(lp4704
I1
a(lp4705
F0.27907
aaI43
aa(lp4706
I1
a(lp4707
F0.268293
aaI41
aa(lp4708
I1
a(lp4709
F0.222222
aaI36
aa(lp4710
I1
a(lp4711
F0.307692
aaI52
aa(lp4712
I1
a(lp4713
F0.345455
aaI55
aa(lp4714
I1
a(lp4715
F0.492308
aaI65
aa(lp4716
I1
a(lp4717
F0.319149
aaI47
aa(lp4718
I1
a(lp4719
F0.297872
aaI47
aa(lp4720
I1
a(lp4721
F0.38806
aaI67
aa(lp4722
I1
a(lp4723
F0.282051
aaI117
aa(lp4724
I1
a(lp4725
F0.336
aaI125
aa(lp4726
I1
a(lp4727
F0.214286
aaI42
aa(lp4728
I1
a(lp4729
F0.230769
aaI39
aa(lp4730
I1
a(lp4731
F0.25
aaI44
aa(lp4732
I1
a(lp4733
F0.209302
aaI43
aa(lp4734
I1
a(lp4735
F0.26087
aaI46
aaa(lp4736
g1840
ag1841
a(lp4737
I1
a(lp4738
F0.431034
aaI58
aag2106
a(lp4739
I1
a(lp4740
F0.215686
aaI51
aa(lp4741
I1
a(lp4742
F0.26087
aaI46
aa(lp4743
I1
a(lp4744
F0.23913
aaI46
aa(lp4745
I1
a(lp4746
F0.26
aaI50
aa(lp4747
I1
a(lp4748
F0.408163
aaI49
aa(lp4749
I1
a(lp4750
F0.384615
aaI52
aa(lp4751
I1
a(lp4752
F0.3
aaI50
aa(lp4753
I1
a(lp4754
F0.270833
aaI48
aa(lp4755
I1
a(lp4756
F0.3
aaI50
aa(lp4757
I1
a(lp4758
F0.243243
aaI37
aa(lp4759
I1
a(lp4760
F0.404255
aaI47
aa(lp4761
I1
a(lp4762
F0.418182
aaI55
aa(lp4763
I1
a(lp4764
F0.412698
aaI63
aag2118
a(lp4765
I1
a(lp4766
F0.230769
aaI39
aa(lp4767
I1
a(lp4768
F0.377049
aaI61
aa(lp4769
I1
a(lp4770
F0.306122
aaI49
aa(lp4771
I1
a(lp4772
F0.272727
aaI44
aa(lp4773
I1
a(lp4774
F0.319149
aaI47
aa(lp4775
I1
a(lp4776
F0.339623
aaI53
aa(lp4777
I1
a(lp4778
F0.313725
aaI51
aa(lp4779
I1
a(lp4780
F0.32
aaI50
aa(lp4781
I1
a(lp4782
F0.311111
aaI45
aaa(lp4783
g1845
ag1846
aa(lp4784
g1848
ag1849
aa(lp4785
g1851
ag1852
aa(lp4786
g1858
ag1859
aa(lp4787
g1861
ag1862
aa(lp4788
g1870
ag1871
a(lp4789
I1
a(lp4790
F0.0
aaI3
aa(lp4791
I1
a(lp4792
F0.0
aaI3
aaa(lp4793
g1873
ag1874
a(lp4794
I1
a(lp4795
F0.302326
aaI43
aa(lp4796
I1
a(lp4797
F0.2
aaI40
aa(lp4798
I1
a(lp4799
F0.2
aaI40
aa(lp4800
I1
a(lp4801
F0.241379
aaI58
aaa(lp4802
g1876
ag1877
a(lp4803
I1
a(lp4804
F0.22449
aaI49
aa(lp4805
I1
a(lp4806
F0.260274
aaI73
aa(lp4807
I1
a(lp4808
F0.357143
aaI98
aa(lp4809
I1
a(lp4810
F0.395833
aaI96
aa(lp4811
I1
a(lp4812
F0.445946
aaI74
aaa(lp4813
g1879
ag1880
aa(lp4814
g1882
ag1883
aa(lp4815
g1885
ag1886
aa(lp4816
g1888
ag1889
a(lp4817
I1
a(lp4818
F0.448718
aaI78
aa(lp4819
I1
a(lp4820
F0.4625
aaI80
aa(lp4821
I1
a(lp4822
F0.480519
aaI77
aaa(lp4823
g1893
ag1894
aa(lp4824
g1896
ag1897
a(lp4825
I1
a(lp4826
F0.348485
aaI66
aa(lp4827
I1
a(lp4828
F0.306452
aaI62
aa(lp4829
I1
a(lp4830
F0.426471
aaI68
aa(lp4831
I1
a(lp4832
F0.464286
aaI56
aaa(lp4833
g1899
ag1900
aa(lp4834
g1902
ag1903
aa(lp4835
g1905
ag1906
aa(lp4836
g1908
ag1909
a(lp4837
I1
a(lp4838
F0.557377
aaI61
aa(lp4839
I1
a(lp4840
F0.265823
aaI79
aa(lp4841
I1
a(lp4842
F0.309524
aaI42
aa(lp4843
I1
a(lp4844
F0.219512
aaI41
aa(lp4845
I1
a(lp4846
F0.396825
aaI63
aa(lp4847
I1
a(lp4848
F0.384615
aaI65
aa(lp4849
I1
a(lp4850
F0.403226
aaI62
aa(lp4851
I1
a(lp4852
F0.431034
aaI58
aa(lp4853
I1
a(lp4854
F0.5
aaI58
aa(lp4855
I1
a(lp4856
F0.439394
aaI66
aa(lp4857
I1
a(lp4858
F0.3125
aaI64
aa(lp4859
I1
a(lp4860
F0.275862
aaI58
aa(lp4861
I1
a(lp4862
F0.322034
aaI59
aa(lp4863
I1
a(lp4864
F0.454545
aaI66
aa(lp4865
I1
a(lp4866
F0.422535
aaI71
aa(lp4867
I1
a(lp4868
F0.311475
aaI61
aa(lp4869
I1
a(lp4870
F0.5
aaI54
aa(lp4871
I1
a(lp4872
F0.340426
aaI47
aa(lp4873
I1
a(lp4874
F0.340426
aaI47
aa(lp4875
I1
a(lp4876
F0.372549
aaI51
aa(lp4877
I1
a(lp4878
F0.28
aaI50
aa(lp4879
I1
a(lp4880
F0.4
aaI55
aa(lp4881
I1
a(lp4882
F0.20339
aaI59
aaa(lp4883
g1915
ag1916
aa(lp4884
g1918
ag1919
a(lp4885
I1
a(lp4886
F0.255814
aaI43
aa(lp4887
I1
a(lp4888
F0.27907
aaI43
aa(lp4889
I1
a(lp4890
F0.326087
aaI46
aa(lp4891
I1
a(lp4892
F0.326087
aaI46
aaa(lp4893
g1921
ag1922
aa(lp4894
g1924
ag1925
aa(lp4895
g1931
ag1932
aa(lp4896
g1938
ag1939
a(lp4897
I1
a(lp4898
F0.418919
aaI74
aa(lp4899
I1
a(lp4900
F0.2
aaI60
aa(lp4901
I1
a(lp4902
F0.547945
aaI73
aa(lp4903
I1
a(lp4904
F0.5
aaI68
aaa(lp4905
g1943
ag1944
a(lp4906
I1
a(lp4907
F0.255814
aaI43
aa(lp4908
I1
a(lp4909
F0.203704
aaI54
aa(lp4910
I1
a(lp4911
F0.43038
aaI79
aa(lp4912
I1
a(lp4913
F0.217391
aaI46
aa(lp4914
I1
a(lp4915
F0.442857
aaI70
aa(lp4916
I1
a(lp4917
F0.428571
aaI70
aa(lp4918
I1
a(lp4919
F0.408451
aaI71
aa(lp4920
I1
a(lp4921
F0.402778
aaI72
aa(lp4922
I1
a(lp4923
F0.44
aaI75
aa(lp4924
I1
a(lp4925
F0.42029
aaI69
aa(lp4926
I1
a(lp4927
F0.484848
aaI66
aa(lp4928
I1
a(lp4929
F0.370968
aaI62
aa(lp4930
I1
a(lp4931
F0.363636
aaI66
aa(lp4932
I1
a(lp4933
F0.3
aaI50
aa(lp4934
I1
a(lp4935
F0.24
aaI50
aa(lp4936
I1
a(lp4937
F0.375
aaI56
aa(lp4938
I1
a(lp4939
F0.413793
aaI58
aa(lp4940
I1
a(lp4941
F0.413793
aaI58
aa(lp4942
I1
a(lp4943
F0.385965
aaI57
aa(lp4944
I1
a(lp4945
F0.4
aaI55
aa(lp4946
I1
a(lp4947
F0.392857
aaI56
aa(lp4948
I1
a(lp4949
F0.418182
aaI55
aa(lp4950
I1
a(lp4951
F0.367347
aaI49
aa(lp4952
I1
a(lp4953
F0.393443
aaI61
aa(lp4954
I1
a(lp4955
F0.207547
aaI53
aa(lp4956
I1
a(lp4957
F0.606061
aaI33
aa(lp4958
I1
a(lp4959
F0.6
aaI35
aa(lp4960
I2
a(lp4961
F0.648649
aF0.351351
aaI37
aa(lp4962
I1
a(lp4963
F0.631579
aaI38
aa(lp4964
I1
a(lp4965
F0.702128
aaI47
aa(lp4966
I1
a(lp4967
F0.222222
aaI45
aa(lp4968
I1
a(lp4969
F0.229167
aaI48
aa(lp4970
I1
a(lp4971
F0.428571
aaI84
aa(lp4972
I1
a(lp4973
F0.426667
aaI75
aa(lp4974
I1
a(lp4975
F0.39726
aaI73
aa(lp4976
I1
a(lp4977
F0.214286
aaI42
aa(lp4978
I1
a(lp4979
F0.715909
aaI88
aa(lp4980
I1
a(lp4981
F0.782609
aaI69
aa(lp4982
I1
a(lp4983
F0.210526
aaI57
aa(lp4984
I1
a(lp4985
F0.232143
aaI56
aa(lp4986
I1
a(lp4987
F0.257576
aaI66
aaa(lp4988
g1992
ag1993
a(lp4989
I1
a(lp4990
F0.222222
aaI36
aaa(lp4991
g1995
ag1996
a(lp4992
I1
a(lp4993
F0.4375
aaI48
aa(lp4994
I1
a(lp4995
F0.346939
aaI49
aa(lp4996
I1
a(lp4997
F0.4
aaI45
aa(lp4998
I1
a(lp4999
F0.351351
aaI37
aa(lp5000
I1
a(lp5001
F0.394737
aaI38
aa(lp5002
I1
a(lp5003
F0.244444
aaI45
aa(lp5004
I1
a(lp5005
F0.28
aaI50
aa(lp5006
I1
a(lp5007
F0.394737
aaI38
aa(lp5008
I1
a(lp5009
F0.442308
aaI52
aa(lp5010
I1
a(lp5011
F0.340426
aaI47
aa(lp5012
I1
a(lp5013
F0.355556
aaI45
aa(lp5014
I1
a(lp5015
F0.27027
aaI37
aa(lp5016
I1
a(lp5017
F0.2
aaI45
aa(lp5018
I1
a(lp5019
F0.22
aaI50
aa(lp5020
I1
a(lp5021
F0.236364
aaI55
aa(lp5022
I1
a(lp5023
F0.418182
aaI55
aa(lp5024
I1
a(lp5025
F0.304348
aaI46
aaa(lp5026
g1998
ag1999
aa(lp5027
g2003
ag2004
a(lp5028
I1
a(lp5029
F0.267857
aaI56
aa(lp5030
I1
a(lp5031
F0.24
aaI50
aaa(lp5032
g2006
ag2007
a(lp5033
I1
a(lp5034
F0.326531
aaI49
aa(lp5035
I1
a(lp5036
F0.428571
aaI56
aa(lp5037
I1
a(lp5038
F0.339286
aaI56
aa(lp5039
I1
a(lp5040
F0.311111
aaI45
aa(lp5041
I1
a(lp5042
F0.327273
aaI55
aa(lp5043
I1
a(lp5044
F0.283019
aaI53
aa(lp5045
I1
a(lp5046
F0.291667
aaI48
aa(lp5047
I1
a(lp5048
F0.459459
aaI74
aa(lp5049
I1
a(lp5050
F0.269231
aaI52
aa(lp5051
I1
a(lp5052
F0.259259
aaI54
aa(lp5053
I1
a(lp5054
F0.42
aaI50
aa(lp5055
I1
a(lp5056
F0.361702
aaI47
aa(lp5057
I1
a(lp5058
F0.227273
aaI22
aa(lp5059
I1
a(lp5060
F0.2
aaI25
aaa(lp5061
g2011
ag2012
a(lp5062
I1
a(lp5063
F0.520548
aaI73
aaa(lp5064
g2014
ag2015
aa(lp5065
g2017
ag2018
a(lp5066
I1
a(lp5067
F0.438356
aaI73
aa(lp5068
I1
a(lp5069
F0.458333
aaI72
aa(lp5070
I1
a(lp5071
F0.492063
aaI63
aa(lp5072
I1
a(lp5073
F0.482759
aaI58
aa(lp5074
I1
a(lp5075
F0.365385
aaI52
aa(lp5076
I1
a(lp5077
F0.34
aaI50
aa(lp5078
I1
a(lp5079
F0.320755
aaI53
aa(lp5080
I1
a(lp5081
F0.403509
aaI57
aa(lp5082
I1
a(lp5083
F0.381818
aaI55
aa(lp5084
I1
a(lp5085
F0.393443
aaI61
aa(lp5086
I1
a(lp5087
F0.255319
aaI47
aaa(lp5088
g2020
ag2021
aa(lp5089
g2023
ag2024
a(lp5090
I1
a(lp5091
F0.373134
aaI67
aa(lp5092
I1
a(lp5093
F0.254237
aaI59
aaa(lp5094
g2026
ag2027
aa(lp5095
g2031
ag2032
aa(lp5096
g2034
ag2035
a(lp5097
I1
a(lp5098
F0.403846
aaI52
aa(lp5099
I1
a(lp5100
F0.4375
aaI64
aa(lp5101
I1
a(lp5102
F0.322581
aaI62
aaa(lp5103
g2051
ag2052
aa(lp5104
g2054
ag2055
a(lp5105
I1
a(lp5106
F0.345455
aaI55
aa(lp5107
I1
a(lp5108
F0.0
aaI45
aa(lp5109
I1
a(lp5110
F0.482517
aaI143
aa(lp5111
I1
a(lp5112
F0.269231
aaI104
aa(lp5113
I1
a(lp5114
F0.226667
aaI75
aaa(lp5115
g2135
ag2136
aa(lp5116
g2138
ag2139
aa(lp5117
g2141
ag2142
aa(lp5118
g2146
ag2147
a(lp5119
I1
a(lp5120
F0.538462
aaI65
aa(lp5121
I1
a(lp5122
F0.33871
aaI62
aa(lp5123
I1
a(lp5124
F0.27451
aaI51
aa(lp5125
I1
a(lp5126
F0.43662
aaI71
aa(lp5127
I1
a(lp5128
F0.462687
aaI67
aaa(lp5129
g2149
ag2150
aa(lp5130
g2152
ag2153
aa(lp5131
g2155
ag2156
aa(lp5132
g2158
ag2159
aa(lp5133
g2161
ag2162
a(lp5134
I1
a(lp5135
F0.206897
aaI29
aa(lp5136
I1
a(lp5137
F0.375
aaI40
aa(lp5138
I1
a(lp5139
F0.290909
aaI55
aa(lp5140
I1
a(lp5141
F0.296296
aaI54
aa(lp5142
I1
a(lp5143
F0.45
aaI40
aaa(lp5144
g2164
ag2165
aassS'diploids'
p5145
(dp5146
g3
(lp5147
(lp5148
S'scaffold19614_cov87'
p5149
aS'scaffold74444_cov64'
p5150
aa(lp5151
S'scaffold132398_cov66'
p5152
aS'scaffold167512_cov105'
p5153
aa(lp5154
S'scaffold50322_cov70'
p5155
aS'scaffold50494_cov83'
p5156
aa(lp5157
S'scaffold53892_cov107'
p5158
aS'scaffold57838_cov69'
p5159
aa(lp5160
S'scaffold6054_cov102'
p5161
aS'scaffold661_cov69'
p5162
aa(lp5163
S'scaffold16609_cov69'
p5164
aS'scaffold52798_cov134'
p5165
aa(lp5166
S'scaffold15237_cov73'
p5167
aS'scaffold24301_cov102'
p5168
aa(lp5169
S'scaffold12706_cov81'
p5170
aS'scaffold16044_cov69'
p5171
a(lp5172
I1
a(lp5173
F0.295455
aaI44
aa(lp5174
I1
a(lp5175
F0.317073
aaI41
aa(lp5176
I1
a(lp5177
F0.306122
aaI49
aa(lp5178
I1
a(lp5179
F0.350877
aaI57
aa(lp5180
I1
a(lp5181
F0.307692
aaI52
aaa(lp5182
S'scaffold15975_cov67'
p5183
aS'scaffold4413_cov63'
p5184
aa(lp5185
S'scaffold1143_cov170'
p5186
aS'scaffold1145_cov65'
p5187
aa(lp5188
S'scaffold166345_cov136'
p5189
aS'scaffold367_cov102'
p5190
aa(lp5191
S'scaffold1143_cov170'
p5192
aS'scaffold185565_cov204'
p5193
aa(lp5194
S'scaffold117137_cov65'
p5195
aS'scaffold17627_cov105'
p5196
aa(lp5197
S'scaffold14527_cov64'
p5198
aS'scaffold14528_cov66'
p5199
aa(lp5200
S'scaffold18411_cov77'
p5201
aS'scaffold3448_cov89'
p5202
a(lp5203
I1
a(lp5204
F0.276596
aaI47
aa(lp5205
I1
a(lp5206
F0.234043
aaI47
aaa(lp5207
S'scaffold1498_cov63'
p5208
aS'scaffold33427_cov79'
p5209
a(lp5210
I1
a(lp5211
F0.4
aaI10
aa(lp5212
I1
a(lp5213
F0.295775
aaI71
aa(lp5214
I1
a(lp5215
F0.0
aaI34
aaa(lp5216
S'scaffold20641_cov90'
p5217
aS'scaffold8011_cov68'
p5218
aa(lp5219
S'scaffold166756_cov71'
p5220
aS'scaffold9703_cov100'
p5221
a(lp5222
I1
a(lp5223
F0.311111
aaI45
aa(lp5224
I1
a(lp5225
F0.238095
aaI42
aa(lp5226
I1
a(lp5227
F0.238095
aaI42
aa(lp5228
I1
a(lp5229
F0.395833
aaI48
aa(lp5230
I1
a(lp5231
F0.45283
aaI53
aa(lp5232
I1
a(lp5233
F0.389831
aaI59
aa(lp5234
I1
a(lp5235
F0.366667
aaI60
aa(lp5236
I1
a(lp5237
F0.375
aaI56
aa(lp5238
I1
a(lp5239
F0.34
aaI50
aaa(lp5240
S'scaffold1929_cov135'
p5241
aS'scaffold9933_cov110'
p5242
a(lp5243
I1
a(lp5244
F0.0
aaI76
aa(lp5245
I1
a(lp5246
F0.719512
aaI82
aaa(lp5247
S'scaffold3002_cov145'
p5248
aS'scaffold32103_cov132'
p5249
aa(lp5250
S'scaffold11081_cov88'
p5251
aS'scaffold26032_cov70'
p5252
aa(lp5253
S'scaffold14572_cov90'
p5254
aS'scaffold4478_cov68'
p5255
aa(lp5256
S'scaffold56505_cov129'
p5257
aS'scaffold60_cov119'
p5258
aa(lp5259
S'scaffold18542_cov139'
p5260
aS'scaffold26015_cov66'
p5261
aa(lp5262
S'scaffold11928_cov70'
p5263
aS'scaffold46909_cov63'
p5264
aa(lp5265
S'scaffold166682_cov143'
p5266
aS'scaffold374_cov71'
p5267
aa(lp5268
S'scaffold1497_cov69'
p5269
aS'scaffold167515_cov69'
p5270
aa(lp5271
S'scaffold13862_cov109'
p5272
aS'scaffold8878_cov69'
p5273
aa(lp5274
S'scaffold14578_cov124'
p5275
aS'scaffold14579_cov112'
p5276
aa(lp5277
S'scaffold15686_cov66'
p5278
aS'scaffold26431_cov130'
p5279
aa(lp5280
S'scaffold166809_cov123'
p5281
aS'scaffold57805_cov71'
p5282
aa(lp5283
S'scaffold195195_cov811'
p5284
aS'scaffold5496_cov92'
p5285
aa(lp5286
S'scaffold16044_cov69'
p5287
aS'scaffold182_cov83'
p5288
aa(lp5289
S'scaffold10491_cov66'
p5290
aS'scaffold12903_cov71'
p5291
a(lp5292
I1
a(lp5293
F0.347368
aaI95
aaa(lp5294
S'scaffold33902_cov94'
p5295
aS'scaffold8504_cov71'
p5296
a(lp5297
I1
a(lp5298
F0.0
aaI33
aaa(lp5299
S'scaffold35689_cov78'
p5300
aS'scaffold63014_cov63'
p5301
aa(lp5302
S'scaffold104_cov67'
p5303
aS'scaffold34705_cov67'
p5304
aa(lp5305
S'scaffold5995_cov84'
p5306
aS'scaffold6502_cov73'
p5307
aa(lp5308
S'scaffold30423_cov65'
p5309
aS'scaffold6055_cov140'
p5310
aa(lp5311
S'scaffold16632_cov63'
p5312
aS'scaffold178103_cov209'
p5313
a(lp5314
I1
a(lp5315
F0.275
aaI40
aaa(lp5316
S'scaffold279_cov75'
p5317
aS'scaffold7438_cov111'
p5318
a(lp5319
I1
a(lp5320
F0.228571
aaI35
aa(lp5321
I1
a(lp5322
F0.242424
aaI33
aa(lp5323
I1
a(lp5324
F0.243243
aaI37
aa(lp5325
I1
a(lp5326
F0.285714
aaI56
aaa(lp5327
S'scaffold14104_cov135'
p5328
aS'scaffold22906_cov63'
p5329
a(lp5330
I1
a(lp5331
F0.37931
aaI29
aa(lp5332
I1
a(lp5333
F0.214286
aaI28
aa(lp5334
I1
a(lp5335
F0.37931
aaI29
aa(lp5336
I1
a(lp5337
F0.785714
aaI28
aa(lp5338
I1
a(lp5339
F0.28
aaI75
aa(lp5340
I1
a(lp5341
F0.583333
aaI24
aa(lp5342
I1
a(lp5343
F0.333333
aaI24
aa(lp5344
I1
a(lp5345
F0.0
aaI20
aa(lp5346
I1
a(lp5347
F0.3
aaI20
aaa(lp5348
S'scaffold114629_cov63'
p5349
aS'scaffold15395_cov68'
p5350
aa(lp5351
S'scaffold23855_cov65'
p5352
aS'scaffold8620_cov63'
p5353
a(lp5354
I1
a(lp5355
F0.222222
aaI36
aaa(lp5356
S'scaffold7098_cov89'
p5357
aS'scaffold8421_cov73'
p5358
a(lp5359
I1
a(lp5360
F0.34
aaI50
aa(lp5361
I1
a(lp5362
F0.255319
aaI47
aa(lp5363
I1
a(lp5364
F0.520548
aaI73
aa(lp5365
I1
a(lp5366
F0.464789
aaI71
aa(lp5367
I1
a(lp5368
F0.244898
aaI49
aa(lp5369
I1
a(lp5370
F0.235294
aaI51
aa(lp5371
I1
a(lp5372
F0.277778
aaI54
aa(lp5373
I1
a(lp5374
F0.280702
aaI57
aa(lp5375
I1
a(lp5376
F0.258621
aaI58
aa(lp5377
I1
a(lp5378
F0.216216
aaI37
aa(lp5379
I1
a(lp5380
F0.32
aaI50
aa(lp5381
I1
a(lp5382
F0.326531
aaI49
aaa(lp5383
S'scaffold49078_cov128'
p5384
aS'scaffold54587_cov60'
p5385
aa(lp5386
S'scaffold4052_cov74'
p5387
aS'scaffold5847_cov85'
p5388
a(lp5389
I1
a(lp5390
F0.214286
aaI28
aa(lp5391
I1
a(lp5392
F0.222222
aaI18
aaa(lp5393
S'scaffold122298_cov65'
p5394
aS'scaffold122299_cov139'
p5395
aa(lp5396
S'scaffold1170_cov146'
p5397
aS'scaffold69771_cov67'
p5398
aa(lp5399
S'scaffold10337_cov80'
p5400
aS'scaffold21068_cov65'
p5401
a(lp5402
I1
a(lp5403
F0.0
aaI19
aa(lp5404
I1
a(lp5405
F0.526316
aaI19
aa(lp5406
I1
a(lp5407
F0.0
aaI11
aa(lp5408
I1
a(lp5409
F0.0
aaI11
aa(lp5410
I2
a(lp5411
F0.454545
aF0.545455
aaI11
aa(lp5412
I1
a(lp5413
F0.0
aaI5
aa(lp5414
I1
a(lp5415
F0.0
aaI5
aa(lp5416
I1
a(lp5417
F0.0
aaI3
aaa(lp5418
S'scaffold11271_cov65'
p5419
aS'scaffold8101_cov85'
p5420
a(lp5421
I1
a(lp5422
F0.292683
aaI41
aaa(lp5423
S'scaffold476_cov90'
p5424
aS'scaffold8782_cov64'
p5425
aa(lp5426
S'scaffold4116_cov143'
p5427
aS'scaffold6097_cov70'
p5428
aa(lp5429
S'scaffold7005_cov65'
p5430
aS'scaffold7006_cov83'
p5431
aa(lp5432
S'scaffold24500_cov65'
p5433
aS'scaffold57197_cov90'
p5434
aasg2166
(lp5435
(lp5436
g5149
ag5150
aa(lp5437
g5152
ag5153
a(lp5438
I1
a(lp5439
F0.866667
aaI30
aa(lp5440
I1
a(lp5441
F0.37931
aaI58
aa(lp5442
I1
a(lp5443
F0.383721
aaI86
aa(lp5444
I1
a(lp5445
F0.352941
aaI85
aa(lp5446
I1
a(lp5447
F0.392857
aaI84
aa(lp5448
I1
a(lp5449
F0.229167
aaI48
aa(lp5450
I1
a(lp5451
F0.372549
aaI51
aa(lp5452
I1
a(lp5453
F0.365385
aaI52
aa(lp5454
I1
a(lp5455
F0.389831
aaI59
aa(lp5456
I1
a(lp5457
F0.428571
aaI56
aaa(lp5458
g5155
ag5156
aa(lp5459
g5158
ag5159
aa(lp5460
g5161
ag5162
a(lp5461
I1
a(lp5462
F0.265823
aaI79
aa(lp5463
I1
a(lp5464
F0.338983
aaI59
aaa(lp5465
g5164
ag5165
aa(lp5466
g5167
ag5168
a(lp5467
I1
a(lp5468
F0.433333
aaI60
aa(lp5469
I1
a(lp5470
F0.445652
aaI92
aa(lp5471
I1
a(lp5472
F0.304348
aaI46
aa(lp5473
I1
a(lp5474
F0.25
aaI44
aaa(lp5475
g5170
ag5171
a(lp5476
I1
a(lp5477
F0.222222
aaI45
aaa(lp5478
g5183
ag5184
aa(lp5479
g5186
ag5187
aa(lp5480
g5189
ag5190
aa(lp5481
g5192
ag5193
aa(lp5482
g5195
ag5196
aa(lp5483
g5198
ag5199
a(lp5484
I1
a(lp5485
F0.369565
aaI46
aa(lp5486
I1
a(lp5487
F0.384615
aaI52
aa(lp5488
I1
a(lp5489
F0.392157
aaI51
aaa(lp5490
g5201
ag5202
a(lp5491
I1
a(lp5492
F0.0
aaI41
aa(lp5493
I1
a(lp5494
F0.546512
aaI86
aa(lp5495
I1
a(lp5496
F0.432432
aaI74
aaa(lp5497
g5208
ag5209
a(lp5498
I1
a(lp5499
F0.227273
aaI44
aa(lp5500
I1
a(lp5501
F0.368421
aaI76
aa(lp5502
I1
a(lp5503
F0.394366
aaI71
aa(lp5504
I1
a(lp5505
F0.423077
aaI52
aa(lp5506
I1
a(lp5507
F0.416667
aaI48
aa(lp5508
I1
a(lp5509
F0.431373
aaI51
aaa(lp5510
g5217
ag5218
aa(lp5511
g5220
ag5221
a(lp5512
I1
a(lp5513
F0.296875
aaI64
aaa(lp5514
g5241
ag5242
a(lp5515
I1
a(lp5516
F0.285714
aaI105
aa(lp5517
I1
a(lp5518
F0.244898
aaI49
aa(lp5519
I1
a(lp5520
F0.347826
aaI46
aaa(lp5521
g5248
ag5249
aa(lp5522
g5251
ag5252
a(lp5523
I1
a(lp5524
F0.382979
aaI47
aa(lp5525
I1
a(lp5526
F0.409091
aaI44
aa(lp5527
I1
a(lp5528
F0.479167
aaI48
aa(lp5529
I1
a(lp5530
F0.346154
aaI52
aa(lp5531
I1
a(lp5532
F0.352941
aaI51
aaa(lp5533
g5254
ag5255
a(lp5534
I1
a(lp5535
F0.261905
aaI42
aa(lp5536
I1
a(lp5537
F0.282609
aaI46
aa(lp5538
I1
a(lp5539
F0.266667
aaI60
aa(lp5540
I1
a(lp5541
F0.206897
aaI58
aaa(lp5542
g5257
ag5258
aa(lp5543
g5260
ag5261
aa(lp5544
g5263
ag5264
aa(lp5545
g5266
ag5267
a(lp5546
I1
a(lp5547
F0.21875
aaI32
aa(lp5548
I1
a(lp5549
F0.205882
aaI34
aa(lp5550
I1
a(lp5551
F0.289474
aaI38
aa(lp5552
I1
a(lp5553
F0.305556
aaI36
aa(lp5554
I1
a(lp5555
F0.395349
aaI43
aa(lp5556
I1
a(lp5557
F0.4
aaI40
aa(lp5558
I1
a(lp5559
F0.375
aaI40
aa(lp5560
I1
a(lp5561
F0.333333
aaI39
aa(lp5562
I1
a(lp5563
F0.362069
aaI58
aa(lp5564
I1
a(lp5565
F0.357143
aaI56
aaa(lp5566
g5269
ag5270
aa(lp5567
g5272
ag5273
a(lp5568
I1
a(lp5569
F0.342857
aaI35
aa(lp5570
I1
a(lp5571
F0.325
aaI40
aa(lp5572
I1
a(lp5573
F0.323944
aaI71
aa(lp5574
I1
a(lp5575
F0.328358
aaI67
aa(lp5576
I1
a(lp5577
F0.360656
aaI61
aa(lp5578
I1
a(lp5579
F0.418182
aaI55
aaa(lp5580
g5275
ag5276
a(lp5581
I1
a(lp5582
F0.324324
aaI37
aa(lp5583
I1
a(lp5584
F0.324324
aaI37
aa(lp5585
I1
a(lp5586
F0.255814
aaI43
aa(lp5587
I1
a(lp5588
F0.481481
aaI81
aaa(lp5589
g5278
ag5279
aa(lp5590
g5281
ag5282
aa(lp5591
g5284
ag5285
aa(lp5592
g5287
ag5288
aa(lp5593
g5290
ag5291
aa(lp5594
g5295
ag5296
aa(lp5595
g5300
ag5301
aa(lp5596
g5303
ag5304
aa(lp5597
g5306
ag5307
a(lp5598
I1
a(lp5599
F0.538462
aaI65
aa(lp5600
I1
a(lp5601
F0.333333
aaI60
aa(lp5602
I1
a(lp5603
F0.316667
aaI60
aa(lp5604
I1
a(lp5605
F0.315789
aaI57
aa(lp5606
I1
a(lp5607
F0.4
aaI75
aaa(lp5608
g5309
ag5310
a(lp5609
I1
a(lp5610
F0.351648
aaI91
aa(lp5611
I1
a(lp5612
F0.230047
aaI213
aa(lp5613
I1
a(lp5614
F0.404762
aaI210
aaa(lp5615
g5312
ag5313
aa(lp5616
g5317
ag5318
a(lp5617
I1
a(lp5618
F0.311475
aaI61
aa(lp5619
I1
a(lp5620
F0.33871
aaI62
aa(lp5621
I1
a(lp5622
F0.359375
aaI64
aa(lp5623
I1
a(lp5624
F0.350877
aaI57
aa(lp5625
I1
a(lp5626
F0.327273
aaI55
aa(lp5627
I1
a(lp5628
F0.282609
aaI46
aaa(lp5629
g5328
ag5329
aa(lp5630
g5349
ag5350
aa(lp5631
g5352
ag5353
aa(lp5632
g5357
ag5358
a(lp5633
I1
a(lp5634
F0.272727
aaI44
aaa(lp5635
g5384
ag5385
aa(lp5636
g5387
ag5388
aa(lp5637
g5394
ag5395
aa(lp5638
g5397
ag5398
aa(lp5639
g5400
ag5401
aa(lp5640
g5419
ag5420
aa(lp5641
g5424
ag5425
aa(lp5642
g5427
ag5428
aa(lp5643
g5430
ag5431
a(lp5644
I1
a(lp5645
F0.295455
aaI44
aa(lp5646
I1
a(lp5647
F0.540541
aaI74
aa(lp5648
I1
a(lp5649
F0.230769
aaI39
aa(lp5650
I1
a(lp5651
F0.236842
aaI38
aa(lp5652
I1
a(lp5653
F0.222222
aaI36
aa(lp5654
I1
a(lp5655
F0.25
aaI36
aa(lp5656
I1
a(lp5657
F0.25
aaI40
aa(lp5658
I1
a(lp5659
F0.405405
aaI37
aa(lp5660
I1
a(lp5661
F0.444444
aaI36
aa(lp5662
I1
a(lp5663
F0.384615
aaI39
aa(lp5664
I1
a(lp5665
F0.333333
aaI51
aa(lp5666
I1
a(lp5667
F0.333333
aaI51
aa(lp5668
I1
a(lp5669
F0.47561
aaI164
aaa(lp5670
g5433
ag5434
aass.