(dp0
S'triploids'
p1
(dp2
S'down'
p3
(lp4
(lp5
S'scaffold167486_cov93'
p6
aS'scaffold32268_cov68'
p7
aa(lp8
S'scaffold3954_cov94'
p9
aS'scaffold73744_cov62'
p10
aa(lp11
S'scaffold13284_cov147'
p12
aS'scaffold23977_cov68'
p13
aa(lp14
S'scaffold10148_cov99'
p15
aS'scaffold6498_cov76'
p16
a(lp17
I1
a(lp18
F0.325
aaI40
aa(lp19
I1
a(lp20
F0.325
aaI40
aa(lp21
I1
a(lp22
F0.0
aaI28
aa(lp23
I1
a(lp24
F0.372549
aaI51
aa(lp25
I1
a(lp26
F0.446809
aaI47
aa(lp27
I1
a(lp28
F0.404255
aaI47
aa(lp29
I1
a(lp30
F0.391304
aaI46
aa(lp31
I1
a(lp32
F0.355932
aaI59
aa(lp33
I1
a(lp34
F0.419355
aaI62
aa(lp35
I1
a(lp36
F0.264151
aaI53
aa(lp37
I1
a(lp38
F0.285714
aaI49
aa(lp39
I1
a(lp40
F0.2
aaI30
aa(lp41
I1
a(lp42
F0.214286
aaI28
aa(lp43
I1
a(lp44
F0.28125
aaI64
aaa(lp45
S'scaffold2658_cov137'
p46
aS'scaffold4421_cov66'
p47
a(lp48
I1
a(lp49
F0.0
aaI39
aa(lp50
I1
a(lp51
F0.0
aaI33
aaa(lp52
S'scaffold8528_cov135'
p53
aS'scaffold10431_cov72'
p54
aa(lp55
S'scaffold160792_cov138'
p56
aS'scaffold90278_cov81'
p57
aa(lp58
S'scaffold6934_cov101'
p59
aS'scaffold5476_cov91'
p60
aa(lp61
S'scaffold167467_cov101'
p62
aS'scaffold67159_cov68'
p63
aa(lp64
S'scaffold13631_cov149'
p65
aS'scaffold1043_cov70'
p66
aa(lp67
S'scaffold4095_cov147'
p68
aS'scaffold1076_cov67'
p69
aa(lp70
S'scaffold4610_cov62'
p71
aS'scaffold20004_cov62'
p72
a(lp73
I1
a(lp74
F0.361111
aaI36
aa(lp75
I1
a(lp76
F0.5
aaI36
aa(lp77
I1
a(lp78
F0.285714
aaI21
aa(lp79
I1
a(lp80
F0.315789
aaI19
aa(lp81
I1
a(lp82
F0.304348
aaI23
aa(lp83
I1
a(lp84
F0.216216
aaI37
aa(lp85
I1
a(lp86
F0.26087
aaI23
aa(lp87
I1
a(lp88
F0.217391
aaI23
aa(lp89
I1
a(lp90
F0.225806
aaI31
aa(lp91
I1
a(lp92
F0.413462
aaI104
aa(lp93
I1
a(lp94
F0.708861
aaI79
aa(lp95
I1
a(lp96
F0.504132
aaI121
aa(lp97
I1
a(lp98
F0.271186
aaI118
aa(lp99
I1
a(lp100
F0.552941
aaI85
aaa(lp101
S'scaffold26651_cov113'
p102
aS'scaffold2076_cov75'
p103
a(lp104
I1
a(lp105
F0.375
aaI40
aa(lp106
I1
a(lp107
F0.618182
aaI55
aaa(lp108
S'scaffold37943_cov120'
p109
aS'scaffold39367_cov97'
p110
a(lp111
I1
a(lp112
F0.425532
aaI47
aa(lp113
I1
a(lp114
F0.456522
aaI46
aa(lp115
I1
a(lp116
F0.423729
aaI59
aa(lp117
I1
a(lp118
F0.421053
aaI57
aa(lp119
I1
a(lp120
F0.423077
aaI52
aa(lp121
I1
a(lp122
F0.423077
aaI52
aa(lp123
I1
a(lp124
F0.4375
aaI48
aa(lp125
I1
a(lp126
F0.411765
aaI51
aa(lp127
I1
a(lp128
F0.431373
aaI51
aa(lp129
I1
a(lp130
F0.309524
aaI42
aa(lp131
I1
a(lp132
F0.348837
aaI43
aa(lp133
I1
a(lp134
F0.4
aaI40
aa(lp135
I1
a(lp136
F0.512821
aaI39
aa(lp137
I1
a(lp138
F0.227273
aaI44
aa(lp139
I1
a(lp140
F0.367347
aaI49
aa(lp141
I1
a(lp142
F0.225806
aaI31
aa(lp143
I1
a(lp144
F0.566038
aaI53
aa(lp145
I1
a(lp146
F0.386364
aaI44
aa(lp147
I1
a(lp148
F0.58
aaI50
aa(lp149
I1
a(lp150
F0.382979
aaI47
aa(lp151
I1
a(lp152
F0.380952
aaI42
aa(lp153
I1
a(lp154
F0.35
aaI60
aa(lp155
I1
a(lp156
F0.563636
aaI55
aa(lp157
I1
a(lp158
F0.428571
aaI42
aa(lp159
I1
a(lp160
F0.576271
aaI59
aa(lp161
I1
a(lp162
F0.26087
aaI46
aa(lp163
I1
a(lp164
F0.25
aaI48
aa(lp165
I1
a(lp166
F0.25
aaI44
aa(lp167
I1
a(lp168
F0.244898
aaI49
aa(lp169
I1
a(lp170
F0.288889
aaI45
aa(lp171
I1
a(lp172
F0.25
aaI44
aa(lp173
I1
a(lp174
F0.255814
aaI43
aa(lp175
I1
a(lp176
F0.289474
aaI38
aa(lp177
I1
a(lp178
F0.375
aaI48
aa(lp179
I1
a(lp180
F0.352941
aaI51
aa(lp181
I1
a(lp182
F0.387755
aaI49
aa(lp183
I1
a(lp184
F0.390244
aaI41
aa(lp185
I1
a(lp186
F0.4
aaI40
aa(lp187
I1
a(lp188
F0.324324
aaI37
aa(lp189
I1
a(lp190
F0.225806
aaI31
aa(lp191
I1
a(lp192
F0.235294
aaI34
aa(lp193
I1
a(lp194
F0.225
aaI40
aa(lp195
I1
a(lp196
F0.25641
aaI39
aa(lp197
I1
a(lp198
F0.230769
aaI39
aa(lp199
I1
a(lp200
F0.243243
aaI37
aa(lp201
I1
a(lp202
F0.519231
aaI52
aa(lp203
I1
a(lp204
F0.469388
aaI49
aa(lp205
I1
a(lp206
F0.0
aaI54
aaa(lp207
S'scaffold11629_cov141'
p208
aS'scaffold11627_cov72'
p209
a(lp210
I1
a(lp211
F0.209302
aaI43
aaa(lp212
S'scaffold2522_cov147'
p213
aS'scaffold2520_cov73'
p214
a(lp215
I1
a(lp216
F0.0
aaI31
aa(lp217
I1
a(lp218
F0.2
aaI45
aaa(lp219
S'scaffold3257_cov146'
p220
aS'scaffold16169_cov72'
p221
a(lp222
I1
a(lp223
F0.476471
aaI170
aa(lp224
I1
a(lp225
F0.687898
aaI157
aaa(lp226
S'scaffold33358_cov122'
p227
aS'scaffold11974_cov67'
p228
a(lp229
I1
a(lp230
F0.0
aaI14
aa(lp231
I1
a(lp232
F0.0
aaI11
aa(lp233
I1
a(lp234
F0.0
aaI9
aa(lp235
I1
a(lp236
F0.333333
aaI9
aaa(lp237
S'scaffold27512_cov124'
p238
aS'scaffold9838_cov70'
p239
a(lp240
I1
a(lp241
F0.0
aaI27
aa(lp242
I1
a(lp243
F0.205882
aaI34
aa(lp244
I1
a(lp245
F0.263158
aaI38
aa(lp246
I1
a(lp247
F0.32
aaI50
aaa(lp248
S'scaffold19614_cov87'
p249
aS'scaffold74444_cov64'
p250
a(lp251
I1
a(lp252
F0.235294
aaI34
aaa(lp253
S'scaffold165401_cov148'
p254
aS'scaffold12422_cov71'
p255
a(lp256
I1
a(lp257
F0.230769
aaI39
aa(lp258
I1
a(lp259
F0.357143
aaI56
aaa(lp260
S'scaffold108_cov145'
p261
aS'scaffold107_cov67'
p262
aa(lp263
S'scaffold96847_cov139'
p264
aS'scaffold3943_cov70'
p265
aa(lp266
S'scaffold6388_cov146'
p267
aS'scaffold8779_cov66'
p268
a(lp269
I1
a(lp270
F0.0
aaI17
aa(lp271
I1
a(lp272
F0.0
aaI16
aa(lp273
I1
a(lp274
F0.0
aaI21
aa(lp275
I1
a(lp276
F0.764706
aaI17
aa(lp277
I1
a(lp278
F0.222222
aaI18
aa(lp279
I1
a(lp280
F0.0
aaI14
aa(lp281
I1
a(lp282
F0.0
aaI30
aa(lp283
I1
a(lp284
F0.423077
aaI52
aa(lp285
I1
a(lp286
F0.0
aaI25
aaa(lp287
S'scaffold167512_cov105'
p288
aS'scaffold132398_cov66'
p289
a(lp290
I1
a(lp291
F0.222222
aaI36
aaa(lp292
S'scaffold90279_cov161'
p293
aS'scaffold90278_cov81'
p294
aa(lp295
S'scaffold33112_cov67'
p296
aS'scaffold33753_cov69'
p297
a(lp298
I1
a(lp299
F0.0
aaI3
aa(lp300
I1
a(lp301
F0.25
aaI16
aa(lp302
I1
a(lp303
F0.6
aaI15
aa(lp304
I1
a(lp305
F0.25
aaI8
aaa(lp306
S'scaffold167477_cov80'
p307
aS'scaffold166740_cov68'
p308
a(lp309
I1
a(lp310
F0.205882
aaI34
aaa(lp311
S'scaffold1391_cov96'
p312
aS'scaffold46961_cov69'
p313
aa(lp314
S'scaffold56728_cov119'
p315
aS'scaffold11627_cov72'
p316
a(lp317
I1
a(lp318
F0.0
aaI30
aaa(lp319
S'scaffold8397_cov125'
p320
aS'scaffold2722_cov84'
p321
a(lp322
I1
a(lp323
F0.0
aaI25
aa(lp324
I1
a(lp325
F0.0
aaI14
aa(lp326
I1
a(lp327
F0.0
aaI17
aa(lp328
I1
a(lp329
F0.0
aaI18
aa(lp330
I1
a(lp331
F0.0
aaI29
aaa(lp332
S'scaffold2416_cov137'
p333
aS'scaffold2417_cov66'
p334
aa(lp335
S'scaffold20419_cov113'
p336
aS'scaffold114_cov72'
p337
aa(lp338
S'scaffold4513_cov135'
p339
aS'scaffold59029_cov68'
p340
aa(lp341
S'scaffold406_cov110'
p342
aS'scaffold39105_cov66'
p343
aa(lp344
S'scaffold16084_cov74'
p345
aS'scaffold11821_cov67'
p346
a(lp347
I1
a(lp348
F0.0
aaI26
aa(lp349
I1
a(lp350
F0.333333
aaI36
aa(lp351
I1
a(lp352
F0.561798
aaI89
aa(lp353
I1
a(lp354
F0.462687
aaI67
aa(lp355
I1
a(lp356
F0.557377
aaI61
aa(lp357
I1
a(lp358
F0.590164
aaI61
aa(lp359
I1
a(lp360
F0.333333
aaI45
aaa(lp361
S'scaffold1716_cov94'
p362
aS'scaffold45397_cov62'
p363
aa(lp364
S'scaffold11225_cov146'
p365
aS'scaffold33238_cov67'
p366
aa(lp367
S'scaffold1158_cov100'
p368
aS'scaffold100812_cov62'
p369
aa(lp370
S'scaffold4036_cov142'
p371
aS'scaffold10658_cov62'
p372
aa(lp373
S'scaffold12688_cov135'
p374
aS'scaffold12686_cov61'
p375
a(lp376
I1
a(lp377
F0.0
aaI7
aa(lp378
I1
a(lp379
F0.0
aaI30
aa(lp380
I1
a(lp381
F0.0
aaI28
aa(lp382
I1
a(lp383
F0.0
aaI17
aa(lp384
I1
a(lp385
F0.0
aaI22
aa(lp386
I1
a(lp387
F0.0
aaI19
aa(lp388
I1
a(lp389
F0.0
aaI14
aa(lp390
I1
a(lp391
F0.0
aaI14
aa(lp392
I1
a(lp393
F0.0
aaI25
aa(lp394
I1
a(lp395
F0.0
aaI28
aa(lp396
I1
a(lp397
F0.0
aaI28
aaa(lp398
S'scaffold9676_cov145'
p399
aS'scaffold16231_cov68'
p400
aa(lp401
S'scaffold180_cov107'
p402
aS'scaffold1171_cov70'
p403
a(lp404
I1
a(lp405
F0.235294
aaI51
aa(lp406
I1
a(lp407
F0.225
aaI40
aa(lp408
I1
a(lp409
F0.205128
aaI39
aa(lp410
I1
a(lp411
F0.0
aaI49
aa(lp412
I1
a(lp413
F0.0
aaI45
aa(lp414
I1
a(lp415
F0.0
aaI47
aaa(lp416
S'scaffold29230_cov135'
p417
aS'scaffold7717_cov65'
p418
aa(lp419
S'scaffold166708_cov122'
p420
aS'scaffold697_cov68'
p421
aa(lp422
S'scaffold6658_cov76'
p423
aS'scaffold860_cov64'
p424
aa(lp425
S'scaffold57838_cov69'
p426
aS'scaffold53892_cov107'
p427
aa(lp428
S'scaffold10313_cov102'
p429
aS'scaffold21316_cov65'
p430
aa(lp431
S'scaffold5667_cov96'
p432
aS'scaffold8355_cov67'
p433
a(lp434
I1
a(lp435
F0.333333
aaI33
aa(lp436
I1
a(lp437
F0.222222
aaI27
aaa(lp438
S'scaffold167496_cov97'
p439
aS'scaffold29206_cov81'
p440
a(lp441
I1
a(lp442
F0.470588
aaI34
aa(lp443
I1
a(lp444
F0.484848
aaI33
aa(lp445
I1
a(lp446
F0.40625
aaI32
aa(lp447
I1
a(lp448
F0.411765
aaI34
aa(lp449
I1
a(lp450
F0.432432
aaI37
aa(lp451
I1
a(lp452
F0.424242
aaI33
aa(lp453
I1
a(lp454
F0.477273
aaI44
aa(lp455
I1
a(lp456
F0.327273
aaI55
aa(lp457
I1
a(lp458
F0.244898
aaI49
aaa(lp459
S'scaffold26582_cov78'
p460
aS'scaffold5481_cov69'
p461
aa(lp462
S'scaffold40887_cov133'
p463
aS'scaffold46748_cov73'
p464
aa(lp465
S'scaffold165520_cov190'
p466
aS'scaffold59464_cov122'
p467
aa(lp468
S'scaffold4019_cov99'
p469
aS'scaffold21633_cov84'
p470
aa(lp471
S'scaffold20825_cov153'
p472
aS'scaffold24052_cov69'
p473
aa(lp474
S'scaffold14473_cov147'
p475
aS'scaffold33229_cov65'
p476
aa(lp477
S'scaffold11599_cov105'
p478
aS'scaffold61789_cov64'
p479
a(lp480
I1
a(lp481
F0.0
aaI20
aa(lp482
I1
a(lp483
F0.0
aaI23
aaa(lp484
S'scaffold192192_cov171'
p485
aS'scaffold8532_cov71'
p486
aa(lp487
S'scaffold13917_cov148'
p488
aS'scaffold28422_cov65'
p489
aa(lp490
S'scaffold53875_cov130'
p491
aS'scaffold25755_cov75'
p492
aa(lp493
S'scaffold62474_cov113'
p494
aS'scaffold10275_cov68'
p495
aa(lp496
S'scaffold24301_cov102'
p497
aS'scaffold15237_cov73'
p498
aa(lp499
S'scaffold22882_cov105'
p500
aS'scaffold5203_cov76'
p501
a(lp502
I1
a(lp503
F0.241379
aaI29
aa(lp504
I1
a(lp505
F0.2
aaI25
aa(lp506
I1
a(lp507
F0.2
aaI25
aaa(lp508
S'scaffold16120_cov143'
p509
aS'scaffold9901_cov65'
p510
aa(lp511
S'scaffold22339_cov108'
p512
aS'scaffold15124_cov63'
p513
a(lp514
I1
a(lp515
F0.557377
aaI61
aa(lp516
I1
a(lp517
F0.475
aaI40
aaa(lp518
S'scaffold15763_cov140'
p519
aS'scaffold7011_cov67'
p520
a(lp521
I1
a(lp522
F0.26
aaI50
aa(lp523
I1
a(lp524
F0.204545
aaI44
aaa(lp525
S'scaffold3674_cov106'
p526
aS'scaffold57150_cov68'
p527
aa(lp528
S'scaffold8694_cov129'
p529
aS'scaffold8135_cov71'
p530
a(lp531
I1
a(lp532
F0.433333
aaI30
aa(lp533
I1
a(lp534
F0.394737
aaI38
aaa(lp535
S'scaffold166685_cov152'
p536
aS'scaffold2832_cov75'
p537
aa(lp538
S'scaffold903_cov126'
p539
aS'scaffold1840_cov66'
p540
a(lp541
I1
a(lp542
F0.222222
aaI45
aaa(lp543
S'scaffold34941_cov134'
p544
aS'scaffold1333_cov60'
p545
aa(lp546
S'scaffold4413_cov63'
p547
aS'scaffold15975_cov67'
p548
aa(lp549
S'scaffold561_cov86'
p550
aS'scaffold29165_cov60'
p551
aa(lp552
S'scaffold6820_cov103'
p553
aS'scaffold6818_cov67'
p554
a(lp555
I1
a(lp556
F0.259259
aaI27
aa(lp557
I1
a(lp558
F0.21875
aaI32
aa(lp559
I1
a(lp560
F0.341463
aaI41
aa(lp561
I1
a(lp562
F0.405405
aaI37
aa(lp563
I1
a(lp564
F0.714286
aaI42
aa(lp565
I1
a(lp566
F0.282051
aaI39
aa(lp567
I1
a(lp568
F0.4
aaI35
aa(lp569
I1
a(lp570
F0.235294
aaI34
aa(lp571
I1
a(lp572
F0.242424
aaI33
aa(lp573
I1
a(lp574
F0.2
aaI30
aa(lp575
I1
a(lp576
F0.301887
aaI53
aaa(lp577
S'scaffold4931_cov109'
p578
aS'scaffold2702_cov92'
p579
a(lp580
I1
a(lp581
F0.268293
aaI41
aa(lp582
I1
a(lp583
F0.261905
aaI42
aaa(lp584
S'scaffold6620_cov103'
p585
aS'scaffold7907_cov67'
p586
aa(lp587
S'scaffold95367_cov139'
p588
aS'scaffold95366_cov79'
p589
aa(lp590
S'scaffold9131_cov93'
p591
aS'scaffold28864_cov67'
p592
a(lp593
I1
a(lp594
F0.0
aaI26
aa(lp595
I1
a(lp596
F0.434783
aaI23
aaa(lp597
S'scaffold19827_cov125'
p598
aS'scaffold167515_cov69'
p599
a(lp600
I1
a(lp601
F0.458333
aaI48
aa(lp602
I1
a(lp603
F0.362069
aaI58
aa(lp604
I1
a(lp605
F0.0
aaI37
aa(lp606
I1
a(lp607
F0.0
aaI32
aa(lp608
I1
a(lp609
F0.0
aaI43
aa(lp610
I1
a(lp611
F0.255814
aaI43
aa(lp612
I1
a(lp613
F0.205882
aaI34
aa(lp614
I1
a(lp615
F0.225806
aaI31
aa(lp616
I1
a(lp617
F0.25
aaI24
aa(lp618
I1
a(lp619
F0.25
aaI24
aa(lp620
I1
a(lp621
F0.0
aaI44
aaa(lp622
S'scaffold2979_cov71'
p623
aS'scaffold5296_cov115'
p624
a(lp625
I1
a(lp626
F0.25
aaI44
aa(lp627
I1
a(lp628
F0.230769
aaI39
aa(lp629
I1
a(lp630
F0.285714
aaI42
aa(lp631
I1
a(lp632
F0.309524
aaI42
aa(lp633
I1
a(lp634
F0.333333
aaI42
aa(lp635
I1
a(lp636
F0.3
aaI40
aa(lp637
I1
a(lp638
F0.285714
aaI42
aa(lp639
I1
a(lp640
F0.266667
aaI45
aa(lp641
I1
a(lp642
F0.285714
aaI42
aa(lp643
I1
a(lp644
F0.388889
aaI54
aa(lp645
I1
a(lp646
F0.405405
aaI74
aaa(lp647
S'scaffold35735_cov102'
p648
aS'scaffold4162_cov69'
p649
a(lp650
I1
a(lp651
F0.0
aaI51
aaa(lp652
S'scaffold36202_cov116'
p653
aS'scaffold32923_cov104'
p654
aa(lp655
S'scaffold14189_cov153'
p656
aS'scaffold2637_cov71'
p657
a(lp658
I1
a(lp659
F0.0
aaI32
aaa(lp660
S'scaffold1394_cov148'
p661
aS'scaffold1395_cov70'
p662
aa(lp663
S'scaffold2849_cov95'
p664
aS'scaffold165441_cov141'
p665
aa(lp666
S'scaffold8966_cov109'
p667
aS'scaffold3586_cov72'
p668
a(lp669
I1
a(lp670
F0.227273
aaI44
aaa(lp671
S'scaffold514_cov77'
p672
aS'scaffold2213_cov74'
p673
aa(lp674
S'scaffold3987_cov100'
p675
aS'scaffold14924_cov62'
p676
a(lp677
I1
a(lp678
F0.0
aaI28
aaa(lp679
S'scaffold2987_cov88'
p680
aS'scaffold4224_cov73'
p681
a(lp682
I1
a(lp683
F0.413793
aaI58
aa(lp684
I1
a(lp685
F0.476923
aaI65
aa(lp686
I1
a(lp687
F0.375
aaI64
aa(lp688
I1
a(lp689
F0.25
aaI60
aa(lp690
I1
a(lp691
F0.280702
aaI57
aa(lp692
I1
a(lp693
F0.344828
aaI58
aa(lp694
I1
a(lp695
F0.511628
aaI43
aa(lp696
I1
a(lp697
F0.431034
aaI58
aa(lp698
I1
a(lp699
F0.288462
aaI52
aaa(lp700
S'scaffold164974_cov139'
p701
aS'scaffold2833_cov61'
p702
aa(lp703
S'scaffold3477_cov108'
p704
aS'scaffold10061_cov67'
p705
aa(lp706
S'scaffold23269_cov69'
p707
aS'scaffold9403_cov96'
p708
a(lp709
I1
a(lp710
F0.366667
aaI60
aa(lp711
I1
a(lp712
F0.4
aaI55
aa(lp713
I1
a(lp714
F0.354167
aaI48
aa(lp715
I1
a(lp716
F0.236842
aaI38
aa(lp717
I1
a(lp718
F0.243243
aaI37
aa(lp719
I1
a(lp720
F0.534483
aaI58
aa(lp721
I1
a(lp722
F0.508772
aaI57
aa(lp723
I1
a(lp724
F0.474576
aaI59
aa(lp725
I1
a(lp726
F0.387097
aaI62
aaa(lp727
S'scaffold48176_cov76'
p728
aS'scaffold42838_cov68'
p729
aa(lp730
S'scaffold3722_cov135'
p731
aS'scaffold3719_cov67'
p732
a(lp733
I1
a(lp734
F0.25
aaI40
aa(lp735
I1
a(lp736
F0.575
aaI40
aaa(lp737
S'scaffold165461_cov100'
p738
aS'scaffold10491_cov66'
p739
aa(lp740
S'scaffold14267_cov83'
p741
aS'scaffold1125_cov68'
p742
a(lp743
I1
a(lp744
F0.2
aaI35
aa(lp745
I1
a(lp746
F0.333333
aaI48
aa(lp747
I1
a(lp748
F0.581818
aaI55
aa(lp749
I1
a(lp750
F0.5
aaI52
aaa(lp751
S'scaffold32619_cov118'
p752
aS'scaffold20061_cov80'
p753
a(lp754
I1
a(lp755
F0.0
aaI32
aa(lp756
I1
a(lp757
F0.44898
aaI49
aa(lp758
I1
a(lp759
F0.45283
aaI53
aa(lp760
I1
a(lp761
F0.22
aaI50
aaa(lp762
S'scaffold3738_cov114'
p763
aS'scaffold11440_cov66'
p764
aa(lp765
S'scaffold11968_cov142'
p766
aS'scaffold3404_cov63'
p767
a(lp768
I1
a(lp769
F0.411765
aaI34
aaa(lp770
S'scaffold4957_cov147'
p771
aS'scaffold2304_cov67'
p772
aa(lp773
S'scaffold6014_cov96'
p774
aS'scaffold69980_cov67'
p775
aa(lp776
S'scaffold117137_cov65'
p777
aS'scaffold17627_cov105'
p778
aa(lp779
S'scaffold165395_cov77'
p780
aS'scaffold42402_cov68'
p781
a(lp782
I1
a(lp783
F0.2
aaI45
aaa(lp784
S'scaffold12770_cov157'
p785
aS'scaffold21646_cov62'
p786
a(lp787
I1
a(lp788
F0.0
aaI9
aa(lp789
I1
a(lp790
F0.0
aaI13
aa(lp791
I1
a(lp792
F0.0
aaI7
aa(lp793
I1
a(lp794
F0.0
aaI2
aa(lp795
I1
a(lp796
F0.0
aaI9
aa(lp797
I1
a(lp798
F0.0
aaI5
aa(lp799
I1
a(lp800
F0.0
aaI6
aa(lp801
I1
a(lp802
F0.0
aaI6
aa(lp803
I1
a(lp804
F0.0
aaI7
aa(lp805
I1
a(lp806
F0.0
aaI9
aa(lp807
I1
a(lp808
F0.0
aaI9
aa(lp809
I1
a(lp810
F0.0
aaI23
aa(lp811
I1
a(lp812
F0.0
aaI18
aa(lp813
I1
a(lp814
F0.0
aaI13
aa(lp815
I1
a(lp816
F0.0
aaI22
aa(lp817
I1
a(lp818
F0.0
aaI17
aa(lp819
I1
a(lp820
F0.0
aaI16
aa(lp821
I1
a(lp822
F0.0
aaI3
aa(lp823
I1
a(lp824
F0.0
aaI4
aa(lp825
I1
a(lp826
F0.0
aaI4
aa(lp827
I1
a(lp828
F0.0
aaI8
aa(lp829
I1
a(lp830
F0.0
aaI2
aa(lp831
I1
a(lp832
F0.0
aaI2
aa(lp833
I1
a(lp834
F0.0
aaI2
aa(lp835
I1
a(lp836
F0.0
aaI2
aaa(lp837
S'scaffold2416_cov137'
p838
aS'scaffold16788_cov63'
p839
aa(lp840
S'scaffold167565_cov117'
p841
aS'scaffold893_cov66'
p842
a(lp843
I1
a(lp844
F0.0
aaI22
aaa(lp845
S'scaffold49558_cov135'
p846
aS'scaffold10462_cov135'
p847
aa(lp848
S'scaffold25651_cov100'
p849
aS'scaffold46961_cov69'
p850
aa(lp851
S'scaffold14528_cov66'
p852
aS'scaffold14527_cov64'
p853
a(lp854
I1
a(lp855
F0.355556
aaI45
aa(lp856
I1
a(lp857
F0.428571
aaI49
aa(lp858
I1
a(lp859
F0.344828
aaI29
aa(lp860
I1
a(lp861
F0.34
aaI50
aaa(lp862
S'scaffold3122_cov145'
p863
aS'scaffold3123_cov67'
p864
a(lp865
I1
a(lp866
F0.0
aaI26
aa(lp867
I1
a(lp868
F0.0
aaI36
aaa(lp869
S'scaffold8282_cov147'
p870
aS'scaffold8279_cov69'
p871
a(lp872
I1
a(lp873
F0.0
aaI37
aaa(lp874
S'scaffold903_cov126'
p875
aS'scaffold900_cov65'
p876
aa(lp877
S'scaffold167464_cov86'
p878
aS'scaffold12557_cov77'
p879
a(lp880
I1
a(lp881
F0.282051
aaI39
aaa(lp882
S'scaffold7194_cov116'
p883
aS'scaffold6437_cov66'
p884
aa(lp885
S'scaffold70862_cov124'
p886
aS'scaffold34357_cov65'
p887
a(lp888
I1
a(lp889
F0.395349
aaI43
aaa(lp890
S'scaffold14197_cov99'
p891
aS'scaffold6524_cov65'
p892
a(lp893
I1
a(lp894
F0.384615
aaI52
aaa(lp895
S'scaffold15885_cov116'
p896
aS'scaffold15073_cov71'
p897
a(lp898
I1
a(lp899
F0.327586
aaI58
aa(lp900
I1
a(lp901
F0.266667
aaI45
aa(lp902
I1
a(lp903
F0.384615
aaI52
aaa(lp904
S'scaffold3010_cov130'
p905
aS'scaffold3009_cov66'
p906
aa(lp907
S'scaffold34740_cov99'
p908
aS'scaffold10321_cov72'
p909
aa(lp910
S'scaffold45626_cov132'
p911
aS'scaffold26610_cov67'
p912
aa(lp913
S'scaffold19276_cov115'
p914
aS'scaffold33185_cov125'
p915
aa(lp916
S'scaffold13917_cov148'
p917
aS'scaffold5199_cov65'
p918
aa(lp919
S'scaffold4489_cov91'
p920
aS'scaffold166706_cov72'
p921
a(lp922
I1
a(lp923
F0.25
aaI40
aa(lp924
I1
a(lp925
F0.236842
aaI38
aa(lp926
I1
a(lp927
F0.238095
aaI42
aaa(lp928
S'scaffold23696_cov107'
p929
aS'scaffold46569_cov79'
p930
a(lp931
I1
a(lp932
F0.0
aaI38
aa(lp933
I1
a(lp934
F0.214286
aaI42
aa(lp935
I1
a(lp936
F0.0
aaI41
aaa(lp937
S'scaffold14010_cov120'
p938
aS'scaffold9558_cov65'
p939
a(lp940
I1
a(lp941
F0.0
aaI32
aa(lp942
I1
a(lp943
F0.333333
aaI30
aaa(lp944
S'scaffold7174_cov138'
p945
aS'scaffold6615_cov72'
p946
a(lp947
I1
a(lp948
F0.0
aaI26
aa(lp949
I1
a(lp950
F0.0
aaI23
aaa(lp951
S'scaffold8983_cov110'
p952
aS'scaffold5722_cov65'
p953
aa(lp954
S'scaffold165507_cov120'
p955
aS'scaffold1649_cov91'
p956
a(lp957
I1
a(lp958
F0.245902
aaI61
aa(lp959
I1
a(lp960
F0.214286
aaI56
aa(lp961
I1
a(lp962
F0.234043
aaI47
aa(lp963
I1
a(lp964
F0.377778
aaI45
aa(lp965
I1
a(lp966
F0.394737
aaI38
aa(lp967
I1
a(lp968
F0.4
aaI45
aa(lp969
I1
a(lp970
F0.433962
aaI53
aa(lp971
I1
a(lp972
F0.4375
aaI48
aa(lp973
I1
a(lp974
F0.320755
aaI53
aa(lp975
I1
a(lp976
F0.473684
aaI38
aa(lp977
I1
a(lp978
F0.352941
aaI51
aa(lp979
I1
a(lp980
F0.204545
aaI44
aa(lp981
I1
a(lp982
F0.290323
aaI62
aa(lp983
I1
a(lp984
F0.344828
aaI58
aa(lp985
I1
a(lp986
F0.28125
aaI64
aa(lp987
I1
a(lp988
F0.280702
aaI57
aa(lp989
I1
a(lp990
F0.333333
aaI51
aa(lp991
I1
a(lp992
F0.452381
aaI42
aa(lp993
I1
a(lp994
F0.375
aaI48
aa(lp995
I1
a(lp996
F0.42
aaI50
aa(lp997
I1
a(lp998
F0.387755
aaI49
aa(lp999
I1
a(lp1000
F0.340909
aaI44
aa(lp1001
I1
a(lp1002
F0.318182
aaI44
aa(lp1003
I1
a(lp1004
F0.44
aaI50
aaa(lp1005
S'scaffold7147_cov103'
p1006
aS'scaffold7146_cov65'
p1007
a(lp1008
I1
a(lp1009
F0.315789
aaI38
aaa(lp1010
S'scaffold14010_cov120'
p1011
aS'scaffold20924_cov70'
p1012
aa(lp1013
S'scaffold14968_cov70'
p1014
aS'scaffold5208_cov124'
p1015
aa(lp1016
S'scaffold33079_cov127'
p1017
aS'scaffold21398_cov73'
p1018
aa(lp1019
S'scaffold45339_cov132'
p1020
aS'scaffold5542_cov64'
p1021
aa(lp1022
S'scaffold37263_cov117'
p1023
aS'scaffold4202_cov67'
p1024
a(lp1025
I1
a(lp1026
F0.0
aaI17
aa(lp1027
I1
a(lp1028
F0.0
aaI16
aa(lp1029
I1
a(lp1030
F0.0
aaI16
aa(lp1031
I1
a(lp1032
F0.0
aaI18
aa(lp1033
I1
a(lp1034
F0.0
aaI28
aaa(lp1035
S'scaffold62223_cov138'
p1036
aS'scaffold41553_cov82'
p1037
aa(lp1038
S'scaffold167537_cov112'
p1039
aS'scaffold540_cov68'
p1040
a(lp1041
I1
a(lp1042
F0.292683
aaI41
aa(lp1043
I1
a(lp1044
F0.297872
aaI47
aaa(lp1045
S'scaffold1030_cov88'
p1046
aS'scaffold20924_cov70'
p1047
a(lp1048
I1
a(lp1049
F0.269231
aaI52
aaa(lp1050
S'scaffold9303_cov137'
p1051
aS'scaffold3018_cov62'
p1052
aa(lp1053
S'scaffold28224_cov147'
p1054
aS'scaffold166774_cov71'
p1055
aa(lp1056
S'scaffold165413_cov124'
p1057
aS'scaffold1323_cov67'
p1058
aa(lp1059
S'scaffold1637_cov151'
p1060
aS'scaffold20670_cov68'
p1061
a(lp1062
I1
a(lp1063
F0.0
aaI3
aaa(lp1064
S'scaffold36067_cov121'
p1065
aS'scaffold10421_cov69'
p1066
aa(lp1067
S'scaffold9037_cov132'
p1068
aS'scaffold7705_cov77'
p1069
aa(lp1070
S'scaffold38008_cov141'
p1071
aS'scaffold5960_cov65'
p1072
a(lp1073
I1
a(lp1074
F0.0
aaI19
aaa(lp1075
S'scaffold7174_cov138'
p1076
aS'scaffold2501_cov70'
p1077
aa(lp1078
S'scaffold7264_cov122'
p1079
aS'scaffold10275_cov68'
p1080
aa(lp1081
S'scaffold25662_cov161'
p1082
aS'scaffold25660_cov79'
p1083
aa(lp1084
S'scaffold3559_cov143'
p1085
aS'scaffold9683_cov69'
p1086
a(lp1087
I1
a(lp1088
F0.6
aaI5
aa(lp1089
I1
a(lp1090
F0.0
aaI38
aaa(lp1091
S'scaffold25492_cov142'
p1092
aS'scaffold24079_cov69'
p1093
a(lp1094
I1
a(lp1095
F0.225
aaI40
aa(lp1096
I1
a(lp1097
F0.210526
aaI38
aa(lp1098
I1
a(lp1099
F0.243243
aaI37
aaa(lp1100
S'scaffold167535_cov101'
p1101
aS'scaffold18420_cov96'
p1102
a(lp1103
I1
a(lp1104
F0.0
aaI23
aaa(lp1105
S'scaffold51750_cov85'
p1106
aS'scaffold39128_cov65'
p1107
aa(lp1108
S'scaffold9703_cov100'
p1109
aS'scaffold166756_cov71'
p1110
aa(lp1111
S'scaffold12601_cov106'
p1112
aS'scaffold12765_cov63'
p1113
a(lp1114
I1
a(lp1115
F0.212766
aaI47
aaa(lp1116
S'scaffold4941_cov130'
p1117
aS'scaffold29738_cov68'
p1118
aa(lp1119
S'scaffold9324_cov148'
p1120
aS'scaffold9325_cov63'
p1121
aa(lp1122
S'scaffold1929_cov135'
p1123
aS'scaffold9933_cov110'
p1124
a(lp1125
I1
a(lp1126
F0.0
aaI22
aa(lp1127
I1
a(lp1128
F0.0
aaI31
aaa(lp1129
S'scaffold29312_cov132'
p1130
aS'scaffold9996_cov69'
p1131
aa(lp1132
S'scaffold17051_cov101'
p1133
aS'scaffold2939_cov64'
p1134
aa(lp1135
S'scaffold10858_cov149'
p1136
aS'scaffold10857_cov70'
p1137
a(lp1138
I1
a(lp1139
F0.210526
aaI38
aaa(lp1140
S'scaffold43497_cov152'
p1141
aS'scaffold48022_cov63'
p1142
aa(lp1143
S'scaffold35435_cov126'
p1144
aS'scaffold9757_cov95'
p1145
a(lp1146
I1
a(lp1147
F0.317073
aaI41
aaa(lp1148
S'scaffold6824_cov114'
p1149
aS'scaffold542_cov70'
p1150
a(lp1151
I1
a(lp1152
F0.0
aaI46
aa(lp1153
I1
a(lp1154
F0.0
aaI41
aaa(lp1155
S'scaffold10713_cov124'
p1156
aS'scaffold4604_cov80'
p1157
a(lp1158
I1
a(lp1159
F0.0
aaI19
aaa(lp1160
S'scaffold21338_cov100'
p1161
aS'scaffold8647_cov65'
p1162
a(lp1163
I1
a(lp1164
F0.0
aaI22
aaa(lp1165
S'scaffold18416_cov135'
p1166
aS'scaffold16862_cov66'
p1167
aa(lp1168
S'scaffold17874_cov144'
p1169
aS'scaffold38164_cov70'
p1170
aa(lp1171
S'scaffold19924_cov91'
p1172
aS'scaffold10385_cov64'
p1173
aa(lp1174
S'scaffold1491_cov109'
p1175
aS'scaffold3256_cov68'
p1176
a(lp1177
I1
a(lp1178
F0.268293
aaI41
aa(lp1179
I1
a(lp1180
F0.0
aaI33
aa(lp1181
I1
a(lp1182
F0.25
aaI48
aa(lp1183
I1
a(lp1184
F0.315789
aaI57
aa(lp1185
I1
a(lp1186
F0.298387
aaI124
aaa(lp1187
S'scaffold167598_cov96'
p1188
aS'scaffold7183_cov82'
p1189
a(lp1190
I1
a(lp1191
F0.387097
aaI31
aa(lp1192
I1
a(lp1193
F0.361702
aaI47
aa(lp1194
I1
a(lp1195
F0.433962
aaI53
aaa(lp1196
S'scaffold3807_cov105'
p1197
aS'scaffold3967_cov66'
p1198
aa(lp1199
S'scaffold8993_cov67'
p1200
aS'scaffold12335_cov66'
p1201
a(lp1202
I1
a(lp1203
F0.0
aaI4
aa(lp1204
I1
a(lp1205
F0.0
aaI4
aa(lp1206
I1
a(lp1207
F0.0
aaI10
aa(lp1208
I1
a(lp1209
F0.0
aaI12
aa(lp1210
I1
a(lp1211
F1.0
aaI5
aa(lp1212
I1
a(lp1213
F0.0
aaI5
aa(lp1214
I1
a(lp1215
F0.0
aaI2
aa(lp1216
I1
a(lp1217
F0.0
aaI6
aa(lp1218
I1
a(lp1219
F0.0
aaI5
aa(lp1220
I1
a(lp1221
F0.0
aaI2
aa(lp1222
I1
a(lp1223
F0.0
aaI2
aa(lp1224
I1
a(lp1225
F0.0
aaI14
aa(lp1226
I1
a(lp1227
F0.0
aaI17
aa(lp1228
I1
a(lp1229
F0.0
aaI19
aa(lp1230
I1
a(lp1231
F0.0
aaI21
aa(lp1232
I1
a(lp1233
F0.0
aaI21
aa(lp1234
I1
a(lp1235
F0.0
aaI2
aa(lp1236
I1
a(lp1237
F0.0
aaI4
aa(lp1238
I1
a(lp1239
F0.0
aaI5
aa(lp1240
I1
a(lp1241
F0.0
aaI4
aa(lp1242
I1
a(lp1243
F0.0
aaI5
aa(lp1244
I1
a(lp1245
F0.0
aaI5
aa(lp1246
I1
a(lp1247
F0.0
aaI3
aa(lp1248
I1
a(lp1249
F0.0
aaI3
aa(lp1250
I1
a(lp1251
F0.0
aaI2
aa(lp1252
I1
a(lp1253
F0.0
aaI3
aa(lp1254
I1
a(lp1255
F0.0
aaI2
aa(lp1256
I1
a(lp1257
F0.0
aaI2
aa(lp1258
I1
a(lp1259
F0.0
aaI2
aa(lp1260
I1
a(lp1261
F0.0
aaI2
aa(lp1262
I1
a(lp1263
F0.0
aaI17
aa(lp1264
I1
a(lp1265
F0.0
aaI15
aa(lp1266
I1
a(lp1267
F0.0
aaI18
aa(lp1268
I1
a(lp1269
F0.0
aaI5
aa(lp1270
I1
a(lp1271
F0.0
aaI2
aa(lp1272
I1
a(lp1273
F0.0
aaI2
aa(lp1274
I1
a(lp1275
F0.0
aaI2
aa(lp1276
I1
a(lp1277
F0.0
aaI2
aa(lp1278
I1
a(lp1279
F0.6
aaI10
aa(lp1280
I1
a(lp1281
F0.0
aaI8
aa(lp1282
I1
a(lp1283
F0.0
aaI21
aa(lp1284
I1
a(lp1285
F0.0
aaI23
aaa(lp1286
S'scaffold182819_cov255'
p1287
aS'scaffold2675_cov72'
p1288
aa(lp1289
S'scaffold1354_cov130'
p1290
aS'scaffold8335_cov68'
p1291
a(lp1292
I1
a(lp1293
F0.818182
aaI33
aaa(lp1294
S'scaffold10215_cov75'
p1295
aS'scaffold16998_cov67'
p1296
aa(lp1297
S'scaffold15785_cov113'
p1298
aS'scaffold66380_cov110'
p1299
aa(lp1300
S'scaffold36663_cov134'
p1301
aS'scaffold75670_cov64'
p1302
aa(lp1303
S'scaffold8548_cov121'
p1304
aS'scaffold9073_cov65'
p1305
aa(lp1306
S'scaffold843_cov127'
p1307
aS'scaffold844_cov69'
p1308
aa(lp1309
S'scaffold6481_cov91'
p1310
aS'scaffold47796_cov64'
p1311
a(lp1312
I1
a(lp1313
F0.0
aaI28
aa(lp1314
I1
a(lp1315
F0.0
aaI32
aaa(lp1316
S'scaffold10670_cov88'
p1317
aS'scaffold7453_cov60'
p1318
a(lp1319
I1
a(lp1320
F0.204545
aaI44
aaa(lp1321
S'scaffold18914_cov65'
p1322
aS'scaffold18912_cov140'
p1323
a(lp1324
I1
a(lp1325
F0.204082
aaI49
aa(lp1326
I1
a(lp1327
F0.0
aaI52
aaa(lp1328
S'scaffold3349_cov142'
p1329
aS'scaffold5670_cov74'
p1330
aa(lp1331
S'scaffold11081_cov88'
p1332
aS'scaffold26032_cov70'
p1333
a(lp1334
I1
a(lp1335
F0.540541
aaI37
aa(lp1336
I1
a(lp1337
F0.564103
aaI39
aa(lp1338
I1
a(lp1339
F0.641026
aaI39
aa(lp1340
I1
a(lp1341
F0.352941
aaI51
aa(lp1342
I1
a(lp1343
F0.425926
aaI54
aaa(lp1344
S'scaffold2048_cov125'
p1345
aS'scaffold7977_cov71'
p1346
a(lp1347
I1
a(lp1348
F0.0
aaI35
aaa(lp1349
S'scaffold11204_cov106'
p1350
aS'scaffold30140_cov63'
p1351
a(lp1352
I1
a(lp1353
F0.0
aaI24
aa(lp1354
I1
a(lp1355
F0.0
aaI24
aa(lp1356
I1
a(lp1357
F0.0
aaI26
aa(lp1358
I2
a(lp1359
F0.571429
aF0.428571
aaI14
aa(lp1360
I1
a(lp1361
F0.0
aaI6
aa(lp1362
I2
a(lp1363
F0.6
aF0.4
aaI15
aa(lp1364
I1
a(lp1365
F0.0
aaI27
aaa(lp1366
S'scaffold167504_cov85'
p1367
aS'scaffold17931_cov63'
p1368
aa(lp1369
S'scaffold14572_cov90'
p1370
aS'scaffold4478_cov68'
p1371
a(lp1372
I1
a(lp1373
F0.266667
aaI30
aa(lp1374
I1
a(lp1375
F0.296296
aaI27
aa(lp1376
I1
a(lp1377
F0.296296
aaI27
aa(lp1378
I1
a(lp1379
F0.275862
aaI29
aa(lp1380
I1
a(lp1381
F0.225806
aaI31
aa(lp1382
I1
a(lp1383
F0.225806
aaI31
aaa(lp1384
S'scaffold6426_cov139'
p1385
aS'scaffold6427_cov67'
p1386
a(lp1387
I1
a(lp1388
F0.242424
aaI33
aa(lp1389
I1
a(lp1390
F0.0
aaI33
aaa(lp1391
S'scaffold165417_cov143'
p1392
aS'scaffold16672_cov63'
p1393
aa(lp1394
S'scaffold36663_cov134'
p1395
aS'scaffold30167_cov70'
p1396
a(lp1397
I1
a(lp1398
F0.297872
aaI47
aa(lp1399
I1
a(lp1400
F0.472973
aaI74
aa(lp1401
I1
a(lp1402
F0.206897
aaI58
aa(lp1403
I1
a(lp1404
F0.220339
aaI59
aa(lp1405
I1
a(lp1406
F0.22807
aaI57
aa(lp1407
I1
a(lp1408
F0.224138
aaI58
aa(lp1409
I1
a(lp1410
F0.232143
aaI56
aaa(lp1411
S'scaffold18584_cov139'
p1412
aS'scaffold15986_cov63'
p1413
aa(lp1414
S'scaffold73411_cov102'
p1415
aS'scaffold25947_cov73'
p1416
aa(lp1417
S'scaffold14567_cov126'
p1418
aS'scaffold42400_cov69'
p1419
a(lp1420
I1
a(lp1421
F0.295455
aaI44
aa(lp1422
I1
a(lp1423
F0.268293
aaI41
aa(lp1424
I1
a(lp1425
F0.275
aaI40
aaa(lp1426
S'scaffold6704_cov127'
p1427
aS'scaffold6524_cov65'
p1428
a(lp1429
I1
a(lp1430
F0.270833
aaI48
aaa(lp1431
S'scaffold18457_cov115'
p1432
aS'scaffold32162_cov89'
p1433
a(lp1434
I1
a(lp1435
F0.0
aaI34
aa(lp1436
I1
a(lp1437
F0.321429
aaI84
aa(lp1438
I1
a(lp1439
F0.333333
aaI57
aa(lp1440
I1
a(lp1441
F0.270833
aaI48
aaa(lp1442
S'scaffold56505_cov129'
p1443
aS'scaffold60_cov119'
p1444
aa(lp1445
S'scaffold1978_cov92'
p1446
aS'scaffold2699_cov70'
p1447
a(lp1448
I1
a(lp1449
F0.0
aaI30
aa(lp1450
I1
a(lp1451
F0.458333
aaI48
aa(lp1452
I1
a(lp1453
F0.0
aaI43
aa(lp1454
I1
a(lp1455
F0.0
aaI23
aa(lp1456
I1
a(lp1457
F0.525
aaI80
aa(lp1458
I1
a(lp1459
F0.520548
aaI73
aa(lp1460
I1
a(lp1461
F0.545455
aaI77
aaa(lp1462
S'scaffold43863_cov126'
p1463
aS'scaffold7672_cov74'
p1464
a(lp1465
I1
a(lp1466
F0.236842
aaI38
aa(lp1467
I1
a(lp1468
F0.204545
aaI44
aa(lp1469
I1
a(lp1470
F0.469388
aaI49
aa(lp1471
I1
a(lp1472
F0.342105
aaI38
aa(lp1473
I1
a(lp1474
F0.508475
aaI59
aa(lp1475
I1
a(lp1476
F0.487805
aaI41
aa(lp1477
I1
a(lp1478
F0.394737
aaI38
aa(lp1479
I1
a(lp1480
F0.371429
aaI35
aa(lp1481
I1
a(lp1482
F0.259259
aaI27
aa(lp1483
I1
a(lp1484
F0.2
aaI30
aa(lp1485
I1
a(lp1486
F0.34
aaI50
aa(lp1487
I1
a(lp1488
F0.361702
aaI47
aa(lp1489
I1
a(lp1490
F0.377778
aaI45
aa(lp1491
I1
a(lp1492
F0.344828
aaI58
aaa(lp1493
S'scaffold10581_cov98'
p1494
aS'scaffold17516_cov69'
p1495
a(lp1496
I1
a(lp1497
F0.0
aaI30
aa(lp1498
I1
a(lp1499
F0.0
aaI25
aa(lp1500
I1
a(lp1501
F0.0
aaI27
aa(lp1502
I1
a(lp1503
F0.0
aaI32
aa(lp1504
I1
a(lp1505
F0.0
aaI35
aa(lp1506
I1
a(lp1507
F0.222222
aaI45
aa(lp1508
I1
a(lp1509
F0.263158
aaI38
aa(lp1510
I1
a(lp1511
F0.380952
aaI42
aaa(lp1512
S'scaffold4107_cov90'
p1513
aS'scaffold6409_cov65'
p1514
aa(lp1515
S'scaffold165573_cov134'
p1516
aS'scaffold6928_cov65'
p1517
aa(lp1518
S'scaffold721_cov134'
p1519
aS'scaffold720_cov79'
p1520
aa(lp1521
S'scaffold3630_cov66'
p1522
aS'scaffold9757_cov95'
p1523
a(lp1524
I1
a(lp1525
F0.457627
aaI59
aa(lp1526
I1
a(lp1527
F0.539474
aaI76
aa(lp1528
I1
a(lp1529
F0.349206
aaI63
aa(lp1530
I1
a(lp1531
F0.209302
aaI43
aa(lp1532
I1
a(lp1533
F0.333333
aaI39
aa(lp1534
I1
a(lp1535
F0.354167
aaI48
aa(lp1536
I1
a(lp1537
F0.25
aaI40
aa(lp1538
I1
a(lp1539
F0.25
aaI36
aa(lp1540
I1
a(lp1541
F0.235294
aaI34
aa(lp1542
I1
a(lp1543
F0.431818
aaI44
aa(lp1544
I1
a(lp1545
F0.477273
aaI44
aaa(lp1546
S'scaffold18542_cov139'
p1547
aS'scaffold26015_cov66'
p1548
aa(lp1549
S'scaffold4321_cov104'
p1550
aS'scaffold9387_cov68'
p1551
a(lp1552
I1
a(lp1553
F0.3
aaI30
aa(lp1554
I1
a(lp1555
F0.310345
aaI29
aa(lp1556
I1
a(lp1557
F0.0
aaI19
aaa(lp1558
S'scaffold167650_cov100'
p1559
aS'scaffold21768_cov66'
p1560
a(lp1561
I1
a(lp1562
F0.0
aaI22
aa(lp1563
I1
a(lp1564
F0.0
aaI24
aa(lp1565
I1
a(lp1566
F0.0
aaI20
aaa(lp1567
S'scaffold34203_cov139'
p1568
aS'scaffold18396_cov65'
p1569
aa(lp1570
S'scaffold3745_cov115'
p1571
aS'scaffold7430_cov66'
p1572
a(lp1573
I1
a(lp1574
F0.424242
aaI66
aa(lp1575
I1
a(lp1576
F0.227273
aaI44
aa(lp1577
I1
a(lp1578
F0.304348
aaI46
aa(lp1579
I1
a(lp1580
F0.26087
aaI46
aa(lp1581
I1
a(lp1582
F0.304348
aaI46
aa(lp1583
I1
a(lp1584
F0.255814
aaI43
aaa(lp1585
S'scaffold181240_cov148'
p1586
aS'scaffold59620_cov74'
p1587
a(lp1588
I1
a(lp1589
F0.0
aaI8
aaa(lp1590
S'scaffold27354_cov105'
p1591
aS'scaffold16165_cov73'
p1592
aa(lp1593
S'scaffold46909_cov63'
p1594
aS'scaffold11928_cov70'
p1595
aa(lp1596
S'scaffold11499_cov143'
p1597
aS'scaffold19165_cov65'
p1598
aa(lp1599
S'scaffold166682_cov143'
p1600
aS'scaffold374_cov71'
p1601
a(lp1602
I1
a(lp1603
F0.396226
aaI53
aa(lp1604
I1
a(lp1605
F0.448276
aaI58
aaa(lp1606
S'scaffold167515_cov69'
p1607
aS'scaffold1497_cov69'
p1608
aa(lp1609
S'scaffold11274_cov111'
p1610
aS'scaffold2804_cov69'
p1611
a(lp1612
I1
a(lp1613
F0.0
aaI3
aa(lp1614
I1
a(lp1615
F0.0
aaI3
aa(lp1616
I1
a(lp1617
F0.0
aaI11
aa(lp1618
I1
a(lp1619
F0.0
aaI18
aa(lp1620
I1
a(lp1621
F0.0
aaI28
aa(lp1622
I1
a(lp1623
F0.225806
aaI31
aa(lp1624
I1
a(lp1625
F0.272727
aaI22
aa(lp1626
I1
a(lp1627
F0.25
aaI24
aa(lp1628
I1
a(lp1629
F0.2
aaI25
aaa(lp1630
S'scaffold73058_cov93'
p1631
aS'scaffold5775_cov75'
p1632
a(lp1633
I1
a(lp1634
F0.244898
aaI49
aa(lp1635
I1
a(lp1636
F0.272727
aaI55
aa(lp1637
I1
a(lp1638
F0.515152
aaI33
aa(lp1639
I1
a(lp1640
F0.466667
aaI60
aa(lp1641
I1
a(lp1642
F0.458333
aaI48
aa(lp1643
I1
a(lp1644
F0.423077
aaI52
aa(lp1645
I1
a(lp1646
F0.409091
aaI44
aa(lp1647
I1
a(lp1648
F0.26087
aaI46
aa(lp1649
I1
a(lp1650
F0.230769
aaI39
aa(lp1651
I1
a(lp1652
F0.3
aaI50
aa(lp1653
I1
a(lp1654
F0.235294
aaI34
aa(lp1655
I1
a(lp1656
F0.212121
aaI33
aa(lp1657
I1
a(lp1658
F0.225806
aaI31
aaa(lp1659
S'scaffold12892_cov134'
p1660
aS'scaffold47938_cov75'
p1661
aa(lp1662
S'scaffold4939_cov152'
p1663
aS'scaffold4940_cov72'
p1664
aa(lp1665
S'scaffold8878_cov69'
p1666
aS'scaffold13862_cov109'
p1667
a(lp1668
I1
a(lp1669
F0.235294
aaI34
aa(lp1670
I1
a(lp1671
F0.297297
aaI37
aa(lp1672
I1
a(lp1673
F0.545455
aaI44
aa(lp1674
I1
a(lp1675
F0.415094
aaI53
aa(lp1676
I1
a(lp1677
F0.408163
aaI49
aa(lp1678
I1
a(lp1679
F0.333333
aaI51
aaa(lp1680
S'scaffold166331_cov132'
p1681
aS'scaffold8565_cov73'
p1682
aa(lp1683
S'scaffold26431_cov130'
p1684
aS'scaffold15686_cov66'
p1685
aa(lp1686
S'scaffold9117_cov151'
p1687
aS'scaffold9115_cov70'
p1688
aa(lp1689
S'scaffold1006_cov111'
p1690
aS'scaffold1003_cov64'
p1691
aa(lp1692
S'scaffold5572_cov101'
p1693
aS'scaffold7298_cov66'
p1694
aa(lp1695
S'scaffold14527_cov64'
p1696
aS'scaffold1873_cov63'
p1697
aa(lp1698
S'scaffold19598_cov123'
p1699
aS'scaffold12870_cov60'
p1700
aa(lp1701
S'scaffold25966_cov129'
p1702
aS'scaffold20513_cov68'
p1703
aa(lp1704
S'scaffold6206_cov112'
p1705
aS'scaffold19927_cov67'
p1706
aa(lp1707
S'scaffold1808_cov87'
p1708
aS'scaffold18178_cov78'
p1709
aa(lp1710
S'scaffold16044_cov69'
p1711
aS'scaffold182_cov83'
p1712
aa(lp1713
S'scaffold20825_cov153'
p1714
aS'scaffold20824_cov72'
p1715
a(lp1716
I1
a(lp1717
F0.21875
aaI32
aaa(lp1718
S'scaffold94664_cov148'
p1719
aS'scaffold11692_cov72'
p1720
aa(lp1721
S'scaffold23731_cov68'
p1722
aS'scaffold15386_cov80'
p1723
aa(lp1724
S'scaffold45520_cov151'
p1725
aS'scaffold45518_cov71'
p1726
aa(lp1727
S'scaffold1071_cov92'
p1728
aS'scaffold49421_cov62'
p1729
a(lp1730
I1
a(lp1731
F0.333333
aaI39
aaa(lp1732
S'scaffold3432_cov123'
p1733
aS'scaffold3406_cov67'
p1734
a(lp1735
I1
a(lp1736
F0.230769
aaI52
aa(lp1737
I1
a(lp1738
F0.596774
aaI62
aa(lp1739
I1
a(lp1740
F0.540984
aaI61
aa(lp1741
I1
a(lp1742
F0.304878
aaI82
aa(lp1743
I1
a(lp1744
F0.203883
aaI103
aa(lp1745
I1
a(lp1746
F0.209877
aaI81
aa(lp1747
I1
a(lp1748
F0.2
aaI80
aa(lp1749
I1
a(lp1750
F0.432836
aaI67
aa(lp1751
I1
a(lp1752
F0.205882
aaI68
aa(lp1753
I1
a(lp1754
F0.217391
aaI69
aa(lp1755
I1
a(lp1756
F0.338983
aaI59
aaa(lp1757
S'scaffold5456_cov152'
p1758
aS'scaffold67160_cov58'
p1759
aa(lp1760
S'scaffold166729_cov102'
p1761
aS'scaffold165425_cov72'
p1762
a(lp1763
I1
a(lp1764
F0.0
aaI26
aaa(lp1765
S'scaffold9312_cov104'
p1766
aS'scaffold35511_cov69'
p1767
a(lp1768
I1
a(lp1769
F0.0
aaI32
aa(lp1770
I1
a(lp1771
F0.0
aaI25
aaa(lp1772
S'scaffold55111_cov144'
p1773
aS'scaffold55112_cov70'
p1774
aa(lp1775
S'scaffold25594_cov137'
p1776
aS'scaffold19109_cov84'
p1777
a(lp1778
I1
a(lp1779
F0.521739
aaI69
aa(lp1780
I1
a(lp1781
F0.242424
aaI66
aa(lp1782
I1
a(lp1783
F0.269841
aaI63
aa(lp1784
I1
a(lp1785
F0.26087
aaI69
aa(lp1786
I1
a(lp1787
F0.305882
aaI85
aa(lp1788
I1
a(lp1789
F0.265823
aaI79
aa(lp1790
I1
a(lp1791
F0.247059
aaI85
aa(lp1792
I1
a(lp1793
F0.305556
aaI108
aa(lp1794
I1
a(lp1795
F0.300971
aaI103
aaa(lp1796
S'scaffold12903_cov71'
p1797
aS'scaffold10491_cov66'
p1798
aa(lp1799
S'scaffold33902_cov94'
p1800
aS'scaffold8504_cov71'
p1801
a(lp1802
I1
a(lp1803
F0.225
aaI40
aaa(lp1804
S'scaffold27219_cov142'
p1805
aS'scaffold16554_cov65'
p1806
aa(lp1807
S'scaffold165434_cov141'
p1808
aS'scaffold29886_cov66'
p1809
a(lp1810
I1
a(lp1811
F0.0
aaI28
aa(lp1812
I1
a(lp1813
F0.361111
aaI36
aa(lp1814
I1
a(lp1815
F0.0
aaI33
aaa(lp1816
S'scaffold1435_cov93'
p1817
aS'scaffold4122_cov62'
p1818
a(lp1819
I1
a(lp1820
F0.0
aaI6
aa(lp1821
I1
a(lp1822
F0.0
aaI37
aa(lp1823
I1
a(lp1824
F0.264151
aaI53
aa(lp1825
I1
a(lp1826
F0.0
aaI28
aaa(lp1827
S'scaffold11842_cov94'
p1828
aS'scaffold158_cov68'
p1829
a(lp1830
I1
a(lp1831
F0.0
aaI21
aa(lp1832
I1
a(lp1833
F0.294118
aaI34
aa(lp1834
I1
a(lp1835
F0.25641
aaI39
aaa(lp1836
S'scaffold34153_cov147'
p1837
aS'scaffold48213_cov76'
p1838
aa(lp1839
S'scaffold9327_cov109'
p1840
aS'scaffold141950_cov79'
p1841
aa(lp1842
S'scaffold7481_cov74'
p1843
aS'scaffold89446_cov79'
p1844
aa(lp1845
S'scaffold5399_cov135'
p1846
aS'scaffold14003_cov64'
p1847
aa(lp1848
S'scaffold165470_cov102'
p1849
aS'scaffold48928_cov92'
p1850
a(lp1851
I1
a(lp1852
F0.0
aaI19
aa(lp1853
I1
a(lp1854
F0.0
aaI16
aa(lp1855
I1
a(lp1856
F0.0
aaI15
aaa(lp1857
S'scaffold5433_cov148'
p1858
aS'scaffold4791_cov68'
p1859
a(lp1860
I1
a(lp1861
F0.0
aaI28
aa(lp1862
I1
a(lp1863
F0.0
aaI20
aa(lp1864
I1
a(lp1865
F0.0
aaI15
aa(lp1866
I1
a(lp1867
F0.0
aaI14
aa(lp1868
I1
a(lp1869
F0.0
aaI11
aa(lp1870
I1
a(lp1871
F0.0
aaI16
aa(lp1872
I1
a(lp1873
F0.0
aaI22
aaa(lp1874
S'scaffold16606_cov107'
p1875
aS'scaffold42581_cov70'
p1876
a(lp1877
I1
a(lp1878
F0.204545
aaI44
aa(lp1879
I1
a(lp1880
F0.208333
aaI48
aa(lp1881
I1
a(lp1882
F0.217391
aaI46
aa(lp1883
I1
a(lp1884
F0.208333
aaI48
aa(lp1885
I1
a(lp1886
F0.296296
aaI54
aa(lp1887
I1
a(lp1888
F0.275862
aaI58
aa(lp1889
I1
a(lp1890
F0.309091
aaI55
aa(lp1891
I1
a(lp1892
F0.293103
aaI58
aa(lp1893
I1
a(lp1894
F0.21875
aaI32
aa(lp1895
I1
a(lp1896
F0.25
aaI32
aa(lp1897
I1
a(lp1898
F0.2
aaI30
aa(lp1899
I1
a(lp1900
F0.268293
aaI41
aa(lp1901
I1
a(lp1902
F0.0
aaI32
aaa(lp1903
S'scaffold2507_cov119'
p1904
aS'scaffold414_cov67'
p1905
a(lp1906
I1
a(lp1907
F0.0
aaI19
aa(lp1908
I1
a(lp1909
F0.431373
aaI51
aa(lp1910
I1
a(lp1911
F0.52381
aaI21
aa(lp1912
I1
a(lp1913
F0.307692
aaI26
aaa(lp1914
S'scaffold6378_cov134'
p1915
aS'scaffold6379_cov64'
p1916
a(lp1917
I1
a(lp1918
F0.0
aaI19
aa(lp1919
I1
a(lp1920
F0.0
aaI9
aa(lp1921
I1
a(lp1922
F0.0
aaI8
aa(lp1923
I1
a(lp1924
F0.0
aaI32
aa(lp1925
I1
a(lp1926
F0.0
aaI28
aa(lp1927
I1
a(lp1928
F0.0
aaI33
aa(lp1929
I1
a(lp1930
F0.0
aaI30
aa(lp1931
I1
a(lp1932
F0.0
aaI32
aa(lp1933
I1
a(lp1934
F0.0
aaI33
aa(lp1935
I1
a(lp1936
F0.242424
aaI33
aa(lp1937
I1
a(lp1938
F0.36
aaI50
aa(lp1939
I1
a(lp1940
F0.25
aaI36
aa(lp1941
I1
a(lp1942
F0.288889
aaI45
aa(lp1943
I1
a(lp1944
F0.244898
aaI49
aaa(lp1945
S'scaffold27251_cov134'
p1946
aS'scaffold26715_cov65'
p1947
a(lp1948
I1
a(lp1949
F0.0
aaI18
aaa(lp1950
S'scaffold7224_cov118'
p1951
aS'scaffold775_cov72'
p1952
a(lp1953
I1
a(lp1954
F0.276596
aaI47
aa(lp1955
I1
a(lp1956
F0.341463
aaI41
aaa(lp1957
S'scaffold6055_cov140'
p1958
aS'scaffold30423_cov65'
p1959
aa(lp1960
S'scaffold1760_cov96'
p1961
aS'scaffold1762_cov75'
p1962
a(lp1963
I1
a(lp1964
F0.0
aaI40
aa(lp1965
I1
a(lp1966
F0.522727
aaI44
aa(lp1967
I1
a(lp1968
F0.317073
aaI41
aa(lp1969
I1
a(lp1970
F0.275862
aaI58
aa(lp1971
I1
a(lp1972
F0.395604
aaI91
aaa(lp1973
S'scaffold213265_cov125'
p1974
aS'scaffold13885_cov142'
p1975
aa(lp1976
S'scaffold178103_cov209'
p1977
aS'scaffold16632_cov63'
p1978
a(lp1979
I1
a(lp1980
F0.375
aaI48
aaa(lp1981
S'scaffold36163_cov117'
p1982
aS'scaffold6928_cov65'
p1983
a(lp1984
I1
a(lp1985
F0.289474
aaI38
aaa(lp1986
S'scaffold7438_cov111'
p1987
aS'scaffold279_cov75'
p1988
a(lp1989
I1
a(lp1990
F0.27027
aaI37
aa(lp1991
I1
a(lp1992
F0.346154
aaI52
aaa(lp1993
S'scaffold167503_cov98'
p1994
aS'scaffold7473_cov63'
p1995
a(lp1996
I1
a(lp1997
F0.370861
aaI151
aa(lp1998
I1
a(lp1999
F0.45977
aaI87
aa(lp2000
I1
a(lp2001
F0.393443
aaI61
aa(lp2002
I1
a(lp2003
F0.27451
aaI51
aaa(lp2004
S'scaffold1316_cov119'
p2005
aS'scaffold5085_cov79'
p2006
a(lp2007
I1
a(lp2008
F0.0
aaI32
aa(lp2009
I1
a(lp2010
F0.592593
aaI54
aa(lp2011
I1
a(lp2012
F1.0
aaI24
aa(lp2013
I1
a(lp2014
F0.0
aaI39
aa(lp2015
I1
a(lp2016
F0.0
aaI39
aa(lp2017
I1
a(lp2018
F0.490909
aaI55
aa(lp2019
I1
a(lp2020
F0.222222
aaI45
aa(lp2021
I1
a(lp2022
F0.204082
aaI49
aa(lp2023
I1
a(lp2024
F0.325
aaI40
aa(lp2025
I1
a(lp2026
F0.447368
aaI38
aa(lp2027
I1
a(lp2028
F0.289474
aaI38
aaa(lp2029
S'scaffold17086_cov103'
p2030
aS'scaffold17615_cov61'
p2031
aa(lp2032
S'scaffold14104_cov135'
p2033
aS'scaffold22906_cov63'
p2034
a(lp2035
I1
a(lp2036
F0.226415
aaI53
aa(lp2037
I1
a(lp2038
F0.206186
aaI97
aaa(lp2039
S'scaffold107607_cov79'
p2040
aS'scaffold107606_cov134'
p2041
aa(lp2042
S'scaffold164980_cov146'
p2043
aS'scaffold3955_cov67'
p2044
aa(lp2045
S'scaffold21352_cov62'
p2046
aS'scaffold78461_cov65'
p2047
aa(lp2048
S'scaffold22791_cov67'
p2049
aS'scaffold22793_cov63'
p2050
aa(lp2051
S'scaffold5694_cov90'
p2052
aS'scaffold21004_cov60'
p2053
aa(lp2054
S'scaffold12318_cov65'
p2055
aS'scaffold10298_cov88'
p2056
aa(lp2057
S'scaffold23855_cov65'
p2058
aS'scaffold8620_cov63'
p2059
aa(lp2060
S'scaffold1518_cov144'
p2061
aS'scaffold7273_cov73'
p2062
aa(lp2063
S'scaffold8421_cov73'
p2064
aS'scaffold7098_cov89'
p2065
a(lp2066
I1
a(lp2067
F0.409091
aaI44
aaa(lp2068
S'scaffold3714_cov147'
p2069
aS'scaffold3718_cov71'
p2070
a(lp2071
I1
a(lp2072
F0.2
aaI25
aaa(lp2073
S'scaffold20332_cov97'
p2074
aS'scaffold7080_cov68'
p2075
a(lp2076
I1
a(lp2077
F0.0
aaI33
aa(lp2078
I1
a(lp2079
F0.210526
aaI19
aa(lp2080
I1
a(lp2081
F0.0
aaI14
aaa(lp2082
S'scaffold49078_cov128'
p2083
aS'scaffold54587_cov60'
p2084
aa(lp2085
S'scaffold10475_cov143'
p2086
aS'scaffold10474_cov65'
p2087
a(lp2088
I1
a(lp2089
F1.0
aaI11
aaa(lp2090
S'scaffold6306_cov146'
p2091
aS'scaffold6305_cov69'
p2092
aa(lp2093
S'scaffold1865_cov101'
p2094
aS'scaffold58306_cov63'
p2095
aa(lp2096
S'scaffold11499_cov143'
p2097
aS'scaffold11874_cov70'
p2098
aa(lp2099
S'scaffold34203_cov139'
p2100
aS'scaffold15986_cov63'
p2101
aa(lp2102
S'scaffold4589_cov98'
p2103
aS'scaffold4585_cov69'
p2104
aa(lp2105
S'scaffold2767_cov75'
p2106
aS'scaffold9955_cov79'
p2107
aa(lp2108
S'scaffold2129_cov167'
p2109
aS'scaffold92330_cov67'
p2110
a(lp2111
I1
a(lp2112
F0.23913
aaI46
aa(lp2113
I1
a(lp2114
F0.0
aaI18
aaa(lp2115
S'scaffold34203_cov139'
p2116
aS'scaffold4395_cov68'
p2117
aa(lp2118
S'scaffold5847_cov85'
p2119
aS'scaffold4052_cov74'
p2120
a(lp2121
I1
a(lp2122
F0.351351
aaI37
aa(lp2123
I1
a(lp2124
F0.2
aaI35
aa(lp2125
I1
a(lp2126
F0.314286
aaI35
aaa(lp2127
S'scaffold10574_cov127'
p2128
aS'scaffold11171_cov138'
p2129
a(lp2130
I1
a(lp2131
F0.466667
aaI15
aa(lp2132
I1
a(lp2133
F0.0
aaI9
aa(lp2134
I1
a(lp2135
F0.458333
aaI24
aa(lp2136
I1
a(lp2137
F0.52
aaI25
aaa(lp2138
S'scaffold91295_cov60'
p2139
aS'scaffold5348_cov143'
p2140
aa(lp2141
S'scaffold22816_cov146'
p2142
aS'scaffold22815_cov69'
p2143
aa(lp2144
S'scaffold122298_cov65'
p2145
aS'scaffold122299_cov139'
p2146
aa(lp2147
S'scaffold18351_cov137'
p2148
aS'scaffold16169_cov72'
p2149
a(lp2150
I1
a(lp2151
F0.0
aaI33
aaa(lp2152
S'scaffold15731_cov124'
p2153
aS'scaffold1701_cov70'
p2154
a(lp2155
I1
a(lp2156
F0.0
aaI23
aa(lp2157
I1
a(lp2158
F0.0
aaI28
aa(lp2159
I1
a(lp2160
F0.0
aaI30
aa(lp2161
I1
a(lp2162
F0.235294
aaI17
aa(lp2163
I1
a(lp2164
F0.209302
aaI43
aaa(lp2165
S'scaffold1170_cov146'
p2166
aS'scaffold69771_cov67'
p2167
aa(lp2168
S'scaffold3741_cov108'
p2169
aS'scaffold2061_cov67'
p2170
aa(lp2171
S'scaffold1461_cov134'
p2172
aS'scaffold13020_cov66'
p2173
aa(lp2174
S'scaffold16201_cov125'
p2175
aS'scaffold51827_cov73'
p2176
aa(lp2177
S'scaffold6532_cov126'
p2178
aS'scaffold5058_cov63'
p2179
a(lp2180
I1
a(lp2181
F0.290323
aaI31
aaa(lp2182
S'scaffold38959_cov135'
p2183
aS'scaffold57178_cov79'
p2184
a(lp2185
I1
a(lp2186
F0.344828
aaI58
aa(lp2187
I1
a(lp2188
F0.38961
aaI77
aaa(lp2189
S'scaffold17601_cov135'
p2190
aS'scaffold1994_cov63'
p2191
a(lp2192
I1
a(lp2193
F0.0
aaI23
aa(lp2194
I1
a(lp2195
F0.0
aaI27
aa(lp2196
I1
a(lp2197
F0.5
aaI16
aaa(lp2198
S'scaffold16294_cov110'
p2199
aS'scaffold7481_cov74'
p2200
a(lp2201
I1
a(lp2202
F0.577778
aaI45
aa(lp2203
I1
a(lp2204
F0.5
aaI42
aa(lp2205
I1
a(lp2206
F0.478261
aaI46
aa(lp2207
I1
a(lp2208
F0.4
aaI60
aa(lp2209
I1
a(lp2210
F0.4
aaI55
aa(lp2211
I1
a(lp2212
F0.4
aaI55
aa(lp2213
I1
a(lp2214
F0.4
aaI55
aa(lp2215
I1
a(lp2216
F0.4
aaI55
aa(lp2217
I1
a(lp2218
F0.25
aaI36
aa(lp2219
I1
a(lp2220
F0.263158
aaI38
aa(lp2221
I1
a(lp2222
F0.372093
aaI43
aa(lp2223
I1
a(lp2224
F0.348837
aaI43
aa(lp2225
I1
a(lp2226
F0.392157
aaI51
aa(lp2227
I1
a(lp2228
F0.403846
aaI52
aa(lp2229
I1
a(lp2230
F0.415094
aaI53
aa(lp2231
I1
a(lp2232
F0.408163
aaI49
aa(lp2233
I1
a(lp2234
F0.414634
aaI41
aa(lp2235
I1
a(lp2236
F0.321429
aaI28
aa(lp2237
I1
a(lp2238
F0.375
aaI40
aa(lp2239
I1
a(lp2240
F0.0
aaI20
aa(lp2241
I1
a(lp2242
F0.285714
aaI42
aa(lp2243
I1
a(lp2244
F0.263158
aaI38
aa(lp2245
I1
a(lp2246
F0.25
aaI40
aaa(lp2247
S'scaffold31627_cov123'
p2248
aS'scaffold1614_cov71'
p2249
a(lp2250
I1
a(lp2251
F0.2
aaI40
aaa(lp2252
S'scaffold5399_cov135'
p2253
aS'scaffold8409_cov62'
p2254
aa(lp2255
S'scaffold4605_cov69'
p2256
aS'scaffold4604_cov80'
p2257
a(lp2258
I1
a(lp2259
F0.0
aaI24
aaa(lp2260
S'scaffold13624_cov94'
p2261
aS'scaffold72210_cov77'
p2262
aa(lp2263
S'scaffold19315_cov107'
p2264
aS'scaffold7113_cov70'
p2265
aa(lp2266
S'scaffold165629_cov145'
p2267
aS'scaffold33634_cov72'
p2268
aa(lp2269
S'scaffold183201_cov134'
p2270
aS'scaffold6997_cov65'
p2271
aa(lp2272
S'scaffold22010_cov97'
p2273
aS'scaffold401_cov67'
p2274
a(lp2275
I1
a(lp2276
F0.0
aaI29
aaa(lp2277
S'scaffold17015_cov140'
p2278
aS'scaffold4528_cov69'
p2279
aa(lp2280
S'scaffold21453_cov86'
p2281
aS'scaffold4784_cov67'
p2282
aa(lp2283
S'scaffold13852_cov94'
p2284
aS'scaffold7585_cov68'
p2285
a(lp2286
I1
a(lp2287
F0.0
aaI8
aaa(lp2288
S'scaffold165420_cov139'
p2289
aS'scaffold27291_cov70'
p2290
aa(lp2291
S'scaffold476_cov90'
p2292
aS'scaffold8782_cov64'
p2293
aa(lp2294
S'scaffold9044_cov136'
p2295
aS'scaffold2501_cov70'
p2296
a(lp2297
I1
a(lp2298
F0.484375
aaI64
aa(lp2299
I1
a(lp2300
F0.302326
aaI43
aa(lp2301
I1
a(lp2302
F0.361702
aaI47
aa(lp2303
I1
a(lp2304
F0.386364
aaI44
aa(lp2305
I1
a(lp2306
F0.540984
aaI61
aa(lp2307
I1
a(lp2308
F0.464286
aaI56
aa(lp2309
I1
a(lp2310
F0.421053
aaI57
aa(lp2311
I1
a(lp2312
F0.38
aaI50
aaa(lp2313
S'scaffold60916_cov101'
p2314
aS'scaffold2562_cov78'
p2315
a(lp2316
I1
a(lp2317
F0.0
aaI5
aaa(lp2318
S'scaffold5694_cov90'
p2319
aS'scaffold6452_cov96'
p2320
a(lp2321
I1
a(lp2322
F0.0
aaI7
aa(lp2323
I1
a(lp2324
F0.0
aaI2
aa(lp2325
I1
a(lp2326
F0.0
aaI2
aa(lp2327
I1
a(lp2328
F0.0
aaI2
aa(lp2329
I1
a(lp2330
F0.0
aaI2
aa(lp2331
I1
a(lp2332
F0.0
aaI2
aa(lp2333
I1
a(lp2334
F0.0
aaI2
aa(lp2335
I1
a(lp2336
F0.0
aaI3
aa(lp2337
I1
a(lp2338
F0.0
aaI4
aa(lp2339
I1
a(lp2340
F0.0
aaI5
aa(lp2341
I1
a(lp2342
F0.0
aaI3
aa(lp2343
I1
a(lp2344
F0.0
aaI7
aa(lp2345
I1
a(lp2346
F0.0
aaI7
aa(lp2347
I1
a(lp2348
F0.0
aaI6
aa(lp2349
I1
a(lp2350
F0.4
aaI5
aa(lp2351
I1
a(lp2352
F0.25
aaI8
aa(lp2353
I1
a(lp2354
F0.0
aaI8
aa(lp2355
I1
a(lp2356
F0.0
aaI3
aa(lp2357
I1
a(lp2358
F0.0
aaI3
aa(lp2359
I1
a(lp2360
F0.0
aaI4
aa(lp2361
I1
a(lp2362
F0.0
aaI7
aa(lp2363
I1
a(lp2364
F0.0
aaI7
aa(lp2365
I1
a(lp2366
F0.0
aaI2
aa(lp2367
I1
a(lp2368
F0.666667
aaI6
aa(lp2369
I1
a(lp2370
F0.0
aaI51
aa(lp2371
I1
a(lp2372
F0.0
aaI16
aa(lp2373
I1
a(lp2374
F0.0
aaI8
aa(lp2375
I1
a(lp2376
F0.0
aaI14
aa(lp2377
I1
a(lp2378
F0.0
aaI7
aa(lp2379
I1
a(lp2380
F0.0
aaI6
aaa(lp2381
S'scaffold4116_cov143'
p2382
aS'scaffold6097_cov70'
p2383
aa(lp2384
S'scaffold451_cov146'
p2385
aS'scaffold449_cov70'
p2386
aa(lp2387
S'scaffold167824_cov153'
p2388
aS'scaffold540_cov68'
p2389
aa(lp2390
S'scaffold182_cov83'
p2391
aS'scaffold3533_cov68'
p2392
a(lp2393
I1
a(lp2394
F0.404255
aaI47
aaa(lp2395
S'scaffold167494_cov111'
p2396
aS'scaffold12899_cov60'
p2397
aa(lp2398
S'scaffold3456_cov132'
p2399
aS'scaffold166714_cov62'
p2400
aa(lp2401
S'scaffold183613_cov153'
p2402
aS'scaffold5720_cov71'
p2403
aa(lp2404
S'scaffold7006_cov83'
p2405
aS'scaffold7005_cov65'
p2406
aa(lp2407
S'scaffold10462_cov135'
p2408
aS'scaffold10461_cov66'
p2409
aa(lp2410
S'scaffold5049_cov88'
p2411
aS'scaffold5046_cov63'
p2412
a(lp2413
I1
a(lp2414
F0.0
aaI11
aaa(lp2415
S'scaffold19586_cov139'
p2416
aS'scaffold30711_cov65'
p2417
aa(lp2418
S'scaffold24500_cov65'
p2419
aS'scaffold57197_cov90'
p2420
a(lp2421
I1
a(lp2422
F0.0
aaI8
aa(lp2423
I1
a(lp2424
F0.0
aaI23
aaasS'up'
p2425
(lp2426
(lp2427
g6
ag7
a(lp2428
I1
a(lp2429
F0.414286
aaI70
aa(lp2430
I1
a(lp2431
F0.276596
aaI47
aa(lp2432
I1
a(lp2433
F0.270833
aaI48
aa(lp2434
I1
a(lp2435
F0.289474
aaI38
aa(lp2436
I1
a(lp2437
F0.25
aaI32
aa(lp2438
I1
a(lp2439
F0.228571
aaI35
aa(lp2440
I1
a(lp2441
F0.351351
aaI37
aa(lp2442
I1
a(lp2443
F0.333333
aaI48
aa(lp2444
I1
a(lp2445
F0.333333
aaI39
aa(lp2446
I1
a(lp2447
F0.474576
aaI59
aa(lp2448
I1
a(lp2449
F0.47619
aaI42
aa(lp2450
I1
a(lp2451
F0.535714
aaI56
aa(lp2452
I1
a(lp2453
F0.28
aaI50
aa(lp2454
I1
a(lp2455
F0.27027
aaI37
aa(lp2456
I1
a(lp2457
F0.208333
aaI48
aa(lp2458
I1
a(lp2459
F0.226415
aaI53
aa(lp2460
I1
a(lp2461
F0.412698
aaI63
aa(lp2462
I1
a(lp2463
F0.222222
aaI45
aaa(lp2464
g9
ag10
a(lp2465
I1
a(lp2466
F0.228571
aaI35
aa(lp2467
I1
a(lp2468
F0.288889
aaI45
aa(lp2469
I1
a(lp2470
F0.508475
aaI59
aa(lp2471
I1
a(lp2472
F0.257143
aaI35
aaa(lp2473
g12
ag13
aa(lp2474
g15
ag16
aa(lp2475
g46
ag47
a(lp2476
I1
a(lp2477
F0.311111
aaI450
aa(lp2478
I1
a(lp2479
F0.396552
aaI58
aa(lp2480
I1
a(lp2481
F0.0
aaI37
aa(lp2482
I1
a(lp2483
F0.405063
aaI79
aaa(lp2484
g53
ag54
a(lp2485
I1
a(lp2486
F0.214286
aaI42
aa(lp2487
I1
a(lp2488
F0.243902
aaI41
aa(lp2489
I1
a(lp2490
F0.258065
aaI31
aa(lp2491
I1
a(lp2492
F0.258065
aaI31
aa(lp2493
I1
a(lp2494
F0.285714
aaI35
aaa(lp2495
g56
ag57
aa(lp2496
g59
ag60
aa(lp2497
g62
ag63
a(lp2498
I1
a(lp2499
F0.395833
aaI48
aa(lp2500
I1
a(lp2501
F0.213115
aaI61
aa(lp2502
I1
a(lp2503
F0.54717
aaI53
aaa(lp2504
g65
ag66
a(lp2505
I1
a(lp2506
F0.472973
aaI74
aaa(lp2507
g68
ag69
aa(lp2508
g71
ag72
a(lp2509
I1
a(lp2510
F0.539683
aaI63
aaa(lp2511
g102
ag103
a(lp2512
I1
a(lp2513
F0.272727
aaI44
aa(lp2514
I1
a(lp2515
F0.27027
aaI37
aa(lp2516
I1
a(lp2517
F0.435897
aaI39
aa(lp2518
I1
a(lp2519
F0.319149
aaI47
aa(lp2520
I1
a(lp2521
F0.212766
aaI47
aa(lp2522
I1
a(lp2523
F0.263158
aaI38
aaa(lp2524
g109
ag110
a(lp2525
I1
a(lp2526
F0.206349
aaI63
aa(lp2527
I1
a(lp2528
F0.5
aaI50
aa(lp2529
I1
a(lp2530
F0.326531
aaI98
aa(lp2531
I1
a(lp2532
F0.204082
aaI98
aa(lp2533
I1
a(lp2534
F0.279661
aaI118
aa(lp2535
I1
a(lp2536
F0.422535
aaI71
aaa(lp2537
g208
ag209
a(lp2538
I1
a(lp2539
F0.466667
aaI30
aa(lp2540
I1
a(lp2541
F0.318182
aaI44
aa(lp2542
I1
a(lp2543
F0.254237
aaI59
aa(lp2544
I1
a(lp2545
F0.320755
aaI53
aa(lp2546
I1
a(lp2547
F0.314815
aaI54
aa(lp2548
I1
a(lp2549
F0.309091
aaI55
aa(lp2550
I1
a(lp2551
F0.34375
aaI64
aaa(lp2552
g213
ag214
a(lp2553
I1
a(lp2554
F0.454545
aaI77
aa(lp2555
I1
a(lp2556
F0.387097
aaI62
aa(lp2557
I1
a(lp2558
F0.348485
aaI66
aa(lp2559
I1
a(lp2560
F0.369231
aaI65
aa(lp2561
I1
a(lp2562
F0.56
aaI50
aa(lp2563
I1
a(lp2564
F0.327586
aaI58
aa(lp2565
I1
a(lp2566
F0.409091
aaI66
aa(lp2567
I1
a(lp2568
F0.446154
aaI65
aa(lp2569
I1
a(lp2570
F0.375
aaI64
aa(lp2571
I1
a(lp2572
F0.316667
aaI60
aa(lp2573
I1
a(lp2574
F0.3
aaI40
aa(lp2575
I1
a(lp2576
F0.297297
aaI37
aa(lp2577
I1
a(lp2578
F0.311111
aaI45
aa(lp2579
I1
a(lp2580
F0.333333
aaI42
aa(lp2581
I1
a(lp2582
F0.277778
aaI54
aaa(lp2583
g220
ag221
aa(lp2584
g227
ag228
a(lp2585
I1
a(lp2586
F0.446429
aaI56
aa(lp2587
I1
a(lp2588
F0.578947
aaI38
aa(lp2589
I1
a(lp2590
F0.5
aaI42
aa(lp2591
I1
a(lp2592
F0.45098
aaI51
aa(lp2593
I1
a(lp2594
F0.446429
aaI56
aa(lp2595
I1
a(lp2596
F0.263158
aaI38
aa(lp2597
I1
a(lp2598
F0.285714
aaI49
aa(lp2599
I1
a(lp2600
F0.404255
aaI47
aa(lp2601
I1
a(lp2602
F0.324324
aaI37
aa(lp2603
I1
a(lp2604
F0.431373
aaI51
aa(lp2605
I1
a(lp2606
F0.354167
aaI48
aa(lp2607
I1
a(lp2608
F0.34
aaI50
aa(lp2609
I1
a(lp2610
F0.418182
aaI55
aa(lp2611
I1
a(lp2612
F0.444444
aaI54
aa(lp2613
I1
a(lp2614
F0.45283
aaI53
aa(lp2615
I1
a(lp2616
F0.471698
aaI53
aa(lp2617
I1
a(lp2618
F0.391304
aaI46
aa(lp2619
I1
a(lp2620
F0.45098
aaI51
aa(lp2621
I1
a(lp2622
F0.431373
aaI51
aa(lp2623
I1
a(lp2624
F0.434783
aaI46
aa(lp2625
I1
a(lp2626
F0.395833
aaI48
aaa(lp2627
g238
ag239
a(lp2628
I1
a(lp2629
F0.241379
aaI29
aaa(lp2630
g249
ag250
aa(lp2631
g254
ag255
a(lp2632
I1
a(lp2633
F0.290909
aaI55
aaa(lp2634
g261
ag262
aa(lp2635
g264
ag265
aa(lp2636
g267
ag268
aa(lp2637
g288
ag289
a(lp2638
I1
a(lp2639
F0.586957
aaI46
aa(lp2640
I1
a(lp2641
F0.390625
aaI64
aa(lp2642
I1
a(lp2643
F0.362069
aaI58
aa(lp2644
I1
a(lp2645
F0.52459
aaI61
aa(lp2646
I1
a(lp2647
F0.282609
aaI46
aa(lp2648
I1
a(lp2649
F0.288889
aaI45
aa(lp2650
I1
a(lp2651
F0.288889
aaI45
aa(lp2652
I1
a(lp2653
F0.333333
aaI39
aaa(lp2654
g293
ag294
aa(lp2655
g296
ag297
a(lp2656
I1
a(lp2657
F0.518519
aaI54
aa(lp2658
I1
a(lp2659
F0.339623
aaI53
aa(lp2660
I1
a(lp2661
F0.285714
aaI42
aa(lp2662
I1
a(lp2663
F0.26087
aaI46
aa(lp2664
I1
a(lp2665
F0.254902
aaI51
aa(lp2666
I1
a(lp2667
F0.48
aaI50
aa(lp2668
I1
a(lp2669
F0.205128
aaI39
aa(lp2670
I1
a(lp2671
F0.457143
aaI35
aa(lp2672
I1
a(lp2673
F0.239437
aaI71
aaa(lp2674
g307
ag308
a(lp2675
I1
a(lp2676
F0.306122
aaI49
aa(lp2677
I1
a(lp2678
F0.346154
aaI52
aa(lp2679
I1
a(lp2680
F0.475
aaI40
aa(lp2681
I1
a(lp2682
F0.5
aaI42
aa(lp2683
I1
a(lp2684
F0.290323
aaI31
aaa(lp2685
g312
ag313
a(lp2686
I1
a(lp2687
F0.546875
aaI64
aa(lp2688
I1
a(lp2689
F0.488372
aaI43
aa(lp2690
I1
a(lp2691
F0.405405
aaI37
aa(lp2692
I1
a(lp2693
F0.25
aaI32
aa(lp2694
I1
a(lp2695
F0.258065
aaI31
aa(lp2696
I1
a(lp2697
F0.425
aaI40
aa(lp2698
I1
a(lp2699
F0.390244
aaI41
aa(lp2700
I1
a(lp2701
F0.352941
aaI34
aa(lp2702
I1
a(lp2703
F0.205479
aaI146
aa(lp2704
I1
a(lp2705
F0.5
aaI32
aaa(lp2706
g315
ag316
a(lp2707
I1
a(lp2708
F0.366667
aaI30
aa(lp2709
I1
a(lp2710
F0.268293
aaI41
aa(lp2711
I1
a(lp2712
F0.208955
aaI67
aa(lp2713
I1
a(lp2714
F0.4375
aaI48
aaa(lp2715
g320
ag321
a(lp2716
I1
a(lp2717
F0.258065
aaI31
aa(lp2718
I1
a(lp2719
F0.321429
aaI28
aaa(lp2720
g333
ag334
a(lp2721
I1
a(lp2722
F0.444444
aaI54
aaa(lp2723
g336
ag337
aa(lp2724
g339
ag340
a(lp2725
I1
a(lp2726
F0.508197
aaI122
aa(lp2727
I1
a(lp2728
F0.261905
aaI42
aa(lp2729
I1
a(lp2730
F0.377358
aaI53
aa(lp2731
I1
a(lp2732
F0.288889
aaI45
aa(lp2733
I1
a(lp2734
F0.416667
aaI48
aa(lp2735
I1
a(lp2736
F0.283019
aaI53
aa(lp2737
I1
a(lp2738
F0.298246
aaI57
aa(lp2739
I1
a(lp2740
F0.295455
aaI44
aa(lp2741
I1
a(lp2742
F0.270833
aaI48
aa(lp2743
I1
a(lp2744
F0.3
aaI50
aa(lp2745
I1
a(lp2746
F0.228571
aaI35
aa(lp2747
I1
a(lp2748
F0.288462
aaI52
aaa(lp2749
g342
ag343
a(lp2750
I1
a(lp2751
F0.270833
aaI48
aa(lp2752
I1
a(lp2753
F0.298246
aaI57
aa(lp2754
I1
a(lp2755
F0.25
aaI52
aa(lp2756
I1
a(lp2757
F0.27451
aaI51
aa(lp2758
I1
a(lp2759
F0.25
aaI40
aa(lp2760
I1
a(lp2761
F0.282051
aaI39
aa(lp2762
I1
a(lp2763
F0.266667
aaI45
aa(lp2764
I1
a(lp2765
F0.288889
aaI45
aa(lp2766
I1
a(lp2767
F0.365854
aaI41
aa(lp2768
I1
a(lp2769
F0.425
aaI40
aa(lp2770
I1
a(lp2771
F0.363636
aaI44
aa(lp2772
I1
a(lp2773
F0.285714
aaI42
aaa(lp2774
g345
ag346
a(lp2775
I1
a(lp2776
F0.258065
aaI31
aa(lp2777
I1
a(lp2778
F0.25
aaI32
aa(lp2779
I1
a(lp2780
F0.258065
aaI31
aa(lp2781
I1
a(lp2782
F0.206897
aaI29
aa(lp2783
I1
a(lp2784
F0.230769
aaI26
aa(lp2785
I1
a(lp2786
F0.233333
aaI30
aa(lp2787
I1
a(lp2788
F0.222222
aaI36
aa(lp2789
I1
a(lp2790
F0.212121
aaI33
aa(lp2791
I1
a(lp2792
F0.322034
aaI59
aa(lp2793
I1
a(lp2794
F0.383333
aaI60
aa(lp2795
I1
a(lp2796
F0.492958
aaI71
aa(lp2797
I1
a(lp2798
F0.507246
aaI69
aa(lp2799
I1
a(lp2800
F0.54717
aaI53
aa(lp2801
I1
a(lp2802
F0.541667
aaI72
aa(lp2803
I1
a(lp2804
F0.573529
aaI68
aa(lp2805
I1
a(lp2806
F0.6
aaI70
aaa(lp2807
g362
ag363
a(lp2808
I1
a(lp2809
F0.514286
aaI35
aa(lp2810
I1
a(lp2811
F0.361702
aaI47
aa(lp2812
I1
a(lp2813
F0.222222
aaI45
aaa(lp2814
g365
ag366
aa(lp2815
g368
ag369
a(lp2816
I1
a(lp2817
F0.389831
aaI59
aa(lp2818
I1
a(lp2819
F0.324324
aaI37
aa(lp2820
I1
a(lp2821
F0.325
aaI40
aa(lp2822
I1
a(lp2823
F0.34
aaI50
aa(lp2824
I1
a(lp2825
F0.23913
aaI46
aaa(lp2826
g371
ag372
aa(lp2827
g374
ag375
a(lp2828
I1
a(lp2829
F0.751938
aaI129
aa(lp2830
I1
a(lp2831
F0.736842
aaI114
aa(lp2832
I1
a(lp2833
F0.717241
aaI145
aa(lp2834
I1
a(lp2835
F0.864078
aaI206
aa(lp2836
I1
a(lp2837
F0.227273
aaI44
aa(lp2838
I1
a(lp2839
F0.26087
aaI46
aa(lp2840
I1
a(lp2841
F0.244444
aaI45
aa(lp2842
I1
a(lp2843
F0.276596
aaI47
aa(lp2844
I1
a(lp2845
F0.408163
aaI49
aa(lp2846
I1
a(lp2847
F0.285714
aaI42
aa(lp2848
I1
a(lp2849
F0.340426
aaI47
aa(lp2850
I1
a(lp2851
F0.411765
aaI51
aa(lp2852
I1
a(lp2853
F0.333333
aaI45
aa(lp2854
I1
a(lp2855
F0.313725
aaI51
aa(lp2856
I1
a(lp2857
F0.25
aaI48
aa(lp2858
I1
a(lp2859
F0.322034
aaI59
aa(lp2860
I1
a(lp2861
F0.0
aaI24
aa(lp2862
I1
a(lp2863
F0.285714
aaI42
aa(lp2864
I1
a(lp2865
F0.209302
aaI43
aa(lp2866
I1
a(lp2867
F0.217391
aaI46
aa(lp2868
I1
a(lp2869
F0.348837
aaI43
aa(lp2870
I1
a(lp2871
F0.292683
aaI41
aa(lp2872
I1
a(lp2873
F0.27907
aaI43
aa(lp2874
I1
a(lp2875
F0.477612
aaI67
aa(lp2876
I1
a(lp2877
F0.289474
aaI38
aaa(lp2878
g399
ag400
aa(lp2879
g402
ag403
a(lp2880
I1
a(lp2881
F0.307692
aaI52
aa(lp2882
I1
a(lp2883
F0.238095
aaI42
aa(lp2884
I1
a(lp2885
F0.311475
aaI61
aa(lp2886
I1
a(lp2887
F0.355556
aaI45
aa(lp2888
I1
a(lp2889
F0.56338
aaI71
aaa(lp2890
g417
ag418
a(lp2891
I1
a(lp2892
F0.2
aaI45
aa(lp2893
I1
a(lp2894
F0.382979
aaI47
aa(lp2895
I1
a(lp2896
F0.272727
aaI33
aa(lp2897
I1
a(lp2898
F0.0
aaI30
aa(lp2899
I1
a(lp2900
F0.258065
aaI31
aaa(lp2901
g420
ag421
a(lp2902
I1
a(lp2903
F0.214286
aaI42
aa(lp2904
I1
a(lp2905
F0.315789
aaI38
aa(lp2906
I1
a(lp2907
F0.3
aaI40
aa(lp2908
I1
a(lp2909
F0.236842
aaI38
aa(lp2910
I1
a(lp2911
F0.210526
aaI38
aa(lp2912
I1
a(lp2913
F0.469697
aaI66
aa(lp2914
I1
a(lp2915
F0.322581
aaI31
aa(lp2916
I1
a(lp2917
F0.0
aaI43
aaa(lp2918
g423
ag424
aa(lp2919
g426
ag427
a(lp2920
I1
a(lp2921
F0.510638
aaI47
aa(lp2922
I1
a(lp2923
F0.461538
aaI52
aa(lp2924
I1
a(lp2925
F0.407407
aaI54
aaa(lp2926
g429
ag430
a(lp2927
I1
a(lp2928
F0.47541
aaI61
aa(lp2929
I1
a(lp2930
F0.423729
aaI59
aaa(lp2931
g432
ag433
a(lp2932
I1
a(lp2933
F0.234043
aaI47
aa(lp2934
I1
a(lp2935
F0.244444
aaI45
aa(lp2936
I1
a(lp2937
F0.272727
aaI44
aa(lp2938
I1
a(lp2939
F0.204545
aaI44
aa(lp2940
I1
a(lp2941
F0.303797
aaI79
aa(lp2942
I1
a(lp2943
F0.269231
aaI78
aa(lp2944
I1
a(lp2945
F0.354167
aaI48
aa(lp2946
I1
a(lp2947
F0.377049
aaI61
aa(lp2948
I1
a(lp2949
F0.0
aaI37
aa(lp2950
I1
a(lp2951
F0.358974
aaI39
aa(lp2952
I1
a(lp2953
F0.357143
aaI42
aa(lp2954
I1
a(lp2955
F0.358491
aaI53
aa(lp2956
I1
a(lp2957
F0.216216
aaI37
aaa(lp2958
g439
ag440
a(lp2959
I1
a(lp2960
F0.209677
aaI62
aa(lp2961
I1
a(lp2962
F0.234568
aaI81
aa(lp2963
I1
a(lp2964
F0.246914
aaI81
aa(lp2965
I1
a(lp2966
F0.228916
aaI83
aa(lp2967
I1
a(lp2968
F0.2
aaI40
aa(lp2969
I1
a(lp2970
F0.209302
aaI43
aa(lp2971
I1
a(lp2972
F0.21875
aaI32
aa(lp2973
I1
a(lp2974
F0.552239
aaI67
aa(lp2975
I1
a(lp2976
F0.255319
aaI47
aaa(lp2977
g460
ag461
a(lp2978
I1
a(lp2979
F0.344828
aaI58
aa(lp2980
I1
a(lp2981
F0.223684
aaI76
aa(lp2982
I1
a(lp2983
F0.413793
aaI87
aa(lp2984
I1
a(lp2985
F0.0
aaI11
aa(lp2986
I1
a(lp2987
F0.0
aaI29
aa(lp2988
I1
a(lp2989
F0.0
aaI23
aaa(lp2990
g463
ag464
a(lp2991
I1
a(lp2992
F0.411765
aaI34
aaa(lp2993
g466
ag467
aa(lp2994
g469
ag470
a(lp2995
I1
a(lp2996
F0.444444
aaI36
aa(lp2997
I1
a(lp2998
F0.333333
aaI51
aa(lp2999
I1
a(lp3000
F0.27451
aaI51
aa(lp3001
I1
a(lp3002
F0.240741
aaI54
aa(lp3003
I1
a(lp3004
F0.254902
aaI51
aa(lp3005
I1
a(lp3006
F0.25
aaI52
aa(lp3007
I1
a(lp3008
F0.226415
aaI53
aa(lp3009
I1
a(lp3010
F0.489796
aaI49
aa(lp3011
I1
a(lp3012
F0.470588
aaI51
aa(lp3013
I1
a(lp3014
F0.454545
aaI44
aa(lp3015
I1
a(lp3016
F0.27027
aaI37
aa(lp3017
I1
a(lp3018
F0.277778
aaI36
aa(lp3019
I1
a(lp3020
F0.2
aaI30
aa(lp3021
I1
a(lp3022
F0.22
aaI50
aa(lp3023
I1
a(lp3024
F0.254237
aaI59
aa(lp3025
I1
a(lp3026
F0.442308
aaI52
aa(lp3027
I1
a(lp3028
F0.469388
aaI49
aaa(lp3029
g472
ag473
aa(lp3030
g475
ag476
aa(lp3031
g478
ag479
a(lp3032
I1
a(lp3033
F0.212121
aaI33
aa(lp3034
I1
a(lp3035
F0.205882
aaI34
aa(lp3036
I1
a(lp3037
F0.212121
aaI33
aa(lp3038
I1
a(lp3039
F0.212121
aaI33
aa(lp3040
I1
a(lp3041
F0.305556
aaI36
aa(lp3042
I1
a(lp3043
F0.261905
aaI42
aa(lp3044
I1
a(lp3045
F0.243902
aaI41
aa(lp3046
I1
a(lp3047
F0.210526
aaI38
aa(lp3048
I1
a(lp3049
F0.2
aaI25
aa(lp3050
I1
a(lp3051
F0.255319
aaI47
aa(lp3052
I1
a(lp3053
F0.296296
aaI54
aa(lp3054
I1
a(lp3055
F0.298246
aaI57
aa(lp3056
I1
a(lp3057
F0.4625
aaI80
aaa(lp3058
g485
ag486
aa(lp3059
g488
ag489
aa(lp3060
g491
ag492
a(lp3061
I1
a(lp3062
F0.0
aaI4
aa(lp3063
I1
a(lp3064
F0.0
aaI4
aa(lp3065
I1
a(lp3066
F0.0
aaI2
aaa(lp3067
g494
ag495
aa(lp3068
g497
ag498
a(lp3069
I1
a(lp3070
F0.490196
aaI51
aa(lp3071
I1
a(lp3072
F0.481928
aaI83
aa(lp3073
I1
a(lp3074
F0.0
aaI22
aa(lp3075
I1
a(lp3076
F0.28125
aaI32
aaa(lp3077
g500
ag501
a(lp3078
I1
a(lp3079
F0.0
aaI25
aa(lp3080
I1
a(lp3081
F0.2
aaI30
aa(lp3082
I1
a(lp3083
F0.0
aaI47
aa(lp3084
I1
a(lp3085
F0.0
aaI27
aa(lp3086
I1
a(lp3087
F0.0
aaI25
aa(lp3088
I1
a(lp3089
F0.463768
aaI69
aa(lp3090
I1
a(lp3091
F0.402778
aaI72
aa(lp3092
I1
a(lp3093
F0.472973
aaI74
aa(lp3094
I1
a(lp3095
F0.403846
aaI52
aa(lp3096
I1
a(lp3097
F0.222222
aaI36
aa(lp3098
I1
a(lp3099
F0.30303
aaI33
aa(lp3100
I1
a(lp3101
F0.289474
aaI38
aa(lp3102
I1
a(lp3103
F0.264706
aaI34
aa(lp3104
I1
a(lp3105
F0.25
aaI60
aa(lp3106
I1
a(lp3107
F0.275862
aaI58
aa(lp3108
I1
a(lp3109
F0.283333
aaI60
aa(lp3110
I1
a(lp3111
F0.327273
aaI55
aa(lp3112
I1
a(lp3113
F0.436364
aaI55
aa(lp3114
I1
a(lp3115
F0.325
aaI40
aaa(lp3116
g509
ag510
aa(lp3117
g512
ag513
a(lp3118
I1
a(lp3119
F0.285714
aaI28
aa(lp3120
I1
a(lp3121
F0.263158
aaI38
aa(lp3122
I1
a(lp3123
F0.470588
aaI51
aa(lp3124
I1
a(lp3125
F0.470588
aaI51
aa(lp3126
I1
a(lp3127
F0.511628
aaI43
aa(lp3128
I1
a(lp3129
F0.444444
aaI72
aa(lp3130
I1
a(lp3131
F0.441176
aaI68
aa(lp3132
I1
a(lp3133
F0.411765
aaI68
aa(lp3134
I1
a(lp3135
F0.41791
aaI67
aa(lp3136
I1
a(lp3137
F0.434783
aaI69
aa(lp3138
I1
a(lp3139
F0.375
aaI56
aa(lp3140
I1
a(lp3141
F0.424242
aaI66
aa(lp3142
I1
a(lp3143
F0.412698
aaI63
aa(lp3144
I1
a(lp3145
F0.393939
aaI66
aa(lp3146
I1
a(lp3147
F0.255814
aaI43
aa(lp3148
I1
a(lp3149
F0.339623
aaI53
aa(lp3150
I1
a(lp3151
F0.423729
aaI59
aa(lp3152
I1
a(lp3153
F0.433962
aaI53
aa(lp3154
I1
a(lp3155
F0.454545
aaI55
aa(lp3156
I1
a(lp3157
F0.462963
aaI54
aa(lp3158
I1
a(lp3159
F0.464286
aaI56
aa(lp3160
I1
a(lp3161
F0.365385
aaI52
aa(lp3162
I1
a(lp3163
F0.0
aaI29
aa(lp3164
I1
a(lp3165
F0.333333
aaI24
aaa(lp3166
g519
ag520
aa(lp3167
g526
ag527
a(lp3168
I1
a(lp3169
F0.3
aaI30
aa(lp3170
I1
a(lp3171
F0.3125
aaI32
aa(lp3172
I1
a(lp3173
F0.368421
aaI38
aa(lp3174
I1
a(lp3175
F0.382353
aaI34
aaa(lp3176
g529
ag530
a(lp3177
I1
a(lp3178
F0.345455
aaI55
aaa(lp3179
g536
ag537
a(lp3180
I1
a(lp3181
F0.256757
aaI74
aa(lp3182
I1
a(lp3183
F0.25
aaI52
aa(lp3184
I1
a(lp3185
F0.207547
aaI53
aa(lp3186
I1
a(lp3187
F0.285714
aaI49
aa(lp3188
I1
a(lp3189
F0.0
aaI43
aa(lp3190
I1
a(lp3191
F0.0
aaI50
aa(lp3192
I1
a(lp3193
F0.0
aaI47
aa(lp3194
I1
a(lp3195
F0.0
aaI30
aa(lp3196
I1
a(lp3197
F0.244444
aaI45
aa(lp3198
I1
a(lp3199
F0.282609
aaI46
aa(lp3200
I1
a(lp3201
F0.0
aaI25
aa(lp3202
I1
a(lp3203
F0.0
aaI26
aa(lp3204
I1
a(lp3205
F0.362069
aaI58
aa(lp3206
I1
a(lp3207
F0.4
aaI50
aa(lp3208
I1
a(lp3209
F0.413043
aaI46
aa(lp3210
I1
a(lp3211
F0.302326
aaI43
aaa(lp3212
g539
ag540
aa(lp3213
g544
ag545
a(lp3214
I1
a(lp3215
F0.233333
aaI30
aa(lp3216
I1
a(lp3217
F0.306667
aaI75
aaa(lp3218
g547
ag548
a(lp3219
I1
a(lp3220
F0.313725
aaI51
aaa(lp3221
g550
ag551
aa(lp3222
g553
ag554
a(lp3223
I1
a(lp3224
F0.25
aaI52
aa(lp3225
I1
a(lp3226
F0.264151
aaI53
aa(lp3227
I1
a(lp3228
F0.297872
aaI47
aa(lp3229
I1
a(lp3230
F0.311111
aaI45
aa(lp3231
I1
a(lp3232
F0.206897
aaI29
aa(lp3233
I1
a(lp3234
F0.217391
aaI46
aa(lp3235
I1
a(lp3236
F0.372093
aaI43
aa(lp3237
I1
a(lp3238
F0.317073
aaI41
aa(lp3239
I1
a(lp3240
F0.25
aaI32
aaa(lp3241
g578
ag579
aa(lp3242
g585
ag586
a(lp3243
I1
a(lp3244
F0.537313
aaI67
aa(lp3245
I1
a(lp3246
F0.3
aaI40
aa(lp3247
I1
a(lp3248
F0.233333
aaI30
aa(lp3249
I1
a(lp3250
F0.259259
aaI27
aa(lp3251
I1
a(lp3252
F0.236842
aaI38
aa(lp3253
I1
a(lp3254
F0.358491
aaI53
aa(lp3255
I1
a(lp3256
F0.425532
aaI47
aa(lp3257
I1
a(lp3258
F0.22
aaI50
aa(lp3259
I1
a(lp3260
F0.205128
aaI39
aa(lp3261
I1
a(lp3262
F0.341463
aaI41
aa(lp3263
I1
a(lp3264
F0.340909
aaI44
aa(lp3265
I1
a(lp3266
F0.272727
aaI33
aa(lp3267
I1
a(lp3268
F0.225806
aaI31
aaa(lp3269
g588
ag589
aa(lp3270
g591
ag592
aa(lp3271
g598
ag599
a(lp3272
I1
a(lp3273
F0.326923
aaI52
aa(lp3274
I1
a(lp3275
F0.392857
aaI56
aa(lp3276
I1
a(lp3277
F0.389831
aaI59
aaa(lp3278
g623
ag624
aa(lp3279
g648
ag649
a(lp3280
I1
a(lp3281
F0.482143
aaI56
aa(lp3282
I1
a(lp3283
F0.480769
aaI52
aa(lp3284
I1
a(lp3285
F0.557143
aaI70
aa(lp3286
I1
a(lp3287
F0.534483
aaI58
aa(lp3288
I1
a(lp3289
F0.523256
aaI86
aa(lp3290
I1
a(lp3291
F0.56338
aaI71
aa(lp3292
I1
a(lp3293
F0.21519
aaI79
aa(lp3294
I1
a(lp3295
F0.202532
aaI79
aa(lp3296
I1
a(lp3297
F0.261538
aaI65
aa(lp3298
I1
a(lp3299
F0.253731
aaI67
aaa(lp3300
g653
ag654
aa(lp3301
g656
ag657
aa(lp3302
g661
ag662
a(lp3303
I1
a(lp3304
F0.285714
aaI49
aa(lp3305
I1
a(lp3306
F0.44898
aaI49
aa(lp3307
I1
a(lp3308
F0.522388
aaI67
aa(lp3309
I1
a(lp3310
F0.587302
aaI63
aa(lp3311
I1
a(lp3312
F0.491803
aaI61
aa(lp3313
I1
a(lp3314
F0.349206
aaI63
aa(lp3315
I1
a(lp3316
F0.396226
aaI53
aa(lp3317
I1
a(lp3318
F0.35
aaI60
aaa(lp3319
g664
ag665
a(lp3320
I1
a(lp3321
F0.0
aaI2
aa(lp3322
I1
a(lp3323
F0.0
aaI7
aa(lp3324
I1
a(lp3325
F0.0
aaI6
aa(lp3326
I1
a(lp3327
F0.0
aaI6
aa(lp3328
I1
a(lp3329
F0.0
aaI9
aa(lp3330
I1
a(lp3331
F0.0
aaI11
aa(lp3332
I1
a(lp3333
F0.0
aaI10
aa(lp3334
I1
a(lp3335
F0.0
aaI10
aa(lp3336
I1
a(lp3337
F0.0
aaI11
aa(lp3338
I1
a(lp3339
F0.0
aaI10
aa(lp3340
I1
a(lp3341
F0.0
aaI10
aa(lp3342
I1
a(lp3343
F0.0
aaI49
aa(lp3344
I1
a(lp3345
F0.0
aaI22
aa(lp3346
I1
a(lp3347
F0.0
aaI11
aa(lp3348
I1
a(lp3349
F0.0
aaI9
aa(lp3350
I1
a(lp3351
F0.666667
aaI3
aa(lp3352
I1
a(lp3353
F0.0
aaI5
aa(lp3354
I1
a(lp3355
F0.0
aaI6
aa(lp3356
I1
a(lp3357
F0.0
aaI6
aa(lp3358
I1
a(lp3359
F0.0
aaI7
aaa(lp3360
g667
ag668
aa(lp3361
g672
ag673
a(lp3362
I1
a(lp3363
F0.345455
aaI55
aa(lp3364
I1
a(lp3365
F0.344262
aaI61
aa(lp3366
I1
a(lp3367
F0.411765
aaI34
aa(lp3368
I1
a(lp3369
F0.419355
aaI31
aaa(lp3370
g675
ag676
a(lp3371
I1
a(lp3372
F0.228571
aaI35
aa(lp3373
I1
a(lp3374
F0.235294
aaI34
aa(lp3375
I1
a(lp3376
F0.258065
aaI31
aa(lp3377
I1
a(lp3378
F0.434783
aaI46
aa(lp3379
I1
a(lp3380
F0.242424
aaI33
aa(lp3381
I1
a(lp3382
F0.30303
aaI33
aa(lp3383
I1
a(lp3384
F0.434783
aaI46
aa(lp3385
I1
a(lp3386
F0.511111
aaI45
aa(lp3387
I1
a(lp3388
F0.0
aaI29
aa(lp3389
I1
a(lp3390
F0.0
aaI20
aa(lp3391
I1
a(lp3392
F0.0
aaI26
aa(lp3393
I1
a(lp3394
F0.0
aaI31
aa(lp3395
I1
a(lp3396
F0.468085
aaI47
aa(lp3397
I1
a(lp3398
F0.402778
aaI72
aa(lp3399
I1
a(lp3400
F0.45614
aaI57
aa(lp3401
I1
a(lp3402
F0.360656
aaI61
aa(lp3403
I1
a(lp3404
F0.283333
aaI60
aa(lp3405
I1
a(lp3406
F0.294118
aaI51
aaa(lp3407
g680
ag681
a(lp3408
I1
a(lp3409
F0.350877
aaI57
aa(lp3410
I1
a(lp3411
F0.321429
aaI56
aa(lp3412
I1
a(lp3413
F0.320755
aaI53
aa(lp3414
I1
a(lp3415
F0.367347
aaI49
aa(lp3416
I1
a(lp3417
F0.314286
aaI35
aa(lp3418
I1
a(lp3419
F0.206186
aaI97
aa(lp3420
I1
a(lp3421
F0.277778
aaI36
aa(lp3422
I1
a(lp3423
F0.404255
aaI47
aa(lp3424
I1
a(lp3425
F0.375
aaI48
aa(lp3426
I1
a(lp3427
F0.347826
aaI46
aa(lp3428
I1
a(lp3429
F0.326087
aaI46
aa(lp3430
I1
a(lp3431
F0.377778
aaI45
aa(lp3432
I1
a(lp3433
F0.2
aaI15
aa(lp3434
I1
a(lp3435
F0.0
aaI17
aa(lp3436
I1
a(lp3437
F0.0
aaI16
aa(lp3438
I1
a(lp3439
F0.0
aaI16
aa(lp3440
I1
a(lp3441
F0.0
aaI16
aa(lp3442
I1
a(lp3443
F0.0
aaI12
aa(lp3444
I1
a(lp3445
F0.34
aaI50
aa(lp3446
I1
a(lp3447
F0.276596
aaI47
aa(lp3448
I1
a(lp3449
F0.293103
aaI58
aa(lp3450
I1
a(lp3451
F0.275362
aaI69
aa(lp3452
I1
a(lp3453
F0.302326
aaI43
aa(lp3454
I1
a(lp3455
F0.216216
aaI37
aa(lp3456
I1
a(lp3457
F0.219512
aaI41
aa(lp3458
I1
a(lp3459
F0.253968
aaI63
aa(lp3460
I1
a(lp3461
F0.52381
aaI42
aa(lp3462
I1
a(lp3463
F0.48
aaI50
aa(lp3464
I1
a(lp3465
F0.537313
aaI67
aa(lp3466
I1
a(lp3467
F0.530612
aaI49
aa(lp3468
I1
a(lp3469
F0.0
aaI36
aa(lp3470
I1
a(lp3471
F0.553191
aaI47
aa(lp3472
I1
a(lp3473
F0.439024
aaI41
aa(lp3474
I1
a(lp3475
F0.369565
aaI46
aa(lp3476
I1
a(lp3477
F0.45
aaI40
aaa(lp3478
g701
ag702
a(lp3479
I1
a(lp3480
F0.372549
aaI51
aa(lp3481
I1
a(lp3482
F0.27907
aaI43
aa(lp3483
I1
a(lp3484
F0.333333
aaI48
aa(lp3485
I1
a(lp3486
F0.382979
aaI47
aa(lp3487
I1
a(lp3488
F0.431034
aaI58
aaa(lp3489
g704
ag705
a(lp3490
I1
a(lp3491
F0.304348
aaI46
aa(lp3492
I1
a(lp3493
F0.288462
aaI52
aa(lp3494
I1
a(lp3495
F0.301887
aaI53
aa(lp3496
I1
a(lp3497
F0.225
aaI40
aa(lp3498
I1
a(lp3499
F0.205128
aaI39
aa(lp3500
I1
a(lp3501
F0.222222
aaI36
aa(lp3502
I1
a(lp3503
F0.282051
aaI39
aa(lp3504
I1
a(lp3505
F0.282051
aaI39
aa(lp3506
I1
a(lp3507
F0.358974
aaI39
aa(lp3508
I1
a(lp3509
F0.352941
aaI34
aa(lp3510
I1
a(lp3511
F0.34375
aaI32
aa(lp3512
I1
a(lp3513
F0.306122
aaI49
aa(lp3514
I1
a(lp3515
F0.0
aaI863
aaa(lp3516
g707
ag708
aa(lp3517
g728
ag729
aa(lp3518
g731
ag732
a(lp3519
I1
a(lp3520
F0.2
aaI35
aa(lp3521
I1
a(lp3522
F0.297297
aaI37
aa(lp3523
I1
a(lp3524
F0.515625
aaI64
aaa(lp3525
g738
ag739
aa(lp3526
g741
ag742
a(lp3527
I1
a(lp3528
F0.275
aaI40
aa(lp3529
I1
a(lp3530
F0.25
aaI28
aa(lp3531
I1
a(lp3532
F0.225806
aaI31
aa(lp3533
I1
a(lp3534
F0.27907
aaI43
aa(lp3535
I1
a(lp3536
F0.263158
aaI38
aa(lp3537
I1
a(lp3538
F0.271186
aaI59
aa(lp3539
I1
a(lp3540
F0.26
aaI50
aa(lp3541
I1
a(lp3542
F0.288462
aaI52
aa(lp3543
I1
a(lp3544
F0.2
aaI55
aa(lp3545
I1
a(lp3546
F0.333333
aaI57
aaa(lp3547
g752
ag753
a(lp3548
I1
a(lp3549
F0.405797
aaI69
aa(lp3550
I1
a(lp3551
F0.416667
aaI72
aa(lp3552
I1
a(lp3553
F0.421053
aaI76
aa(lp3554
I1
a(lp3555
F0.442623
aaI61
aa(lp3556
I1
a(lp3557
F0.425926
aaI54
aa(lp3558
I1
a(lp3559
F0.395833
aaI48
aa(lp3560
I1
a(lp3561
F0.54386
aaI57
aa(lp3562
I1
a(lp3563
F0.418605
aaI43
aa(lp3564
I1
a(lp3565
F0.342105
aaI38
aaa(lp3566
g763
ag764
a(lp3567
I1
a(lp3568
F0.204082
aaI49
aa(lp3569
I1
a(lp3570
F0.272727
aaI44
aa(lp3571
I1
a(lp3572
F0.266667
aaI45
aa(lp3573
I1
a(lp3574
F0.345455
aaI55
aa(lp3575
I1
a(lp3576
F0.482759
aaI58
aa(lp3577
I1
a(lp3578
F0.404255
aaI47
aa(lp3579
I1
a(lp3580
F0.376812
aaI69
aa(lp3581
I1
a(lp3582
F0.333333
aaI63
aa(lp3583
I1
a(lp3584
F0.439394
aaI66
aa(lp3585
I1
a(lp3586
F0.467742
aaI62
aa(lp3587
I1
a(lp3588
F0.328125
aaI64
aaa(lp3589
g766
ag767
a(lp3590
I1
a(lp3591
F0.307692
aaI52
aa(lp3592
I1
a(lp3593
F0.530303
aaI66
aa(lp3594
I1
a(lp3595
F0.272727
aaI44
aa(lp3596
I1
a(lp3597
F0.288889
aaI45
aa(lp3598
I1
a(lp3599
F0.307692
aaI52
aa(lp3600
I1
a(lp3601
F0.327273
aaI55
aa(lp3602
I1
a(lp3603
F0.333333
aaI54
aa(lp3604
I1
a(lp3605
F0.47541
aaI61
aa(lp3606
I1
a(lp3607
F0.210526
aaI38
aa(lp3608
I1
a(lp3609
F0.277778
aaI36
aa(lp3610
I1
a(lp3611
F0.243243
aaI37
aa(lp3612
I1
a(lp3613
F0.292683
aaI41
aa(lp3614
I1
a(lp3615
F0.230769
aaI39
aa(lp3616
I1
a(lp3617
F0.326087
aaI46
aa(lp3618
I1
a(lp3619
F0.215686
aaI51
aaa(lp3620
g771
ag772
aa(lp3621
g774
ag775
a(lp3622
I1
a(lp3623
F0.26
aaI50
aa(lp3624
I1
a(lp3625
F0.320755
aaI53
aa(lp3626
I1
a(lp3627
F0.34
aaI50
aa(lp3628
I1
a(lp3629
F0.255814
aaI43
aa(lp3630
I1
a(lp3631
F0.395833
aaI48
aa(lp3632
I1
a(lp3633
F0.391304
aaI46
aaa(lp3634
g777
ag778
aa(lp3635
g780
ag781
a(lp3636
I1
a(lp3637
F0.232558
aaI43
aa(lp3638
I1
a(lp3639
F0.27027
aaI37
aa(lp3640
I1
a(lp3641
F0.275
aaI40
aa(lp3642
I1
a(lp3643
F0.272727
aaI55
aaa(lp3644
g785
ag786
aa(lp3645
g838
ag839
a(lp3646
I1
a(lp3647
F0.37037
aaI54
aaa(lp3648
g841
ag842
aa(lp3649
g846
ag847
aa(lp3650
g849
ag850
aa(lp3651
g852
ag853
aa(lp3652
g863
ag864
a(lp3653
I1
a(lp3654
F0.326087
aaI46
aa(lp3655
I1
a(lp3656
F0.27451
aaI51
aa(lp3657
I1
a(lp3658
F0.0
aaI41
aa(lp3659
I1
a(lp3660
F0.0
aaI42
aa(lp3661
I1
a(lp3662
F0.0
aaI38
aa(lp3663
I1
a(lp3664
F0.0
aaI42
aa(lp3665
I1
a(lp3666
F0.0
aaI44
aa(lp3667
I1
a(lp3668
F0.0
aaI39
aa(lp3669
I1
a(lp3670
F0.222222
aaI45
aa(lp3671
I1
a(lp3672
F0.222222
aaI45
aa(lp3673
I1
a(lp3674
F0.326087
aaI46
aa(lp3675
I1
a(lp3676
F0.435897
aaI39
aa(lp3677
I1
a(lp3678
F0.361111
aaI36
aa(lp3679
I1
a(lp3680
F0.212121
aaI33
aa(lp3681
I1
a(lp3682
F0.290323
aaI31
aa(lp3683
I1
a(lp3684
F0.297297
aaI37
aa(lp3685
I1
a(lp3686
F0.459459
aaI37
aa(lp3687
I1
a(lp3688
F0.428571
aaI42
aaa(lp3689
g870
ag871
a(lp3690
I1
a(lp3691
F0.517647
aaI85
aaa(lp3692
g875
ag876
aa(lp3693
g878
ag879
a(lp3694
I1
a(lp3695
F0.395349
aaI43
aa(lp3696
I1
a(lp3697
F0.269231
aaI52
aa(lp3698
I1
a(lp3699
F0.275
aaI40
aa(lp3700
I1
a(lp3701
F0.314286
aaI35
aaa(lp3702
g883
ag884
a(lp3703
I1
a(lp3704
F0.56
aaI25
aa(lp3705
I1
a(lp3706
F0.518519
aaI27
aa(lp3707
I1
a(lp3708
F0.5
aaI32
aa(lp3709
I1
a(lp3710
F0.5
aaI34
aa(lp3711
I1
a(lp3712
F0.485714
aaI35
aa(lp3713
I1
a(lp3714
F0.5
aaI30
aa(lp3715
I1
a(lp3716
F0.588235
aaI34
aa(lp3717
I1
a(lp3718
F0.540541
aaI37
aa(lp3719
I1
a(lp3720
F0.534884
aaI43
aa(lp3721
I1
a(lp3722
F0.511628
aaI43
aa(lp3723
I1
a(lp3724
F0.454545
aaI44
aa(lp3725
I1
a(lp3726
F0.424242
aaI33
aa(lp3727
I1
a(lp3728
F0.242424
aaI33
aa(lp3729
I1
a(lp3730
F0.243243
aaI37
aa(lp3731
I1
a(lp3732
F0.305556
aaI36
aa(lp3733
I1
a(lp3734
F0.257143
aaI35
aaa(lp3735
g886
ag887
aa(lp3736
g891
ag892
a(lp3737
I1
a(lp3738
F0.311111
aaI45
aa(lp3739
I1
a(lp3740
F0.24
aaI50
aa(lp3741
I1
a(lp3742
F0.32
aaI50
aa(lp3743
I1
a(lp3744
F0.257143
aaI35
aa(lp3745
I1
a(lp3746
F0.301887
aaI53
aa(lp3747
I1
a(lp3748
F0.333333
aaI39
aa(lp3749
I1
a(lp3750
F0.257143
aaI35
aa(lp3751
I1
a(lp3752
F0.409091
aaI44
aa(lp3753
I1
a(lp3754
F0.434783
aaI46
aa(lp3755
I1
a(lp3756
F0.577778
aaI45
aa(lp3757
I1
a(lp3758
F0.413043
aaI46
aa(lp3759
I1
a(lp3760
F0.394737
aaI38
aa(lp3761
I1
a(lp3762
F0.388889
aaI36
aa(lp3763
I1
a(lp3764
F0.0
aaI21
aa(lp3765
I1
a(lp3766
F0.0
aaI24
aa(lp3767
I1
a(lp3768
F0.0
aaI24
aaa(lp3769
g896
ag897
a(lp3770
I1
a(lp3771
F0.3
aaI50
aa(lp3772
I1
a(lp3773
F0.34
aaI50
aa(lp3774
I1
a(lp3775
F0.288136
aaI59
aa(lp3776
I1
a(lp3777
F0.235294
aaI34
aa(lp3778
I1
a(lp3779
F0.363636
aaI66
aa(lp3780
I1
a(lp3781
F0.416667
aaI60
aa(lp3782
I1
a(lp3783
F0.33871
aaI62
aa(lp3784
I1
a(lp3785
F0.275862
aaI29
aa(lp3786
I1
a(lp3787
F0.243243
aaI37
aa(lp3788
I1
a(lp3789
F0.21875
aaI32
aa(lp3790
I1
a(lp3791
F0.259259
aaI27
aa(lp3792
I1
a(lp3793
F0.321429
aaI28
aaa(lp3794
g905
ag906
a(lp3795
I1
a(lp3796
F0.0
aaI55
aaa(lp3797
g908
ag909
a(lp3798
I1
a(lp3799
F0.583333
aaI36
aa(lp3800
I1
a(lp3801
F0.6
aaI35
aa(lp3802
I1
a(lp3803
F0.621622
aaI37
aa(lp3804
I1
a(lp3805
F0.432432
aaI37
aaa(lp3806
g911
ag912
aa(lp3807
g914
ag915
aa(lp3808
g917
ag918
aa(lp3809
g920
ag921
a(lp3810
I1
a(lp3811
F0.210526
aaI38
aa(lp3812
I1
a(lp3813
F0.254237
aaI59
aa(lp3814
I1
a(lp3815
F0.210526
aaI57
aa(lp3816
I1
a(lp3817
F0.245902
aaI61
aa(lp3818
I1
a(lp3819
F0.241935
aaI62
aaa(lp3820
g929
ag930
a(lp3821
I1
a(lp3822
F0.208333
aaI48
aa(lp3823
I1
a(lp3824
F0.468085
aaI47
aaa(lp3825
g938
ag939
a(lp3826
I1
a(lp3827
F0.245614
aaI57
aa(lp3828
I1
a(lp3829
F0.395349
aaI43
aa(lp3830
I1
a(lp3831
F0.268293
aaI41
aa(lp3832
I1
a(lp3833
F0.227273
aaI44
aa(lp3834
I1
a(lp3835
F0.343284
aaI67
aa(lp3836
I1
a(lp3837
F0.261538
aaI65
aa(lp3838
I1
a(lp3839
F0.439024
aaI41
aaa(lp3840
g945
ag946
aa(lp3841
g952
ag953
aa(lp3842
g955
ag956
a(lp3843
I1
a(lp3844
F0.384615
aaI52
aa(lp3845
I1
a(lp3846
F0.40625
aaI64
aa(lp3847
I1
a(lp3848
F0.369565
aaI46
aa(lp3849
I1
a(lp3850
F0.26087
aaI46
aa(lp3851
I1
a(lp3852
F0.435484
aaI62
aa(lp3853
I1
a(lp3854
F0.428571
aaI63
aa(lp3855
I1
a(lp3856
F0.410714
aaI56
aa(lp3857
I1
a(lp3858
F0.41791
aaI67
aa(lp3859
I1
a(lp3860
F0.424242
aaI66
aa(lp3861
I1
a(lp3862
F0.407407
aaI54
aa(lp3863
I1
a(lp3864
F0.415094
aaI53
aa(lp3865
I1
a(lp3866
F0.333333
aaI48
aa(lp3867
I1
a(lp3868
F0.354167
aaI48
aa(lp3869
I1
a(lp3870
F0.467742
aaI62
aa(lp3871
I1
a(lp3872
F0.45098
aaI51
aa(lp3873
I1
a(lp3874
F0.5
aaI66
aa(lp3875
I1
a(lp3876
F0.25
aaI36
aaa(lp3877
g1006
ag1007
a(lp3878
I1
a(lp3879
F0.243243
aaI37
aa(lp3880
I1
a(lp3881
F0.272727
aaI33
aa(lp3882
I1
a(lp3883
F0.272727
aaI44
aa(lp3884
I1
a(lp3885
F0.304348
aaI46
aa(lp3886
I1
a(lp3887
F0.333333
aaI60
aa(lp3888
I1
a(lp3889
F0.293103
aaI58
aa(lp3890
I1
a(lp3891
F0.275862
aaI29
aa(lp3892
I1
a(lp3893
F0.214286
aaI28
aaa(lp3894
g1011
ag1012
a(lp3895
I1
a(lp3896
F0.315217
aaI92
aa(lp3897
I1
a(lp3898
F0.296296
aaI27
aaa(lp3899
g1014
ag1015
aa(lp3900
g1017
ag1018
aa(lp3901
g1020
ag1021
aa(lp3902
g1023
ag1024
a(lp3903
I1
a(lp3904
F0.0
aaI30
aa(lp3905
I1
a(lp3906
F0.0
aaI6
aa(lp3907
I1
a(lp3908
F0.0
aaI6
aa(lp3909
I1
a(lp3910
F0.0
aaI8
aa(lp3911
I1
a(lp3912
F0.0
aaI4
aa(lp3913
I1
a(lp3914
F0.0
aaI4
aa(lp3915
I1
a(lp3916
F0.0
aaI15
aa(lp3917
I1
a(lp3918
F0.0
aaI10
aa(lp3919
I1
a(lp3920
F0.0
aaI10
aa(lp3921
I1
a(lp3922
F0.0
aaI14
aa(lp3923
I1
a(lp3924
F0.0
aaI17
aa(lp3925
I1
a(lp3926
F0.0
aaI18
aa(lp3927
I1
a(lp3928
F0.0
aaI19
aa(lp3929
I1
a(lp3930
F0.0
aaI18
aa(lp3931
I1
a(lp3932
F0.0
aaI14
aa(lp3933
I1
a(lp3934
F0.0
aaI5
aa(lp3935
I1
a(lp3936
F0.0
aaI3
aa(lp3937
I1
a(lp3938
F0.0
aaI3
aa(lp3939
I1
a(lp3940
F0.0
aaI55
aa(lp3941
I1
a(lp3942
F0.0
aaI56
aa(lp3943
I1
a(lp3944
F0.0
aaI43
aa(lp3945
I1
a(lp3946
F0.0
aaI34
aa(lp3947
I1
a(lp3948
F0.0
aaI5
aa(lp3949
I1
a(lp3950
F0.0
aaI2
aa(lp3951
I1
a(lp3952
F0.0
aaI2
aa(lp3953
I1
a(lp3954
F0.0
aaI4
aa(lp3955
I1
a(lp3956
F0.0
aaI3
aa(lp3957
I1
a(lp3958
F0.0
aaI3
aa(lp3959
I1
a(lp3960
F0.0
aaI3
aa(lp3961
I1
a(lp3962
F0.0
aaI3
aa(lp3963
I1
a(lp3964
F0.0
aaI2
aa(lp3965
I1
a(lp3966
F0.0
aaI2
aa(lp3967
I1
a(lp3968
F0.0
aaI2
aa(lp3969
I1
a(lp3970
F0.0
aaI2
aa(lp3971
I1
a(lp3972
F0.0
aaI2
aa(lp3973
I1
a(lp3974
F0.0
aaI2
aa(lp3975
I1
a(lp3976
F0.0
aaI2
aaa(lp3977
g1036
ag1037
aa(lp3978
g1039
ag1040
a(lp3979
I1
a(lp3980
F0.0
aaI60
aa(lp3981
I1
a(lp3982
F0.0
aaI9
aa(lp3983
I1
a(lp3984
F0.0
aaI9
aa(lp3985
I1
a(lp3986
F0.0
aaI61
aa(lp3987
I1
a(lp3988
F0.0
aaI40
aa(lp3989
I1
a(lp3990
F0.0
aaI44
aa(lp3991
I1
a(lp3992
F0.0
aaI42
aa(lp3993
I1
a(lp3994
F0.0
aaI3
aa(lp3995
I1
a(lp3996
F0.0
aaI8
aaa(lp3997
g1046
ag1047
a(lp3998
I1
a(lp3999
F0.509434
aaI53
aa(lp4000
I1
a(lp4001
F0.491803
aaI61
aaa(lp4002
g1051
ag1052
aa(lp4003
g1054
ag1055
aa(lp4004
g1057
ag1058
aa(lp4005
g1060
ag1061
a(lp4006
I1
a(lp4007
F0.483871
aaI62
aa(lp4008
I1
a(lp4009
F0.271186
aaI59
aa(lp4010
I1
a(lp4011
F0.352941
aaI51
aa(lp4012
I1
a(lp4013
F0.366667
aaI60
aa(lp4014
I1
a(lp4015
F0.327273
aaI55
aa(lp4016
I1
a(lp4017
F0.333333
aaI57
aa(lp4018
I1
a(lp4019
F0.363636
aaI44
aaa(lp4020
g1065
ag1066
aa(lp4021
g1068
ag1069
a(lp4022
I1
a(lp4023
F0.214286
aaI42
aa(lp4024
I1
a(lp4025
F0.230769
aaI39
aa(lp4026
I1
a(lp4027
F0.277108
aaI83
aa(lp4028
I1
a(lp4029
F0.333333
aaI60
aaa(lp4030
g1071
ag1072
a(lp4031
I1
a(lp4032
F0.355932
aaI59
aa(lp4033
I1
a(lp4034
F0.0
aaI45
aa(lp4035
I1
a(lp4036
F0.310345
aaI58
aa(lp4037
I1
a(lp4038
F0.0
aaI17
aa(lp4039
I1
a(lp4040
F0.315789
aaI38
aaa(lp4041
g1076
ag1077
aa(lp4042
g1079
ag1080
aa(lp4043
g1082
ag1083
aa(lp4044
g1085
ag1086
a(lp4045
I1
a(lp4046
F0.473684
aaI57
aa(lp4047
I1
a(lp4048
F0.320755
aaI53
aa(lp4049
I1
a(lp4050
F0.266667
aaI15
aaa(lp4051
g1092
ag1093
aa(lp4052
g1101
ag1102
a(lp4053
I1
a(lp4054
F0.0
aaI39
aa(lp4055
I1
a(lp4056
F0.0
aaI2
aa(lp4057
I1
a(lp4058
F0.0
aaI2
aa(lp4059
I1
a(lp4060
F0.0
aaI3
aaa(lp4061
g1106
ag1107
aa(lp4062
g1109
ag1110
a(lp4063
I1
a(lp4064
F0.396226
aaI53
aa(lp4065
I1
a(lp4066
F0.25
aaI52
aa(lp4067
I1
a(lp4068
F0.226415
aaI53
aa(lp4069
I1
a(lp4070
F0.211538
aaI52
aaa(lp4071
g1112
ag1113
a(lp4072
I1
a(lp4073
F0.372093
aaI43
aa(lp4074
I1
a(lp4075
F0.478261
aaI46
aa(lp4076
I1
a(lp4077
F0.703704
aaI54
aa(lp4078
I1
a(lp4079
F0.414634
aaI41
aa(lp4080
I1
a(lp4081
F0.333333
aaI33
aa(lp4082
I1
a(lp4083
F0.375
aaI48
aa(lp4084
I1
a(lp4085
F0.351852
aaI54
aa(lp4086
I1
a(lp4087
F0.259259
aaI54
aa(lp4088
I1
a(lp4089
F0.227273
aaI44
aa(lp4090
I1
a(lp4091
F0.222222
aaI36
aa(lp4092
I1
a(lp4093
F0.2
aaI40
aa(lp4094
I1
a(lp4095
F0.210526
aaI38
aa(lp4096
I1
a(lp4097
F0.216216
aaI37
aa(lp4098
I1
a(lp4099
F0.22
aaI50
aa(lp4100
I1
a(lp4101
F0.258621
aaI58
aa(lp4102
I1
a(lp4103
F0.270833
aaI48
aa(lp4104
I1
a(lp4105
F0.309091
aaI55
aa(lp4106
I1
a(lp4107
F0.255814
aaI43
aaa(lp4108
g1117
ag1118
aa(lp4109
g1120
ag1121
aa(lp4110
g1123
ag1124
a(lp4111
I1
a(lp4112
F0.239583
aaI96
aa(lp4113
I1
a(lp4114
F0.219512
aaI41
aa(lp4115
I1
a(lp4116
F0.30303
aaI33
aaa(lp4117
g1130
ag1131
aa(lp4118
g1133
ag1134
a(lp4119
I1
a(lp4120
F0.485714
aaI35
aa(lp4121
I1
a(lp4122
F0.405405
aaI37
aa(lp4123
I1
a(lp4124
F0.475
aaI40
aaa(lp4125
g1136
ag1137
aa(lp4126
g1141
ag1142
aa(lp4127
g1144
ag1145
aa(lp4128
g1149
ag1150
a(lp4129
I1
a(lp4130
F0.0
aaI24
aa(lp4131
I1
a(lp4132
F0.230769
aaI39
aa(lp4133
I1
a(lp4134
F0.0
aaI42
aa(lp4135
I1
a(lp4136
F0.511111
aaI45
aa(lp4137
I1
a(lp4138
F0.550725
aaI69
aa(lp4139
I1
a(lp4140
F0.52381
aaI63
aa(lp4141
I1
a(lp4142
F0.442623
aaI61
aa(lp4143
I1
a(lp4144
F0.225
aaI40
aa(lp4145
I1
a(lp4146
F0.261905
aaI42
aa(lp4147
I1
a(lp4148
F0.222222
aaI45
aa(lp4149
I1
a(lp4150
F0.323529
aaI34
aa(lp4151
I1
a(lp4152
F0.423729
aaI59
aa(lp4153
I1
a(lp4154
F0.612245
aaI49
aaa(lp4155
g1156
ag1157
a(lp4156
I1
a(lp4157
F0.357143
aaI42
aaa(lp4158
g1161
ag1162
a(lp4159
I1
a(lp4160
F0.243243
aaI37
aa(lp4161
I1
a(lp4162
F0.297297
aaI37
aa(lp4163
I1
a(lp4164
F0.314286
aaI35
aa(lp4165
I1
a(lp4166
F0.3
aaI30
aa(lp4167
I1
a(lp4168
F0.0
aaI36
aa(lp4169
I1
a(lp4170
F0.275
aaI40
aa(lp4171
I1
a(lp4172
F0.297297
aaI37
aa(lp4173
I1
a(lp4174
F0.289474
aaI38
aa(lp4175
I1
a(lp4176
F0.243902
aaI41
aa(lp4177
I1
a(lp4178
F0.232558
aaI43
aaa(lp4179
g1166
ag1167
a(lp4180
I1
a(lp4181
F0.465116
aaI43
aa(lp4182
I1
a(lp4183
F0.2
aaI45
aa(lp4184
I1
a(lp4185
F0.392857
aaI56
aa(lp4186
I1
a(lp4187
F0.377049
aaI61
aa(lp4188
I1
a(lp4189
F0.25
aaI56
aa(lp4190
I1
a(lp4191
F0.254545
aaI55
aa(lp4192
I1
a(lp4193
F0.230769
aaI52
aa(lp4194
I1
a(lp4195
F0.258065
aaI31
aa(lp4196
I1
a(lp4197
F0.257143
aaI35
aa(lp4198
I1
a(lp4199
F0.257143
aaI35
aa(lp4200
I1
a(lp4201
F0.2
aaI45
aa(lp4202
I1
a(lp4203
F0.515152
aaI99
aa(lp4204
I1
a(lp4205
F0.25
aaI48
aa(lp4206
I1
a(lp4207
F0.304348
aaI46
aa(lp4208
I1
a(lp4209
F0.307692
aaI39
aa(lp4210
I1
a(lp4211
F0.333333
aaI36
aa(lp4212
I1
a(lp4213
F0.302326
aaI43
aa(lp4214
I1
a(lp4215
F0.261905
aaI42
aa(lp4216
I1
a(lp4217
F0.342857
aaI35
aa(lp4218
I1
a(lp4219
F0.214286
aaI28
aa(lp4220
I1
a(lp4221
F0.2
aaI25
aa(lp4222
I1
a(lp4223
F0.25
aaI32
aa(lp4224
I1
a(lp4225
F0.264706
aaI34
aa(lp4226
I1
a(lp4227
F0.3
aaI40
aa(lp4228
I1
a(lp4229
F0.27907
aaI43
aa(lp4230
I1
a(lp4231
F0.333333
aaI42
aa(lp4232
I1
a(lp4233
F0.584615
aaI65
aa(lp4234
I1
a(lp4235
F0.350877
aaI57
aaa(lp4236
g1169
ag1170
aa(lp4237
g1172
ag1173
a(lp4238
I1
a(lp4239
F0.0
aaI33
aa(lp4240
I1
a(lp4241
F0.0
aaI40
aa(lp4242
I1
a(lp4243
F0.0
aaI35
aa(lp4244
I1
a(lp4245
F0.0
aaI33
aa(lp4246
I1
a(lp4247
F0.0
aaI31
aaa(lp4248
g1175
ag1176
a(lp4249
I1
a(lp4250
F0.0
aaI26
aa(lp4251
I1
a(lp4252
F0.0
aaI40
aa(lp4253
I1
a(lp4254
F0.0
aaI8
aa(lp4255
I1
a(lp4256
F0.0
aaI8
aa(lp4257
I1
a(lp4258
F0.0
aaI52
aa(lp4259
I1
a(lp4260
F0.0
aaI25
aa(lp4261
I1
a(lp4262
F0.0
aaI27
aa(lp4263
I1
a(lp4264
F0.0
aaI17
aa(lp4265
I1
a(lp4266
F0.0
aaI19
aa(lp4267
I1
a(lp4268
F0.0
aaI18
aa(lp4269
I1
a(lp4270
F0.0
aaI4
aa(lp4271
I1
a(lp4272
F0.0
aaI19
aa(lp4273
I1
a(lp4274
F0.0
aaI60
aa(lp4275
I1
a(lp4276
F0.0
aaI10
aa(lp4277
I1
a(lp4278
F0.0
aaI4
aa(lp4279
I1
a(lp4280
F0.0
aaI4
aa(lp4281
I1
a(lp4282
F0.0
aaI40
aa(lp4283
I1
a(lp4284
F0.0
aaI28
aa(lp4285
I1
a(lp4286
F0.0
aaI31
aa(lp4287
I1
a(lp4288
F0.0
aaI59
aa(lp4289
I1
a(lp4290
F0.0
aaI56
aa(lp4291
I1
a(lp4292
F0.385714
aaI70
aa(lp4293
I1
a(lp4294
F0.0
aaI31
aa(lp4295
I1
a(lp4296
F0.0
aaI16
aa(lp4297
I1
a(lp4298
F0.0
aaI12
aa(lp4299
I1
a(lp4300
F0.0
aaI3
aa(lp4301
I1
a(lp4302
F0.0
aaI9
aa(lp4303
I1
a(lp4304
F0.0
aaI10
aa(lp4305
I1
a(lp4306
F0.0
aaI11
aa(lp4307
I1
a(lp4308
F0.0
aaI3
aa(lp4309
I1
a(lp4310
F0.0
aaI3
aa(lp4311
I1
a(lp4312
F0.0
aaI5
aa(lp4313
I1
a(lp4314
F0.0
aaI2
aa(lp4315
I1
a(lp4316
F0.0
aaI2
aa(lp4317
I1
a(lp4318
F0.0
aaI7
aa(lp4319
I1
a(lp4320
F0.0
aaI6
aa(lp4321
I1
a(lp4322
F0.0
aaI6
aa(lp4323
I1
a(lp4324
F0.0
aaI7
aaa(lp4325
g1188
ag1189
a(lp4326
I1
a(lp4327
F0.206897
aaI58
aa(lp4328
I1
a(lp4329
F0.2
aaI35
aa(lp4330
I1
a(lp4331
F0.264706
aaI34
aa(lp4332
I1
a(lp4333
F0.230769
aaI39
aaa(lp4334
g1197
ag1198
aa(lp4335
g1200
ag1201
a(lp4336
I1
a(lp4337
F0.0
aaI6
aa(lp4338
I1
a(lp4339
F0.26087
aaI23
aa(lp4340
I1
a(lp4341
F0.529412
aaI34
aaa(lp4342
g1287
ag1288
aa(lp4343
g1290
ag1291
a(lp4344
I1
a(lp4345
F0.469388
aaI49
aa(lp4346
I1
a(lp4347
F0.419355
aaI62
aa(lp4348
I1
a(lp4349
F0.509091
aaI55
aa(lp4350
I1
a(lp4351
F0.5
aaI52
aa(lp4352
I1
a(lp4353
F0.46
aaI50
aa(lp4354
I1
a(lp4355
F0.433333
aaI60
aa(lp4356
I1
a(lp4357
F0.233333
aaI90
aa(lp4358
I1
a(lp4359
F0.339286
aaI56
aaa(lp4360
g1295
ag1296
aa(lp4361
g1298
ag1299
aa(lp4362
g1301
ag1302
aa(lp4363
g1304
ag1305
a(lp4364
I1
a(lp4365
F0.428571
aaI35
aa(lp4366
I1
a(lp4367
F0.410256
aaI39
aa(lp4368
I1
a(lp4369
F0.305556
aaI36
aa(lp4370
I1
a(lp4371
F0.243243
aaI37
aa(lp4372
I1
a(lp4373
F0.326087
aaI46
aa(lp4374
I1
a(lp4375
F0.0
aaI28
aa(lp4376
I1
a(lp4377
F0.0
aaI20
aa(lp4378
I1
a(lp4379
F0.306122
aaI49
aa(lp4380
I1
a(lp4381
F0.3
aaI30
aa(lp4382
I1
a(lp4383
F0.25
aaI56
aa(lp4384
I1
a(lp4385
F0.26
aaI50
aa(lp4386
I1
a(lp4387
F0.25
aaI44
aa(lp4388
I1
a(lp4389
F0.333333
aaI60
aaa(lp4390
g1307
ag1308
aa(lp4391
g1310
ag1311
a(lp4392
I1
a(lp4393
F0.285714
aaI70
aa(lp4394
I1
a(lp4395
F0.293103
aaI58
aa(lp4396
I1
a(lp4397
F0.261905
aaI42
aa(lp4398
I1
a(lp4399
F0.244444
aaI45
aa(lp4400
I1
a(lp4401
F0.205128
aaI39
aa(lp4402
I1
a(lp4403
F0.53125
aaI32
aa(lp4404
I1
a(lp4405
F0.548387
aaI31
aa(lp4406
I1
a(lp4407
F0.727273
aaI33
aa(lp4408
I1
a(lp4409
F0.571429
aaI35
aa(lp4410
I1
a(lp4411
F0.282051
aaI39
aa(lp4412
I1
a(lp4413
F0.361111
aaI36
aa(lp4414
I1
a(lp4415
F0.2
aaI50
aaa(lp4416
g1317
ag1318
aa(lp4417
g1322
ag1323
aa(lp4418
g1329
ag1330
a(lp4419
I1
a(lp4420
F0.75
aaI4
aa(lp4421
I1
a(lp4422
F0.491525
aaI59
aaa(lp4423
g1332
ag1333
aa(lp4424
g1345
ag1346
aa(lp4425
g1350
ag1351
a(lp4426
I1
a(lp4427
F0.0
aaI40
aa(lp4428
I1
a(lp4429
F0.0
aaI27
aa(lp4430
I1
a(lp4431
F0.0
aaI22
aa(lp4432
I1
a(lp4433
F0.0
aaI20
aa(lp4434
I1
a(lp4435
F0.0
aaI21
aa(lp4436
I1
a(lp4437
F0.0
aaI28
aa(lp4438
I1
a(lp4439
F0.536842
aaI95
aa(lp4440
I1
a(lp4441
F0.0
aaI24
aa(lp4442
I1
a(lp4443
F0.0
aaI32
aa(lp4444
I1
a(lp4445
F0.0
aaI23
aa(lp4446
I1
a(lp4447
F0.0
aaI36
aa(lp4448
I1
a(lp4449
F0.0
aaI32
aa(lp4450
I1
a(lp4451
F0.0
aaI41
aaa(lp4452
g1367
ag1368
a(lp4453
I1
a(lp4454
F0.4
aaI60
aa(lp4455
I1
a(lp4456
F0.442308
aaI52
aaa(lp4457
g1370
ag1371
a(lp4458
I1
a(lp4459
F0.206897
aaI29
aa(lp4460
I1
a(lp4461
F0.232558
aaI43
aa(lp4462
I1
a(lp4463
F0.230769
aaI39
aa(lp4464
I1
a(lp4465
F0.238095
aaI42
aaa(lp4466
g1385
ag1386
a(lp4467
I1
a(lp4468
F0.425532
aaI47
aa(lp4469
I1
a(lp4470
F0.298246
aaI57
aa(lp4471
I1
a(lp4472
F0.217391
aaI46
aa(lp4473
I1
a(lp4474
F0.244444
aaI45
aa(lp4475
I1
a(lp4476
F0.23913
aaI46
aa(lp4477
I1
a(lp4478
F0.4
aaI50
aa(lp4479
I1
a(lp4480
F0.415094
aaI53
aa(lp4481
I1
a(lp4482
F0.434783
aaI46
aa(lp4483
I1
a(lp4484
F0.357143
aaI56
aaa(lp4485
g1392
ag1393
a(lp4486
I1
a(lp4487
F0.266667
aaI45
aa(lp4488
I1
a(lp4489
F0.266667
aaI45
aaa(lp4490
g1395
ag1396
a(lp4491
I1
a(lp4492
F0.560976
aaI82
aaa(lp4493
g1412
ag1413
a(lp4494
I1
a(lp4495
F0.230769
aaI52
aa(lp4496
I1
a(lp4497
F0.205882
aaI34
aa(lp4498
I1
a(lp4499
F0.315789
aaI38
aa(lp4500
I1
a(lp4501
F0.30303
aaI33
aa(lp4502
I1
a(lp4503
F0.317073
aaI41
aa(lp4504
I1
a(lp4505
F0.25
aaI44
aa(lp4506
I1
a(lp4507
F0.268293
aaI41
aa(lp4508
I1
a(lp4509
F0.255814
aaI43
aa(lp4510
I1
a(lp4511
F0.219512
aaI41
aa(lp4512
I1
a(lp4513
F0.419753
aaI81
aa(lp4514
I1
a(lp4515
F0.372549
aaI51
aa(lp4516
I1
a(lp4517
F0.0
aaI37
aa(lp4518
I1
a(lp4519
F0.27451
aaI51
aa(lp4520
I1
a(lp4521
F0.307692
aaI39
aa(lp4522
I1
a(lp4523
F0.540984
aaI61
aa(lp4524
I1
a(lp4525
F0.257143
aaI35
aaa(lp4526
g1415
ag1416
aa(lp4527
g1418
ag1419
a(lp4528
I1
a(lp4529
F0.530612
aaI49
aaa(lp4530
g1427
ag1428
a(lp4531
I1
a(lp4532
F0.258621
aaI58
aa(lp4533
I1
a(lp4534
F0.292683
aaI41
aa(lp4535
I1
a(lp4536
F0.270833
aaI48
aa(lp4537
I1
a(lp4538
F0.291667
aaI48
aa(lp4539
I1
a(lp4540
F0.235294
aaI34
aa(lp4541
I1
a(lp4542
F0.0
aaI55
aa(lp4543
I1
a(lp4544
F0.0
aaI29
aa(lp4545
I1
a(lp4546
F0.0
aaI29
aa(lp4547
I1
a(lp4548
F0.333333
aaI36
aaa(lp4549
g1432
ag1433
aa(lp4550
g1443
ag1444
aa(lp4551
g1446
ag1447
aa(lp4552
g1463
ag1464
aa(lp4553
g1494
ag1495
a(lp4554
I1
a(lp4555
F0.415385
aaI65
aa(lp4556
I1
a(lp4557
F0.390625
aaI64
aa(lp4558
I1
a(lp4559
F0.592593
aaI54
aa(lp4560
I1
a(lp4561
F0.456522
aaI46
aa(lp4562
I1
a(lp4563
F0.441176
aaI34
aa(lp4564
I1
a(lp4565
F0.352941
aaI34
aa(lp4566
I1
a(lp4567
F0.28
aaI50
aa(lp4568
I1
a(lp4569
F0.373333
aaI75
aa(lp4570
I1
a(lp4571
F0.269231
aaI52
aa(lp4572
I1
a(lp4573
F0.217391
aaI46
aa(lp4574
I1
a(lp4575
F0.227273
aaI44
aa(lp4576
I1
a(lp4577
F0.25
aaI44
aa(lp4578
I1
a(lp4579
F0.244444
aaI45
aa(lp4580
I1
a(lp4581
F0.511111
aaI45
aa(lp4582
I1
a(lp4583
F0.475
aaI40
aa(lp4584
I1
a(lp4585
F0.457143
aaI70
aa(lp4586
I1
a(lp4587
F0.514706
aaI68
aa(lp4588
I1
a(lp4589
F0.458333
aaI48
aa(lp4590
I1
a(lp4591
F0.733333
aaI45
aa(lp4592
I1
a(lp4593
F0.276596
aaI47
aa(lp4594
I1
a(lp4595
F0.804878
aaI41
aa(lp4596
I1
a(lp4597
F0.689655
aaI58
aa(lp4598
I1
a(lp4599
F0.408451
aaI71
aaa(lp4600
g1513
ag1514
a(lp4601
I1
a(lp4602
F0.333333
aaI36
aa(lp4603
I1
a(lp4604
F0.352941
aaI34
aa(lp4605
I1
a(lp4606
F0.377778
aaI45
aa(lp4607
I1
a(lp4608
F0.372549
aaI51
aa(lp4609
I1
a(lp4610
F0.375
aaI56
aa(lp4611
I1
a(lp4612
F0.381818
aaI55
aa(lp4613
I1
a(lp4614
F0.419355
aaI31
aa(lp4615
I1
a(lp4616
F0.4375
aaI32
aa(lp4617
I1
a(lp4618
F0.428571
aaI35
aa(lp4619
I1
a(lp4620
F0.277778
aaI36
aa(lp4621
I1
a(lp4622
F0.285714
aaI35
aa(lp4623
I1
a(lp4624
F0.0
aaI26
aaa(lp4625
g1516
ag1517
aa(lp4626
g1519
ag1520
a(lp4627
I1
a(lp4628
F0.461165
aaI206
aa(lp4629
I1
a(lp4630
F0.309091
aaI55
aa(lp4631
I1
a(lp4632
F0.307692
aaI52
aa(lp4633
I1
a(lp4634
F0.294118
aaI51
aa(lp4635
I1
a(lp4636
F0.301887
aaI53
aa(lp4637
I1
a(lp4638
F0.3
aaI50
aa(lp4639
I1
a(lp4640
F0.416667
aaI60
aa(lp4641
I1
a(lp4642
F0.25
aaI72
aa(lp4643
I1
a(lp4644
F0.238806
aaI67
aa(lp4645
I1
a(lp4646
F0.238806
aaI67
aaa(lp4647
g1522
ag1523
a(lp4648
I1
a(lp4649
F0.8
aaI55
aa(lp4650
I1
a(lp4651
F0.794521
aaI73
aaa(lp4652
g1547
ag1548
aa(lp4653
g1550
ag1551
a(lp4654
I1
a(lp4655
F0.294118
aaI51
aa(lp4656
I1
a(lp4657
F0.27027
aaI37
aa(lp4658
I1
a(lp4659
F0.27907
aaI43
aa(lp4660
I1
a(lp4661
F0.0
aaI35
aa(lp4662
I1
a(lp4663
F0.674419
aaI43
aa(lp4664
I1
a(lp4665
F0.530612
aaI49
aa(lp4666
I1
a(lp4667
F0.0
aaI58
aa(lp4668
I1
a(lp4669
F0.484848
aaI66
aa(lp4670
I1
a(lp4671
F0.333333
aaI45
aa(lp4672
I1
a(lp4673
F0.222222
aaI36
aa(lp4674
I1
a(lp4675
F0.527273
aaI55
aa(lp4676
I1
a(lp4677
F0.4375
aaI48
aa(lp4678
I1
a(lp4679
F0.4375
aaI48
aa(lp4680
I1
a(lp4681
F0.4375
aaI48
aa(lp4682
I1
a(lp4683
F0.44898
aaI49
aa(lp4684
I1
a(lp4685
F0.410714
aaI56
aa(lp4686
I1
a(lp4687
F0.491228
aaI57
aaa(lp4688
g1559
ag1560
a(lp4689
I1
a(lp4690
F0.219512
aaI41
aa(lp4691
I1
a(lp4692
F0.351351
aaI37
aa(lp4693
I1
a(lp4694
F0.315789
aaI38
aa(lp4695
I1
a(lp4696
F0.333333
aaI45
aa(lp4697
I1
a(lp4698
F0.363636
aaI55
aa(lp4699
I1
a(lp4700
F0.269231
aaI52
aa(lp4701
I1
a(lp4702
F0.27451
aaI51
aa(lp4703
I1
a(lp4704
F0.241379
aaI29
aa(lp4705
I1
a(lp4706
F0.227273
aaI44
aa(lp4707
I1
a(lp4708
F0.225
aaI40
aa(lp4709
I1
a(lp4710
F0.261905
aaI42
aa(lp4711
I1
a(lp4712
F0.292683
aaI41
aa(lp4713
I1
a(lp4714
F0.453125
aaI64
aa(lp4715
I1
a(lp4716
F0.459016
aaI61
aa(lp4717
I1
a(lp4718
F0.432432
aaI37
aa(lp4719
I1
a(lp4720
F0.428571
aaI21
aa(lp4721
I1
a(lp4722
F0.5
aaI22
aaa(lp4723
g1568
ag1569
a(lp4724
I1
a(lp4725
F0.296296
aaI54
aa(lp4726
I1
a(lp4727
F0.305556
aaI36
aa(lp4728
I1
a(lp4729
F0.339623
aaI53
aa(lp4730
I1
a(lp4731
F0.3125
aaI48
aa(lp4732
I1
a(lp4733
F0.5
aaI58
aa(lp4734
I1
a(lp4735
F0.235294
aaI34
aa(lp4736
I1
a(lp4737
F0.403846
aaI52
aa(lp4738
I1
a(lp4739
F0.297872
aaI47
aa(lp4740
I1
a(lp4741
F0.38
aaI50
aa(lp4742
I1
a(lp4743
F0.333333
aaI30
aa(lp4744
I1
a(lp4745
F0.288136
aaI59
aa(lp4746
I1
a(lp4747
F0.270833
aaI48
aa(lp4748
I2
a(lp4749
F0.272727
aF0.704545
aaI44
aa(lp4750
I1
a(lp4751
F0.288889
aaI45
aa(lp4752
I1
a(lp4753
F0.4
aaI45
aa(lp4754
I1
a(lp4755
F0.339286
aaI56
aa(lp4756
I1
a(lp4757
F0.370968
aaI62
aa(lp4758
I1
a(lp4759
F0.390625
aaI64
aa(lp4760
I1
a(lp4761
F0.3
aaI30
aa(lp4762
I1
a(lp4763
F0.28125
aaI32
aa(lp4764
I1
a(lp4765
F0.311111
aaI45
aa(lp4766
I1
a(lp4767
F0.326923
aaI52
aaa(lp4768
g1571
ag1572
a(lp4769
I1
a(lp4770
F0.216216
aaI37
aa(lp4771
I1
a(lp4772
F0.416667
aaI60
aaa(lp4773
g1586
ag1587
aa(lp4774
g1591
ag1592
a(lp4775
I1
a(lp4776
F0.26087
aaI46
aa(lp4777
I1
a(lp4778
F0.289474
aaI38
aa(lp4779
I1
a(lp4780
F0.219512
aaI41
aa(lp4781
I1
a(lp4782
F0.214286
aaI42
aa(lp4783
I1
a(lp4784
F0.25
aaI40
aa(lp4785
I1
a(lp4786
F0.225
aaI40
aaa(lp4787
g1594
ag1595
aa(lp4788
g1597
ag1598
aa(lp4789
g1600
ag1601
aa(lp4790
g1607
ag1608
aa(lp4791
g1610
ag1611
a(lp4792
I1
a(lp4793
F0.0
aaI60
aa(lp4794
I1
a(lp4795
F1.0
aaI2
aa(lp4796
I1
a(lp4797
F0.0
aaI9
aa(lp4798
I1
a(lp4799
F0.0
aaI9
aa(lp4800
I1
a(lp4801
F0.0
aaI19
aa(lp4802
I1
a(lp4803
F0.0
aaI28
aa(lp4804
I1
a(lp4805
F0.0
aaI57
aa(lp4806
I1
a(lp4807
F0.0
aaI13
aa(lp4808
I1
a(lp4809
F0.0
aaI6
aa(lp4810
I1
a(lp4811
F0.0
aaI7
aa(lp4812
I1
a(lp4813
F0.0
aaI6
aaa(lp4814
g1631
ag1632
a(lp4815
I1
a(lp4816
F0.242424
aaI33
aa(lp4817
I1
a(lp4818
F0.460317
aaI63
aa(lp4819
I1
a(lp4820
F0.451613
aaI62
aa(lp4821
I1
a(lp4822
F0.285714
aaI49
aa(lp4823
I1
a(lp4824
F0.238095
aaI42
aa(lp4825
I1
a(lp4826
F0.204082
aaI49
aa(lp4827
I1
a(lp4828
F0.22
aaI50
aa(lp4829
I1
a(lp4830
F0.408163
aaI49
aa(lp4831
I1
a(lp4832
F0.45283
aaI53
aaa(lp4833
g1660
ag1661
a(lp4834
I1
a(lp4835
F0.0
aaI77
aaa(lp4836
g1663
ag1664
aa(lp4837
g1666
ag1667
aa(lp4838
g1681
ag1682
a(lp4839
I1
a(lp4840
F0.481013
aaI79
aa(lp4841
I1
a(lp4842
F0.47561
aaI82
aa(lp4843
I1
a(lp4844
F0.430233
aaI86
aa(lp4845
I1
a(lp4846
F0.405063
aaI79
aa(lp4847
I1
a(lp4848
F0.491228
aaI57
aa(lp4849
I1
a(lp4850
F0.561644
aaI73
aaa(lp4851
g1684
ag1685
aa(lp4852
g1687
ag1688
a(lp4853
I1
a(lp4854
F0.222222
aaI45
aa(lp4855
I1
a(lp4856
F0.225
aaI40
aa(lp4857
I1
a(lp4858
F0.230769
aaI39
aa(lp4859
I1
a(lp4860
F0.302326
aaI43
aa(lp4861
I1
a(lp4862
F0.302326
aaI43
aa(lp4863
I1
a(lp4864
F0.560606
aaI66
aa(lp4865
I1
a(lp4866
F0.217391
aaI46
aa(lp4867
I1
a(lp4868
F0.289474
aaI38
aaa(lp4869
g1690
ag1691
a(lp4870
I1
a(lp4871
F0.589286
aaI56
aa(lp4872
I1
a(lp4873
F0.596491
aaI57
aa(lp4874
I1
a(lp4875
F0.315789
aaI38
aa(lp4876
I1
a(lp4877
F0.27027
aaI37
aa(lp4878
I1
a(lp4879
F0.409091
aaI44
aa(lp4880
I1
a(lp4881
F0.418605
aaI43
aa(lp4882
I1
a(lp4883
F0.44186
aaI43
aa(lp4884
I1
a(lp4885
F0.465116
aaI43
aa(lp4886
I1
a(lp4887
F0.432432
aaI37
aa(lp4888
I1
a(lp4889
F0.3125
aaI32
aa(lp4890
I1
a(lp4891
F0.243902
aaI41
aa(lp4892
I1
a(lp4893
F0.238095
aaI42
aa(lp4894
I1
a(lp4895
F0.219512
aaI41
aa(lp4896
I1
a(lp4897
F0.210526
aaI38
aa(lp4898
I1
a(lp4899
F0.347826
aaI46
aa(lp4900
I1
a(lp4901
F0.354167
aaI48
aa(lp4902
I1
a(lp4903
F0.25
aaI44
aa(lp4904
I1
a(lp4905
F0.275
aaI40
aa(lp4906
I1
a(lp4907
F0.292683
aaI41
aa(lp4908
I1
a(lp4909
F0.307692
aaI39
aa(lp4910
I1
a(lp4911
F0.5
aaI54
aa(lp4912
I1
a(lp4913
F0.453125
aaI64
aa(lp4914
I1
a(lp4915
F0.391304
aaI46
aa(lp4916
I1
a(lp4917
F0.377778
aaI45
aa(lp4918
I1
a(lp4919
F0.317073
aaI41
aa(lp4920
I1
a(lp4921
F0.347826
aaI46
aa(lp4922
I1
a(lp4923
F0.3
aaI40
aa(lp4924
I1
a(lp4925
F0.21875
aaI32
aa(lp4926
I1
a(lp4927
F0.285714
aaI35
aa(lp4928
I1
a(lp4929
F0.37037
aaI54
aa(lp4930
I1
a(lp4931
F0.28
aaI50
aaa(lp4932
g1693
ag1694
a(lp4933
I1
a(lp4934
F0.230769
aaI39
aa(lp4935
I1
a(lp4936
F0.219512
aaI41
aaa(lp4937
g1696
ag1697
a(lp4938
I1
a(lp4939
F0.209302
aaI43
aa(lp4940
I1
a(lp4941
F0.27027
aaI37
aa(lp4942
I1
a(lp4943
F0.25641
aaI39
aa(lp4944
I1
a(lp4945
F0.561404
aaI57
aa(lp4946
I1
a(lp4947
F0.455696
aaI79
aa(lp4948
I1
a(lp4949
F0.2
aaI40
aaa(lp4950
g1699
ag1700
aa(lp4951
g1702
ag1703
aa(lp4952
g1705
ag1706
a(lp4953
I1
a(lp4954
F0.229508
aaI61
aaa(lp4955
g1708
ag1709
aa(lp4956
g1711
ag1712
aa(lp4957
g1714
ag1715
a(lp4958
I1
a(lp4959
F0.613636
aaI44
aa(lp4960
I1
a(lp4961
F0.870968
aaI31
aa(lp4962
I1
a(lp4963
F0.217391
aaI46
aa(lp4964
I1
a(lp4965
F0.266667
aaI45
aa(lp4966
I1
a(lp4967
F0.275
aaI40
aaa(lp4968
g1719
ag1720
aa(lp4969
g1722
ag1723
aa(lp4970
g1725
ag1726
aa(lp4971
g1728
ag1729
aa(lp4972
g1733
ag1734
aa(lp4973
g1758
ag1759
a(lp4974
I1
a(lp4975
F0.418605
aaI43
aaa(lp4976
g1761
ag1762
a(lp4977
I1
a(lp4978
F0.413043
aaI46
aa(lp4979
I1
a(lp4980
F0.372549
aaI51
aa(lp4981
I1
a(lp4982
F0.428571
aaI49
aa(lp4983
I1
a(lp4984
F0.413333
aaI75
aa(lp4985
I1
a(lp4986
F0.518519
aaI54
aaa(lp4987
g1766
ag1767
a(lp4988
I1
a(lp4989
F0.597403
aaI77
aa(lp4990
I1
a(lp4991
F0.229167
aaI48
aaa(lp4992
g1773
ag1774
aa(lp4993
g1776
ag1777
aa(lp4994
g1797
ag1798
aa(lp4995
g1800
ag1801
aa(lp4996
g1805
ag1806
aa(lp4997
g1808
ag1809
aa(lp4998
g1817
ag1818
aa(lp4999
g1828
ag1829
a(lp5000
I1
a(lp5001
F0.230769
aaI52
aa(lp5002
I1
a(lp5003
F0.208333
aaI48
aa(lp5004
I1
a(lp5005
F0.203704
aaI54
aa(lp5006
I1
a(lp5007
F0.226415
aaI53
aa(lp5008
I1
a(lp5009
F0.259259
aaI54
aa(lp5010
I1
a(lp5011
F0.259259
aaI54
aa(lp5012
I1
a(lp5013
F0.298246
aaI57
aa(lp5014
I1
a(lp5015
F0.303571
aaI56
aa(lp5016
I1
a(lp5017
F0.322581
aaI62
aa(lp5018
I1
a(lp5019
F0.33871
aaI62
aa(lp5020
I1
a(lp5021
F0.327586
aaI58
aa(lp5022
I1
a(lp5023
F0.277778
aaI54
aa(lp5024
I1
a(lp5025
F0.267857
aaI56
aa(lp5026
I1
a(lp5027
F0.326531
aaI49
aa(lp5028
I1
a(lp5029
F0.327586
aaI58
aa(lp5030
I1
a(lp5031
F0.295082
aaI61
aa(lp5032
I1
a(lp5033
F0.283333
aaI60
aa(lp5034
I1
a(lp5035
F0.283333
aaI60
aa(lp5036
I1
a(lp5037
F0.214286
aaI28
aa(lp5038
I1
a(lp5039
F0.766667
aaI30
aaa(lp5040
g1837
ag1838
aa(lp5041
g1840
ag1841
aa(lp5042
g1843
ag1844
a(lp5043
I1
a(lp5044
F0.333333
aaI51
aa(lp5045
I1
a(lp5046
F0.380952
aaI42
aa(lp5047
I1
a(lp5048
F0.363636
aaI44
aa(lp5049
I1
a(lp5050
F0.581818
aaI55
aa(lp5051
I1
a(lp5052
F0.217391
aaI46
aa(lp5053
I1
a(lp5054
F0.212766
aaI47
aa(lp5055
I1
a(lp5056
F0.265306
aaI49
aa(lp5057
I1
a(lp5058
F0.255319
aaI47
aa(lp5059
I1
a(lp5060
F0.383333
aaI60
aa(lp5061
I1
a(lp5062
F0.534483
aaI58
aa(lp5063
I1
a(lp5064
F0.534483
aaI58
aa(lp5065
I1
a(lp5066
F0.489362
aaI47
aa(lp5067
I1
a(lp5068
F0.381818
aaI55
aa(lp5069
I1
a(lp5070
F0.545455
aaI55
aaa(lp5071
g1846
ag1847
a(lp5072
I1
a(lp5073
F0.217391
aaI23
aa(lp5074
I1
a(lp5075
F0.0
aaI38
aa(lp5076
I1
a(lp5077
F0.264706
aaI34
aa(lp5078
I1
a(lp5079
F0.267857
aaI56
aa(lp5080
I1
a(lp5081
F0.258065
aaI62
aa(lp5082
I1
a(lp5083
F0.276923
aaI65
aa(lp5084
I1
a(lp5085
F0.210526
aaI19
aa(lp5086
I1
a(lp5087
F0.315789
aaI19
aa(lp5088
I1
a(lp5089
F0.285714
aaI21
aa(lp5090
I1
a(lp5091
F0.291667
aaI24
aaa(lp5092
g1849
ag1850
aa(lp5093
g1858
ag1859
a(lp5094
I1
a(lp5095
F0.23913
aaI46
aa(lp5096
I1
a(lp5097
F0.292683
aaI41
aa(lp5098
I1
a(lp5099
F0.304348
aaI46
aa(lp5100
I1
a(lp5101
F0.295455
aaI44
aa(lp5102
I1
a(lp5103
F0.297872
aaI47
aa(lp5104
I1
a(lp5105
F0.3125
aaI48
aa(lp5106
I1
a(lp5107
F0.320755
aaI53
aa(lp5108
I1
a(lp5109
F0.25
aaI48
aa(lp5110
I1
a(lp5111
F0.311111
aaI45
aa(lp5112
I1
a(lp5113
F0.0
aaI61
aaa(lp5114
g1875
ag1876
a(lp5115
I1
a(lp5116
F0.301887
aaI53
aa(lp5117
I1
a(lp5118
F0.301887
aaI53
aa(lp5119
I1
a(lp5120
F0.477273
aaI88
aa(lp5121
I1
a(lp5122
F0.466667
aaI45
aa(lp5123
I1
a(lp5124
F0.433333
aaI60
aa(lp5125
I1
a(lp5126
F0.0
aaI11
aa(lp5127
I1
a(lp5128
F0.4
aaI25
aa(lp5129
I1
a(lp5130
F0.346154
aaI26
aa(lp5131
I1
a(lp5132
F0.351852
aaI54
aa(lp5133
I1
a(lp5134
F0.358974
aaI39
aa(lp5135
I1
a(lp5136
F0.355556
aaI45
aa(lp5137
I1
a(lp5138
F0.295455
aaI44
aa(lp5139
I1
a(lp5140
F0.27907
aaI43
aa(lp5141
I1
a(lp5142
F0.27907
aaI43
aa(lp5143
I1
a(lp5144
F0.295455
aaI44
aa(lp5145
I1
a(lp5146
F0.25
aaI44
aa(lp5147
I1
a(lp5148
F0.261905
aaI42
aa(lp5149
I1
a(lp5150
F0.28
aaI50
aa(lp5151
I1
a(lp5152
F0.254902
aaI51
aa(lp5153
I1
a(lp5154
F0.296296
aaI54
aa(lp5155
I1
a(lp5156
F0.25
aaI56
aa(lp5157
I1
a(lp5158
F0.31746
aaI63
aa(lp5159
I1
a(lp5160
F0.25
aaI44
aa(lp5161
I1
a(lp5162
F0.2
aaI45
aaa(lp5163
g1904
ag1905
a(lp5164
I1
a(lp5165
F0.272727
aaI44
aa(lp5166
I1
a(lp5167
F0.282609
aaI46
aa(lp5168
I1
a(lp5169
F0.59322
aaI59
aa(lp5170
I1
a(lp5171
F0.21875
aaI32
aa(lp5172
I1
a(lp5173
F0.222222
aaI36
aa(lp5174
I1
a(lp5175
F0.269231
aaI52
aa(lp5176
I1
a(lp5177
F0.3125
aaI48
aa(lp5178
I1
a(lp5179
F0.45098
aaI51
aa(lp5180
I1
a(lp5181
F0.45
aaI60
aa(lp5182
I1
a(lp5183
F0.25
aaI76
aa(lp5184
I1
a(lp5185
F0.306667
aaI75
aa(lp5186
I1
a(lp5187
F0.410714
aaI56
aa(lp5188
I1
a(lp5189
F0.307692
aaI52
aa(lp5190
I1
a(lp5191
F0.282609
aaI46
aa(lp5192
I1
a(lp5193
F0.209302
aaI43
aa(lp5194
I1
a(lp5195
F0.230769
aaI39
aa(lp5196
I1
a(lp5197
F0.421053
aaI38
aa(lp5198
I1
a(lp5199
F0.324324
aaI37
aa(lp5200
I1
a(lp5201
F0.277778
aaI36
aa(lp5202
I1
a(lp5203
F0.263158
aaI38
aa(lp5204
I1
a(lp5205
F0.25641
aaI39
aa(lp5206
I1
a(lp5207
F0.309524
aaI42
aa(lp5208
I1
a(lp5209
F0.407407
aaI54
aa(lp5210
I1
a(lp5211
F0.46
aaI50
aa(lp5212
I1
a(lp5213
F0.301887
aaI53
aa(lp5214
I1
a(lp5215
F0.0
aaI20
aa(lp5216
I1
a(lp5217
F0.0
aaI26
aa(lp5218
I1
a(lp5219
F0.0
aaI24
aa(lp5220
I1
a(lp5221
F0.257143
aaI35
aaa(lp5222
g1915
ag1916
a(lp5223
I1
a(lp5224
F0.238806
aaI67
aa(lp5225
I1
a(lp5226
F0.266667
aaI60
aa(lp5227
I1
a(lp5228
F0.271186
aaI59
aa(lp5229
I1
a(lp5230
F0.282051
aaI39
aa(lp5231
I1
a(lp5232
F0.212121
aaI33
aa(lp5233
I1
a(lp5234
F0.255319
aaI47
aa(lp5235
I1
a(lp5236
F0.375
aaI8
aa(lp5237
I1
a(lp5238
F0.45283
aaI53
aa(lp5239
I1
a(lp5240
F0.333333
aaI45
aa(lp5241
I1
a(lp5242
F0.222222
aaI36
aa(lp5243
I1
a(lp5244
F0.30303
aaI33
aa(lp5245
I1
a(lp5246
F0.294118
aaI34
aa(lp5247
I1
a(lp5248
F0.538462
aaI39
aaa(lp5249
g1946
ag1947
aa(lp5250
g1951
ag1952
a(lp5251
I1
a(lp5252
F0.375
aaI56
aa(lp5253
I1
a(lp5254
F0.285714
aaI49
aa(lp5255
I1
a(lp5256
F0.0
aaI36
aaa(lp5257
g1958
ag1959
a(lp5258
I1
a(lp5259
F0.241176
aaI170
aa(lp5260
I1
a(lp5261
F0.509434
aaI159
aaa(lp5262
g1961
ag1962
a(lp5263
I1
a(lp5264
F0.386364
aaI44
aa(lp5265
I1
a(lp5266
F0.386364
aaI44
aa(lp5267
I1
a(lp5268
F0.218182
aaI55
aa(lp5269
I1
a(lp5270
F0.0
aaI28
aaa(lp5271
g1974
ag1975
aa(lp5272
g1977
ag1978
aa(lp5273
g1982
ag1983
a(lp5274
I1
a(lp5275
F0.222222
aaI36
aa(lp5276
I1
a(lp5277
F0.315789
aaI38
aa(lp5278
I1
a(lp5279
F0.291667
aaI48
aa(lp5280
I1
a(lp5281
F0.27451
aaI51
aa(lp5282
I1
a(lp5283
F0.26087
aaI46
aa(lp5284
I1
a(lp5285
F0.25
aaI44
aa(lp5286
I1
a(lp5287
F0.404255
aaI47
aa(lp5288
I1
a(lp5289
F0.278689
aaI61
aa(lp5290
I1
a(lp5291
F0.351852
aaI54
aaa(lp5292
g1987
ag1988
a(lp5293
I1
a(lp5294
F0.285714
aaI35
aa(lp5295
I1
a(lp5296
F0.323529
aaI34
aa(lp5297
I1
a(lp5298
F0.3125
aaI48
aa(lp5299
I1
a(lp5300
F0.275
aaI40
aa(lp5301
I1
a(lp5302
F0.282051
aaI39
aa(lp5303
I1
a(lp5304
F0.263158
aaI38
aa(lp5305
I1
a(lp5306
F0.205128
aaI39
aaa(lp5307
g1994
ag1995
a(lp5308
I1
a(lp5309
F0.205128
aaI39
aa(lp5310
I1
a(lp5311
F0.2
aaI50
aa(lp5312
I1
a(lp5313
F0.232558
aaI43
aaa(lp5314
g2005
ag2006
a(lp5315
I1
a(lp5316
F0.0
aaI71
aa(lp5317
I1
a(lp5318
F0.0
aaI3
aa(lp5319
I1
a(lp5320
F0.0
aaI3
aa(lp5321
I1
a(lp5322
F0.0
aaI3
aa(lp5323
I1
a(lp5324
F0.0
aaI5
aa(lp5325
I1
a(lp5326
F0.0
aaI51
aa(lp5327
I1
a(lp5328
F0.0
aaI41
aaa(lp5329
g2030
ag2031
a(lp5330
I1
a(lp5331
F0.415094
aaI53
aa(lp5332
I1
a(lp5333
F0.261905
aaI42
aa(lp5334
I1
a(lp5335
F0.265306
aaI49
aa(lp5336
I1
a(lp5337
F0.244444
aaI45
aa(lp5338
I1
a(lp5339
F0.261905
aaI42
aaa(lp5340
g2033
ag2034
aa(lp5341
g2040
ag2041
aa(lp5342
g2043
ag2044
a(lp5343
I1
a(lp5344
F0.644444
aaI45
aa(lp5345
I1
a(lp5346
F0.0
aaI78
aa(lp5347
I1
a(lp5348
F0.357143
aaI56
aa(lp5349
I1
a(lp5350
F0.507692
aaI65
aa(lp5351
I1
a(lp5352
F0.34
aaI50
aa(lp5353
I1
a(lp5354
F0.304348
aaI46
aa(lp5355
I1
a(lp5356
F0.408163
aaI49
aa(lp5357
I1
a(lp5358
F0.375
aaI32
aaa(lp5359
g2046
ag2047
a(lp5360
I1
a(lp5361
F0.206897
aaI29
aa(lp5362
I1
a(lp5363
F0.285714
aaI28
aa(lp5364
I1
a(lp5365
F0.395833
aaI48
aa(lp5366
I1
a(lp5367
F0.408163
aaI49
aa(lp5368
I1
a(lp5369
F0.219512
aaI41
aa(lp5370
I1
a(lp5371
F0.228571
aaI35
aa(lp5372
I1
a(lp5373
F0.386364
aaI44
aaa(lp5374
g2049
ag2050
a(lp5375
I1
a(lp5376
F0.325581
aaI43
aa(lp5377
I1
a(lp5378
F0.363636
aaI44
aa(lp5379
I1
a(lp5380
F0.408163
aaI49
aa(lp5381
I1
a(lp5382
F0.431818
aaI44
aa(lp5383
I1
a(lp5384
F0.469388
aaI49
aa(lp5385
I1
a(lp5386
F0.458333
aaI48
aa(lp5387
I1
a(lp5388
F0.333333
aaI42
aa(lp5389
I1
a(lp5390
F0.258065
aaI62
aa(lp5391
I1
a(lp5392
F0.218182
aaI55
aa(lp5393
I1
a(lp5394
F0.222222
aaI54
aa(lp5395
I1
a(lp5396
F0.222222
aaI54
aa(lp5397
I1
a(lp5398
F0.267857
aaI56
aa(lp5399
I1
a(lp5400
F0.301887
aaI53
aa(lp5401
I1
a(lp5402
F0.403846
aaI52
aa(lp5403
I1
a(lp5404
F0.358491
aaI53
aa(lp5405
I1
a(lp5406
F0.333333
aaI48
aa(lp5407
I1
a(lp5408
F0.35
aaI40
aa(lp5409
I1
a(lp5410
F0.314286
aaI35
aa(lp5411
I1
a(lp5412
F0.3
aaI40
aa(lp5413
I1
a(lp5414
F0.243243
aaI37
aa(lp5415
I1
a(lp5416
F0.285714
aaI35
aa(lp5417
I1
a(lp5418
F0.323529
aaI34
aa(lp5419
I1
a(lp5420
F0.272727
aaI33
aa(lp5421
I1
a(lp5422
F0.413793
aaI58
aa(lp5423
I1
a(lp5424
F0.42623
aaI61
aa(lp5425
I1
a(lp5426
F0.435484
aaI62
aa(lp5427
I1
a(lp5428
F0.4
aaI45
aa(lp5429
I1
a(lp5430
F0.403846
aaI52
aa(lp5431
I1
a(lp5432
F0.431034
aaI58
aa(lp5433
I1
a(lp5434
F0.337079
aaI89
aa(lp5435
I1
a(lp5436
F0.365217
aaI115
aa(lp5437
I1
a(lp5438
F0.267442
aaI86
aa(lp5439
I1
a(lp5440
F0.217391
aaI46
aa(lp5441
I1
a(lp5442
F0.217391
aaI46
aa(lp5443
I1
a(lp5444
F0.265306
aaI49
aaa(lp5445
g2052
ag2053
a(lp5446
I1
a(lp5447
F0.428571
aaI49
aa(lp5448
I1
a(lp5449
F0.440678
aaI59
aa(lp5450
I1
a(lp5451
F0.225
aaI40
aa(lp5452
I1
a(lp5453
F0.225
aaI40
aa(lp5454
I1
a(lp5455
F0.322581
aaI31
aa(lp5456
I1
a(lp5457
F0.354839
aaI31
aa(lp5458
I1
a(lp5459
F0.264706
aaI34
aa(lp5460
I1
a(lp5461
F0.232143
aaI56
aa(lp5462
I1
a(lp5463
F0.333333
aaI54
aa(lp5464
I1
a(lp5465
F0.235294
aaI34
aa(lp5466
I1
a(lp5467
F0.292683
aaI41
aa(lp5468
I1
a(lp5469
F0.333333
aaI45
aa(lp5470
I1
a(lp5471
F0.409091
aaI44
aa(lp5472
I1
a(lp5473
F0.282051
aaI39
aa(lp5474
I1
a(lp5475
F0.404255
aaI47
aa(lp5476
I1
a(lp5477
F0.230769
aaI39
aa(lp5478
I1
a(lp5479
F0.367347
aaI49
aa(lp5480
I1
a(lp5481
F0.292683
aaI41
aa(lp5482
I1
a(lp5483
F0.390244
aaI41
aa(lp5484
I1
a(lp5485
F0.266667
aaI45
aa(lp5486
I1
a(lp5487
F0.333333
aaI48
aa(lp5488
I1
a(lp5489
F0.216216
aaI37
aa(lp5490
I1
a(lp5491
F0.243243
aaI37
aa(lp5492
I1
a(lp5493
F0.261905
aaI42
aaa(lp5494
g2055
ag2056
aa(lp5495
g2058
ag2059
aa(lp5496
g2061
ag2062
aa(lp5497
g2064
ag2065
a(lp5498
I1
a(lp5499
F0.537037
aaI54
aa(lp5500
I1
a(lp5501
F0.222222
aaI36
aa(lp5502
I1
a(lp5503
F0.56
aaI75
aa(lp5504
I1
a(lp5505
F0.3125
aaI80
aa(lp5506
I1
a(lp5507
F0.693182
aaI88
aa(lp5508
I1
a(lp5509
F0.571429
aaI63
aa(lp5510
I1
a(lp5511
F0.333333
aaI72
aa(lp5512
I1
a(lp5513
F0.631579
aaI57
aa(lp5514
I1
a(lp5515
F0.382979
aaI47
aa(lp5516
I1
a(lp5517
F0.625
aaI40
aa(lp5518
I1
a(lp5519
F0.266667
aaI30
aa(lp5520
I1
a(lp5521
F0.230769
aaI26
aa(lp5522
I1
a(lp5523
F0.5
aaI58
aa(lp5524
I1
a(lp5525
F0.552632
aaI76
aa(lp5526
I1
a(lp5527
F0.27907
aaI43
aa(lp5528
I1
a(lp5529
F0.0
aaI40
aa(lp5530
I1
a(lp5531
F0.272727
aaI44
aa(lp5532
I1
a(lp5533
F0.291667
aaI48
aa(lp5534
I1
a(lp5535
F0.4
aaI25
aa(lp5536
I1
a(lp5537
F0.434783
aaI23
aa(lp5538
I1
a(lp5539
F0.321429
aaI28
aa(lp5540
I1
a(lp5541
F0.333333
aaI51
aa(lp5542
I1
a(lp5543
F0.367347
aaI49
aa(lp5544
I1
a(lp5545
F0.395349
aaI43
aa(lp5546
I1
a(lp5547
F0.371429
aaI35
aa(lp5548
I1
a(lp5549
F0.361111
aaI36
aa(lp5550
I1
a(lp5551
F0.264706
aaI34
aa(lp5552
I1
a(lp5553
F0.465116
aaI43
aa(lp5554
I1
a(lp5555
F0.463415
aaI41
aaa(lp5556
g2069
ag2070
aa(lp5557
g2074
ag2075
aa(lp5558
g2083
ag2084
aa(lp5559
g2086
ag2087
a(lp5560
I1
a(lp5561
F0.365079
aaI63
aa(lp5562
I1
a(lp5563
F0.288462
aaI52
aa(lp5564
I1
a(lp5565
F0.26087
aaI46
aa(lp5566
I1
a(lp5567
F0.288889
aaI45
aa(lp5568
I1
a(lp5569
F0.282051
aaI39
aa(lp5570
I1
a(lp5571
F0.264151
aaI53
aa(lp5572
I1
a(lp5573
F0.215686
aaI51
aa(lp5574
I1
a(lp5575
F0.229508
aaI61
aa(lp5576
I1
a(lp5577
F0.216667
aaI60
aa(lp5578
I1
a(lp5579
F0.369565
aaI46
aa(lp5580
I1
a(lp5581
F0.288889
aaI45
aa(lp5582
I1
a(lp5583
F0.291667
aaI48
aa(lp5584
I1
a(lp5585
F0.307692
aaI52
aa(lp5586
I1
a(lp5587
F0.306122
aaI49
aa(lp5588
I1
a(lp5589
F0.410714
aaI56
aa(lp5590
I1
a(lp5591
F0.236364
aaI55
aa(lp5592
I1
a(lp5593
F0.233333
aaI30
aa(lp5594
I1
a(lp5595
F0.225806
aaI31
aa(lp5596
I1
a(lp5597
F0.507692
aaI65
aa(lp5598
I1
a(lp5599
F0.297297
aaI37
aa(lp5600
I1
a(lp5601
F0.339623
aaI53
aa(lp5602
I1
a(lp5603
F0.0
aaI15
aaa(lp5604
g2091
ag2092
a(lp5605
I1
a(lp5606
F0.268293
aaI41
aa(lp5607
I1
a(lp5608
F0.463768
aaI69
aa(lp5609
I1
a(lp5610
F0.5
aaI28
aa(lp5611
I1
a(lp5612
F0.565217
aaI23
aaa(lp5613
g2094
ag2095
a(lp5614
I1
a(lp5615
F0.4
aaI35
aa(lp5616
I1
a(lp5617
F0.21875
aaI32
aa(lp5618
I1
a(lp5619
F0.28
aaI50
aa(lp5620
I1
a(lp5621
F0.26
aaI50
aa(lp5622
I1
a(lp5623
F0.276596
aaI47
aaa(lp5624
g2097
ag2098
a(lp5625
I1
a(lp5626
F0.342105
aaI38
aa(lp5627
I1
a(lp5628
F0.413793
aaI58
aa(lp5629
I1
a(lp5630
F0.409091
aaI66
aa(lp5631
I1
a(lp5632
F0.382353
aaI68
aa(lp5633
I1
a(lp5634
F0.519231
aaI52
aa(lp5635
I1
a(lp5636
F0.571429
aaI56
aaa(lp5637
g2100
ag2101
a(lp5638
I1
a(lp5639
F0.214286
aaI28
aaa(lp5640
g2103
ag2104
aa(lp5641
g2106
ag2107
aa(lp5642
g2109
ag2110
a(lp5643
I1
a(lp5644
F0.52381
aaI63
aa(lp5645
I1
a(lp5646
F0.3875
aaI80
aa(lp5647
I1
a(lp5648
F0.356164
aaI73
aaa(lp5649
g2116
ag2117
a(lp5650
I1
a(lp5651
F0.322581
aaI31
aa(lp5652
I1
a(lp5653
F0.0
aaI31
aa(lp5654
I1
a(lp5655
F0.0
aaI36
aaa(lp5656
g2119
ag2120
a(lp5657
I1
a(lp5658
F0.210526
aaI38
aaa(lp5659
g2128
ag2129
a(lp5660
I1
a(lp5661
F0.428571
aaI49
aa(lp5662
I1
a(lp5663
F0.518519
aaI54
aa(lp5664
I1
a(lp5665
F0.4
aaI60
aa(lp5666
I1
a(lp5667
F0.348485
aaI66
aaa(lp5668
g2139
ag2140
aa(lp5669
g2142
ag2143
aa(lp5670
g2145
ag2146
aa(lp5671
g2148
ag2149
aa(lp5672
g2153
ag2154
a(lp5673
I1
a(lp5674
F0.0
aaI60
aa(lp5675
I1
a(lp5676
F0.40678
aaI59
aa(lp5677
I1
a(lp5678
F0.324324
aaI37
aa(lp5679
I1
a(lp5680
F0.361702
aaI47
aa(lp5681
I1
a(lp5682
F0.389831
aaI59
aa(lp5683
I1
a(lp5684
F0.271186
aaI59
aa(lp5685
I1
a(lp5686
F0.266667
aaI60
aa(lp5687
I1
a(lp5688
F0.389831
aaI59
aa(lp5689
I1
a(lp5690
F0.257143
aaI35
aa(lp5691
I1
a(lp5692
F0.454545
aaI11
aa(lp5693
I1
a(lp5694
F1.0
aaI5
aa(lp5695
I1
a(lp5696
F0.0
aaI7
aa(lp5697
I1
a(lp5698
F0.377358
aaI53
aa(lp5699
I1
a(lp5700
F0.339623
aaI53
aa(lp5701
I1
a(lp5702
F0.294118
aaI51
aa(lp5703
I1
a(lp5704
F0.362069
aaI58
aa(lp5705
I1
a(lp5706
F0.0
aaI17
aa(lp5707
I1
a(lp5708
F0.0
aaI22
aa(lp5709
I1
a(lp5710
F0.365854
aaI41
aa(lp5711
I1
a(lp5712
F0.355556
aaI45
aa(lp5713
I1
a(lp5714
F0.219512
aaI41
aa(lp5715
I1
a(lp5716
F0.234043
aaI47
aa(lp5717
I1
a(lp5718
F0.541667
aaI24
aa(lp5719
I1
a(lp5720
F0.384615
aaI26
aa(lp5721
I1
a(lp5722
F0.257143
aaI35
aaa(lp5723
g2166
ag2167
aa(lp5724
g2169
ag2170
aa(lp5725
g2172
ag2173
a(lp5726
I1
a(lp5727
F0.363636
aaI33
aa(lp5728
I1
a(lp5729
F0.23913
aaI46
aa(lp5730
I1
a(lp5731
F0.255814
aaI43
aa(lp5732
I1
a(lp5733
F0.244444
aaI45
aaa(lp5734
g2175
ag2176
aa(lp5735
g2178
ag2179
a(lp5736
I1
a(lp5737
F0.385965
aaI57
aa(lp5738
I1
a(lp5739
F0.428571
aaI21
aa(lp5740
I1
a(lp5741
F0.0
aaI6
aa(lp5742
I1
a(lp5743
F0.45
aaI20
aa(lp5744
I1
a(lp5745
F0.4
aaI30
aa(lp5746
I1
a(lp5747
F0.419355
aaI31
aa(lp5748
I1
a(lp5749
F0.357143
aaI28
aa(lp5750
I1
a(lp5751
F0.344828
aaI29
aa(lp5752
I1
a(lp5753
F0.243902
aaI41
aa(lp5754
I1
a(lp5755
F0.37037
aaI54
aa(lp5756
I1
a(lp5757
F0.539683
aaI63
aaa(lp5758
g2183
ag2184
a(lp5759
I1
a(lp5760
F0.369863
aaI73
aaa(lp5761
g2190
ag2191
a(lp5762
I1
a(lp5763
F0.25
aaI36
aa(lp5764
I1
a(lp5765
F0.0
aaI38
aa(lp5766
I1
a(lp5767
F0.380952
aaI63
aa(lp5768
I1
a(lp5769
F0.389831
aaI59
aa(lp5770
I1
a(lp5771
F0.415094
aaI53
aa(lp5772
I1
a(lp5773
F0.270833
aaI48
aaa(lp5774
g2199
ag2200
a(lp5775
I1
a(lp5776
F0.227273
aaI44
aa(lp5777
I1
a(lp5778
F0.486486
aaI74
aa(lp5779
I1
a(lp5780
F0.240741
aaI54
aa(lp5781
I1
a(lp5782
F0.228571
aaI35
aa(lp5783
I1
a(lp5784
F0.435484
aaI62
aa(lp5785
I1
a(lp5786
F0.40625
aaI64
aa(lp5787
I1
a(lp5788
F0.40678
aaI59
aa(lp5789
I1
a(lp5790
F0.389831
aaI59
aa(lp5791
I1
a(lp5792
F0.396552
aaI58
aa(lp5793
I1
a(lp5794
F0.431373
aaI51
aa(lp5795
I1
a(lp5796
F0.298246
aaI57
aa(lp5797
I1
a(lp5798
F0.241935
aaI62
aa(lp5799
I1
a(lp5800
F0.229508
aaI61
aa(lp5801
I1
a(lp5802
F0.245902
aaI61
aa(lp5803
I1
a(lp5804
F0.296875
aaI64
aa(lp5805
I1
a(lp5806
F0.311475
aaI61
aa(lp5807
I1
a(lp5808
F0.322581
aaI62
aa(lp5809
I1
a(lp5810
F0.333333
aaI60
aa(lp5811
I1
a(lp5812
F0.313725
aaI51
aa(lp5813
I1
a(lp5814
F0.309091
aaI55
aa(lp5815
I1
a(lp5816
F0.230769
aaI52
aa(lp5817
I1
a(lp5818
F0.245283
aaI53
aa(lp5819
I1
a(lp5820
F0.365385
aaI52
aa(lp5821
I1
a(lp5822
F0.348837
aaI43
aa(lp5823
I1
a(lp5824
F0.3
aaI40
aa(lp5825
I1
a(lp5826
F0.384615
aaI39
aa(lp5827
I1
a(lp5828
F0.557143
aaI70
aa(lp5829
I1
a(lp5830
F0.32
aaI75
aa(lp5831
I1
a(lp5832
F0.309859
aaI71
aa(lp5833
I1
a(lp5834
F0.333333
aaI48
aa(lp5835
I1
a(lp5836
F0.333333
aaI42
aa(lp5837
I1
a(lp5838
F0.714286
aaI70
aa(lp5839
I1
a(lp5840
F0.625
aaI56
aa(lp5841
I1
a(lp5842
F0.263158
aaI38
aa(lp5843
I1
a(lp5844
F0.263158
aaI38
aa(lp5845
I1
a(lp5846
F0.306122
aaI49
aa(lp5847
I1
a(lp5848
F0.327273
aaI55
aa(lp5849
I1
a(lp5850
F0.214286
aaI42
aa(lp5851
I1
a(lp5852
F0.369231
aaI65
aa(lp5853
I1
a(lp5854
F0.431034
aaI58
aa(lp5855
I1
a(lp5856
F0.25
aaI36
aa(lp5857
I1
a(lp5858
F0.222222
aaI90
aaa(lp5859
g2248
ag2249
aa(lp5860
g2253
ag2254
a(lp5861
I1
a(lp5862
F0.309524
aaI42
aa(lp5863
I1
a(lp5864
F0.348837
aaI43
aa(lp5865
I1
a(lp5866
F0.292683
aaI41
aa(lp5867
I1
a(lp5868
F0.3
aaI40
aa(lp5869
I1
a(lp5870
F0.292683
aaI41
aa(lp5871
I1
a(lp5872
F0.244444
aaI45
aa(lp5873
I1
a(lp5874
F0.212766
aaI47
aa(lp5875
I1
a(lp5876
F0.392857
aaI28
aa(lp5877
I1
a(lp5878
F0.309524
aaI42
aa(lp5879
I1
a(lp5880
F0.272727
aaI44
aa(lp5881
I1
a(lp5882
F0.25641
aaI39
aa(lp5883
I1
a(lp5884
F0.2
aaI40
aa(lp5885
I1
a(lp5886
F0.741935
aaI31
aa(lp5887
I1
a(lp5888
F0.266667
aaI30
aa(lp5889
I1
a(lp5890
F0.212121
aaI33
aa(lp5891
I1
a(lp5892
F0.212121
aaI33
aa(lp5893
I1
a(lp5894
F0.361111
aaI36
aaa(lp5895
g2256
ag2257
aa(lp5896
g2261
ag2262
a(lp5897
I1
a(lp5898
F0.208333
aaI48
aaa(lp5899
g2264
ag2265
a(lp5900
I1
a(lp5901
F0.368421
aaI38
aa(lp5902
I1
a(lp5903
F0.465116
aaI43
aa(lp5904
I1
a(lp5905
F0.272727
aaI44
aa(lp5906
I1
a(lp5907
F0.362069
aaI58
aa(lp5908
I1
a(lp5909
F0.277778
aaI36
aa(lp5910
I1
a(lp5911
F0.305556
aaI36
aa(lp5912
I1
a(lp5913
F0.205882
aaI34
aa(lp5914
I1
a(lp5915
F0.225806
aaI31
aa(lp5916
I1
a(lp5917
F0.681818
aaI66
aa(lp5918
I1
a(lp5919
F0.302326
aaI43
aa(lp5920
I1
a(lp5921
F0.268293
aaI41
aa(lp5922
I1
a(lp5923
F0.324324
aaI74
aa(lp5924
I1
a(lp5925
F0.328767
aaI73
aaa(lp5926
g2267
ag2268
a(lp5927
I1
a(lp5928
F0.446154
aaI65
aaa(lp5929
g2270
ag2271
a(lp5930
I1
a(lp5931
F0.28125
aaI32
aa(lp5932
I1
a(lp5933
F0.837209
aaI43
aa(lp5934
I1
a(lp5935
F0.294118
aaI34
aa(lp5936
I1
a(lp5937
F0.292683
aaI41
aa(lp5938
I1
a(lp5939
F0.3125
aaI32
aa(lp5940
I1
a(lp5941
F0.3125
aaI32
aa(lp5942
I1
a(lp5943
F0.333333
aaI30
aa(lp5944
I1
a(lp5945
F0.21875
aaI32
aa(lp5946
I1
a(lp5947
F0.297297
aaI37
aaa(lp5948
g2273
ag2274
a(lp5949
I1
a(lp5950
F0.45
aaI60
aa(lp5951
I1
a(lp5952
F0.377358
aaI53
aa(lp5953
I1
a(lp5954
F0.368421
aaI57
aa(lp5955
I1
a(lp5956
F0.407407
aaI54
aa(lp5957
I1
a(lp5958
F0.384615
aaI52
aa(lp5959
I1
a(lp5960
F0.365385
aaI52
aa(lp5961
I1
a(lp5962
F0.392857
aaI56
aa(lp5963
I1
a(lp5964
F0.428571
aaI56
aa(lp5965
I1
a(lp5966
F0.431034
aaI58
aa(lp5967
I1
a(lp5968
F0.448276
aaI58
aaa(lp5969
g2278
ag2279
aa(lp5970
g2281
ag2282
a(lp5971
I1
a(lp5972
F0.488889
aaI45
aa(lp5973
I1
a(lp5974
F0.228571
aaI35
aa(lp5975
I1
a(lp5976
F0.222222
aaI36
aaa(lp5977
g2284
ag2285
aa(lp5978
g2289
ag2290
aa(lp5979
g2292
ag2293
a(lp5980
I1
a(lp5981
F0.366667
aaI60
aaa(lp5982
g2295
ag2296
a(lp5983
I1
a(lp5984
F0.25641
aaI39
aa(lp5985
I1
a(lp5986
F0.38806
aaI67
aa(lp5987
I1
a(lp5988
F0.234043
aaI47
aaa(lp5989
g2314
ag2315
aa(lp5990
g2319
ag2320
a(lp5991
I1
a(lp5992
F0.414634
aaI41
aa(lp5993
I1
a(lp5994
F0.205128
aaI39
aa(lp5995
I1
a(lp5996
F0.448276
aaI29
aa(lp5997
I1
a(lp5998
F0.464286
aaI28
aa(lp5999
I1
a(lp6000
F0.444444
aaI27
aa(lp6001
I1
a(lp6002
F0.458333
aaI24
aa(lp6003
I1
a(lp6004
F0.327869
aaI61
aa(lp6005
I1
a(lp6006
F0.354839
aaI62
aa(lp6007
I1
a(lp6008
F0.350877
aaI57
aa(lp6009
I1
a(lp6010
F0.357143
aaI56
aa(lp6011
I1
a(lp6012
F0.384615
aaI39
aa(lp6013
I1
a(lp6014
F0.40678
aaI59
aa(lp6015
I1
a(lp6016
F0.236842
aaI38
aa(lp6017
I1
a(lp6018
F0.243902
aaI41
aa(lp6019
I1
a(lp6020
F0.233333
aaI30
aa(lp6021
I1
a(lp6022
F0.205128
aaI39
aa(lp6023
I1
a(lp6024
F0.307692
aaI26
aa(lp6025
I1
a(lp6026
F0.529412
aaI51
aa(lp6027
I1
a(lp6028
F0.354839
aaI62
aa(lp6029
I1
a(lp6030
F0.333333
aaI60
aag5448
a(lp6031
I1
a(lp6032
F0.4
aaI60
aa(lp6033
I1
a(lp6034
F0.362069
aaI58
aa(lp6035
I1
a(lp6036
F0.333333
aaI54
aa(lp6037
I1
a(lp6038
F0.583333
aaI12
aa(lp6039
I1
a(lp6040
F0.233333
aaI30
aa(lp6041
I1
a(lp6042
F0.314286
aaI35
aa(lp6043
I1
a(lp6044
F0.366667
aaI30
aa(lp6045
I1
a(lp6046
F0.366667
aaI30
aa(lp6047
I1
a(lp6048
F0.25
aaI36
aag5484
a(lp6049
I1
a(lp6050
F0.204082
aaI49
aa(lp6051
I1
a(lp6052
F0.233333
aaI30
aa(lp6053
I1
a(lp6054
F0.333333
aaI30
aa(lp6055
I1
a(lp6056
F0.451613
aaI31
aa(lp6057
I1
a(lp6058
F0.484848
aaI33
aaa(lp6059
g2382
ag2383
aa(lp6060
g2385
ag2386
a(lp6061
I1
a(lp6062
F0.5
aaI58
aa(lp6063
I1
a(lp6064
F0.423729
aaI59
aa(lp6065
I1
a(lp6066
F0.533333
aaI60
aaa(lp6067
g2388
ag2389
aa(lp6068
g2391
ag2392
aa(lp6069
g2396
ag2397
a(lp6070
I1
a(lp6071
F0.491228
aaI57
aa(lp6072
I1
a(lp6073
F0.2
aaI40
aa(lp6074
I1
a(lp6075
F0.465116
aaI43
aa(lp6076
I1
a(lp6077
F0.424242
aaI33
aa(lp6078
I1
a(lp6079
F0.257143
aaI35
aa(lp6080
I1
a(lp6081
F0.372093
aaI43
aaa(lp6082
g2399
ag2400
a(lp6083
I1
a(lp6084
F0.292683
aaI41
aa(lp6085
I1
a(lp6086
F0.464286
aaI56
aa(lp6087
I1
a(lp6088
F0.235294
aaI34
aa(lp6089
I1
a(lp6090
F0.454545
aaI66
aa(lp6091
I1
a(lp6092
F0.235294
aaI51
aa(lp6093
I1
a(lp6094
F0.235294
aaI51
aa(lp6095
I1
a(lp6096
F0.211538
aaI52
aaa(lp6097
g2402
ag2403
aa(lp6098
g2405
ag2406
a(lp6099
I1
a(lp6100
F0.282609
aaI46
aa(lp6101
I1
a(lp6102
F0.384615
aaI65
aa(lp6103
I1
a(lp6104
F0.266667
aaI30
aa(lp6105
I1
a(lp6106
F0.258065
aaI31
aa(lp6107
I1
a(lp6108
F0.25
aaI36
aa(lp6109
I1
a(lp6110
F0.325581
aaI43
aa(lp6111
I1
a(lp6112
F0.288973
aaI263
aa(lp6113
I1
a(lp6114
F0.601307
aaI153
aaa(lp6115
g2408
ag2409
a(lp6116
I1
a(lp6117
F0.230769
aaI65
aa(lp6118
I1
a(lp6119
F0.301587
aaI63
aa(lp6120
I1
a(lp6121
F0.35
aaI60
aaa(lp6122
g2411
ag2412
a(lp6123
I1
a(lp6124
F0.615385
aaI39
aa(lp6125
I1
a(lp6126
F0.363636
aaI44
aa(lp6127
I1
a(lp6128
F0.326087
aaI46
aa(lp6129
I1
a(lp6130
F0.470588
aaI68
aaa(lp6131
g2416
ag2417
a(lp6132
I1
a(lp6133
F0.40678
aaI59
aa(lp6134
I1
a(lp6135
F0.297872
aaI47
aa(lp6136
I1
a(lp6137
F0.214286
aaI42
aa(lp6138
I1
a(lp6139
F0.209302
aaI43
aa(lp6140
I1
a(lp6141
F0.402985
aaI67
aa(lp6142
I1
a(lp6143
F0.457143
aaI70
aa(lp6144
I1
a(lp6145
F0.45
aaI60
aa(lp6146
I1
a(lp6147
F0.513514
aaI74
aa(lp6148
I1
a(lp6149
F0.52
aaI75
aa(lp6150
I1
a(lp6151
F0.25
aaI44
aaa(lp6152
g2419
ag2420
aassS'diploids'
p6153
(dp6154
g3
(lp6155
(lp6156
S'scaffold15895_cov77'
p6157
aS'scaffold49814_cov72'
p6158
aa(lp6159
S'scaffold17315_cov142'
p6160
aS'scaffold17316_cov65'
p6161
aa(lp6162
S'scaffold1868_cov136'
p6163
aS'scaffold7102_cov63'
p6164
a(lp6165
I1
a(lp6166
F0.809524
aaI21
aaa(lp6167
S'scaffold47647_cov69'
p6168
aS'scaffold7129_cov63'
p6169
aa(lp6170
S'scaffold2677_cov108'
p6171
aS'scaffold6974_cov73'
p6172
a(lp6173
I1
a(lp6174
F0.290323
aaI31
aa(lp6175
I1
a(lp6176
F0.294118
aaI34
aa(lp6177
I1
a(lp6178
F0.290323
aaI31
aa(lp6179
I1
a(lp6180
F0.290323
aaI31
aa(lp6181
I1
a(lp6182
F0.305556
aaI36
aa(lp6183
I1
a(lp6184
F0.0
aaI33
aa(lp6185
I1
a(lp6186
F0.27907
aaI43
aa(lp6187
I1
a(lp6188
F0.27027
aaI37
aa(lp6189
I1
a(lp6190
F0.2
aaI25
aaa(lp6191
S'scaffold50322_cov70'
p6192
aS'scaffold50494_cov83'
p6193
aa(lp6194
S'scaffold27148_cov73'
p6195
aS'scaffold860_cov64'
p6196
aa(lp6197
S'scaffold31513_cov82'
p6198
aS'scaffold5259_cov70'
p6199
a(lp6200
I1
a(lp6201
F0.255814
aaI43
aa(lp6202
I1
a(lp6203
F0.288889
aaI45
aaa(lp6204
S'scaffold6054_cov102'
p6205
aS'scaffold661_cov69'
p6206
a(lp6207
I1
a(lp6208
F0.2
aaI35
aa(lp6209
I1
a(lp6210
F0.45283
aaI53
aa(lp6211
I1
a(lp6212
F0.340909
aaI44
aaa(lp6213
S'scaffold4555_cov123'
p6214
aS'scaffold65460_cov69'
p6215
aa(lp6216
S'scaffold16609_cov69'
p6217
aS'scaffold52798_cov134'
p6218
aa(lp6219
S'scaffold23999_cov72'
p6220
aS'scaffold3701_cov67'
p6221
a(lp6222
I1
a(lp6223
F0.0
aaI29
aaa(lp6224
S'scaffold12706_cov81'
p6225
aS'scaffold16044_cov69'
p6226
a(lp6227
I1
a(lp6228
F0.34
aaI50
aa(lp6229
I1
a(lp6230
F0.415094
aaI53
aa(lp6231
I1
a(lp6232
F0.42
aaI50
aaa(lp6233
S'scaffold30966_cov62'
p6234
aS'scaffold3133_cov141'
p6235
aa(lp6236
S'scaffold1143_cov170'
p6237
aS'scaffold1145_cov65'
p6238
aa(lp6239
S'scaffold25513_cov91'
p6240
aS'scaffold92575_cov70'
p6241
aa(lp6242
S'scaffold166345_cov136'
p6243
aS'scaffold367_cov102'
p6244
aa(lp6245
S'scaffold21927_cov117'
p6246
aS'scaffold6252_cov71'
p6247
aa(lp6248
S'scaffold1143_cov170'
p6249
aS'scaffold185565_cov204'
p6250
aa(lp6251
S'scaffold29989_cov70'
p6252
aS'scaffold66329_cov132'
p6253
a(lp6254
I1
a(lp6255
F0.210526
aaI19
aa(lp6256
I1
a(lp6257
F0.282051
aaI39
aaa(lp6258
S'scaffold18411_cov77'
p6259
aS'scaffold3448_cov89'
p6260
aa(lp6261
S'scaffold13891_cov62'
p6262
aS'scaffold26778_cov137'
p6263
aa(lp6264
S'scaffold1498_cov63'
p6265
aS'scaffold33427_cov79'
p6266
a(lp6267
I1
a(lp6268
F0.0
aaI9
aa(lp6269
I1
a(lp6270
F0.0
aaI7
aa(lp6271
I1
a(lp6272
F0.0
aaI7
aa(lp6273
I1
a(lp6274
F0.0
aaI8
aa(lp6275
I1
a(lp6276
F0.0
aaI9
aa(lp6277
I1
a(lp6278
F0.0
aaI12
aa(lp6279
I1
a(lp6280
F0.254237
aaI59
aa(lp6281
I1
a(lp6282
F0.415094
aaI53
aa(lp6283
I1
a(lp6284
F0.527778
aaI72
aa(lp6285
I1
a(lp6286
F0.311111
aaI45
aa(lp6287
I1
a(lp6288
F0.326087
aaI46
aa(lp6289
I1
a(lp6290
F0.369565
aaI46
aa(lp6291
I1
a(lp6292
F0.240741
aaI54
aa(lp6293
I1
a(lp6294
F0.25
aaI44
aaa(lp6295
S'scaffold166767_cov133'
p6296
aS'scaffold166788_cov64'
p6297
a(lp6298
I1
a(lp6299
F0.0
aaI25
aaa(lp6300
S'scaffold5059_cov70'
p6301
aS'scaffold5060_cov136'
p6302
a(lp6303
I1
a(lp6304
F0.325
aaI40
aaa(lp6305
S'scaffold2398_cov98'
p6306
aS'scaffold2617_cov76'
p6307
a(lp6308
I1
a(lp6309
F0.0
aaI27
aa(lp6310
I1
a(lp6311
F0.0
aaI51
aa(lp6312
I1
a(lp6313
F0.0
aaI74
aa(lp6314
I1
a(lp6315
F0.0
aaI62
aa(lp6316
I1
a(lp6317
F0.0
aaI8
aa(lp6318
I1
a(lp6319
F0.0
aaI7
aa(lp6320
I1
a(lp6321
F0.0
aaI5
aa(lp6322
I1
a(lp6323
F0.0
aaI5
aa(lp6324
I1
a(lp6325
F0.0
aaI4
aa(lp6326
I1
a(lp6327
F0.0
aaI7
aa(lp6328
I1
a(lp6329
F0.0
aaI6
aa(lp6330
I1
a(lp6331
F0.0
aaI2
aa(lp6332
I1
a(lp6333
F0.0
aaI15
aa(lp6334
I1
a(lp6335
F0.0
aaI23
aa(lp6336
I1
a(lp6337
F0.0
aaI22
aa(lp6338
I1
a(lp6339
F0.0
aaI19
aa(lp6340
I1
a(lp6341
F0.0
aaI28
aa(lp6342
I1
a(lp6343
F0.0
aaI8
aa(lp6344
I1
a(lp6345
F0.0
aaI8
aa(lp6346
I1
a(lp6347
F0.0
aaI5
aa(lp6348
I1
a(lp6349
F0.0
aaI14
aa(lp6350
I1
a(lp6351
F0.0
aaI2
aa(lp6352
I1
a(lp6353
F0.0
aaI2
aa(lp6354
I1
a(lp6355
F0.0
aaI2
aa(lp6356
I1
a(lp6357
F0.0
aaI19
aa(lp6358
I1
a(lp6359
F0.0
aaI18
aa(lp6360
I1
a(lp6361
F0.0
aaI18
aa(lp6362
I1
a(lp6363
F0.0
aaI14
aa(lp6364
I1
a(lp6365
F0.0
aaI2
aa(lp6366
I1
a(lp6367
F0.0
aaI2
aa(lp6368
I1
a(lp6369
F0.0
aaI2
aa(lp6370
I1
a(lp6371
F0.0
aaI2
aa(lp6372
I1
a(lp6373
F0.0
aaI2
aa(lp6374
I1
a(lp6375
F0.0
aaI59
aa(lp6376
I1
a(lp6377
F0.0
aaI2
aa(lp6378
I1
a(lp6379
F0.0
aaI21
aa(lp6380
I1
a(lp6381
F0.0
aaI20
aa(lp6382
I1
a(lp6383
F0.0
aaI42
aa(lp6384
I1
a(lp6385
F0.0
aaI33
aa(lp6386
I1
a(lp6387
F0.0
aaI3
aa(lp6388
I1
a(lp6389
F0.0
aaI13
aa(lp6390
I1
a(lp6391
F0.290698
aaI344
aa(lp6392
I1
a(lp6393
F0.0
aaI5
aa(lp6394
I1
a(lp6395
F0.0
aaI5
aa(lp6396
I1
a(lp6397
F0.0
aaI5
aa(lp6398
I1
a(lp6399
F0.0
aaI7
aa(lp6400
I1
a(lp6401
F0.571429
aaI7
aa(lp6402
I1
a(lp6403
F0.0
aaI6
aa(lp6404
I1
a(lp6405
F0.0
aaI2
aa(lp6406
I1
a(lp6407
F0.0
aaI2
aa(lp6408
I1
a(lp6409
F0.0
aaI2
aa(lp6410
I1
a(lp6411
F0.0
aaI3
aa(lp6412
I1
a(lp6413
F0.666667
aaI3
aa(lp6414
I1
a(lp6415
F0.0
aaI15
aa(lp6416
I1
a(lp6417
F0.0
aaI42
aa(lp6418
I1
a(lp6419
F0.0
aaI7
aa(lp6420
I1
a(lp6421
F0.0
aaI26
aa(lp6422
I1
a(lp6423
F0.0
aaI3
aa(lp6424
I1
a(lp6425
F0.0
aaI2
aa(lp6426
I1
a(lp6427
F0.0
aaI3
aa(lp6428
I1
a(lp6429
F0.0
aaI3
aa(lp6430
I1
a(lp6431
F0.0
aaI3
aa(lp6432
I1
a(lp6433
F0.0
aaI3
aaa(lp6434
S'scaffold2061_cov67'
p6435
aS'scaffold90706_cov103'
p6436
a(lp6437
I1
a(lp6438
F0.0
aaI7
aa(lp6439
I1
a(lp6440
F0.0
aaI5
aa(lp6441
I1
a(lp6442
F0.0
aaI19
aa(lp6443
I1
a(lp6444
F0.0
aaI6
aa(lp6445
I1
a(lp6446
F0.0
aaI8
aa(lp6447
I1
a(lp6448
F1.0
aaI4
aa(lp6449
I1
a(lp6450
F0.0
aaI4
aa(lp6451
I1
a(lp6452
F0.0
aaI4
aa(lp6453
I1
a(lp6454
F0.0
aaI4
aa(lp6455
I1
a(lp6456
F0.0
aaI3
aa(lp6457
I1
a(lp6458
F0.0
aaI5
aa(lp6459
I1
a(lp6460
F0.0
aaI4
aa(lp6461
I1
a(lp6462
F0.0
aaI5
aa(lp6463
I1
a(lp6464
F0.0
aaI4
aa(lp6465
I1
a(lp6466
F0.0
aaI5
aa(lp6467
I1
a(lp6468
F0.0
aaI8
aa(lp6469
I1
a(lp6470
F0.0
aaI7
aa(lp6471
I1
a(lp6472
F0.0
aaI3
aa(lp6473
I1
a(lp6474
F0.0
aaI8
aa(lp6475
I1
a(lp6476
F0.0
aaI9
aa(lp6477
I1
a(lp6478
F0.0
aaI9
aa(lp6479
I1
a(lp6480
F0.0
aaI17
aa(lp6481
I1
a(lp6482
F0.0
aaI25
aa(lp6483
I1
a(lp6484
F0.0
aaI25
aa(lp6485
I1
a(lp6486
F0.0
aaI20
aa(lp6487
I1
a(lp6488
F0.0
aaI25
aa(lp6489
I1
a(lp6490
F0.0
aaI19
aa(lp6491
I1
a(lp6492
F0.0
aaI19
aa(lp6493
I1
a(lp6494
F0.0
aaI17
aa(lp6495
I1
a(lp6496
F0.566038
aaI53
aa(lp6497
I1
a(lp6498
F0.54
aaI50
aa(lp6499
I1
a(lp6500
F0.486486
aaI37
aa(lp6501
I1
a(lp6502
F0.366197
aaI71
aa(lp6503
I1
a(lp6504
F0.236842
aaI38
aa(lp6505
I1
a(lp6506
F0.26087
aaI46
aa(lp6507
I1
a(lp6508
F0.333333
aaI36
aa(lp6509
I1
a(lp6510
F0.363636
aaI11
aa(lp6511
I1
a(lp6512
F0.0
aaI19
aaa(lp6513
S'scaffold20641_cov90'
p6514
aS'scaffold8011_cov68'
p6515
aa(lp6516
S'scaffold3002_cov145'
p6517
aS'scaffold32103_cov132'
p6518
aa(lp6519
S'scaffold43353_cov68'
p6520
aS'scaffold77207_cov117'
p6521
aa(lp6522
S'scaffold4585_cov69'
p6523
aS'scaffold6268_cov78'
p6524
aa(lp6525
S'scaffold3566_cov79'
p6526
aS'scaffold4610_cov62'
p6527
aa(lp6528
S'scaffold14578_cov124'
p6529
aS'scaffold14579_cov112'
p6530
aa(lp6531
S'scaffold166809_cov123'
p6532
aS'scaffold57805_cov71'
p6533
aa(lp6534
S'scaffold46295_cov125'
p6535
aS'scaffold4678_cov116'
p6536
aa(lp6537
S'scaffold3133_cov141'
p6538
aS'scaffold3135_cov68'
p6539
a(lp6540
I1
a(lp6541
F0.0
aaI32
aa(lp6542
I1
a(lp6543
F0.885714
aaI35
aa(lp6544
I1
a(lp6545
F0.870968
aaI31
aa(lp6546
I1
a(lp6547
F0.210526
aaI38
aaa(lp6548
S'scaffold195195_cov811'
p6549
aS'scaffold5496_cov92'
p6550
aa(lp6551
S'scaffold12001_cov141'
p6552
aS'scaffold12003_cov68'
p6553
a(lp6554
I1
a(lp6555
F0.0
aaI20
aaa(lp6556
S'scaffold21531_cov67'
p6557
aS'scaffold21534_cov145'
p6558
aa(lp6559
S'scaffold2350_cov77'
p6560
aS'scaffold95123_cov91'
p6561
aa(lp6562
S'scaffold19197_cov73'
p6563
aS'scaffold4030_cov67'
p6564
aa(lp6565
S'scaffold35689_cov78'
p6566
aS'scaffold63014_cov63'
p6567
aa(lp6568
S'scaffold117332_cov60'
p6569
aS'scaffold16608_cov151'
p6570
aa(lp6571
S'scaffold36738_cov76'
p6572
aS'scaffold6580_cov70'
p6573
aa(lp6574
S'scaffold104_cov67'
p6575
aS'scaffold34705_cov67'
p6576
aa(lp6577
S'scaffold5995_cov84'
p6578
aS'scaffold6502_cov73'
p6579
aa(lp6580
S'scaffold114629_cov63'
p6581
aS'scaffold15395_cov68'
p6582
aa(lp6583
S'scaffold10337_cov80'
p6584
aS'scaffold21068_cov65'
p6585
a(lp6586
I1
a(lp6587
F0.0
aaI14
aa(lp6588
I1
a(lp6589
F0.692308
aaI13
aa(lp6590
I1
a(lp6591
F0.0
aaI11
aa(lp6592
I1
a(lp6593
F0.0
aaI11
aa(lp6594
I1
a(lp6595
F0.0
aaI11
aa(lp6596
I1
a(lp6597
F0.0
aaI8
aa(lp6598
I1
a(lp6599
F0.0
aaI9
aa(lp6600
I1
a(lp6601
F0.0
aaI2
aaa(lp6602
S'scaffold11271_cov65'
p6603
aS'scaffold8101_cov85'
p6604
a(lp6605
I1
a(lp6606
F0.365854
aaI41
aaa(lp6607
S'scaffold29941_cov91'
p6608
aS'scaffold37213_cov79'
p6609
aasg2425
(lp6610
(lp6611
g6157
ag6158
a(lp6612
I1
a(lp6613
F0.45283
aaI53
aaa(lp6614
g6160
ag6161
aa(lp6615
g6163
ag6164
a(lp6616
I1
a(lp6617
F0.204082
aaI49
aa(lp6618
I1
a(lp6619
F0.227273
aaI44
aa(lp6620
I1
a(lp6621
F0.227273
aaI44
aa(lp6622
I1
a(lp6623
F0.243902
aaI41
aa(lp6624
I1
a(lp6625
F0.258065
aaI31
aa(lp6626
I1
a(lp6627
F0.3125
aaI32
aa(lp6628
I1
a(lp6629
F0.277778
aaI36
aa(lp6630
I1
a(lp6631
F0.333333
aaI39
aaa(lp6632
g6168
ag6169
aa(lp6633
g6171
ag6172
a(lp6634
I1
a(lp6635
F0.440678
aaI59
aa(lp6636
I1
a(lp6637
F0.448276
aaI58
aa(lp6638
I1
a(lp6639
F0.492063
aaI63
aaa(lp6640
g6192
ag6193
aa(lp6641
g6195
ag6196
aa(lp6642
g6198
ag6199
a(lp6643
I1
a(lp6644
F0.206897
aaI29
aa(lp6645
I1
a(lp6646
F0.266667
aaI45
aa(lp6647
I1
a(lp6648
F0.333333
aaI30
aa(lp6649
I1
a(lp6650
F0.431818
aaI44
aa(lp6651
I1
a(lp6652
F0.226415
aaI53
aa(lp6653
I1
a(lp6654
F0.25
aaI40
aa(lp6655
I1
a(lp6656
F0.22
aaI50
aa(lp6657
I1
a(lp6658
F0.210526
aaI57
aa(lp6659
I1
a(lp6660
F0.0
aaI37
aa(lp6661
I1
a(lp6662
F0.0
aaI41
aa(lp6663
I1
a(lp6664
F0.0
aaI41
aa(lp6665
I1
a(lp6666
F0.243902
aaI41
aa(lp6667
I1
a(lp6668
F0.230769
aaI39
aaa(lp6669
g6205
ag6206
aa(lp6670
g6214
ag6215
aa(lp6671
g6217
ag6218
aa(lp6672
g6220
ag6221
aa(lp6673
g6225
ag6226
a(lp6674
I1
a(lp6675
F0.2
aaI30
aaa(lp6676
g6234
ag6235
aa(lp6677
g6237
ag6238
aa(lp6678
g6240
ag6241
aa(lp6679
g6243
ag6244
a(lp6680
I1
a(lp6681
F0.205882
aaI34
aaa(lp6682
g6246
ag6247
a(lp6683
I1
a(lp6684
F0.0
aaI52
aa(lp6685
I1
a(lp6686
F0.0
aaI55
aaa(lp6687
g6249
ag6250
aa(lp6688
g6252
ag6253
aa(lp6689
g6259
ag6260
a(lp6690
I1
a(lp6691
F0.656566
aaI99
aa(lp6692
I1
a(lp6693
F0.253012
aaI83
aaa(lp6694
g6262
ag6263
aa(lp6695
g6265
ag6266
a(lp6696
I1
a(lp6697
F0.0
aaI14
aa(lp6698
I1
a(lp6699
F0.333333
aaI60
aaa(lp6700
g6296
ag6297
aa(lp6701
g6301
ag6302
a(lp6702
I1
a(lp6703
F0.785276
aaI163
aa(lp6704
I1
a(lp6705
F0.775281
aaI178
aa(lp6706
I1
a(lp6707
F0.793939
aaI165
aa(lp6708
I1
a(lp6709
F0.842105
aaI247
aa(lp6710
I1
a(lp6711
F0.666667
aaI33
aa(lp6712
I1
a(lp6713
F0.272727
aaI11
aa(lp6714
I1
a(lp6715
F0.313725
aaI51
aa(lp6716
I1
a(lp6717
F0.5
aaI44
aa(lp6718
I1
a(lp6719
F0.478261
aaI46
aa(lp6720
I1
a(lp6721
F0.457143
aaI35
aa(lp6722
I1
a(lp6723
F0.0
aaI27
aaa(lp6724
g6306
ag6307
a(lp6725
I1
a(lp6726
F0.358491
aaI53
aa(lp6727
I1
a(lp6728
F0.326923
aaI52
aa(lp6729
I1
a(lp6730
F0.320755
aaI53
aa(lp6731
I1
a(lp6732
F0.647059
aaI17
aa(lp6733
I1
a(lp6734
F0.666667
aaI18
aa(lp6735
I1
a(lp6736
F0.0
aaI37
aa(lp6737
I1
a(lp6738
F0.0
aaI38
aa(lp6739
I1
a(lp6740
F0.232558
aaI43
aa(lp6741
I1
a(lp6742
F0.217391
aaI46
aa(lp6743
I1
a(lp6744
F0.28
aaI50
aa(lp6745
I1
a(lp6746
F0.589744
aaI78
aa(lp6747
I1
a(lp6748
F0.548387
aaI62
aa(lp6749
I1
a(lp6750
F0.588235
aaI85
aa(lp6751
I1
a(lp6752
F0.581081
aaI74
aa(lp6753
I1
a(lp6754
F0.355263
aaI76
aa(lp6755
I1
a(lp6756
F0.342857
aaI70
aa(lp6757
I1
a(lp6758
F0.225806
aaI62
aa(lp6759
I1
a(lp6760
F0.220339
aaI59
aa(lp6761
I1
a(lp6762
F0.59375
aaI96
aaa(lp6763
g6435
ag6436
a(lp6764
I1
a(lp6765
F0.333333
aaI42
aa(lp6766
I1
a(lp6767
F0.210526
aaI38
aa(lp6768
I1
a(lp6769
F0.0
aaI281
aa(lp6770
I1
a(lp6771
F0.0
aaI13
aa(lp6772
I1
a(lp6773
F0.37037
aaI27
aaa(lp6774
g6514
ag6515
aa(lp6775
g6517
ag6518
aa(lp6776
g6520
ag6521
a(lp6777
I1
a(lp6778
F0.0
aaI2
aa(lp6779
I1
a(lp6780
F0.0
aaI2
aa(lp6781
I1
a(lp6782
F0.0
aaI2
aa(lp6783
I1
a(lp6784
F0.0
aaI8
aa(lp6785
I1
a(lp6786
F0.210526
aaI38
aa(lp6787
I1
a(lp6788
F0.259259
aaI27
aa(lp6789
I1
a(lp6790
F0.205882
aaI34
aa(lp6791
I1
a(lp6792
F0.436364
aaI55
aaa(lp6793
g6523
ag6524
aa(lp6794
g6526
ag6527
aa(lp6795
g6529
ag6530
a(lp6796
I1
a(lp6797
F0.5
aaI60
aaa(lp6798
g6532
ag6533
aa(lp6799
g6535
ag6536
a(lp6800
I1
a(lp6801
F0.296296
aaI54
aa(lp6802
I1
a(lp6803
F0.222222
aaI36
aaa(lp6804
g6538
ag6539
a(lp6805
I1
a(lp6806
F0.38
aaI50
aa(lp6807
I1
a(lp6808
F0.0
aaI10
aaa(lp6809
g6549
ag6550
aa(lp6810
g6552
ag6553
a(lp6811
I1
a(lp6812
F0.0
aaI33
aaa(lp6813
g6557
ag6558
aa(lp6814
g6560
ag6561
a(lp6815
I1
a(lp6816
F0.0
aaI34
aa(lp6817
I1
a(lp6818
F0.0
aaI26
aa(lp6819
I1
a(lp6820
F0.0
aaI27
aaa(lp6821
g6563
ag6564
a(lp6822
I1
a(lp6823
F0.0
aaI20
aa(lp6824
I1
a(lp6825
F0.0
aaI20
aa(lp6826
I1
a(lp6827
F0.0
aaI20
aa(lp6828
I1
a(lp6829
F0.6
aaI10
aa(lp6830
I1
a(lp6831
F0.0
aaI41
aa(lp6832
I1
a(lp6833
F0.0
aaI43
aa(lp6834
I1
a(lp6835
F0.2
aaI40
aa(lp6836
I1
a(lp6837
F0.2
aaI40
aa(lp6838
I1
a(lp6839
F0.2
aaI40
aa(lp6840
I1
a(lp6841
F0.0
aaI11
aa(lp6842
I1
a(lp6843
F0.0
aaI10
aa(lp6844
I1
a(lp6845
F0.428571
aaI21
aa(lp6846
I1
a(lp6847
F0.241379
aaI29
aa(lp6848
I1
a(lp6849
F0.411765
aaI34
aa(lp6850
I1
a(lp6851
F0.441176
aaI34
aa(lp6852
I1
a(lp6853
F0.365854
aaI41
aa(lp6854
I1
a(lp6855
F0.365854
aaI41
aa(lp6856
I1
a(lp6857
F0.222222
aaI18
aaa(lp6858
g6566
ag6567
aa(lp6859
g6569
ag6570
aa(lp6860
g6572
ag6573
aa(lp6861
g6575
ag6576
aa(lp6862
g6578
ag6579
a(lp6863
I1
a(lp6864
F0.0
aaI37
aa(lp6865
I1
a(lp6866
F0.529412
aaI68
aa(lp6867
I1
a(lp6868
F0.491525
aaI59
aa(lp6869
I1
a(lp6870
F0.483333
aaI60
aa(lp6871
I1
a(lp6872
F0.464286
aaI56
aa(lp6873
I1
a(lp6874
F0.365385
aaI52
aaa(lp6875
g6581
ag6582
aa(lp6876
g6584
ag6585
aa(lp6877
g6603
ag6604
aa(lp6878
g6608
ag6609
aass.