(dp0
S'triploids'
p1
(dp2
S'down'
p3
(lp4
(lp5
S'scaffold167486_cov93'
p6
aS'scaffold32268_cov68'
p7
aa(lp8
S'scaffold3954_cov94'
p9
aS'scaffold73744_cov62'
p10
aa(lp11
S'scaffold13284_cov147'
p12
aS'scaffold23977_cov68'
p13
aa(lp14
S'scaffold49814_cov72'
p15
aS'scaffold15895_cov77'
p16
a(lp17
I1
a(lp18
F0.470588
aaI34
aaa(lp19
S'scaffold10148_cov99'
p20
aS'scaffold6498_cov76'
p21
a(lp22
I1
a(lp23
F0.285714
aaI21
aa(lp24
I1
a(lp25
F0.3
aaI20
aa(lp26
I1
a(lp27
F0.263158
aaI19
aa(lp28
I1
a(lp29
F0.25
aaI20
aa(lp30
I1
a(lp31
F0.266667
aaI15
aa(lp32
I1
a(lp33
F0.333333
aaI18
aa(lp34
I1
a(lp35
F0.368421
aaI19
aa(lp36
I1
a(lp37
F0.333333
aaI21
aa(lp38
I1
a(lp39
F0.318182
aaI22
aa(lp40
I1
a(lp41
F0.448276
aaI29
aa(lp42
I1
a(lp43
F0.46875
aaI32
aa(lp44
I1
a(lp45
F0.428571
aaI28
aa(lp46
I1
a(lp47
F0.0
aaI26
aa(lp48
I1
a(lp49
F0.432432
aaI37
aa(lp50
I1
a(lp51
F0.361111
aaI36
aa(lp52
I1
a(lp53
F0.333333
aaI36
aa(lp54
I1
a(lp55
F0.342857
aaI35
aa(lp56
I1
a(lp57
F0.375
aaI24
aa(lp58
I1
a(lp59
F0.393939
aaI33
aa(lp60
I1
a(lp61
F0.431818
aaI44
aa(lp62
I1
a(lp63
F0.310345
aaI29
aa(lp64
I1
a(lp65
F0.285714
aaI21
aa(lp66
I1
a(lp67
F0.272727
aaI22
aa(lp68
I1
a(lp69
F0.565217
aaI23
aaa(lp70
S'scaffold2658_cov137'
p71
aS'scaffold4421_cov66'
p72
a(lp73
I1
a(lp74
F0.0
aaI16
aaa(lp75
S'scaffold8528_cov135'
p76
aS'scaffold10431_cov72'
p77
a(lp78
I1
a(lp79
F0.0
aaI3
aaa(lp80
S'scaffold160792_cov138'
p81
aS'scaffold90278_cov81'
p82
aa(lp83
S'scaffold6934_cov101'
p84
aS'scaffold5476_cov91'
p85
aa(lp86
S'scaffold13631_cov149'
p87
aS'scaffold1043_cov70'
p88
aa(lp89
S'scaffold4095_cov147'
p90
aS'scaffold1076_cov67'
p91
aa(lp92
S'scaffold26651_cov113'
p93
aS'scaffold2076_cov75'
p94
a(lp95
I1
a(lp96
F0.368421
aaI38
aa(lp97
I1
a(lp98
F0.0
aaI17
aa(lp99
I1
a(lp100
F0.617647
aaI34
aaa(lp101
S'scaffold37943_cov120'
p102
aS'scaffold39367_cov97'
p103
a(lp104
I1
a(lp105
F0.518519
aaI27
aa(lp106
I1
a(lp107
F0.448276
aaI29
aa(lp108
I1
a(lp109
F0.571429
aaI28
aa(lp110
I1
a(lp111
F0.333333
aaI33
aa(lp112
I1
a(lp113
F0.40625
aaI32
aa(lp114
I1
a(lp115
F0.451613
aaI31
aa(lp116
I1
a(lp117
F0.375
aaI24
aa(lp118
I1
a(lp119
F0.347826
aaI23
aa(lp120
I1
a(lp121
F0.375
aaI24
aa(lp122
I1
a(lp123
F0.238095
aaI21
aa(lp124
I1
a(lp125
F0.26087
aaI23
aa(lp126
I1
a(lp127
F0.310345
aaI29
aa(lp128
I1
a(lp129
F0.458333
aaI24
aa(lp130
I1
a(lp131
F0.347826
aaI23
aa(lp132
I1
a(lp133
F0.210526
aaI19
aa(lp134
I1
a(lp135
F0.52
aaI25
aa(lp136
I1
a(lp137
F0.5
aaI20
aa(lp138
I1
a(lp139
F0.454545
aaI33
aa(lp140
I1
a(lp141
F0.459459
aaI37
aa(lp142
I1
a(lp143
F0.405405
aaI37
aa(lp144
I1
a(lp145
F0.4
aaI25
aa(lp146
I1
a(lp147
F0.548387
aaI31
aa(lp148
I1
a(lp149
F0.481481
aaI27
aa(lp150
I1
a(lp151
F0.56
aaI25
aa(lp152
I1
a(lp153
F0.28
aaI25
aa(lp154
I1
a(lp155
F0.307692
aaI26
aa(lp156
I1
a(lp157
F0.32
aaI25
aa(lp158
I1
a(lp159
F0.333333
aaI24
aa(lp160
I1
a(lp161
F0.3
aaI20
aa(lp162
I1
a(lp163
F0.210526
aaI19
aa(lp164
I1
a(lp165
F0.210526
aaI19
aa(lp166
I1
a(lp167
F0.2
aaI15
aa(lp168
I1
a(lp169
F0.333333
aaI15
aa(lp170
I1
a(lp171
F0.307692
aaI13
aa(lp172
I1
a(lp173
F0.3
aaI10
aa(lp174
I1
a(lp175
F0.285714
aaI14
aa(lp176
I1
a(lp177
F0.210526
aaI19
aa(lp178
I1
a(lp179
F0.2
aaI15
aa(lp180
I1
a(lp181
F0.590909
aaI22
aa(lp182
I1
a(lp183
F0.555556
aaI18
aa(lp184
I1
a(lp185
F0.34375
aaI32
aaa(lp186
S'scaffold11629_cov141'
p187
aS'scaffold11627_cov72'
p188
aa(lp189
S'scaffold2522_cov147'
p190
aS'scaffold2520_cov73'
p191
aa(lp192
S'scaffold3257_cov146'
p193
aS'scaffold16169_cov72'
p194
a(lp195
I1
a(lp196
F0.0
aaI26
aa(lp197
I1
a(lp198
F0.0
aaI26
aa(lp199
I1
a(lp200
F0.408163
aaI98
aa(lp201
I1
a(lp202
F0.337079
aaI89
aa(lp203
I1
a(lp204
F0.0
aaI3
aaa(lp205
S'scaffold33358_cov122'
p206
aS'scaffold11974_cov67'
p207
aa(lp208
S'scaffold17315_cov142'
p209
aS'scaffold17316_cov65'
p210
aa(lp211
S'scaffold27512_cov124'
p212
aS'scaffold9838_cov70'
p213
a(lp214
I1
a(lp215
F0.0
aaI20
aa(lp216
I1
a(lp217
F0.0
aaI17
aaa(lp218
S'scaffold7102_cov63'
p219
aS'scaffold1868_cov136'
p220
a(lp221
I1
a(lp222
F0.0
aaI3
aa(lp223
I1
a(lp224
F0.0
aaI2
aa(lp225
I1
a(lp226
F0.0
aaI2
aa(lp227
I1
a(lp228
F0.0
aaI19
aa(lp229
I1
a(lp230
F0.0
aaI8
aa(lp231
I1
a(lp232
F0.0
aaI7
aa(lp233
I1
a(lp234
F0.0
aaI5
aa(lp235
I1
a(lp236
F0.2
aaI10
aa(lp237
I1
a(lp238
F0.777778
aaI9
aa(lp239
I1
a(lp240
F0.0
aaI7
aa(lp241
I1
a(lp242
F0.0
aaI7
aa(lp243
I1
a(lp244
F0.0
aaI6
aa(lp245
I1
a(lp246
F0.0
aaI5
aa(lp247
I1
a(lp248
F0.6
aaI5
aa(lp249
I1
a(lp250
F0.0
aaI3
aa(lp251
I1
a(lp252
F0.0
aaI3
aa(lp253
I1
a(lp254
F0.0
aaI3
aa(lp255
I1
a(lp256
F0.0
aaI3
aa(lp257
I1
a(lp258
F0.0
aaI3
aa(lp259
I1
a(lp260
F0.666667
aaI3
aa(lp261
I1
a(lp262
F0.0
aaI3
aa(lp263
I1
a(lp264
F0.0
aaI2
aa(lp265
I1
a(lp266
F0.0
aaI2
aa(lp267
I1
a(lp268
F0.0
aaI5
aa(lp269
I1
a(lp270
F0.0
aaI5
aa(lp271
I1
a(lp272
F0.0
aaI5
aa(lp273
I1
a(lp274
F0.0
aaI4
aa(lp275
I1
a(lp276
F0.0
aaI9
aa(lp277
I1
a(lp278
F0.0
aaI8
aaa(lp279
S'scaffold19614_cov87'
p280
aS'scaffold74444_cov64'
p281
aa(lp282
S'scaffold165401_cov148'
p283
aS'scaffold12422_cov71'
p284
a(lp285
I1
a(lp286
F0.275
aaI40
aa(lp287
I1
a(lp288
F0.539683
aaI63
aaa(lp289
S'scaffold108_cov145'
p290
aS'scaffold107_cov67'
p291
aa(lp292
S'scaffold96847_cov139'
p293
aS'scaffold3943_cov70'
p294
aa(lp295
S'scaffold47647_cov69'
p296
aS'scaffold7129_cov63'
p297
aa(lp298
S'scaffold6388_cov146'
p299
aS'scaffold8779_cov66'
p300
a(lp301
I1
a(lp302
F0.0
aaI16
aa(lp303
I1
a(lp304
F0.0
aaI16
aa(lp305
I1
a(lp306
F0.0
aaI17
aa(lp307
I1
a(lp308
F0.0
aaI17
aa(lp309
I1
a(lp310
F0.540541
aaI37
aa(lp311
I1
a(lp312
F0.0
aaI21
aa(lp313
I1
a(lp314
F0.0
aaI12
aaa(lp315
S'scaffold167512_cov105'
p316
aS'scaffold132398_cov66'
p317
a(lp318
I1
a(lp319
F0.0
aaI19
aa(lp320
I1
a(lp321
F0.0
aaI21
aa(lp322
I1
a(lp323
F0.25
aaI16
aa(lp324
I1
a(lp325
F0.266667
aaI15
aa(lp326
I1
a(lp327
F0.230769
aaI13
aa(lp328
I1
a(lp329
F0.230769
aaI13
aa(lp330
I1
a(lp331
F0.230769
aaI13
aaa(lp332
S'scaffold90279_cov161'
p333
aS'scaffold90278_cov81'
p334
aa(lp335
S'scaffold33112_cov67'
p336
aS'scaffold33753_cov69'
p337
a(lp338
I1
a(lp339
F0.294118
aaI17
aa(lp340
I1
a(lp341
F0.5
aaI4
aa(lp342
I1
a(lp343
F0.5
aaI4
aaa(lp344
S'scaffold166740_cov68'
p345
aS'scaffold167477_cov80'
p346
a(lp347
I1
a(lp348
F0.212121
aaI33
aa(lp349
I1
a(lp350
F0.212121
aaI33
aa(lp351
I1
a(lp352
F0.233333
aaI30
aa(lp353
I1
a(lp354
F0.290323
aaI31
aa(lp355
I1
a(lp356
F0.35
aaI20
aaa(lp357
S'scaffold1391_cov96'
p358
aS'scaffold46961_cov69'
p359
aa(lp360
S'scaffold56728_cov119'
p361
aS'scaffold11627_cov72'
p362
aa(lp363
S'scaffold8397_cov125'
p364
aS'scaffold2722_cov84'
p365
a(lp366
I1
a(lp367
F0.0
aaI16
aa(lp368
I1
a(lp369
F0.0
aaI8
aa(lp370
I1
a(lp371
F0.0
aaI10
aa(lp372
I1
a(lp373
F0.0
aaI10
aa(lp374
I1
a(lp375
F0.0
aaI21
aa(lp376
I1
a(lp377
F0.0
aaI18
aaa(lp378
S'scaffold2416_cov137'
p379
aS'scaffold2417_cov66'
p380
aa(lp381
S'scaffold20419_cov113'
p382
aS'scaffold114_cov72'
p383
aa(lp384
S'scaffold27148_cov73'
p385
aS'scaffold860_cov64'
p386
aa(lp387
S'scaffold4513_cov135'
p388
aS'scaffold59029_cov68'
p389
aa(lp390
S'scaffold406_cov110'
p391
aS'scaffold39105_cov66'
p392
aa(lp393
S'scaffold1716_cov94'
p394
aS'scaffold45397_cov62'
p395
a(lp396
I1
a(lp397
F0.0
aaI22
aaa(lp398
S'scaffold11225_cov146'
p399
aS'scaffold33238_cov67'
p400
aa(lp401
S'scaffold1158_cov100'
p402
aS'scaffold100812_cov62'
p403
aa(lp404
S'scaffold4036_cov142'
p405
aS'scaffold10658_cov62'
p406
aa(lp407
S'scaffold12688_cov135'
p408
aS'scaffold12686_cov61'
p409
a(lp410
I1
a(lp411
F0.0
aaI5
aa(lp412
I1
a(lp413
F0.0
aaI23
aaa(lp414
S'scaffold9676_cov145'
p415
aS'scaffold16231_cov68'
p416
aa(lp417
S'scaffold180_cov107'
p418
aS'scaffold1171_cov70'
p419
a(lp420
I1
a(lp421
F0.214286
aaI28
aa(lp422
I1
a(lp423
F0.346154
aaI26
aa(lp424
I1
a(lp425
F0.28125
aaI32
aa(lp426
I1
a(lp427
F0.272727
aaI33
aa(lp428
I1
a(lp429
F0.272727
aaI33
aa(lp430
I1
a(lp431
F0.206897
aaI29
aaa(lp432
S'scaffold29230_cov135'
p433
aS'scaffold7717_cov65'
p434
aa(lp435
S'scaffold166708_cov122'
p436
aS'scaffold697_cov68'
p437
aa(lp438
S'scaffold6658_cov76'
p439
aS'scaffold860_cov64'
p440
aa(lp441
S'scaffold53892_cov107'
p442
aS'scaffold57838_cov69'
p443
aa(lp444
S'scaffold10313_cov102'
p445
aS'scaffold21316_cov65'
p446
a(lp447
I1
a(lp448
F0.2
aaI10
aaa(lp449
S'scaffold5667_cov96'
p450
aS'scaffold8355_cov67'
p451
a(lp452
I1
a(lp453
F0.2
aaI10
aa(lp454
I1
a(lp455
F0.25
aaI12
aaa(lp456
S'scaffold167496_cov97'
p457
aS'scaffold29206_cov81'
p458
a(lp459
I1
a(lp460
F0.478261
aaI23
aa(lp461
I1
a(lp462
F0.478261
aaI23
aa(lp463
I1
a(lp464
F0.541667
aaI24
aa(lp465
I1
a(lp466
F0.48
aaI25
aa(lp467
I1
a(lp468
F0.416667
aaI24
aa(lp469
I1
a(lp470
F0.473684
aaI19
aa(lp471
I1
a(lp472
F0.47619
aaI21
aa(lp473
I1
a(lp474
F0.382353
aaI34
aa(lp475
I1
a(lp476
F0.3
aaI30
aa(lp477
I1
a(lp478
F0.214286
aaI28
aaa(lp479
S'scaffold26582_cov78'
p480
aS'scaffold5481_cov69'
p481
a(lp482
I1
a(lp483
F0.259259
aaI27
aaa(lp484
S'scaffold31513_cov82'
p485
aS'scaffold5259_cov70'
p486
a(lp487
I1
a(lp488
F0.208333
aaI24
aa(lp489
I1
a(lp490
F0.333333
aaI15
aa(lp491
I1
a(lp492
F0.333333
aaI12
aa(lp493
I1
a(lp494
F0.333333
aaI12
aa(lp495
I1
a(lp496
F0.24
aaI25
aaa(lp497
S'scaffold40887_cov133'
p498
aS'scaffold46748_cov73'
p499
aa(lp500
S'scaffold165520_cov190'
p501
aS'scaffold59464_cov122'
p502
aa(lp503
S'scaffold65460_cov69'
p504
aS'scaffold4555_cov123'
p505
aa(lp506
S'scaffold20825_cov153'
p507
aS'scaffold24052_cov69'
p508
aa(lp509
S'scaffold14473_cov147'
p510
aS'scaffold33229_cov65'
p511
a(lp512
I1
a(lp513
F0.0
aaI17
aaa(lp514
S'scaffold11599_cov105'
p515
aS'scaffold61789_cov64'
p516
a(lp517
I1
a(lp518
F0.0
aaI12
aaa(lp519
S'scaffold13917_cov148'
p520
aS'scaffold28422_cov65'
p521
aa(lp522
S'scaffold53875_cov130'
p523
aS'scaffold25755_cov75'
p524
a(lp525
I1
a(lp526
F0.0
aaI18
aaa(lp527
S'scaffold62474_cov113'
p528
aS'scaffold10275_cov68'
p529
aa(lp530
S'scaffold23999_cov72'
p531
aS'scaffold3701_cov67'
p532
a(lp533
I1
a(lp534
F0.0
aaI19
aaa(lp535
S'scaffold22882_cov105'
p536
aS'scaffold5203_cov76'
p537
a(lp538
I1
a(lp539
F0.2
aaI20
aaa(lp540
S'scaffold16120_cov143'
p541
aS'scaffold9901_cov65'
p542
aa(lp543
S'scaffold22339_cov108'
p544
aS'scaffold15124_cov63'
p545
a(lp546
I1
a(lp547
F0.0
aaI21
aa(lp548
I1
a(lp549
F0.0
aaI3
aa(lp550
I1
a(lp551
F0.0
aaI3
aa(lp552
I1
a(lp553
F0.0
aaI2
aa(lp554
I1
a(lp555
F0.0
aaI2
aa(lp556
I1
a(lp557
F0.0
aaI2
aa(lp558
I1
a(lp559
F0.0
aaI2
aa(lp560
I1
a(lp561
F0.0
aaI2
aa(lp562
I1
a(lp563
F0.0
aaI2
aa(lp564
I1
a(lp565
F0.0
aaI2
aa(lp566
I1
a(lp567
F0.0
aaI2
aa(lp568
I1
a(lp569
F0.0
aaI9
aaa(lp570
S'scaffold15763_cov140'
p571
aS'scaffold7011_cov67'
p572
a(lp573
I1
a(lp574
F0.26087
aaI23
aa(lp575
I1
a(lp576
F0.307692
aaI26
aaa(lp577
S'scaffold3674_cov106'
p578
aS'scaffold57150_cov68'
p579
aa(lp580
S'scaffold8694_cov129'
p581
aS'scaffold8135_cov71'
p582
a(lp583
I1
a(lp584
F0.368421
aaI19
aa(lp585
I1
a(lp586
F0.457143
aaI35
aaa(lp587
S'scaffold166685_cov152'
p588
aS'scaffold2832_cov75'
p589
a(lp590
I1
a(lp591
F0.227273
aaI22
aaa(lp592
S'scaffold903_cov126'
p593
aS'scaffold1840_cov66'
p594
a(lp595
I1
a(lp596
F0.225806
aaI31
aaa(lp597
S'scaffold34941_cov134'
p598
aS'scaffold1333_cov60'
p599
aa(lp600
S'scaffold4413_cov63'
p601
aS'scaffold15975_cov67'
p602
aa(lp603
S'scaffold6820_cov103'
p604
aS'scaffold6818_cov67'
p605
a(lp606
I1
a(lp607
F0.321429
aaI28
aa(lp608
I1
a(lp609
F0.321429
aaI28
aa(lp610
I1
a(lp611
F0.310345
aaI29
aa(lp612
I1
a(lp613
F0.310345
aaI29
aa(lp614
I1
a(lp615
F0.322581
aaI31
aa(lp616
I1
a(lp617
F0.275862
aaI29
aa(lp618
I1
a(lp619
F0.352941
aaI17
aa(lp620
I1
a(lp621
F0.0
aaI13
aa(lp622
I1
a(lp623
F0.5625
aaI16
aa(lp624
I1
a(lp625
F0.619048
aaI21
aa(lp626
I1
a(lp627
F0.235294
aaI34
aa(lp628
I1
a(lp629
F0.518519
aaI27
aa(lp630
I1
a(lp631
F0.272727
aaI22
aa(lp632
I1
a(lp633
F0.2
aaI25
aa(lp634
I1
a(lp635
F0.2
aaI25
aa(lp636
I1
a(lp637
F0.371429
aaI35
aaa(lp638
S'scaffold4931_cov109'
p639
aS'scaffold2702_cov92'
p640
aa(lp641
S'scaffold3133_cov141'
p642
aS'scaffold30966_cov62'
p643
aa(lp644
S'scaffold6620_cov103'
p645
aS'scaffold7907_cov67'
p646
a(lp647
I1
a(lp648
F0.2
aaI10
aa(lp649
I1
a(lp650
F0.2
aaI10
aaa(lp651
S'scaffold95367_cov139'
p652
aS'scaffold95366_cov79'
p653
aa(lp654
S'scaffold166345_cov136'
p655
aS'scaffold367_cov102'
p656
aa(lp657
S'scaffold9131_cov93'
p658
aS'scaffold28864_cov67'
p659
a(lp660
I1
a(lp661
F0.0
aaI20
aa(lp662
I1
a(lp663
F0.75
aaI12
aaa(lp664
S'scaffold19827_cov125'
p665
aS'scaffold167515_cov69'
p666
a(lp667
I1
a(lp668
F0.363636
aaI44
aa(lp669
I1
a(lp670
F0.318182
aaI44
aa(lp671
I2
a(lp672
F0.263158
aF0.736842
aaI19
aa(lp673
I1
a(lp674
F0.0
aaI17
aa(lp675
I1
a(lp676
F0.0
aaI23
aa(lp677
I1
a(lp678
F0.222222
aaI27
aa(lp679
I1
a(lp680
F0.0
aaI30
aa(lp681
I1
a(lp682
F0.0
aaI18
aaa(lp683
S'scaffold5296_cov115'
p684
aS'scaffold2979_cov71'
p685
aa(lp686
S'scaffold35735_cov102'
p687
aS'scaffold4162_cov69'
p688
a(lp689
I1
a(lp690
F0.0
aaI39
aaa(lp691
S'scaffold36202_cov116'
p692
aS'scaffold32923_cov104'
p693
a(lp694
I1
a(lp695
F0.285714
aaI14
aa(lp696
I1
a(lp697
F0.285714
aaI14
aa(lp698
I1
a(lp699
F0.266667
aaI15
aa(lp700
I1
a(lp701
F0.25
aaI16
aa(lp702
I1
a(lp703
F0.25
aaI16
aa(lp704
I1
a(lp705
F0.210526
aaI19
aa(lp706
I1
a(lp707
F0.235294
aaI17
aa(lp708
I1
a(lp709
F0.25
aaI16
aa(lp710
I1
a(lp711
F0.222222
aaI18
aaa(lp712
S'scaffold14189_cov153'
p713
aS'scaffold2637_cov71'
p714
aa(lp715
S'scaffold1394_cov148'
p716
aS'scaffold1395_cov70'
p717
aa(lp718
S'scaffold2849_cov95'
p719
aS'scaffold165441_cov141'
p720
a(lp721
I1
a(lp722
F0.0
aaI5
aaa(lp723
S'scaffold21927_cov117'
p724
aS'scaffold6252_cov71'
p725
a(lp726
I1
a(lp727
F0.44186
aaI43
aaa(lp728
S'scaffold8966_cov109'
p729
aS'scaffold3586_cov72'
p730
a(lp731
I1
a(lp732
F0.266667
aaI45
aa(lp733
I1
a(lp734
F0.227273
aaI44
aaa(lp735
S'scaffold514_cov77'
p736
aS'scaffold2213_cov74'
p737
aa(lp738
S'scaffold3987_cov100'
p739
aS'scaffold14924_cov62'
p740
aa(lp741
S'scaffold2987_cov88'
p742
aS'scaffold4224_cov73'
p743
a(lp744
I1
a(lp745
F0.25
aaI24
aa(lp746
I1
a(lp747
F0.227273
aaI22
aa(lp748
I1
a(lp749
F0.484848
aaI33
aa(lp750
I1
a(lp751
F0.292683
aaI41
aa(lp752
I1
a(lp753
F0.27907
aaI43
aa(lp754
I1
a(lp755
F0.47619
aaI21
aa(lp756
I1
a(lp757
F0.314286
aaI35
aa(lp758
I1
a(lp759
F0.264706
aaI34
aa(lp760
I1
a(lp761
F0.535714
aaI28
aa(lp762
I1
a(lp763
F0.464286
aaI28
aa(lp764
I1
a(lp765
F0.411765
aaI34
aa(lp766
I1
a(lp767
F0.0
aaI17
aaa(lp768
S'scaffold164974_cov139'
p769
aS'scaffold2833_cov61'
p770
aa(lp771
S'scaffold3477_cov108'
p772
aS'scaffold10061_cov67'
p773
aa(lp774
S'scaffold9403_cov96'
p775
aS'scaffold23269_cov69'
p776
aa(lp777
S'scaffold48176_cov76'
p778
aS'scaffold42838_cov68'
p779
aa(lp780
S'scaffold3722_cov135'
p781
aS'scaffold3719_cov67'
p782
a(lp783
I1
a(lp784
F0.26087
aaI23
aa(lp785
I1
a(lp786
F0.208333
aaI24
aa(lp787
I1
a(lp788
F0.448276
aaI29
aa(lp789
I1
a(lp790
F0.0
aaI23
aaa(lp791
S'scaffold165461_cov100'
p792
aS'scaffold10491_cov66'
p793
aa(lp794
S'scaffold14267_cov83'
p795
aS'scaffold1125_cov68'
p796
a(lp797
I1
a(lp798
F0.28
aaI25
aa(lp799
I1
a(lp800
F0.416667
aaI24
aa(lp801
I1
a(lp802
F0.405405
aaI37
aa(lp803
I1
a(lp804
F0.282051
aaI39
aa(lp805
I1
a(lp806
F0.333333
aaI21
aa(lp807
I1
a(lp808
F0.428571
aaI21
aa(lp809
I1
a(lp810
F0.488889
aaI45
aaa(lp811
S'scaffold32619_cov118'
p812
aS'scaffold20061_cov80'
p813
a(lp814
I1
a(lp815
F0.277778
aaI36
aa(lp816
I1
a(lp817
F0.285714
aaI35
aa(lp818
I1
a(lp819
F0.352941
aaI34
aaa(lp820
S'scaffold3738_cov114'
p821
aS'scaffold11440_cov66'
p822
a(lp823
I1
a(lp824
F0.0
aaI9
aaa(lp825
S'scaffold11968_cov142'
p826
aS'scaffold3404_cov63'
p827
a(lp828
I1
a(lp829
F0.407407
aaI27
aaa(lp830
S'scaffold4957_cov147'
p831
aS'scaffold2304_cov67'
p832
aa(lp833
S'scaffold6014_cov96'
p834
aS'scaffold69980_cov67'
p835
aa(lp836
S'scaffold17627_cov105'
p837
aS'scaffold117137_cov65'
p838
aa(lp839
S'scaffold165395_cov77'
p840
aS'scaffold42402_cov68'
p841
aa(lp842
S'scaffold12770_cov157'
p843
aS'scaffold21646_cov62'
p844
a(lp845
I1
a(lp846
F0.0
aaI9
aa(lp847
I1
a(lp848
F0.0
aaI9
aa(lp849
I1
a(lp850
F0.0
aaI2
aa(lp851
I1
a(lp852
F0.0
aaI8
aa(lp853
I1
a(lp854
F0.0
aaI3
aa(lp855
I1
a(lp856
F0.0
aaI3
aa(lp857
I1
a(lp858
F0.0
aaI7
aa(lp859
I1
a(lp860
F0.0
aaI5
aa(lp861
I1
a(lp862
F0.0
aaI9
aa(lp863
I1
a(lp864
F0.0
aaI9
aa(lp865
I1
a(lp866
F0.0
aaI7
aa(lp867
I1
a(lp868
F0.0
aaI6
aa(lp869
I1
a(lp870
F0.0
aaI7
aa(lp871
I1
a(lp872
F0.0
aaI12
aa(lp873
I1
a(lp874
F0.0
aaI8
aa(lp875
I1
a(lp876
F0.0
aaI7
aa(lp877
I1
a(lp878
F0.0
aaI3
aa(lp879
I1
a(lp880
F0.0
aaI5
aa(lp881
I1
a(lp882
F0.0
aaI7
aa(lp883
I1
a(lp884
F0.0
aaI6
aa(lp885
I1
a(lp886
F0.0
aaI6
aa(lp887
I1
a(lp888
F0.0
aaI6
aaa(lp889
S'scaffold2416_cov137'
p890
aS'scaffold16788_cov63'
p891
a(lp892
I1
a(lp893
F0.0
aaI23
aa(lp894
I1
a(lp895
F0.0
aaI20
aa(lp896
I1
a(lp897
F0.0
aaI26
aa(lp898
I1
a(lp899
F0.0
aaI19
aaa(lp900
S'scaffold167565_cov117'
p901
aS'scaffold893_cov66'
p902
a(lp903
I1
a(lp904
F0.0
aaI18
aaa(lp905
S'scaffold49558_cov135'
p906
aS'scaffold10462_cov135'
p907
aa(lp908
S'scaffold25651_cov100'
p909
aS'scaffold46961_cov69'
p910
aa(lp911
S'scaffold29989_cov70'
p912
aS'scaffold66329_cov132'
p913
aa(lp914
S'scaffold14528_cov66'
p915
aS'scaffold14527_cov64'
p916
a(lp917
I1
a(lp918
F0.457143
aaI35
aa(lp919
I1
a(lp920
F0.513514
aaI37
aa(lp921
I1
a(lp922
F0.2
aaI10
aa(lp923
I1
a(lp924
F0.222222
aaI9
aa(lp925
I1
a(lp926
F0.206897
aaI29
aa(lp927
I1
a(lp928
F0.290323
aaI31
aa(lp929
I1
a(lp930
F0.222222
aaI27
aa(lp931
I1
a(lp932
F0.4
aaI25
aaa(lp933
S'scaffold3122_cov145'
p934
aS'scaffold3123_cov67'
p935
a(lp936
I1
a(lp937
F0.0
aaI21
aa(lp938
I1
a(lp939
F0.0
aaI22
aa(lp940
I1
a(lp941
F0.3
aaI10
aaa(lp942
S'scaffold8282_cov147'
p943
aS'scaffold8279_cov69'
p944
a(lp945
I1
a(lp946
F0.0
aaI28
aaa(lp947
S'scaffold903_cov126'
p948
aS'scaffold900_cov65'
p949
aa(lp950
S'scaffold13891_cov62'
p951
aS'scaffold26778_cov137'
p952
aa(lp953
S'scaffold7194_cov116'
p954
aS'scaffold6437_cov66'
p955
aa(lp956
S'scaffold70862_cov124'
p957
aS'scaffold34357_cov65'
p958
aa(lp959
S'scaffold14197_cov99'
p960
aS'scaffold6524_cov65'
p961
a(lp962
I1
a(lp963
F0.25
aaI8
aa(lp964
I1
a(lp965
F0.210526
aaI19
aa(lp966
I1
a(lp967
F0.333333
aaI27
aa(lp968
I1
a(lp969
F0.371429
aaI35
aa(lp970
I1
a(lp971
F0.321429
aaI28
aa(lp972
I1
a(lp973
F0.269231
aaI26
aaa(lp974
S'scaffold15885_cov116'
p975
aS'scaffold15073_cov71'
p976
a(lp977
I1
a(lp978
F0.366667
aaI30
aa(lp979
I1
a(lp980
F0.222222
aaI27
aa(lp981
I1
a(lp982
F0.568627
aaI51
aaa(lp983
S'scaffold3010_cov130'
p984
aS'scaffold3009_cov66'
p985
aa(lp986
S'scaffold34740_cov99'
p987
aS'scaffold10321_cov72'
p988
aa(lp989
S'scaffold45626_cov132'
p990
aS'scaffold26610_cov67'
p991
aa(lp992
S'scaffold19276_cov115'
p993
aS'scaffold33185_cov125'
p994
aa(lp995
S'scaffold13917_cov148'
p996
aS'scaffold5199_cov65'
p997
a(lp998
I1
a(lp999
F0.0
aaI28
aaa(lp1000
S'scaffold4489_cov91'
p1001
aS'scaffold166706_cov72'
p1002
a(lp1003
I1
a(lp1004
F0.241379
aaI29
aa(lp1005
I1
a(lp1006
F0.206897
aaI29
aaa(lp1007
S'scaffold14010_cov120'
p1008
aS'scaffold9558_cov65'
p1009
a(lp1010
I1
a(lp1011
F0.0
aaI13
aa(lp1012
I1
a(lp1013
F0.6
aaI5
aa(lp1014
I1
a(lp1015
F0.727273
aaI11
aa(lp1016
I1
a(lp1017
F0.0
aaI24
aaa(lp1018
S'scaffold7174_cov138'
p1019
aS'scaffold6615_cov72'
p1020
a(lp1021
I1
a(lp1022
F0.0
aaI32
aa(lp1023
I1
a(lp1024
F0.0
aaI25
aa(lp1025
I1
a(lp1026
F0.315789
aaI19
aa(lp1027
I1
a(lp1028
F0.285714
aaI7
aaa(lp1029
S'scaffold8983_cov110'
p1030
aS'scaffold5722_cov65'
p1031
aa(lp1032
S'scaffold7147_cov103'
p1033
aS'scaffold7146_cov65'
p1034
a(lp1035
I1
a(lp1036
F0.375
aaI16
aa(lp1037
I1
a(lp1038
F0.625
aaI16
aaa(lp1039
S'scaffold166788_cov64'
p1040
aS'scaffold166767_cov133'
p1041
aa(lp1042
S'scaffold14010_cov120'
p1043
aS'scaffold20924_cov70'
p1044
aa(lp1045
S'scaffold14968_cov70'
p1046
aS'scaffold5208_cov124'
p1047
aa(lp1048
S'scaffold33079_cov127'
p1049
aS'scaffold21398_cov73'
p1050
aa(lp1051
S'scaffold37263_cov117'
p1052
aS'scaffold4202_cov67'
p1053
a(lp1054
I1
a(lp1055
F0.0
aaI2
aa(lp1056
I1
a(lp1057
F0.0
aaI3
aa(lp1058
I1
a(lp1059
F0.0
aaI8
aa(lp1060
I1
a(lp1061
F0.0
aaI7
aa(lp1062
I1
a(lp1063
F0.0
aaI6
aa(lp1064
I1
a(lp1065
F0.0
aaI6
aa(lp1066
I1
a(lp1067
F0.0
aaI6
aa(lp1068
I1
a(lp1069
F0.0
aaI7
aa(lp1070
I1
a(lp1071
F0.0
aaI7
aa(lp1072
I1
a(lp1073
F0.0
aaI7
aa(lp1074
I1
a(lp1075
F0.0
aaI9
aa(lp1076
I1
a(lp1077
F0.0
aaI12
aa(lp1078
I1
a(lp1079
F0.0
aaI18
aa(lp1080
I1
a(lp1081
F0.0
aaI2
aa(lp1082
I1
a(lp1083
F0.0
aaI3
aa(lp1084
I1
a(lp1085
F0.0
aaI3
aa(lp1086
I1
a(lp1087
F0.0
aaI2
aa(lp1088
I1
a(lp1089
F0.0
aaI4
aa(lp1090
I1
a(lp1091
F0.0
aaI3
aa(lp1092
I1
a(lp1093
F0.0
aaI2
aa(lp1094
I1
a(lp1095
F0.0
aaI2
aa(lp1096
I1
a(lp1097
F0.0
aaI2
aa(lp1098
I1
a(lp1099
F0.0
aaI3
aa(lp1100
I1
a(lp1101
F0.0
aaI3
aa(lp1102
I1
a(lp1103
F0.0
aaI4
aa(lp1104
I1
a(lp1105
F0.0
aaI4
aaa(lp1106
S'scaffold62223_cov138'
p1107
aS'scaffold41553_cov82'
p1108
aa(lp1109
S'scaffold167537_cov112'
p1110
aS'scaffold540_cov68'
p1111
a(lp1112
I1
a(lp1113
F0.2
aaI20
aa(lp1114
I1
a(lp1115
F0.346154
aaI26
aaa(lp1116
S'scaffold1030_cov88'
p1117
aS'scaffold20924_cov70'
p1118
a(lp1119
I1
a(lp1120
F0.371429
aaI35
aaa(lp1121
S'scaffold5060_cov136'
p1122
aS'scaffold5059_cov70'
p1123
a(lp1124
I1
a(lp1125
F0.466667
aaI45
aa(lp1126
I1
a(lp1127
F0.0
aaI23
aaa(lp1128
S'scaffold2398_cov98'
p1129
aS'scaffold2617_cov76'
p1130
a(lp1131
I1
a(lp1132
F0.0
aaI11
aa(lp1133
I1
a(lp1134
F0.73913
aaI23
aa(lp1135
I1
a(lp1136
F0.777778
aaI27
aa(lp1137
I1
a(lp1138
F0.233333
aaI30
aa(lp1139
I1
a(lp1140
F0.225806
aaI31
aa(lp1141
I1
a(lp1142
F0.225806
aaI31
aa(lp1143
I1
a(lp1144
F0.0
aaI29
aa(lp1145
I1
a(lp1146
F0.28125
aaI32
aa(lp1147
I1
a(lp1148
F0.310345
aaI29
aa(lp1149
I1
a(lp1150
F0.266667
aaI30
aa(lp1151
I1
a(lp1152
F0.375
aaI40
aa(lp1153
I1
a(lp1154
F0.307692
aaI26
aa(lp1155
I1
a(lp1156
F0.416667
aaI24
aa(lp1157
I1
a(lp1158
F0.5
aaI22
aa(lp1159
I1
a(lp1160
F0.35
aaI20
aa(lp1161
I1
a(lp1162
F0.277778
aaI18
aa(lp1163
I1
a(lp1164
F0.357143
aaI14
aa(lp1165
I1
a(lp1166
F0.25
aaI40
aa(lp1167
I1
a(lp1168
F0.275862
aaI29
aa(lp1169
I1
a(lp1170
F0.378378
aaI37
aa(lp1171
I1
a(lp1172
F0.405405
aaI37
aaa(lp1173
S'scaffold9303_cov137'
p1174
aS'scaffold3018_cov62'
p1175
aa(lp1176
S'scaffold28224_cov147'
p1177
aS'scaffold166774_cov71'
p1178
a(lp1179
I1
a(lp1180
F0.0
aaI4
aaa(lp1181
S'scaffold165413_cov124'
p1182
aS'scaffold1323_cov67'
p1183
aa(lp1184
S'scaffold1637_cov151'
p1185
aS'scaffold20670_cov68'
p1186
a(lp1187
I1
a(lp1188
F0.0
aaI26
aa(lp1189
I1
a(lp1190
F0.0
aaI22
aaa(lp1191
S'scaffold36067_cov121'
p1192
aS'scaffold10421_cov69'
p1193
a(lp1194
I1
a(lp1195
F0.0
aaI23
aaa(lp1196
S'scaffold9037_cov132'
p1197
aS'scaffold7705_cov77'
p1198
aa(lp1199
S'scaffold7174_cov138'
p1200
aS'scaffold2501_cov70'
p1201
aa(lp1202
S'scaffold7264_cov122'
p1203
aS'scaffold10275_cov68'
p1204
aa(lp1205
S'scaffold90706_cov103'
p1206
aS'scaffold2061_cov67'
p1207
a(lp1208
I1
a(lp1209
F0.0
aaI13
aa(lp1210
I1
a(lp1211
F0.0
aaI12
aa(lp1212
I1
a(lp1213
F0.555556
aaI9
aa(lp1214
I1
a(lp1215
F0.0
aaI6
aa(lp1216
I1
a(lp1217
F0.0
aaI6
aa(lp1218
I1
a(lp1219
F0.666667
aaI3
aa(lp1220
I1
a(lp1221
F0.0
aaI2
aa(lp1222
I1
a(lp1223
F0.0
aaI2
aa(lp1224
I1
a(lp1225
F0.0
aaI2
aa(lp1226
I1
a(lp1227
F0.0
aaI2
aa(lp1228
I1
a(lp1229
F0.0
aaI2
aa(lp1230
I1
a(lp1231
F0.0
aaI2
aa(lp1232
I1
a(lp1233
F0.666667
aaI3
aa(lp1234
I1
a(lp1235
F0.0
aaI2
aa(lp1236
I1
a(lp1237
F0.0
aaI164
aa(lp1238
I1
a(lp1239
F0.0
aaI2
aa(lp1240
I1
a(lp1241
F0.0
aaI2
aa(lp1242
I1
a(lp1243
F0.0
aaI11
aa(lp1244
I1
a(lp1245
F1.0
aaI8
aa(lp1246
I1
a(lp1247
F0.0
aaI7
aa(lp1248
I1
a(lp1249
F0.0
aaI3
aa(lp1250
I1
a(lp1251
F0.333333
aaI18
aa(lp1252
I1
a(lp1253
F0.666667
aaI3
aaa(lp1254
S'scaffold25662_cov161'
p1255
aS'scaffold25660_cov79'
p1256
aa(lp1257
S'scaffold3559_cov143'
p1258
aS'scaffold9683_cov69'
p1259
a(lp1260
I1
a(lp1261
F0.4
aaI5
aa(lp1262
I1
a(lp1263
F0.0
aaI20
aaa(lp1264
S'scaffold25492_cov142'
p1265
aS'scaffold24079_cov69'
p1266
a(lp1267
I1
a(lp1268
F0.25
aaI32
aa(lp1269
I1
a(lp1270
F0.242424
aaI33
aa(lp1271
I1
a(lp1272
F0.212121
aaI33
aaa(lp1273
S'scaffold167535_cov101'
p1274
aS'scaffold18420_cov96'
p1275
aa(lp1276
S'scaffold51750_cov85'
p1277
aS'scaffold39128_cov65'
p1278
aa(lp1279
S'scaffold9703_cov100'
p1280
aS'scaffold166756_cov71'
p1281
aa(lp1282
S'scaffold12601_cov106'
p1283
aS'scaffold12765_cov63'
p1284
a(lp1285
I1
a(lp1286
F0.266667
aaI15
aa(lp1287
I1
a(lp1288
F0.25
aaI16
aa(lp1289
I1
a(lp1290
F0.2
aaI15
aa(lp1291
I1
a(lp1292
F0.2
aaI30
aaa(lp1293
S'scaffold4941_cov130'
p1294
aS'scaffold29738_cov68'
p1295
aa(lp1296
S'scaffold9324_cov148'
p1297
aS'scaffold9325_cov63'
p1298
aa(lp1299
S'scaffold29312_cov132'
p1300
aS'scaffold9996_cov69'
p1301
a(lp1302
I1
a(lp1303
F0.0
aaI16
aaa(lp1304
S'scaffold17051_cov101'
p1305
aS'scaffold2939_cov64'
p1306
aa(lp1307
S'scaffold10858_cov149'
p1308
aS'scaffold10857_cov70'
p1309
a(lp1310
I1
a(lp1311
F0.0
aaI20
aa(lp1312
I1
a(lp1313
F0.0
aaI20
aaa(lp1314
S'scaffold43497_cov152'
p1315
aS'scaffold48022_cov63'
p1316
aa(lp1317
S'scaffold35435_cov126'
p1318
aS'scaffold9757_cov95'
p1319
a(lp1320
I1
a(lp1321
F0.0
aaI20
aa(lp1322
I1
a(lp1323
F0.214286
aaI28
aaa(lp1324
S'scaffold6824_cov114'
p1325
aS'scaffold542_cov70'
p1326
aa(lp1327
S'scaffold10713_cov124'
p1328
aS'scaffold4604_cov80'
p1329
a(lp1330
I1
a(lp1331
F0.0
aaI9
aaa(lp1332
S'scaffold21338_cov100'
p1333
aS'scaffold8647_cov65'
p1334
a(lp1335
I1
a(lp1336
F0.0
aaI23
aaa(lp1337
S'scaffold18416_cov135'
p1338
aS'scaffold16862_cov66'
p1339
aa(lp1340
S'scaffold17874_cov144'
p1341
aS'scaffold38164_cov70'
p1342
aa(lp1343
S'scaffold19924_cov91'
p1344
aS'scaffold10385_cov64'
p1345
aa(lp1346
S'scaffold1491_cov109'
p1347
aS'scaffold3256_cov68'
p1348
a(lp1349
I1
a(lp1350
F0.0
aaI6
aa(lp1351
I1
a(lp1352
F0.25
aaI28
aa(lp1353
I1
a(lp1354
F0.0
aaI22
aa(lp1355
I1
a(lp1356
F0.378378
aaI37
aa(lp1357
I1
a(lp1358
F0.3
aaI40
aaa(lp1359
S'scaffold167598_cov96'
p1360
aS'scaffold7183_cov82'
p1361
a(lp1362
I1
a(lp1363
F0.428571
aaI28
aa(lp1364
I1
a(lp1365
F0.2
aaI35
aaa(lp1366
S'scaffold3807_cov105'
p1367
aS'scaffold3967_cov66'
p1368
aa(lp1369
S'scaffold12335_cov66'
p1370
aS'scaffold8993_cov67'
p1371
a(lp1372
I1
a(lp1373
F0.0
aaI3
aa(lp1374
I1
a(lp1375
F0.0
aaI4
aaa(lp1376
S'scaffold182819_cov255'
p1377
aS'scaffold2675_cov72'
p1378
aa(lp1379
S'scaffold1354_cov130'
p1380
aS'scaffold8335_cov68'
p1381
a(lp1382
I1
a(lp1383
F0.0
aaI16
aaa(lp1384
S'scaffold36663_cov134'
p1385
aS'scaffold75670_cov64'
p1386
aa(lp1387
S'scaffold8548_cov121'
p1388
aS'scaffold9073_cov65'
p1389
aa(lp1390
S'scaffold843_cov127'
p1391
aS'scaffold844_cov69'
p1392
aa(lp1393
S'scaffold6481_cov91'
p1394
aS'scaffold47796_cov64'
p1395
a(lp1396
I1
a(lp1397
F0.0
aaI32
aa(lp1398
I1
a(lp1399
F0.217391
aaI23
aa(lp1400
I1
a(lp1401
F0.263158
aaI19
aaa(lp1402
S'scaffold18914_cov65'
p1403
aS'scaffold18912_cov140'
p1404
aa(lp1405
S'scaffold3349_cov142'
p1406
aS'scaffold5670_cov74'
p1407
aa(lp1408
S'scaffold2048_cov125'
p1409
aS'scaffold7977_cov71'
p1410
a(lp1411
I1
a(lp1412
F0.0
aaI30
aaa(lp1413
S'scaffold11204_cov106'
p1414
aS'scaffold30140_cov63'
p1415
a(lp1416
I1
a(lp1417
F0.0
aaI15
aa(lp1418
I1
a(lp1419
F0.0
aaI16
aa(lp1420
I1
a(lp1421
F0.0
aaI18
aa(lp1422
I1
a(lp1423
F0.333333
aaI18
aa(lp1424
I1
a(lp1425
F0.333333
aaI18
aa(lp1426
I1
a(lp1427
F0.333333
aaI18
aa(lp1428
I1
a(lp1429
F0.222222
aaI27
aaa(lp1430
S'scaffold167504_cov85'
p1431
aS'scaffold17931_cov63'
p1432
aa(lp1433
S'scaffold14572_cov90'
p1434
aS'scaffold4478_cov68'
p1435
a(lp1436
I1
a(lp1437
F0.0
aaI7
aa(lp1438
I1
a(lp1439
F0.0
aaI8
aa(lp1440
I1
a(lp1441
F0.0
aaI8
aa(lp1442
I1
a(lp1443
F0.0
aaI9
aa(lp1444
I1
a(lp1445
F0.0
aaI9
aa(lp1446
I1
a(lp1447
F0.0
aaI10
aa(lp1448
I1
a(lp1449
F0.0
aaI17
aa(lp1450
I1
a(lp1451
F0.0
aaI14
aa(lp1452
I1
a(lp1453
F0.26087
aaI23
aa(lp1454
I1
a(lp1455
F0.208333
aaI24
aaa(lp1456
S'scaffold6426_cov139'
p1457
aS'scaffold6427_cov67'
p1458
aa(lp1459
S'scaffold165417_cov143'
p1460
aS'scaffold16672_cov63'
p1461
aa(lp1462
S'scaffold36663_cov134'
p1463
aS'scaffold30167_cov70'
p1464
a(lp1465
I1
a(lp1466
F0.5
aaI68
aa(lp1467
I1
a(lp1468
F0.216216
aaI37
aa(lp1469
I1
a(lp1470
F0.228571
aaI35
aa(lp1471
I1
a(lp1472
F0.264706
aaI34
aaa(lp1473
S'scaffold18584_cov139'
p1474
aS'scaffold15986_cov63'
p1475
aa(lp1476
S'scaffold25947_cov73'
p1477
aS'scaffold73411_cov102'
p1478
aa(lp1479
S'scaffold14567_cov126'
p1480
aS'scaffold42400_cov69'
p1481
aa(lp1482
S'scaffold6704_cov127'
p1483
aS'scaffold6524_cov65'
p1484
a(lp1485
I1
a(lp1486
F0.222222
aaI27
aa(lp1487
I1
a(lp1488
F0.25
aaI28
aa(lp1489
I1
a(lp1490
F0.2
aaI25
aa(lp1491
I1
a(lp1492
F0.363636
aaI22
aaa(lp1493
S'scaffold18457_cov115'
p1494
aS'scaffold32162_cov89'
p1495
a(lp1496
I1
a(lp1497
F0.0
aaI24
aa(lp1498
I1
a(lp1499
F0.714286
aaI7
aa(lp1500
I1
a(lp1501
F0.227273
aaI44
aa(lp1502
I1
a(lp1503
F0.214286
aaI42
aa(lp1504
I1
a(lp1505
F0.333333
aaI36
aa(lp1506
I1
a(lp1507
F0.294118
aaI34
aaa(lp1508
S'scaffold56505_cov129'
p1509
aS'scaffold60_cov119'
p1510
aa(lp1511
S'scaffold43863_cov126'
p1512
aS'scaffold7672_cov74'
p1513
a(lp1514
I1
a(lp1515
F0.37037
aaI27
aa(lp1516
I1
a(lp1517
F0.378378
aaI37
aa(lp1518
I1
a(lp1519
F0.46875
aaI32
aa(lp1520
I1
a(lp1521
F0.451613
aaI31
aa(lp1522
I1
a(lp1523
F0.25
aaI24
aa(lp1524
I1
a(lp1525
F0.269231
aaI26
aa(lp1526
I1
a(lp1527
F0.310345
aaI29
aa(lp1528
I1
a(lp1529
F0.296296
aaI27
aa(lp1530
I1
a(lp1531
F0.321429
aaI28
aa(lp1532
I1
a(lp1533
F0.791667
aaI24
aa(lp1534
I1
a(lp1535
F0.782609
aaI23
aaa(lp1536
S'scaffold10581_cov98'
p1537
aS'scaffold17516_cov69'
p1538
a(lp1539
I1
a(lp1540
F0.0
aaI22
aa(lp1541
I1
a(lp1542
F0.0
aaI20
aa(lp1543
I1
a(lp1544
F0.0
aaI19
aa(lp1545
I1
a(lp1546
F0.0
aaI20
aa(lp1547
I1
a(lp1548
F0.0
aaI4
aa(lp1549
I1
a(lp1550
F0.0
aaI4
aa(lp1551
I1
a(lp1552
F0.0
aaI4
aa(lp1553
I1
a(lp1554
F0.0
aaI20
aa(lp1555
I1
a(lp1556
F0.275862
aaI29
aa(lp1557
I1
a(lp1558
F0.333333
aaI21
aa(lp1559
I1
a(lp1560
F0.333333
aaI24
aaa(lp1561
S'scaffold4107_cov90'
p1562
aS'scaffold6409_cov65'
p1563
aa(lp1564
S'scaffold165573_cov134'
p1565
aS'scaffold6928_cov65'
p1566
aa(lp1567
S'scaffold721_cov134'
p1568
aS'scaffold720_cov79'
p1569
aa(lp1570
S'scaffold9757_cov95'
p1571
aS'scaffold3630_cov66'
p1572
a(lp1573
I1
a(lp1574
F0.612903
aaI31
aa(lp1575
I1
a(lp1576
F0.583333
aaI36
aa(lp1577
I1
a(lp1578
F0.275862
aaI29
aaa(lp1579
S'scaffold18542_cov139'
p1580
aS'scaffold26015_cov66'
p1581
aa(lp1582
S'scaffold4321_cov104'
p1583
aS'scaffold9387_cov68'
p1584
aa(lp1585
S'scaffold167650_cov100'
p1586
aS'scaffold21768_cov66'
p1587
a(lp1588
I1
a(lp1589
F0.0
aaI13
aaa(lp1590
S'scaffold34203_cov139'
p1591
aS'scaffold18396_cov65'
p1592
aa(lp1593
S'scaffold3745_cov115'
p1594
aS'scaffold7430_cov66'
p1595
a(lp1596
I1
a(lp1597
F0.413793
aaI29
aa(lp1598
I1
a(lp1599
F0.318182
aaI22
aa(lp1600
I1
a(lp1601
F0.222222
aaI36
aa(lp1602
I1
a(lp1603
F0.333333
aaI36
aaa(lp1604
S'scaffold181240_cov148'
p1605
aS'scaffold59620_cov74'
p1606
a(lp1607
I1
a(lp1608
F0.235294
aaI17
aaa(lp1609
S'scaffold27354_cov105'
p1610
aS'scaffold16165_cov73'
p1611
aa(lp1612
S'scaffold46909_cov63'
p1613
aS'scaffold11928_cov70'
p1614
aa(lp1615
S'scaffold11499_cov143'
p1616
aS'scaffold19165_cov65'
p1617
aa(lp1618
S'scaffold1497_cov69'
p1619
aS'scaffold167515_cov69'
p1620
aa(lp1621
S'scaffold11274_cov111'
p1622
aS'scaffold2804_cov69'
p1623
a(lp1624
I1
a(lp1625
F0.25
aaI32
aa(lp1626
I1
a(lp1627
F0.0
aaI4
aa(lp1628
I1
a(lp1629
F0.0
aaI4
aa(lp1630
I1
a(lp1631
F0.0
aaI12
aa(lp1632
I1
a(lp1633
F0.0
aaI15
aa(lp1634
I1
a(lp1635
F0.0
aaI12
aa(lp1636
I1
a(lp1637
F0.785714
aaI14
aa(lp1638
I1
a(lp1639
F0.0
aaI11
aa(lp1640
I1
a(lp1641
F0.296296
aaI27
aa(lp1642
I1
a(lp1643
F0.275862
aaI29
aaa(lp1644
S'scaffold73058_cov93'
p1645
aS'scaffold5775_cov75'
p1646
a(lp1647
I1
a(lp1648
F0.230769
aaI26
aa(lp1649
I1
a(lp1650
F0.272727
aaI22
aa(lp1651
I1
a(lp1652
F0.419355
aaI31
aa(lp1653
I1
a(lp1654
F0.377778
aaI45
aa(lp1655
I1
a(lp1656
F0.28125
aaI32
aa(lp1657
I1
a(lp1658
F0.28
aaI25
aa(lp1659
I1
a(lp1660
F0.518519
aaI27
aa(lp1661
I1
a(lp1662
F0.263158
aaI19
aa(lp1663
I1
a(lp1664
F0.217391
aaI23
aaa(lp1665
S'scaffold3566_cov79'
p1666
aS'scaffold4610_cov62'
p1667
aa(lp1668
S'scaffold12892_cov134'
p1669
aS'scaffold47938_cov75'
p1670
aa(lp1671
S'scaffold4939_cov152'
p1672
aS'scaffold4940_cov72'
p1673
aa(lp1674
S'scaffold13862_cov109'
p1675
aS'scaffold8878_cov69'
p1676
aa(lp1677
S'scaffold166331_cov132'
p1678
aS'scaffold8565_cov73'
p1679
a(lp1680
I1
a(lp1681
F0.304348
aaI23
aa(lp1682
I1
a(lp1683
F0.0
aaI19
aaa(lp1684
S'scaffold14578_cov124'
p1685
aS'scaffold14579_cov112'
p1686
aa(lp1687
S'scaffold26431_cov130'
p1688
aS'scaffold15686_cov66'
p1689
aa(lp1690
S'scaffold9117_cov151'
p1691
aS'scaffold9115_cov70'
p1692
aa(lp1693
S'scaffold1006_cov111'
p1694
aS'scaffold1003_cov64'
p1695
aa(lp1696
S'scaffold5572_cov101'
p1697
aS'scaffold7298_cov66'
p1698
a(lp1699
I1
a(lp1700
F0.0
aaI5
aa(lp1701
I1
a(lp1702
F0.0
aaI5
aa(lp1703
I1
a(lp1704
F0.0
aaI9
aa(lp1705
I1
a(lp1706
F0.210526
aaI19
aa(lp1707
I1
a(lp1708
F0.2
aaI15
aa(lp1709
I1
a(lp1710
F0.333333
aaI24
aaa(lp1711
S'scaffold14527_cov64'
p1712
aS'scaffold1873_cov63'
p1713
aa(lp1714
S'scaffold25966_cov129'
p1715
aS'scaffold20513_cov68'
p1716
aa(lp1717
S'scaffold6206_cov112'
p1718
aS'scaffold19927_cov67'
p1719
aa(lp1720
S'scaffold1808_cov87'
p1721
aS'scaffold18178_cov78'
p1722
aa(lp1723
S'scaffold4678_cov116'
p1724
aS'scaffold46295_cov125'
p1725
aa(lp1726
S'scaffold3133_cov141'
p1727
aS'scaffold3135_cov68'
p1728
a(lp1729
I1
a(lp1730
F0.789474
aaI19
aa(lp1731
I1
a(lp1732
F0.684211
aaI19
aa(lp1733
I1
a(lp1734
F0.75
aaI24
aaa(lp1735
S'scaffold182_cov83'
p1736
aS'scaffold16044_cov69'
p1737
aa(lp1738
S'scaffold20825_cov153'
p1739
aS'scaffold20824_cov72'
p1740
a(lp1741
I1
a(lp1742
F0.24
aaI25
aaa(lp1743
S'scaffold94664_cov148'
p1744
aS'scaffold11692_cov72'
p1745
a(lp1746
I1
a(lp1747
F0.0
aaI21
aaa(lp1748
S'scaffold45520_cov151'
p1749
aS'scaffold45518_cov71'
p1750
aa(lp1751
S'scaffold1071_cov92'
p1752
aS'scaffold49421_cov62'
p1753
aa(lp1754
S'scaffold3432_cov123'
p1755
aS'scaffold3406_cov67'
p1756
a(lp1757
I1
a(lp1758
F0.0
aaI7
aa(lp1759
I1
a(lp1760
F0.0
aaI7
aa(lp1761
I1
a(lp1762
F0.0
aaI14
aa(lp1763
I1
a(lp1764
F0.230769
aaI26
aa(lp1765
I1
a(lp1766
F0.307692
aaI26
aa(lp1767
I1
a(lp1768
F0.387097
aaI31
aa(lp1769
I1
a(lp1770
F0.244444
aaI45
aa(lp1771
I1
a(lp1772
F0.387097
aaI31
aa(lp1773
I1
a(lp1774
F0.25
aaI28
aa(lp1775
I1
a(lp1776
F0.210526
aaI19
aa(lp1777
I1
a(lp1778
F0.2
aaI20
aa(lp1779
I1
a(lp1780
F0.2
aaI25
aa(lp1781
I1
a(lp1782
F0.0
aaI8
aa(lp1783
I1
a(lp1784
F0.3125
aaI16
aa(lp1785
I1
a(lp1786
F0.214286
aaI28
aa(lp1787
I1
a(lp1788
F0.277778
aaI18
aa(lp1789
I1
a(lp1790
F0.263158
aaI19
aa(lp1791
I1
a(lp1792
F0.205128
aaI39
aaa(lp1793
S'scaffold12001_cov141'
p1794
aS'scaffold12003_cov68'
p1795
aa(lp1796
S'scaffold5456_cov152'
p1797
aS'scaffold67160_cov58'
p1798
aa(lp1799
S'scaffold166729_cov102'
p1800
aS'scaffold165425_cov72'
p1801
a(lp1802
I1
a(lp1803
F0.0
aaI19
aaa(lp1804
S'scaffold21534_cov145'
p1805
aS'scaffold21531_cov67'
p1806
aa(lp1807
S'scaffold9312_cov104'
p1808
aS'scaffold35511_cov69'
p1809
a(lp1810
I1
a(lp1811
F0.0
aaI21
aa(lp1812
I1
a(lp1813
F0.0
aaI18
aaa(lp1814
S'scaffold55111_cov144'
p1815
aS'scaffold55112_cov70'
p1816
aa(lp1817
S'scaffold25594_cov137'
p1818
aS'scaffold19109_cov84'
p1819
a(lp1820
I1
a(lp1821
F0.452381
aaI42
aa(lp1822
I1
a(lp1823
F0.296296
aaI54
aa(lp1824
I1
a(lp1825
F0.333333
aaI54
aa(lp1826
I1
a(lp1827
F0.407407
aaI54
aa(lp1828
I1
a(lp1829
F0.385965
aaI57
aa(lp1830
I1
a(lp1831
F0.507246
aaI69
aa(lp1832
I1
a(lp1833
F0.521127
aaI71
aaa(lp1834
S'scaffold12903_cov71'
p1835
aS'scaffold10491_cov66'
p1836
a(lp1837
I1
a(lp1838
F0.208333
aaI24
aa(lp1839
I1
a(lp1840
F0.238095
aaI21
aa(lp1841
I1
a(lp1842
F0.277778
aaI18
aa(lp1843
I1
a(lp1844
F0.222222
aaI18
aaa(lp1845
S'scaffold33902_cov94'
p1846
aS'scaffold8504_cov71'
p1847
aa(lp1848
S'scaffold27219_cov142'
p1849
aS'scaffold16554_cov65'
p1850
aa(lp1851
S'scaffold165434_cov141'
p1852
aS'scaffold29886_cov66'
p1853
a(lp1854
I1
a(lp1855
F0.0
aaI14
aa(lp1856
I1
a(lp1857
F0.52
aaI25
aa(lp1858
I1
a(lp1859
F0.0
aaI22
aaa(lp1860
S'scaffold1435_cov93'
p1861
aS'scaffold4122_cov62'
p1862
a(lp1863
I1
a(lp1864
F0.0
aaI3
aa(lp1865
I1
a(lp1866
F0.0
aaI21
aa(lp1867
I1
a(lp1868
F0.285714
aaI28
aa(lp1869
I1
a(lp1870
F0.0
aaI20
aaa(lp1871
S'scaffold95123_cov91'
p1872
aS'scaffold2350_cov77'
p1873
a(lp1874
I1
a(lp1875
F0.0
aaI20
aa(lp1876
I1
a(lp1877
F0.0
aaI17
aa(lp1878
I1
a(lp1879
F0.0
aaI15
aa(lp1880
I1
a(lp1881
F0.2
aaI30
aa(lp1882
I1
a(lp1883
F0.266667
aaI30
aa(lp1884
I1
a(lp1885
F0.206897
aaI29
aaa(lp1886
S'scaffold11842_cov94'
p1887
aS'scaffold158_cov68'
p1888
a(lp1889
I1
a(lp1890
F0.0
aaI21
aa(lp1891
I1
a(lp1892
F0.310345
aaI29
aa(lp1893
I1
a(lp1894
F0.333333
aaI27
aa(lp1895
I1
a(lp1896
F0.26087
aaI23
aa(lp1897
I1
a(lp1898
F0.222222
aaI27
aaa(lp1899
S'scaffold34153_cov147'
p1900
aS'scaffold48213_cov76'
p1901
aa(lp1902
S'scaffold7481_cov74'
p1903
aS'scaffold89446_cov79'
p1904
aa(lp1905
S'scaffold5399_cov135'
p1906
aS'scaffold14003_cov64'
p1907
aa(lp1908
S'scaffold35689_cov78'
p1909
aS'scaffold63014_cov63'
p1910
aa(lp1911
S'scaffold16608_cov151'
p1912
aS'scaffold117332_cov60'
p1913
aa(lp1914
S'scaffold5433_cov148'
p1915
aS'scaffold4791_cov68'
p1916
aa(lp1917
S'scaffold16606_cov107'
p1918
aS'scaffold42581_cov70'
p1919
a(lp1920
I1
a(lp1921
F0.263158
aaI19
aa(lp1922
I1
a(lp1923
F0.0
aaI27
aa(lp1924
I1
a(lp1925
F0.210526
aaI19
aa(lp1926
I1
a(lp1927
F0.0
aaI35
aaa(lp1928
S'scaffold2507_cov119'
p1929
aS'scaffold414_cov67'
p1930
a(lp1931
I1
a(lp1932
F0.225
aaI40
aa(lp1933
I1
a(lp1934
F0.590909
aaI22
aa(lp1935
I1
a(lp1936
F0.666667
aaI15
aa(lp1937
I1
a(lp1938
F0.0
aaI13
aaa(lp1939
S'scaffold6378_cov134'
p1940
aS'scaffold6379_cov64'
p1941
a(lp1942
I1
a(lp1943
F0.428571
aaI21
aa(lp1944
I1
a(lp1945
F0.25
aaI20
aa(lp1946
I1
a(lp1947
F0.269231
aaI26
aa(lp1948
I1
a(lp1949
F0.259259
aaI27
aa(lp1950
I1
a(lp1951
F0.296296
aaI27
aaa(lp1952
S'scaffold36738_cov76'
p1953
aS'scaffold6580_cov70'
p1954
aa(lp1955
S'scaffold27251_cov134'
p1956
aS'scaffold26715_cov65'
p1957
a(lp1958
I1
a(lp1959
F0.5
aaI4
aaa(lp1960
S'scaffold7224_cov118'
p1961
aS'scaffold775_cov72'
p1962
a(lp1963
I1
a(lp1964
F0.25
aaI24
aa(lp1965
I1
a(lp1966
F0.0
aaI12
aa(lp1967
I1
a(lp1968
F0.227273
aaI22
aa(lp1969
I1
a(lp1970
F0.217391
aaI23
aa(lp1971
I1
a(lp1972
F0.214286
aaI14
aa(lp1973
I1
a(lp1974
F0.5
aaI6
aa(lp1975
I1
a(lp1976
F0.285714
aaI28
aaa(lp1977
S'scaffold5995_cov84'
p1978
aS'scaffold6502_cov73'
p1979
aa(lp1980
S'scaffold6055_cov140'
p1981
aS'scaffold30423_cov65'
p1982
a(lp1983
I1
a(lp1984
F0.333333
aaI12
aa(lp1985
I1
a(lp1986
F0.333333
aaI12
aaa(lp1987
S'scaffold1760_cov96'
p1988
aS'scaffold1762_cov75'
p1989
a(lp1990
I1
a(lp1991
F0.0
aaI26
aa(lp1992
I1
a(lp1993
F0.0
aaI47
aa(lp1994
I1
a(lp1995
F0.318182
aaI22
aa(lp1996
I1
a(lp1997
F0.263158
aaI19
aa(lp1998
I1
a(lp1999
F0.403509
aaI57
aaa(lp2000
S'scaffold213265_cov125'
p2001
aS'scaffold13885_cov142'
p2002
a(lp2003
I1
a(lp2004
F0.0
aaI2
aa(lp2005
I1
a(lp2006
F0.0
aaI2
aaa(lp2007
S'scaffold36163_cov117'
p2008
aS'scaffold6928_cov65'
p2009
a(lp2010
I1
a(lp2011
F0.206897
aaI29
aaa(lp2012
S'scaffold167503_cov98'
p2013
aS'scaffold7473_cov63'
p2014
a(lp2015
I1
a(lp2016
F0.333333
aaI108
aa(lp2017
I1
a(lp2018
F0.25
aaI60
aa(lp2019
I1
a(lp2020
F0.242857
aaI70
aa(lp2021
I1
a(lp2022
F0.314286
aaI35
aa(lp2023
I1
a(lp2024
F0.304348
aaI23
aaa(lp2025
S'scaffold1316_cov119'
p2026
aS'scaffold5085_cov79'
p2027
a(lp2028
I1
a(lp2029
F0.0
aaI31
aa(lp2030
I1
a(lp2031
F0.0
aaI34
aa(lp2032
I1
a(lp2033
F0.395349
aaI43
aa(lp2034
I1
a(lp2035
F0.34375
aaI32
aa(lp2036
I1
a(lp2037
F0.3125
aaI32
aa(lp2038
I1
a(lp2039
F0.294118
aaI34
aa(lp2040
I1
a(lp2041
F0.432432
aaI37
aa(lp2042
I1
a(lp2043
F0.407407
aaI27
aa(lp2044
I1
a(lp2045
F0.307692
aaI26
aa(lp2046
I1
a(lp2047
F0.291667
aaI24
aa(lp2048
I1
a(lp2049
F0.32
aaI25
aaa(lp2050
S'scaffold17086_cov103'
p2051
aS'scaffold17615_cov61'
p2052
aa(lp2053
S'scaffold14104_cov135'
p2054
aS'scaffold22906_cov63'
p2055
a(lp2056
I1
a(lp2057
F0.241379
aaI29
aa(lp2058
I1
a(lp2059
F0.458333
aaI24
aa(lp2060
I1
a(lp2061
F0.321429
aaI56
aa(lp2062
I1
a(lp2063
F0.233333
aaI30
aa(lp2064
I1
a(lp2065
F0.407407
aaI27
aaa(lp2066
S'scaffold107607_cov79'
p2067
aS'scaffold107606_cov134'
p2068
aa(lp2069
S'scaffold164980_cov146'
p2070
aS'scaffold3955_cov67'
p2071
a(lp2072
I1
a(lp2073
F0.0
aaI6
aa(lp2074
I1
a(lp2075
F0.0
aaI17
aaa(lp2076
S'scaffold15395_cov68'
p2077
aS'scaffold114629_cov63'
p2078
aa(lp2079
S'scaffold21352_cov62'
p2080
aS'scaffold78461_cov65'
p2081
aa(lp2082
S'scaffold22791_cov67'
p2083
aS'scaffold22793_cov63'
p2084
aa(lp2085
S'scaffold5694_cov90'
p2086
aS'scaffold21004_cov60'
p2087
aa(lp2088
S'scaffold10298_cov88'
p2089
aS'scaffold12318_cov65'
p2090
a(lp2091
I1
a(lp2092
F0.0
aaI4
aaa(lp2093
S'scaffold8620_cov63'
p2094
aS'scaffold23855_cov65'
p2095
a(lp2096
I1
a(lp2097
F0.346154
aaI26
aaa(lp2098
S'scaffold1518_cov144'
p2099
aS'scaffold7273_cov73'
p2100
aa(lp2101
S'scaffold8421_cov73'
p2102
aS'scaffold7098_cov89'
p2103
a(lp2104
I1
a(lp2105
F0.294118
aaI34
aaa(lp2106
S'scaffold3714_cov147'
p2107
aS'scaffold3718_cov71'
p2108
a(lp2109
I1
a(lp2110
F0.0
aaI14
aa(lp2111
I1
a(lp2112
F0.0
aaI16
aa(lp2113
I1
a(lp2114
F0.238095
aaI21
aaa(lp2115
S'scaffold20332_cov97'
p2116
aS'scaffold7080_cov68'
p2117
a(lp2118
I1
a(lp2119
F0.0
aaI14
aaa(lp2120
S'scaffold49078_cov128'
p2121
aS'scaffold54587_cov60'
p2122
aa(lp2123
S'scaffold10475_cov143'
p2124
aS'scaffold10474_cov65'
p2125
a(lp2126
I1
a(lp2127
F0.2
aaI20
aa(lp2128
I1
a(lp2129
F0.205128
aaI39
aa(lp2130
I1
a(lp2131
F0.0
aaI8
aa(lp2132
I1
a(lp2133
F0.0
aaI9
aaa(lp2134
S'scaffold6306_cov146'
p2135
aS'scaffold6305_cov69'
p2136
aa(lp2137
S'scaffold1865_cov101'
p2138
aS'scaffold58306_cov63'
p2139
aa(lp2140
S'scaffold11499_cov143'
p2141
aS'scaffold11874_cov70'
p2142
aa(lp2143
S'scaffold34203_cov139'
p2144
aS'scaffold15986_cov63'
p2145
aa(lp2146
S'scaffold4589_cov98'
p2147
aS'scaffold4585_cov69'
p2148
aa(lp2149
S'scaffold9955_cov79'
p2150
aS'scaffold2767_cov75'
p2151
a(lp2152
I1
a(lp2153
F0.2
aaI15
aaa(lp2154
S'scaffold2129_cov167'
p2155
aS'scaffold92330_cov67'
p2156
a(lp2157
I1
a(lp2158
F0.432432
aaI37
aa(lp2159
I1
a(lp2160
F0.0
aaI25
aaa(lp2161
S'scaffold34203_cov139'
p2162
aS'scaffold4395_cov68'
p2163
aa(lp2164
S'scaffold10574_cov127'
p2165
aS'scaffold11171_cov138'
p2166
a(lp2167
I1
a(lp2168
F0.25
aaI32
aaa(lp2169
S'scaffold91295_cov60'
p2170
aS'scaffold5348_cov143'
p2171
aa(lp2172
S'scaffold22816_cov146'
p2173
aS'scaffold22815_cov69'
p2174
a(lp2175
I1
a(lp2176
F0.0
aaI11
aa(lp2177
I1
a(lp2178
F0.0
aaI9
aaa(lp2179
S'scaffold122299_cov139'
p2180
aS'scaffold122298_cov65'
p2181
aa(lp2182
S'scaffold18351_cov137'
p2183
aS'scaffold16169_cov72'
p2184
aa(lp2185
S'scaffold15731_cov124'
p2186
aS'scaffold1701_cov70'
p2187
a(lp2188
I1
a(lp2189
F0.0
aaI19
aa(lp2190
I1
a(lp2191
F0.0
aaI17
aa(lp2192
I1
a(lp2193
F0.0
aaI16
aa(lp2194
I1
a(lp2195
F0.0
aaI4
aa(lp2196
I1
a(lp2197
F0.230769
aaI13
aa(lp2198
I1
a(lp2199
F0.2
aaI15
aaa(lp2200
S'scaffold1170_cov146'
p2201
aS'scaffold69771_cov67'
p2202
aa(lp2203
S'scaffold3741_cov108'
p2204
aS'scaffold2061_cov67'
p2205
aa(lp2206
S'scaffold1461_cov134'
p2207
aS'scaffold13020_cov66'
p2208
aa(lp2209
S'scaffold16201_cov125'
p2210
aS'scaffold51827_cov73'
p2211
aa(lp2212
S'scaffold10337_cov80'
p2213
aS'scaffold21068_cov65'
p2214
aa(lp2215
S'scaffold6532_cov126'
p2216
aS'scaffold5058_cov63'
p2217
aa(lp2218
S'scaffold38959_cov135'
p2219
aS'scaffold57178_cov79'
p2220
a(lp2221
I1
a(lp2222
F0.315789
aaI19
aa(lp2223
I1
a(lp2224
F0.333333
aaI18
aaa(lp2225
S'scaffold17601_cov135'
p2226
aS'scaffold1994_cov63'
p2227
a(lp2228
I1
a(lp2229
F0.352941
aaI17
aaa(lp2230
S'scaffold16294_cov110'
p2231
aS'scaffold7481_cov74'
p2232
a(lp2233
I1
a(lp2234
F0.387097
aaI31
aa(lp2235
I1
a(lp2236
F0.333333
aaI30
aa(lp2237
I1
a(lp2238
F0.322581
aaI31
aa(lp2239
I1
a(lp2240
F0.534884
aaI43
aa(lp2241
I1
a(lp2242
F0.529412
aaI34
aa(lp2243
I1
a(lp2244
F0.514286
aaI35
aa(lp2245
I1
a(lp2246
F0.514286
aaI35
aa(lp2247
I1
a(lp2248
F0.514286
aaI35
aa(lp2249
I1
a(lp2250
F0.210526
aaI19
aa(lp2251
I1
a(lp2252
F0.2
aaI25
aa(lp2253
I1
a(lp2254
F0.275862
aaI29
aa(lp2255
I1
a(lp2256
F0.310345
aaI29
aa(lp2257
I1
a(lp2258
F0.354839
aaI31
aa(lp2259
I1
a(lp2260
F0.322581
aaI31
aa(lp2261
I1
a(lp2262
F0.346154
aaI26
aa(lp2263
I1
a(lp2264
F0.375
aaI24
aa(lp2265
I1
a(lp2266
F0.0
aaI6
aa(lp2267
I1
a(lp2268
F0.24
aaI25
aa(lp2269
I1
a(lp2270
F0.375
aaI24
aa(lp2271
I1
a(lp2272
F0.222222
aaI27
aa(lp2273
I1
a(lp2274
F0.210526
aaI19
aaa(lp2275
S'scaffold31627_cov123'
p2276
aS'scaffold1614_cov71'
p2277
aa(lp2278
S'scaffold5399_cov135'
p2279
aS'scaffold8409_cov62'
p2280
aa(lp2281
S'scaffold4605_cov69'
p2282
aS'scaffold4604_cov80'
p2283
a(lp2284
I1
a(lp2285
F0.0
aaI16
aa(lp2286
I1
a(lp2287
F0.0
aaI18
aaa(lp2288
S'scaffold13624_cov94'
p2289
aS'scaffold72210_cov77'
p2290
aa(lp2291
S'scaffold19315_cov107'
p2292
aS'scaffold7113_cov70'
p2293
a(lp2294
I1
a(lp2295
F0.384615
aaI13
aaa(lp2296
S'scaffold165629_cov145'
p2297
aS'scaffold33634_cov72'
p2298
aa(lp2299
S'scaffold183201_cov134'
p2300
aS'scaffold6997_cov65'
p2301
a(lp2302
I1
a(lp2303
F0.0
aaI17
aa(lp2304
I1
a(lp2305
F0.0
aaI18
aa(lp2306
I1
a(lp2307
F0.0
aaI20
aaa(lp2308
S'scaffold22010_cov97'
p2309
aS'scaffold401_cov67'
p2310
a(lp2311
I1
a(lp2312
F0.0
aaI14
aaa(lp2313
S'scaffold17015_cov140'
p2314
aS'scaffold4528_cov69'
p2315
aa(lp2316
S'scaffold21453_cov86'
p2317
aS'scaffold4784_cov67'
p2318
aa(lp2319
S'scaffold13852_cov94'
p2320
aS'scaffold7585_cov68'
p2321
a(lp2322
I1
a(lp2323
F0.0
aaI10
aaa(lp2324
S'scaffold8101_cov85'
p2325
aS'scaffold11271_cov65'
p2326
a(lp2327
I1
a(lp2328
F0.333333
aaI36
aaa(lp2329
S'scaffold165420_cov139'
p2330
aS'scaffold27291_cov70'
p2331
aa(lp2332
S'scaffold476_cov90'
p2333
aS'scaffold8782_cov64'
p2334
aa(lp2335
S'scaffold9044_cov136'
p2336
aS'scaffold2501_cov70'
p2337
a(lp2338
I1
a(lp2339
F0.34375
aaI32
aa(lp2340
I1
a(lp2341
F0.411765
aaI34
aa(lp2342
I1
a(lp2343
F0.428571
aaI35
aa(lp2344
I1
a(lp2345
F0.45
aaI20
aa(lp2346
I1
a(lp2347
F0.285714
aaI14
aa(lp2348
I1
a(lp2349
F0.333333
aaI15
aa(lp2350
I1
a(lp2351
F0.388889
aaI18
aaa(lp2352
S'scaffold60916_cov101'
p2353
aS'scaffold2562_cov78'
p2354
aa(lp2355
S'scaffold6452_cov96'
p2356
aS'scaffold5694_cov90'
p2357
a(lp2358
I1
a(lp2359
F0.441176
aaI34
aa(lp2360
I1
a(lp2361
F0.241379
aaI29
aa(lp2362
I1
a(lp2363
F0.318182
aaI22
aa(lp2364
I1
a(lp2365
F0.3
aaI20
aa(lp2366
I1
a(lp2367
F0.277778
aaI18
aa(lp2368
I1
a(lp2369
F0.285714
aaI21
aa(lp2370
I1
a(lp2371
F0.533333
aaI30
aa(lp2372
I1
a(lp2373
F0.515152
aaI33
aa(lp2374
I1
a(lp2375
F0.516129
aaI31
aa(lp2376
I1
a(lp2377
F0.53125
aaI32
aa(lp2378
I1
a(lp2379
F0.304348
aaI23
aa(lp2380
I1
a(lp2381
F0.485714
aaI35
aa(lp2382
I1
a(lp2383
F0.363636
aaI11
aa(lp2384
I1
a(lp2385
F0.3125
aaI16
aa(lp2386
I1
a(lp2387
F0.277778
aaI18
aa(lp2388
I1
a(lp2389
F0.238095
aaI21
aa(lp2390
I1
a(lp2391
F0.36
aaI25
aa(lp2392
I1
a(lp2393
F0.407407
aaI27
aa(lp2394
I1
a(lp2395
F0.409091
aaI22
aa(lp2396
I1
a(lp2397
F0.583333
aaI24
aa(lp2398
I1
a(lp2399
F0.517241
aaI29
aa(lp2400
I1
a(lp2401
F0.307692
aaI26
aa(lp2402
I1
a(lp2403
F0.291667
aaI24
aa(lp2404
I1
a(lp2405
F0.4
aaI25
aa(lp2406
I1
a(lp2407
F0.384615
aaI26
aa(lp2408
I1
a(lp2409
F0.333333
aaI27
aa(lp2410
I1
a(lp2411
F0.413793
aaI29
aa(lp2412
I1
a(lp2413
F0.217391
aaI23
aa(lp2414
I1
a(lp2415
F0.25
aaI16
aa(lp2416
I1
a(lp2417
F0.210526
aaI19
aa(lp2418
I1
a(lp2419
F0.2
aaI15
aa(lp2420
I1
a(lp2421
F0.3
aaI20
aa(lp2422
I1
a(lp2423
F0.285714
aaI21
aa(lp2424
I1
a(lp2425
F0.3125
aaI16
aa(lp2426
I1
a(lp2427
F0.25
aaI20
aa(lp2428
I1
a(lp2429
F0.210526
aaI19
aa(lp2430
I1
a(lp2431
F0.230769
aaI13
aaa(lp2432
S'scaffold4116_cov143'
p2433
aS'scaffold6097_cov70'
p2434
aa(lp2435
S'scaffold451_cov146'
p2436
aS'scaffold449_cov70'
p2437
aa(lp2438
S'scaffold167824_cov153'
p2439
aS'scaffold540_cov68'
p2440
aa(lp2441
S'scaffold182_cov83'
p2442
aS'scaffold3533_cov68'
p2443
a(lp2444
I1
a(lp2445
F0.44
aaI25
aa(lp2446
I1
a(lp2447
F0.214286
aaI28
aaa(lp2448
S'scaffold167494_cov111'
p2449
aS'scaffold12899_cov60'
p2450
aa(lp2451
S'scaffold3456_cov132'
p2452
aS'scaffold166714_cov62'
p2453
aa(lp2454
S'scaffold37213_cov79'
p2455
aS'scaffold29941_cov91'
p2456
aa(lp2457
S'scaffold183613_cov153'
p2458
aS'scaffold5720_cov71'
p2459
aa(lp2460
S'scaffold7006_cov83'
p2461
aS'scaffold7005_cov65'
p2462
aa(lp2463
S'scaffold5049_cov88'
p2464
aS'scaffold5046_cov63'
p2465
a(lp2466
I1
a(lp2467
F0.2
aaI10
aa(lp2468
I1
a(lp2469
F0.0
aaI13
aaa(lp2470
S'scaffold19586_cov139'
p2471
aS'scaffold30711_cov65'
p2472
aa(lp2473
S'scaffold57197_cov90'
p2474
aS'scaffold24500_cov65'
p2475
aasS'up'
p2476
(lp2477
(lp2478
g6
ag7
a(lp2479
I1
a(lp2480
F0.533333
aaI45
aa(lp2481
I1
a(lp2482
F0.259259
aaI27
aa(lp2483
I1
a(lp2484
F0.259259
aaI27
aa(lp2485
I1
a(lp2486
F0.230769
aaI26
aa(lp2487
I1
a(lp2488
F0.272727
aaI22
aa(lp2489
I1
a(lp2490
F0.352941
aaI17
aa(lp2491
I1
a(lp2492
F0.421053
aaI19
aa(lp2493
I1
a(lp2494
F0.357143
aaI28
aa(lp2495
I1
a(lp2496
F0.219512
aaI41
aa(lp2497
I1
a(lp2498
F0.485714
aaI35
aa(lp2499
I1
a(lp2500
F0.40625
aaI32
aa(lp2501
I1
a(lp2502
F0.439024
aaI41
aa(lp2503
I1
a(lp2504
F0.258065
aaI31
aa(lp2505
I1
a(lp2506
F0.21875
aaI32
aa(lp2507
I1
a(lp2508
F0.484848
aaI33
aa(lp2509
I1
a(lp2510
F0.307692
aaI26
aaa(lp2511
g9
ag10
a(lp2512
I1
a(lp2513
F0.304348
aaI23
aa(lp2514
I1
a(lp2515
F0.351351
aaI37
aa(lp2516
I1
a(lp2517
F0.290323
aaI31
aa(lp2518
I1
a(lp2519
F0.34375
aaI32
aaa(lp2520
g12
ag13
aa(lp2521
g15
ag16
aa(lp2522
g20
ag21
aa(lp2523
g71
ag72
a(lp2524
I1
a(lp2525
F0.353383
aaI266
aa(lp2526
I1
a(lp2527
F0.0
aaI19
aaa(lp2528
g76
ag77
a(lp2529
I1
a(lp2530
F0.318182
aaI22
aa(lp2531
I1
a(lp2532
F0.32
aaI25
aa(lp2533
I1
a(lp2534
F0.217391
aaI23
aa(lp2535
I1
a(lp2536
F0.208333
aaI24
aa(lp2537
I1
a(lp2538
F0.230769
aaI26
aa(lp2539
I1
a(lp2540
F0.304348
aaI23
aaa(lp2541
g81
ag82
aa(lp2542
g84
ag85
aa(lp2543
g87
ag88
a(lp2544
I1
a(lp2545
F0.583333
aaI48
aaa(lp2546
g90
ag91
aa(lp2547
g93
ag94
a(lp2548
I1
a(lp2549
F0.242424
aaI33
aaa(lp2550
g102
ag103
a(lp2551
I1
a(lp2552
F0.444444
aaI36
aa(lp2553
I1
a(lp2554
F0.219512
aaI41
aa(lp2555
I1
a(lp2556
F0.241379
aaI29
aa(lp2557
I1
a(lp2558
F0.317073
aaI41
aa(lp2559
I1
a(lp2560
F0.325581
aaI43
aa(lp2561
I1
a(lp2562
F0.333333
aaI30
aaa(lp2563
g187
ag188
a(lp2564
I1
a(lp2565
F0.235294
aaI34
aa(lp2566
I1
a(lp2567
F0.45
aaI40
aa(lp2568
I1
a(lp2569
F0.333333
aaI24
aaa(lp2570
g190
ag191
a(lp2571
I1
a(lp2572
F0.275862
aaI29
aa(lp2573
I1
a(lp2574
F0.395349
aaI43
aa(lp2575
I1
a(lp2576
F0.478261
aaI46
aa(lp2577
I1
a(lp2578
F0.478261
aaI46
aa(lp2579
I1
a(lp2580
F0.431818
aaI44
aa(lp2581
I1
a(lp2582
F0.5
aaI44
aa(lp2583
I1
a(lp2584
F0.25
aaI24
aa(lp2585
I1
a(lp2586
F0.394737
aaI38
aa(lp2587
I1
a(lp2588
F0.352941
aaI51
aa(lp2589
I1
a(lp2590
F0.3125
aaI48
aa(lp2591
I1
a(lp2592
F0.540541
aaI37
aa(lp2593
I1
a(lp2594
F0.28
aaI25
aa(lp2595
I1
a(lp2596
F0.27027
aaI37
aa(lp2597
I1
a(lp2598
F0.297297
aaI37
aa(lp2599
I1
a(lp2600
F0.272727
aaI33
aa(lp2601
I1
a(lp2602
F0.325
aaI40
aaa(lp2603
g193
ag194
a(lp2604
I1
a(lp2605
F0.4
aaI30
aa(lp2606
I1
a(lp2607
F0.285714
aaI28
aa(lp2608
I1
a(lp2609
F0.266667
aaI30
aaa(lp2610
g206
ag207
a(lp2611
I1
a(lp2612
F0.365854
aaI41
aa(lp2613
I1
a(lp2614
F0.4
aaI25
aa(lp2615
I1
a(lp2616
F0.458333
aaI24
aa(lp2617
I1
a(lp2618
F0.434783
aaI23
aa(lp2619
I1
a(lp2620
F0.458333
aaI24
aa(lp2621
I1
a(lp2622
F0.37037
aaI27
aa(lp2623
I1
a(lp2624
F0.314286
aaI35
aa(lp2625
I1
a(lp2626
F0.325
aaI40
aa(lp2627
I1
a(lp2628
F0.291667
aaI24
aa(lp2629
I1
a(lp2630
F0.255814
aaI43
aa(lp2631
I1
a(lp2632
F0.225
aaI40
aa(lp2633
I1
a(lp2634
F0.230769
aaI39
aa(lp2635
I1
a(lp2636
F0.25
aaI40
aa(lp2637
I1
a(lp2638
F0.333333
aaI36
aa(lp2639
I1
a(lp2640
F0.35
aaI40
aa(lp2641
I1
a(lp2642
F0.355556
aaI45
aa(lp2643
I1
a(lp2644
F0.357143
aaI42
aa(lp2645
I1
a(lp2646
F0.411765
aaI51
aa(lp2647
I1
a(lp2648
F0.354167
aaI48
aa(lp2649
I1
a(lp2650
F0.363636
aaI44
aa(lp2651
I1
a(lp2652
F0.233333
aaI30
aaa(lp2653
g209
ag210
aa(lp2654
g212
ag213
aa(lp2655
g219
ag220
aa(lp2656
g280
ag281
aa(lp2657
g283
ag284
aa(lp2658
g290
ag291
aa(lp2659
g293
ag294
aa(lp2660
g296
ag297
aa(lp2661
g299
ag300
aa(lp2662
g316
ag317
a(lp2663
I1
a(lp2664
F0.463415
aaI41
aa(lp2665
I1
a(lp2666
F0.378378
aaI37
aa(lp2667
I1
a(lp2668
F0.3125
aaI32
aa(lp2669
I1
a(lp2670
F0.357143
aaI42
aa(lp2671
I1
a(lp2672
F0.428571
aaI42
aa(lp2673
I1
a(lp2674
F0.428571
aaI42
aa(lp2675
I1
a(lp2676
F0.378378
aaI37
aa(lp2677
I1
a(lp2678
F0.378378
aaI37
aaa(lp2679
g333
ag334
aa(lp2680
g336
ag337
a(lp2681
I1
a(lp2682
F0.592593
aaI27
aa(lp2683
I1
a(lp2684
F0.285714
aaI21
aa(lp2685
I1
a(lp2686
F0.315789
aaI19
aa(lp2687
I1
a(lp2688
F0.444444
aaI27
aa(lp2689
I1
a(lp2690
F0.423077
aaI26
aa(lp2691
I1
a(lp2692
F0.52
aaI25
aa(lp2693
I1
a(lp2694
F0.382979
aaI47
aa(lp2695
I1
a(lp2696
F0.5
aaI26
aa(lp2697
I1
a(lp2698
F0.24
aaI25
aa(lp2699
I1
a(lp2700
F0.257143
aaI35
aaa(lp2701
g345
ag346
a(lp2702
I1
a(lp2703
F0.206897
aaI29
aaa(lp2704
g358
ag359
a(lp2705
I1
a(lp2706
F0.6
aaI40
aa(lp2707
I1
a(lp2708
F0.5
aaI32
aa(lp2709
I1
a(lp2710
F0.444444
aaI27
aa(lp2711
I1
a(lp2712
F0.37037
aaI27
aa(lp2713
I1
a(lp2714
F0.344828
aaI29
aa(lp2715
I1
a(lp2716
F0.333333
aaI21
aa(lp2717
I1
a(lp2718
F0.391304
aaI23
aa(lp2719
I1
a(lp2720
F0.384615
aaI26
aa(lp2721
I1
a(lp2722
F0.22093
aaI86
aaa(lp2723
g361
ag362
a(lp2724
I1
a(lp2725
F0.25
aaI32
aa(lp2726
I1
a(lp2727
F0.591837
aaI49
aaa(lp2728
g364
ag365
aa(lp2729
g379
ag380
a(lp2730
I1
a(lp2731
F0.319149
aaI47
aaa(lp2732
g382
ag383
aa(lp2733
g385
ag386
aa(lp2734
g388
ag389
a(lp2735
I1
a(lp2736
F0.439024
aaI82
aa(lp2737
I1
a(lp2738
F0.625
aaI24
aa(lp2739
I1
a(lp2740
F0.347826
aaI23
aa(lp2741
I1
a(lp2742
F0.259259
aaI27
aa(lp2743
I1
a(lp2744
F0.269231
aaI26
aa(lp2745
I1
a(lp2746
F0.357143
aaI14
aa(lp2747
I1
a(lp2748
F0.222222
aaI18
aa(lp2749
I1
a(lp2750
F0.290323
aaI31
aa(lp2751
I1
a(lp2752
F0.413793
aaI29
aa(lp2753
I1
a(lp2754
F0.444444
aaI36
aa(lp2755
I1
a(lp2756
F0.344828
aaI29
aa(lp2757
I1
a(lp2758
F0.37037
aaI27
aa(lp2759
I1
a(lp2760
F0.407407
aaI27
aa(lp2761
I1
a(lp2762
F0.272727
aaI22
aa(lp2763
I1
a(lp2764
F0.272727
aaI22
aa(lp2765
I1
a(lp2766
F0.32
aaI25
aa(lp2767
I1
a(lp2768
F0.230769
aaI26
aa(lp2769
I1
a(lp2770
F0.214286
aaI28
aa(lp2771
I1
a(lp2772
F0.233333
aaI30
aaa(lp2773
g391
ag392
a(lp2774
I1
a(lp2775
F0.206897
aaI29
aa(lp2776
I1
a(lp2777
F0.3
aaI30
aa(lp2778
I1
a(lp2779
F0.275862
aaI29
aa(lp2780
I1
a(lp2781
F0.290323
aaI31
aa(lp2782
I1
a(lp2783
F0.217391
aaI23
aa(lp2784
I1
a(lp2785
F0.32
aaI25
aa(lp2786
I1
a(lp2787
F0.347826
aaI23
aa(lp2788
I1
a(lp2789
F0.285714
aaI28
aa(lp2790
I1
a(lp2791
F0.257143
aaI35
aa(lp2792
I1
a(lp2793
F0.257143
aaI35
aa(lp2794
I1
a(lp2795
F0.3
aaI40
aa(lp2796
I1
a(lp2797
F0.416667
aaI36
aa(lp2798
I1
a(lp2799
F0.464286
aaI28
aa(lp2800
I1
a(lp2801
F0.382353
aaI34
aa(lp2802
I1
a(lp2803
F0.432432
aaI37
aaa(lp2804
g394
ag395
a(lp2805
I1
a(lp2806
F0.4375
aaI32
aa(lp2807
I1
a(lp2808
F0.419355
aaI31
aaa(lp2809
g399
ag400
aa(lp2810
g402
ag403
a(lp2811
I1
a(lp2812
F0.527778
aaI36
aa(lp2813
I1
a(lp2814
F0.333333
aaI24
aa(lp2815
I1
a(lp2816
F0.347826
aaI23
aa(lp2817
I1
a(lp2818
F0.380952
aaI21
aa(lp2819
I1
a(lp2820
F0.619048
aaI21
aa(lp2821
I1
a(lp2822
F0.461538
aaI13
aa(lp2823
I1
a(lp2824
F0.384615
aaI13
aa(lp2825
I1
a(lp2826
F0.461538
aaI13
aa(lp2827
I1
a(lp2828
F0.545455
aaI11
aa(lp2829
I1
a(lp2830
F0.5
aaI12
aa(lp2831
I1
a(lp2832
F0.285714
aaI7
aa(lp2833
I1
a(lp2834
F0.25
aaI8
aaa(lp2835
g405
ag406
aa(lp2836
g408
ag409
a(lp2837
I1
a(lp2838
F0.217391
aaI23
aa(lp2839
I1
a(lp2840
F0.413793
aaI29
aa(lp2841
I1
a(lp2842
F0.5
aaI30
aa(lp2843
I1
a(lp2844
F0.206897
aaI29
aa(lp2845
I1
a(lp2846
F0.222222
aaI27
aa(lp2847
I1
a(lp2848
F0.2
aaI25
aa(lp2849
I1
a(lp2850
F0.375
aaI24
aa(lp2851
I1
a(lp2852
F0.259259
aaI27
aa(lp2853
I1
a(lp2854
F0.371429
aaI35
aa(lp2855
I1
a(lp2856
F0.266667
aaI30
aa(lp2857
I1
a(lp2858
F0.258065
aaI31
aa(lp2859
I1
a(lp2860
F0.217391
aaI23
aa(lp2861
I1
a(lp2862
F0.290323
aaI31
aa(lp2863
I1
a(lp2864
F0.37037
aaI27
aa(lp2865
I1
a(lp2866
F0.377778
aaI45
aa(lp2867
I1
a(lp2868
F0.315789
aaI38
aa(lp2869
I1
a(lp2870
F0.27027
aaI37
aa(lp2871
I1
a(lp2872
F0.0
aaI24
aa(lp2873
I1
a(lp2874
F0.347826
aaI23
aa(lp2875
I1
a(lp2876
F0.384615
aaI26
aa(lp2877
I1
a(lp2878
F0.25
aaI24
aa(lp2879
I1
a(lp2880
F0.230769
aaI26
aa(lp2881
I1
a(lp2882
F0.346154
aaI26
aa(lp2883
I1
a(lp2884
F0.25
aaI24
aa(lp2885
I1
a(lp2886
F0.285714
aaI14
aa(lp2887
I1
a(lp2888
F0.377778
aaI45
aa(lp2889
I1
a(lp2890
F0.636364
aaI11
aaa(lp2891
g415
ag416
aa(lp2892
g418
ag419
a(lp2893
I1
a(lp2894
F0.241379
aaI29
aa(lp2895
I1
a(lp2896
F0.304348
aaI23
aa(lp2897
I1
a(lp2898
F0.588235
aaI34
aa(lp2899
I1
a(lp2900
F0.472222
aaI36
aa(lp2901
I1
a(lp2902
F0.479167
aaI48
aaa(lp2903
g433
ag434
a(lp2904
I1
a(lp2905
F0.289474
aaI38
aa(lp2906
I1
a(lp2907
F0.304348
aaI23
aa(lp2908
I1
a(lp2909
F0.333333
aaI36
aaa(lp2910
g436
ag437
a(lp2911
I1
a(lp2912
F0.269231
aaI26
aa(lp2913
I1
a(lp2914
F0.210526
aaI19
aa(lp2915
I1
a(lp2916
F0.25
aaI20
aa(lp2917
I1
a(lp2918
F0.208333
aaI24
aa(lp2919
I1
a(lp2920
F0.208333
aaI24
aa(lp2921
I1
a(lp2922
F0.322581
aaI31
aa(lp2923
I1
a(lp2924
F0.0
aaI26
aaa(lp2925
g439
ag440
aa(lp2926
g442
ag443
aa(lp2927
g445
ag446
a(lp2928
I1
a(lp2929
F0.411765
aaI34
aa(lp2930
I1
a(lp2931
F0.0
aaI38
aaa(lp2932
g450
ag451
a(lp2933
I1
a(lp2934
F0.216216
aaI37
aa(lp2935
I1
a(lp2936
F0.326087
aaI46
aa(lp2937
I1
a(lp2938
F0.340426
aaI47
aa(lp2939
I1
a(lp2940
F0.345455
aaI55
aa(lp2941
I1
a(lp2942
F0.297297
aaI37
aa(lp2943
I1
a(lp2944
F0.459459
aaI37
aa(lp2945
I1
a(lp2946
F0.25
aaI20
aa(lp2947
I1
a(lp2948
F0.277778
aaI18
aa(lp2949
I1
a(lp2950
F0.3125
aaI16
aa(lp2951
I1
a(lp2952
F0.294118
aaI17
aa(lp2953
I1
a(lp2954
F0.235294
aaI17
aa(lp2955
I1
a(lp2956
F0.285714
aaI21
aa(lp2957
I1
a(lp2958
F0.35
aaI20
aa(lp2959
I1
a(lp2960
F0.0
aaI25
aa(lp2961
I1
a(lp2962
F0.291667
aaI24
aa(lp2963
I1
a(lp2964
F0.291667
aaI24
aa(lp2965
I1
a(lp2966
F0.333333
aaI27
aa(lp2967
I1
a(lp2968
F0.333333
aaI27
aaa(lp2969
g457
ag458
a(lp2970
I1
a(lp2971
F0.208333
aaI24
aa(lp2972
I1
a(lp2973
F0.225806
aaI31
aa(lp2974
I1
a(lp2975
F0.2
aaI55
aa(lp2976
I1
a(lp2977
F0.2
aaI55
aa(lp2978
I1
a(lp2979
F0.210526
aaI57
aa(lp2980
I1
a(lp2981
F0.259259
aaI27
aa(lp2982
I1
a(lp2983
F0.485714
aaI35
aa(lp2984
I1
a(lp2985
F0.269231
aaI26
aaa(lp2986
g480
ag481
a(lp2987
I1
a(lp2988
F0.234043
aaI47
aa(lp2989
I1
a(lp2990
F0.310345
aaI29
aa(lp2991
I1
a(lp2992
F0.45
aaI20
aa(lp2993
I1
a(lp2994
F0.243243
aaI37
aa(lp2995
I1
a(lp2996
F0.0
aaI5
aa(lp2997
I1
a(lp2998
F0.0
aaI13
aa(lp2999
I1
a(lp3000
F0.0
aaI11
aaa(lp3001
g485
ag486
a(lp3002
I1
a(lp3003
F0.214286
aaI28
aa(lp3004
I1
a(lp3005
F0.230769
aaI39
aa(lp3006
I1
a(lp3007
F0.214286
aaI28
aa(lp3008
I1
a(lp3009
F0.451613
aaI31
aa(lp3010
I1
a(lp3011
F0.266667
aaI30
aa(lp3012
I1
a(lp3013
F0.25
aaI32
aaa(lp3014
g498
ag499
a(lp3015
I1
a(lp3016
F0.238095
aaI21
aaa(lp3017
g501
ag502
aa(lp3018
g504
ag505
aa(lp3019
g507
ag508
aa(lp3020
g510
ag511
aa(lp3021
g515
ag516
a(lp3022
I1
a(lp3023
F0.321429
aaI28
aa(lp3024
I1
a(lp3025
F0.3
aaI30
aa(lp3026
I1
a(lp3027
F0.275862
aaI29
aa(lp3028
I1
a(lp3029
F0.307692
aaI26
aa(lp3030
I1
a(lp3031
F0.3
aaI30
aa(lp3032
I1
a(lp3033
F0.25
aaI28
aa(lp3034
I1
a(lp3035
F0.222222
aaI27
aa(lp3036
I1
a(lp3037
F0.2
aaI35
aa(lp3038
I1
a(lp3039
F0.233333
aaI30
aa(lp3040
I1
a(lp3041
F0.285714
aaI28
aa(lp3042
I1
a(lp3043
F0.296296
aaI27
aa(lp3044
I1
a(lp3045
F0.25
aaI28
aa(lp3046
I1
a(lp3047
F0.277778
aaI18
aa(lp3048
I1
a(lp3049
F0.277778
aaI18
aa(lp3050
I1
a(lp3051
F0.238095
aaI42
aaa(lp3052
g520
ag521
aa(lp3053
g523
ag524
aa(lp3054
g528
ag529
aa(lp3055
g531
ag532
aa(lp3056
g536
ag537
a(lp3057
I1
a(lp3058
F0.0
aaI33
aa(lp3059
I1
a(lp3060
F0.26087
aaI23
aa(lp3061
I1
a(lp3062
F0.444444
aaI36
aa(lp3063
I1
a(lp3064
F0.352941
aaI34
aa(lp3065
I1
a(lp3066
F0.352941
aaI34
aa(lp3067
I1
a(lp3068
F0.547619
aaI42
aa(lp3069
I1
a(lp3070
F0.487179
aaI39
aa(lp3071
I1
a(lp3072
F0.487805
aaI41
aa(lp3073
I1
a(lp3074
F0.285714
aaI28
aa(lp3075
I1
a(lp3076
F0.375
aaI24
aa(lp3077
I1
a(lp3078
F0.409091
aaI22
aa(lp3079
I1
a(lp3080
F0.2
aaI20
aa(lp3081
I1
a(lp3082
F0.227273
aaI22
aa(lp3083
I1
a(lp3084
F0.25
aaI28
aa(lp3085
I1
a(lp3086
F0.28125
aaI32
aa(lp3087
I1
a(lp3088
F0.5
aaI26
aaa(lp3089
g541
ag542
aa(lp3090
g544
ag545
a(lp3091
I1
a(lp3092
F0.303571
aaI56
aa(lp3093
I1
a(lp3094
F0.0
aaI55
aa(lp3095
I1
a(lp3096
F0.621212
aaI66
aa(lp3097
I1
a(lp3098
F0.580645
aaI62
aa(lp3099
I1
a(lp3100
F0.610169
aaI59
aa(lp3101
I1
a(lp3102
F0.631579
aaI57
aa(lp3103
I1
a(lp3104
F0.627119
aaI59
aa(lp3105
I1
a(lp3106
F0.651163
aaI43
aa(lp3107
I1
a(lp3108
F0.723404
aaI47
aa(lp3109
I1
a(lp3110
F0.74
aaI50
aa(lp3111
I1
a(lp3112
F0.703704
aaI54
aa(lp3113
I1
a(lp3114
F0.255814
aaI43
aa(lp3115
I1
a(lp3116
F0.580645
aaI31
aa(lp3117
I1
a(lp3118
F0.515152
aaI33
aa(lp3119
I1
a(lp3120
F0.5
aaI36
aa(lp3121
I1
a(lp3122
F0.472222
aaI36
aa(lp3123
I1
a(lp3124
F0.0
aaI42
aa(lp3125
I1
a(lp3126
F0.0
aaI4
aa(lp3127
I1
a(lp3128
F0.0
aaI21
aa(lp3129
I1
a(lp3130
F0.0
aaI21
aa(lp3131
I1
a(lp3132
F0.0
aaI28
aa(lp3133
I1
a(lp3134
F0.0
aaI28
aa(lp3135
I1
a(lp3136
F0.0
aaI38
aaa(lp3137
g571
ag572
aa(lp3138
g578
ag579
a(lp3139
I1
a(lp3140
F0.222222
aaI27
aa(lp3141
I1
a(lp3142
F0.222222
aaI27
aaa(lp3143
g581
ag582
a(lp3144
I1
a(lp3145
F0.217391
aaI23
aa(lp3146
I1
a(lp3147
F0.375
aaI32
aaa(lp3148
g588
ag589
a(lp3149
I1
a(lp3150
F0.586957
aaI46
aa(lp3151
I1
a(lp3152
F0.351351
aaI37
aa(lp3153
I1
a(lp3154
F0.351351
aaI37
aa(lp3155
I1
a(lp3156
F0.378378
aaI37
aa(lp3157
I1
a(lp3158
F0.230769
aaI26
aa(lp3159
I1
a(lp3160
F0.21875
aaI32
aa(lp3161
I1
a(lp3162
F0.272727
aaI33
aa(lp3163
I1
a(lp3164
F0.242424
aaI33
aa(lp3165
I1
a(lp3166
F0.0
aaI22
aa(lp3167
I1
a(lp3168
F0.0
aaI26
aa(lp3169
I1
a(lp3170
F0.466667
aaI45
aa(lp3171
I1
a(lp3172
F0.0
aaI34
aa(lp3173
I1
a(lp3174
F0.333333
aaI27
aaa(lp3175
g593
ag594
aa(lp3176
g598
ag599
a(lp3177
I1
a(lp3178
F0.28
aaI25
aa(lp3179
I1
a(lp3180
F0.305556
aaI36
aaa(lp3181
g601
ag602
a(lp3182
I1
a(lp3183
F0.0
aaI14
aa(lp3184
I1
a(lp3185
F0.266667
aaI15
aa(lp3186
I1
a(lp3187
F0.4
aaI20
aaa(lp3188
g604
ag605
a(lp3189
I1
a(lp3190
F0.368421
aaI19
aa(lp3191
I1
a(lp3192
F0.5
aaI14
aa(lp3193
I1
a(lp3194
F0.35
aaI20
aa(lp3195
I1
a(lp3196
F0.2
aaI20
aa(lp3197
I1
a(lp3198
F0.3
aaI20
aa(lp3199
I1
a(lp3200
F0.347826
aaI23
aa(lp3201
I1
a(lp3202
F0.277778
aaI18
aa(lp3203
I1
a(lp3204
F0.2
aaI25
aa(lp3205
I1
a(lp3206
F0.235294
aaI34
aa(lp3207
I1
a(lp3208
F0.205882
aaI34
aa(lp3209
I1
a(lp3210
F0.4
aaI20
aa(lp3211
I1
a(lp3212
F0.416667
aaI24
aaa(lp3213
g639
ag640
aa(lp3214
g642
ag643
aa(lp3215
g645
ag646
a(lp3216
I1
a(lp3217
F0.40625
aaI32
aa(lp3218
I1
a(lp3219
F0.277778
aaI18
aa(lp3220
I1
a(lp3221
F0.0
aaI8
aa(lp3222
I1
a(lp3223
F0.0
aaI8
aa(lp3224
I1
a(lp3225
F0.375
aaI32
aa(lp3226
I1
a(lp3227
F0.432432
aaI37
aa(lp3228
I1
a(lp3229
F0.227273
aaI22
aa(lp3230
I1
a(lp3231
F0.296296
aaI27
aa(lp3232
I1
a(lp3233
F0.344828
aaI29
aa(lp3234
I1
a(lp3235
F0.357143
aaI28
aa(lp3236
I1
a(lp3237
F0.290323
aaI31
aaa(lp3238
g652
ag653
aa(lp3239
g655
ag656
aa(lp3240
g658
ag659
aa(lp3241
g665
ag666
a(lp3242
I1
a(lp3243
F0.268293
aaI41
aa(lp3244
I1
a(lp3245
F0.255319
aaI47
aa(lp3246
I1
a(lp3247
F0.227273
aaI44
aaa(lp3248
g684
ag685
a(lp3249
I1
a(lp3250
F0.305556
aaI36
aa(lp3251
I1
a(lp3252
F0.290323
aaI31
aa(lp3253
I1
a(lp3254
F0.3
aaI30
aa(lp3255
I1
a(lp3256
F0.259259
aaI27
aa(lp3257
I1
a(lp3258
F0.258065
aaI31
aa(lp3259
I1
a(lp3260
F0.30303
aaI33
aa(lp3261
I1
a(lp3262
F0.387097
aaI31
aa(lp3263
I1
a(lp3264
F0.433333
aaI30
aa(lp3265
I1
a(lp3266
F0.307692
aaI26
aa(lp3267
I1
a(lp3268
F0.333333
aaI24
aa(lp3269
I1
a(lp3270
F0.380952
aaI21
aa(lp3271
I1
a(lp3272
F0.421053
aaI38
aa(lp3273
I1
a(lp3274
F0.475
aaI40
aa(lp3275
I1
a(lp3276
F0.478261
aaI23
aaa(lp3277
g687
ag688
a(lp3278
I1
a(lp3279
F0.0
aaI35
aa(lp3280
I1
a(lp3281
F0.533333
aaI60
aa(lp3282
I1
a(lp3283
F0.647059
aaI51
aa(lp3284
I1
a(lp3285
F0.527273
aaI55
aa(lp3286
I1
a(lp3287
F0.543478
aaI46
aa(lp3288
I1
a(lp3289
F0.511111
aaI45
aaa(lp3290
g692
ag693
aa(lp3291
g713
ag714
aa(lp3292
g716
ag717
a(lp3293
I1
a(lp3294
F0.324324
aaI37
aa(lp3295
I1
a(lp3296
F0.392857
aaI28
aa(lp3297
I1
a(lp3298
F0.416667
aaI48
aa(lp3299
I1
a(lp3300
F0.0
aaI48
aa(lp3301
I1
a(lp3302
F0.531915
aaI47
aa(lp3303
I1
a(lp3304
F0.292683
aaI41
aa(lp3305
I1
a(lp3306
F0.452381
aaI42
aa(lp3307
I1
a(lp3308
F0.340909
aaI44
aa(lp3309
I1
a(lp3310
F0.4
aaI40
aaa(lp3311
g719
ag720
a(lp3312
I1
a(lp3313
F0.0
aaI4
aa(lp3314
I1
a(lp3315
F0.0
aaI4
aa(lp3316
I1
a(lp3317
F0.0
aaI2
aa(lp3318
I1
a(lp3319
F0.0
aaI3
aa(lp3320
I1
a(lp3321
F0.0
aaI3
aa(lp3322
I1
a(lp3323
F0.0
aaI7
aa(lp3324
I1
a(lp3325
F0.0
aaI5
aa(lp3326
I1
a(lp3327
F0.0
aaI2
aa(lp3328
I1
a(lp3329
F0.0
aaI9
aa(lp3330
I1
a(lp3331
F0.0
aaI9
aa(lp3332
I1
a(lp3333
F0.0
aaI9
aa(lp3334
I1
a(lp3335
F0.0
aaI12
aa(lp3336
I1
a(lp3337
F0.0
aaI15
aa(lp3338
I1
a(lp3339
F0.0
aaI12
aa(lp3340
I1
a(lp3341
F0.0
aaI12
aa(lp3342
I1
a(lp3343
F0.466667
aaI30
aa(lp3344
I1
a(lp3345
F0.0
aaI34
aa(lp3346
I1
a(lp3347
F0.0
aaI12
aa(lp3348
I1
a(lp3349
F0.0
aaI8
aa(lp3350
I1
a(lp3351
F0.0
aaI5
aa(lp3352
I1
a(lp3353
F0.5
aaI4
aa(lp3354
I1
a(lp3355
F0.0
aaI3
aa(lp3356
I1
a(lp3357
F0.0
aaI6
aa(lp3358
I1
a(lp3359
F0.0
aaI7
aa(lp3360
I1
a(lp3361
F0.0
aaI7
aaa(lp3362
g724
ag725
aa(lp3363
g729
ag730
aa(lp3364
g736
ag737
a(lp3365
I1
a(lp3366
F0.0
aaI7
aa(lp3367
I1
a(lp3368
F0.421053
aaI19
aa(lp3369
I1
a(lp3370
F0.545455
aaI22
aa(lp3371
I1
a(lp3372
F0.25
aaI16
aa(lp3373
I1
a(lp3374
F0.222222
aaI18
aaa(lp3375
g739
ag740
a(lp3376
I1
a(lp3377
F0.2
aaI20
aa(lp3378
I1
a(lp3379
F0.347826
aaI23
aa(lp3380
I1
a(lp3381
F0.407407
aaI27
aa(lp3382
I1
a(lp3383
F0.448276
aaI29
aa(lp3384
I1
a(lp3385
F0.304348
aaI23
aa(lp3386
I1
a(lp3387
F0.535714
aaI28
aa(lp3388
I1
a(lp3389
F0.3125
aaI32
aa(lp3390
I1
a(lp3391
F0.285714
aaI28
aa(lp3392
I1
a(lp3393
F0.310345
aaI29
aa(lp3394
I1
a(lp3395
F0.3
aaI30
aa(lp3396
I1
a(lp3397
F0.510204
aaI49
aa(lp3398
I1
a(lp3399
F0.487179
aaI39
aa(lp3400
I1
a(lp3401
F0.435897
aaI39
aa(lp3402
I1
a(lp3403
F0.47619
aaI42
aa(lp3404
I1
a(lp3405
F0.414634
aaI41
aa(lp3406
I1
a(lp3407
F0.421053
aaI38
aaa(lp3408
g742
ag743
a(lp3409
I1
a(lp3410
F0.277778
aaI18
aa(lp3411
I1
a(lp3412
F0.25
aaI20
aa(lp3413
I1
a(lp3414
F0.36
aaI25
aa(lp3415
I1
a(lp3416
F0.391304
aaI23
aa(lp3417
I1
a(lp3418
F0.44
aaI25
aa(lp3419
I1
a(lp3420
F0.475
aaI40
aa(lp3421
I1
a(lp3422
F0.454545
aaI44
aa(lp3423
I1
a(lp3424
F0.423077
aaI26
aa(lp3425
I1
a(lp3426
F0.407407
aaI27
aa(lp3427
I1
a(lp3428
F0.423077
aaI26
aa(lp3429
I1
a(lp3430
F0.339623
aaI53
aa(lp3431
I1
a(lp3432
F0.290323
aaI31
aa(lp3433
I1
a(lp3434
F0.25
aaI28
aa(lp3435
I1
a(lp3436
F0.275862
aaI29
aa(lp3437
I1
a(lp3438
F0.352941
aaI34
aa(lp3439
I1
a(lp3440
F0.333333
aaI33
aa(lp3441
I1
a(lp3442
F0.315789
aaI38
aa(lp3443
I1
a(lp3444
F0.210526
aaI19
aa(lp3445
I1
a(lp3446
F0.2
aaI20
aa(lp3447
I1
a(lp3448
F0.285714
aaI21
aa(lp3449
I1
a(lp3450
F0.263158
aaI19
aa(lp3451
I1
a(lp3452
F0.217391
aaI23
aa(lp3453
I1
a(lp3454
F0.24
aaI25
aa(lp3455
I1
a(lp3456
F0.241379
aaI29
aa(lp3457
I1
a(lp3458
F0.25
aaI28
aa(lp3459
I1
a(lp3460
F0.263158
aaI38
aa(lp3461
I1
a(lp3462
F0.479167
aaI48
aa(lp3463
I1
a(lp3464
F0.486486
aaI37
aa(lp3465
I1
a(lp3466
F0.526316
aaI19
aa(lp3467
I1
a(lp3468
F0.214286
aaI28
aa(lp3469
I1
a(lp3470
F0.214286
aaI28
aa(lp3471
I1
a(lp3472
F0.214286
aaI28
aaa(lp3473
g769
ag770
a(lp3474
I1
a(lp3475
F0.210526
aaI19
aa(lp3476
I1
a(lp3477
F0.428571
aaI21
aa(lp3478
I1
a(lp3479
F0.0
aaI12
aa(lp3480
I1
a(lp3481
F0.0
aaI12
aa(lp3482
I1
a(lp3483
F0.0
aaI19
aa(lp3484
I1
a(lp3485
F0.428571
aaI49
aaa(lp3486
g772
ag773
a(lp3487
I1
a(lp3488
F0.296296
aaI27
aa(lp3489
I1
a(lp3490
F0.323529
aaI34
aa(lp3491
I1
a(lp3492
F0.297297
aaI37
aa(lp3493
I1
a(lp3494
F0.214286
aaI42
aa(lp3495
I1
a(lp3496
F0.25
aaI20
aa(lp3497
I1
a(lp3498
F0.0
aaI580
aaa(lp3499
g775
ag776
a(lp3500
I1
a(lp3501
F0.346154
aaI26
aa(lp3502
I1
a(lp3503
F0.548387
aaI31
aa(lp3504
I1
a(lp3505
F0.514286
aaI35
aa(lp3506
I1
a(lp3507
F0.25
aaI28
aa(lp3508
I1
a(lp3509
F0.387097
aaI31
aa(lp3510
I1
a(lp3511
F0.322581
aaI31
aa(lp3512
I1
a(lp3513
F0.322581
aaI31
aa(lp3514
I1
a(lp3515
F0.3125
aaI32
aaa(lp3516
g778
ag779
aa(lp3517
g781
ag782
a(lp3518
I1
a(lp3519
F0.294118
aaI17
aa(lp3520
I1
a(lp3521
F0.263158
aaI19
aa(lp3522
I1
a(lp3523
F0.25
aaI20
aa(lp3524
I1
a(lp3525
F0.410256
aaI39
aaa(lp3526
g792
ag793
aa(lp3527
g795
ag796
a(lp3528
I1
a(lp3529
F0.0
aaI14
aa(lp3530
I1
a(lp3531
F0.0
aaI12
aa(lp3532
I1
a(lp3533
F0.2
aaI20
aa(lp3534
I1
a(lp3535
F0.24
aaI25
aa(lp3536
I1
a(lp3537
F0.208333
aaI24
aa(lp3538
I1
a(lp3539
F0.291667
aaI24
aa(lp3540
I1
a(lp3541
F0.238095
aaI21
aa(lp3542
I1
a(lp3543
F0.235294
aaI17
aa(lp3544
I1
a(lp3545
F0.266667
aaI30
aa(lp3546
I1
a(lp3547
F0.2
aaI25
aa(lp3548
I1
a(lp3549
F0.210526
aaI19
aa(lp3550
I1
a(lp3551
F0.208333
aaI24
aa(lp3552
I1
a(lp3553
F0.227273
aaI22
aa(lp3554
I1
a(lp3555
F0.0
aaI16
aa(lp3556
I1
a(lp3557
F0.0
aaI13
aa(lp3558
I1
a(lp3559
F0.263158
aaI38
aaa(lp3560
g812
ag813
a(lp3561
I1
a(lp3562
F0.368421
aaI38
aa(lp3563
I1
a(lp3564
F0.361111
aaI36
aa(lp3565
I1
a(lp3566
F0.4
aaI35
aa(lp3567
I1
a(lp3568
F0.382353
aaI34
aa(lp3569
I1
a(lp3570
F0.28125
aaI32
aa(lp3571
I1
a(lp3572
F0.225806
aaI31
aa(lp3573
I1
a(lp3574
F0.325
aaI40
aa(lp3575
I1
a(lp3576
F0.444444
aaI36
aa(lp3577
I1
a(lp3578
F0.4
aaI35
aaa(lp3579
g821
ag822
a(lp3580
I1
a(lp3581
F0.225
aaI40
aa(lp3582
I1
a(lp3583
F0.441176
aaI34
aa(lp3584
I1
a(lp3585
F0.454545
aaI33
aa(lp3586
I1
a(lp3587
F0.441176
aaI34
aa(lp3588
I1
a(lp3589
F0.4
aaI30
aa(lp3590
I1
a(lp3591
F0.25
aaI32
aa(lp3592
I1
a(lp3593
F0.0
aaI28
aaa(lp3594
g826
ag827
a(lp3595
I1
a(lp3596
F0.482759
aaI29
aa(lp3597
I1
a(lp3598
F0.472727
aaI55
aa(lp3599
I1
a(lp3600
F0.208333
aaI24
aa(lp3601
I1
a(lp3602
F0.206897
aaI29
aa(lp3603
I1
a(lp3604
F0.225806
aaI31
aa(lp3605
I1
a(lp3606
F0.3
aaI30
aa(lp3607
I1
a(lp3608
F0.2
aaI35
aa(lp3609
I1
a(lp3610
F0.457143
aaI35
aa(lp3611
I1
a(lp3612
F0.208333
aaI24
aa(lp3613
I1
a(lp3614
F0.26087
aaI23
aa(lp3615
I1
a(lp3616
F0.25
aaI24
aa(lp3617
I1
a(lp3618
F0.25
aaI28
aa(lp3619
I1
a(lp3620
F0.30303
aaI33
aa(lp3621
I1
a(lp3622
F0.228571
aaI35
aa(lp3623
I1
a(lp3624
F0.264706
aaI34
aa(lp3625
I1
a(lp3626
F0.28
aaI25
aaa(lp3627
g831
ag832
aa(lp3628
g834
ag835
a(lp3629
I1
a(lp3630
F0.2
aaI20
aa(lp3631
I1
a(lp3632
F0.217391
aaI23
aa(lp3633
I1
a(lp3634
F0.266667
aaI30
aa(lp3635
I1
a(lp3636
F0.241379
aaI29
aa(lp3637
I1
a(lp3638
F0.428571
aaI35
aa(lp3639
I1
a(lp3640
F0.214286
aaI28
aa(lp3641
I1
a(lp3642
F0.206897
aaI29
aa(lp3643
I1
a(lp3644
F0.333333
aaI21
aa(lp3645
I1
a(lp3646
F0.391304
aaI23
aa(lp3647
I1
a(lp3648
F0.392857
aaI28
aa(lp3649
I1
a(lp3650
F0.3125
aaI32
aa(lp3651
I1
a(lp3652
F0.290323
aaI31
aaa(lp3653
g837
ag838
aa(lp3654
g840
ag841
a(lp3655
I1
a(lp3656
F0.333333
aaI30
aa(lp3657
I1
a(lp3658
F0.30303
aaI33
aa(lp3659
I1
a(lp3660
F0.3125
aaI32
aa(lp3661
I1
a(lp3662
F0.432432
aaI37
aa(lp3663
I1
a(lp3664
F0.257143
aaI35
aaa(lp3665
g843
ag844
a(lp3666
I1
a(lp3667
F0.222222
aaI18
aaa(lp3668
g890
ag891
a(lp3669
I1
a(lp3670
F0.545455
aaI33
aaa(lp3671
g901
ag902
aa(lp3672
g906
ag907
aa(lp3673
g909
ag910
aa(lp3674
g912
ag913
aa(lp3675
g915
ag916
aa(lp3676
g934
ag935
a(lp3677
I1
a(lp3678
F0.380952
aaI21
aa(lp3679
I1
a(lp3680
F0.411765
aaI17
aa(lp3681
I1
a(lp3682
F0.2
aaI20
aa(lp3683
I1
a(lp3684
F0.266667
aaI30
aa(lp3685
I1
a(lp3686
F0.225806
aaI31
aa(lp3687
I1
a(lp3688
F0.277778
aaI18
aa(lp3689
I1
a(lp3690
F0.0
aaI17
aa(lp3691
I1
a(lp3692
F0.0
aaI16
aa(lp3693
I1
a(lp3694
F0.0
aaI18
aa(lp3695
I1
a(lp3696
F0.0
aaI19
aa(lp3697
I1
a(lp3698
F0.0
aaI19
aa(lp3699
I1
a(lp3700
F0.0
aaI20
aa(lp3701
I1
a(lp3702
F0.26087
aaI23
aa(lp3703
I1
a(lp3704
F0.28
aaI25
aa(lp3705
I1
a(lp3706
F0.407407
aaI27
aa(lp3707
I1
a(lp3708
F0.347826
aaI23
aa(lp3709
I1
a(lp3710
F0.470588
aaI17
aa(lp3711
I1
a(lp3712
F0.333333
aaI30
aa(lp3713
I1
a(lp3714
F0.28
aaI25
aa(lp3715
I1
a(lp3716
F0.24
aaI25
aa(lp3717
I1
a(lp3718
F0.25
aaI24
aa(lp3719
I1
a(lp3720
F0.25
aaI24
aa(lp3721
I1
a(lp3722
F0.409091
aaI22
aa(lp3723
I1
a(lp3724
F0.363636
aaI11
aa(lp3725
I1
a(lp3726
F0.26087
aaI23
aa(lp3727
I1
a(lp3728
F0.24
aaI25
aa(lp3729
I1
a(lp3730
F0.32
aaI25
aa(lp3731
I1
a(lp3732
F0.36
aaI25
aaa(lp3733
g943
ag944
aa(lp3734
g948
ag949
a(lp3735
I1
a(lp3736
F0.5
aaI58
aaa(lp3737
g951
ag952
aa(lp3738
g954
ag955
a(lp3739
I1
a(lp3740
F0.285714
aaI7
aa(lp3741
I1
a(lp3742
F0.44
aaI25
aa(lp3743
I1
a(lp3744
F0.333333
aaI21
aa(lp3745
I1
a(lp3746
F0.333333
aaI15
aa(lp3747
I1
a(lp3748
F0.4375
aaI16
aa(lp3749
I1
a(lp3750
F0.4375
aaI16
aa(lp3751
I1
a(lp3752
F0.416667
aaI12
aa(lp3753
I1
a(lp3754
F0.533333
aaI15
aa(lp3755
I1
a(lp3756
F0.555556
aaI18
aa(lp3757
I1
a(lp3758
F0.526316
aaI19
aa(lp3759
I1
a(lp3760
F0.548387
aaI31
aa(lp3761
I1
a(lp3762
F0.393939
aaI33
aa(lp3763
I1
a(lp3764
F0.222222
aaI27
aaa(lp3765
g957
ag958
aa(lp3766
g960
ag961
a(lp3767
I1
a(lp3768
F0.318182
aaI22
aa(lp3769
I1
a(lp3770
F0.279412
aaI68
aa(lp3771
I1
a(lp3772
F0.342857
aaI35
aa(lp3773
I1
a(lp3774
F0.222222
aaI27
aa(lp3775
I1
a(lp3776
F0.0
aaI28
aa(lp3777
I1
a(lp3778
F0.516129
aaI31
aa(lp3779
I1
a(lp3780
F0.466667
aaI30
aa(lp3781
I1
a(lp3782
F0.4375
aaI32
aa(lp3783
I1
a(lp3784
F0.515152
aaI33
aa(lp3785
I1
a(lp3786
F0.310345
aaI29
aa(lp3787
I1
a(lp3788
F0.296296
aaI27
aa(lp3789
I1
a(lp3790
F0.0
aaI8
aa(lp3791
I1
a(lp3792
F0.0
aaI9
aa(lp3793
I1
a(lp3794
F0.0
aaI10
aaa(lp3795
g975
ag976
a(lp3796
I1
a(lp3797
F0.233333
aaI30
aa(lp3798
I1
a(lp3799
F0.371429
aaI35
aa(lp3800
I1
a(lp3801
F0.368421
aaI38
aa(lp3802
I1
a(lp3803
F0.222222
aaI18
aa(lp3804
I1
a(lp3805
F0.227273
aaI22
aaa(lp3806
g984
ag985
a(lp3807
I1
a(lp3808
F0.4
aaI25
aa(lp3809
I1
a(lp3810
F0.4
aaI30
aa(lp3811
I1
a(lp3812
F0.461538
aaI26
aa(lp3813
I1
a(lp3814
F0.5
aaI36
aaa(lp3815
g987
ag988
a(lp3816
I1
a(lp3817
F0.2
aaI20
aa(lp3818
I1
a(lp3819
F0.361111
aaI36
aa(lp3820
I1
a(lp3821
F0.314286
aaI35
aa(lp3822
I1
a(lp3823
F0.390244
aaI41
aa(lp3824
I1
a(lp3825
F0.5
aaI32
aaa(lp3826
g990
ag991
aa(lp3827
g993
ag994
aa(lp3828
g996
ag997
aa(lp3829
g1001
ag1002
a(lp3830
I1
a(lp3831
F0.32
aaI25
aa(lp3832
I1
a(lp3833
F0.269231
aaI26
aa(lp3834
I1
a(lp3835
F0.266667
aaI30
aa(lp3836
I1
a(lp3837
F0.275862
aaI29
aaa(lp3838
g1008
ag1009
a(lp3839
I1
a(lp3840
F0.235294
aaI17
aa(lp3841
I1
a(lp3842
F0.463415
aaI41
aa(lp3843
I1
a(lp3844
F0.272727
aaI33
aa(lp3845
I1
a(lp3846
F0.5
aaI46
aa(lp3847
I1
a(lp3848
F0.522727
aaI44
aa(lp3849
I1
a(lp3850
F0.543478
aaI46
aaa(lp3851
g1019
ag1020
aa(lp3852
g1030
ag1031
a(lp3853
I1
a(lp3854
F0.2
aaI25
aaa(lp3855
g1033
ag1034
a(lp3856
I1
a(lp3857
F0.258065
aaI31
aa(lp3858
I1
a(lp3859
F0.357143
aaI28
aa(lp3860
I1
a(lp3861
F0.357143
aaI28
aa(lp3862
I1
a(lp3863
F0.37931
aaI29
aa(lp3864
I1
a(lp3865
F0.214286
aaI28
aa(lp3866
I1
a(lp3867
F0.235294
aaI34
aa(lp3868
I1
a(lp3869
F0.24
aaI25
aa(lp3870
I1
a(lp3871
F0.205882
aaI34
aaa(lp3872
g1040
ag1041
aa(lp3873
g1043
ag1044
a(lp3874
I1
a(lp3875
F0.316667
aaI60
aa(lp3876
I1
a(lp3877
F0.333333
aaI21
aaa(lp3878
g1046
ag1047
aa(lp3879
g1049
ag1050
aa(lp3880
g1052
ag1053
a(lp3881
I1
a(lp3882
F0.512821
aaI39
aa(lp3883
I1
a(lp3884
F0.615385
aaI39
aa(lp3885
I1
a(lp3886
F0.2
aaI25
aa(lp3887
I1
a(lp3888
F0.26087
aaI23
aa(lp3889
I1
a(lp3890
F0.457143
aaI35
aa(lp3891
I1
a(lp3892
F0.625
aaI48
aa(lp3893
I1
a(lp3894
F0.625
aaI40
aa(lp3895
I1
a(lp3896
F0.617647
aaI34
aa(lp3897
I1
a(lp3898
F0.424242
aaI33
aa(lp3899
I1
a(lp3900
F0.521739
aaI23
aa(lp3901
I1
a(lp3902
F0.395833
aaI48
aa(lp3903
I1
a(lp3904
F0.5
aaI36
aa(lp3905
I1
a(lp3906
F0.444444
aaI36
aa(lp3907
I1
a(lp3908
F0.44186
aaI43
aa(lp3909
I1
a(lp3910
F0.285714
aaI21
aa(lp3911
I1
a(lp3912
F0.272727
aaI22
aa(lp3913
I1
a(lp3914
F0.277778
aaI18
aa(lp3915
I1
a(lp3916
F0.530612
aaI49
aaa(lp3917
g1107
ag1108
aa(lp3918
g1110
ag1111
a(lp3919
I1
a(lp3920
F0.706667
aaI75
aa(lp3921
I1
a(lp3922
F0.478261
aaI23
aa(lp3923
I1
a(lp3924
F0.428571
aaI21
aa(lp3925
I1
a(lp3926
F0.6
aaI75
aa(lp3927
I1
a(lp3928
F0.543478
aaI46
aa(lp3929
I1
a(lp3930
F0.459459
aaI37
aa(lp3931
I1
a(lp3932
F0.487179
aaI39
aa(lp3933
I1
a(lp3934
F0.228571
aaI35
aaa(lp3935
g1117
ag1118
a(lp3936
I1
a(lp3937
F0.428571
aaI35
aa(lp3938
I1
a(lp3939
F0.390244
aaI41
aaa(lp3940
g1122
ag1123
a(lp3941
I1
a(lp3942
F0.6
aaI35
aa(lp3943
I1
a(lp3944
F0.625
aaI32
aa(lp3945
I1
a(lp3946
F0.5
aaI28
aa(lp3947
I1
a(lp3948
F0.444444
aaI27
aa(lp3949
I1
a(lp3950
F0.235294
aaI17
aa(lp3951
I1
a(lp3952
F0.0
aaI3
aa(lp3953
I1
a(lp3954
F0.0
aaI3
aa(lp3955
I1
a(lp3956
F0.0
aaI2
aa(lp3957
I1
a(lp3958
F0.0
aaI3
aa(lp3959
I1
a(lp3960
F0.26087
aaI23
aa(lp3961
I1
a(lp3962
F0.0
aaI23
aa(lp3963
I1
a(lp3964
F0.0
aaI24
aa(lp3965
I1
a(lp3966
F0.821429
aaI28
aa(lp3967
I1
a(lp3968
F0.0
aaI29
aa(lp3969
I1
a(lp3970
F0.846154
aaI26
aa(lp3971
I1
a(lp3972
F0.0
aaI23
aa(lp3973
I1
a(lp3974
F0.24
aaI25
aa(lp3975
I1
a(lp3976
F0.263158
aaI19
aa(lp3977
I1
a(lp3978
F0.277778
aaI18
aa(lp3979
I1
a(lp3980
F0.382353
aaI34
aa(lp3981
I1
a(lp3982
F0.238095
aaI21
aa(lp3983
I1
a(lp3984
F0.2
aaI20
aa(lp3985
I1
a(lp3986
F0.483871
aaI31
aa(lp3987
I1
a(lp3988
F0.235294
aaI17
aa(lp3989
I1
a(lp3990
F0.214286
aaI14
aa(lp3991
I1
a(lp3992
F0.32
aaI25
aa(lp3993
I1
a(lp3994
F0.393939
aaI33
aa(lp3995
I1
a(lp3996
F0.512821
aaI39
aa(lp3997
I1
a(lp3998
F0.4375
aaI48
aa(lp3999
I1
a(lp4000
F0.3
aaI20
aa(lp4001
I1
a(lp4002
F0.315789
aaI19
aa(lp4003
I1
a(lp4004
F0.259259
aaI27
aa(lp4005
I1
a(lp4006
F0.285714
aaI28
aaa(lp4007
g1129
ag1130
a(lp4008
I1
a(lp4009
F0.25
aaI44
aa(lp4010
I1
a(lp4011
F0.533333
aaI30
aa(lp4012
I1
a(lp4013
F0.545455
aaI44
aa(lp4014
I1
a(lp4015
F0.55
aaI40
aa(lp4016
I1
a(lp4017
F0.295455
aaI44
aa(lp4018
I1
a(lp4019
F0.342105
aaI38
aa(lp4020
I1
a(lp4021
F0.3
aaI40
aa(lp4022
I1
a(lp4023
F0.21875
aaI32
aa(lp4024
I1
a(lp4025
F0.259259
aaI27
aa(lp4026
I1
a(lp4027
F0.28
aaI25
aa(lp4028
I1
a(lp4029
F0.25
aaI24
aa(lp4030
I1
a(lp4031
F0.25
aaI24
aa(lp4032
I1
a(lp4033
F0.238095
aaI21
aa(lp4034
I1
a(lp4035
F0.466667
aaI30
aa(lp4036
I1
a(lp4037
F0.2
aaI25
aa(lp4038
I1
a(lp4039
F0.227273
aaI22
aa(lp4040
I1
a(lp4041
F0.227273
aaI22
aa(lp4042
I1
a(lp4043
F0.263158
aaI19
aa(lp4044
I1
a(lp4045
F0.294118
aaI17
aa(lp4046
I1
a(lp4047
F0.28125
aaI32
aa(lp4048
I1
a(lp4049
F0.515152
aaI33
aa(lp4050
I1
a(lp4051
F0.461538
aaI26
aa(lp4052
I1
a(lp4053
F0.434783
aaI23
aa(lp4054
I1
a(lp4055
F0.363636
aaI22
aa(lp4056
I1
a(lp4057
F0.346154
aaI26
aa(lp4058
I1
a(lp4059
F0.309524
aaI42
aa(lp4060
I1
a(lp4061
F0.28
aaI25
aa(lp4062
I1
a(lp4063
F0.28125
aaI32
aa(lp4064
I1
a(lp4065
F0.44898
aaI49
aa(lp4066
I1
a(lp4067
F0.456522
aaI46
aa(lp4068
I1
a(lp4069
F0.3
aaI40
aa(lp4070
I1
a(lp4071
F0.259259
aaI27
aa(lp4072
I1
a(lp4073
F0.285714
aaI28
aa(lp4074
I1
a(lp4075
F0.228571
aaI35
aa(lp4076
I1
a(lp4077
F0.275
aaI40
aa(lp4078
I1
a(lp4079
F0.275
aaI40
aa(lp4080
I1
a(lp4081
F0.236842
aaI38
aa(lp4082
I1
a(lp4083
F0.333333
aaI42
aa(lp4084
I1
a(lp4085
F0.315789
aaI38
aa(lp4086
I1
a(lp4087
F0.352941
aaI34
aa(lp4088
I1
a(lp4089
F0.21875
aaI32
aa(lp4090
I1
a(lp4091
F0.225806
aaI31
aa(lp4092
I1
a(lp4093
F0.222222
aaI27
aa(lp4094
I1
a(lp4095
F0.0
aaI15
aa(lp4096
I1
a(lp4097
F0.269231
aaI26
aaa(lp4098
g1174
ag1175
aa(lp4099
g1177
ag1178
aa(lp4100
g1182
ag1183
aa(lp4101
g1185
ag1186
a(lp4102
I1
a(lp4103
F0.394737
aaI38
aa(lp4104
I1
a(lp4105
F0.268293
aaI41
aa(lp4106
I1
a(lp4107
F0.244444
aaI45
aa(lp4108
I1
a(lp4109
F0.229167
aaI48
aa(lp4110
I1
a(lp4111
F0.254902
aaI51
aa(lp4112
I1
a(lp4113
F0.25
aaI44
aaa(lp4114
g1192
ag1193
aa(lp4115
g1197
ag1198
a(lp4116
I1
a(lp4117
F0.0
aaI8
aaa(lp4118
g1200
ag1201
aa(lp4119
g1203
ag1204
aa(lp4120
g1206
ag1207
a(lp4121
I1
a(lp4122
F0.243243
aaI37
aa(lp4123
I1
a(lp4124
F0.243243
aaI37
aa(lp4125
I1
a(lp4126
F0.589744
aaI39
aa(lp4127
I1
a(lp4128
F0.352941
aaI34
aa(lp4129
I1
a(lp4130
F0.321429
aaI28
aa(lp4131
I1
a(lp4132
F0.214286
aaI14
aa(lp4133
I1
a(lp4134
F0.2
aaI15
aa(lp4135
I1
a(lp4136
F0.214286
aaI14
aa(lp4137
I1
a(lp4138
F0.214286
aaI14
aa(lp4139
I1
a(lp4140
F0.214286
aaI14
aa(lp4141
I1
a(lp4142
F0.263158
aaI19
aa(lp4143
I1
a(lp4144
F0.217391
aaI23
aa(lp4145
I1
a(lp4146
F0.28
aaI25
aa(lp4147
I1
a(lp4148
F0.258065
aaI31
aa(lp4149
I1
a(lp4150
F0.447368
aaI38
aa(lp4151
I1
a(lp4152
F0.560976
aaI41
aa(lp4153
I1
a(lp4154
F0.6
aaI40
aa(lp4155
I1
a(lp4156
F0.552239
aaI67
aa(lp4157
I1
a(lp4158
F0.711864
aaI59
aa(lp4159
I1
a(lp4160
F0.641509
aaI53
aa(lp4161
I1
a(lp4162
F0.625
aaI48
aa(lp4163
I1
a(lp4164
F0.634615
aaI52
aa(lp4165
I1
a(lp4166
F0.56
aaI50
aa(lp4167
I1
a(lp4168
F0.588235
aaI51
aa(lp4169
I1
a(lp4170
F0.588235
aaI51
aa(lp4171
I1
a(lp4172
F0.731707
aaI41
aa(lp4173
I1
a(lp4174
F0.675
aaI40
aa(lp4175
I1
a(lp4176
F0.675676
aaI37
aa(lp4177
I1
a(lp4178
F0.431818
aaI44
aa(lp4179
I1
a(lp4180
F0.318841
aaI69
aa(lp4181
I1
a(lp4182
F0.269231
aaI52
aa(lp4183
I1
a(lp4184
F0.0
aaI42
aa(lp4185
I1
a(lp4186
F0.333333
aaI9
aaa(lp4187
g1255
ag1256
a(lp4188
I1
a(lp4189
F0.207547
aaI53
aaa(lp4190
g1258
ag1259
a(lp4191
I1
a(lp4192
F0.472222
aaI36
aa(lp4193
I1
a(lp4194
F0.378378
aaI37
aaa(lp4195
g1265
ag1266
aa(lp4196
g1274
ag1275
a(lp4197
I1
a(lp4198
F0.28
aaI25
aa(lp4199
I1
a(lp4200
F0.238095
aaI21
aa(lp4201
I1
a(lp4202
F0.227273
aaI22
aa(lp4203
I1
a(lp4204
F0.592593
aaI27
aa(lp4205
I1
a(lp4206
F0.0
aaI19
aaa(lp4207
g1277
ag1278
aa(lp4208
g1280
ag1281
a(lp4209
I1
a(lp4210
F0.617647
aaI34
aa(lp4211
I1
a(lp4212
F0.292683
aaI41
aa(lp4213
I1
a(lp4214
F0.3
aaI40
aa(lp4215
I1
a(lp4216
F0.35
aaI40
aa(lp4217
I1
a(lp4218
F0.375
aaI40
aa(lp4219
I1
a(lp4220
F0.322581
aaI31
aa(lp4221
I1
a(lp4222
F0.3125
aaI32
aa(lp4223
I1
a(lp4224
F0.233333
aaI30
aaa(lp4225
g1283
ag1284
a(lp4226
I1
a(lp4227
F0.314286
aaI35
aa(lp4228
I1
a(lp4229
F0.4
aaI35
aa(lp4230
I1
a(lp4231
F0.53125
aaI32
aa(lp4232
I1
a(lp4233
F0.416667
aaI36
aa(lp4234
I1
a(lp4235
F0.25
aaI24
aa(lp4236
I1
a(lp4237
F0.0
aaI42
aa(lp4238
I1
a(lp4239
F0.0
aaI46
aa(lp4240
I1
a(lp4241
F0.347826
aaI23
aa(lp4242
I1
a(lp4243
F0.409091
aaI22
aa(lp4244
I1
a(lp4245
F0.333333
aaI21
aa(lp4246
I1
a(lp4247
F0.347826
aaI23
aa(lp4248
I1
a(lp4249
F0.333333
aaI24
aa(lp4250
I1
a(lp4251
F0.285714
aaI21
aa(lp4252
I1
a(lp4253
F0.318182
aaI22
aa(lp4254
I1
a(lp4255
F0.423077
aaI26
aa(lp4256
I1
a(lp4257
F0.238095
aaI21
aaa(lp4258
g1294
ag1295
aa(lp4259
g1297
ag1298
aa(lp4260
g1300
ag1301
aa(lp4261
g1305
ag1306
a(lp4262
I1
a(lp4263
F0.454545
aaI22
aa(lp4264
I1
a(lp4265
F0.5
aaI22
aaa(lp4266
g1308
ag1309
aa(lp4267
g1315
ag1316
aa(lp4268
g1318
ag1319
aa(lp4269
g1325
ag1326
a(lp4270
I1
a(lp4271
F0.0
aaI27
aa(lp4272
I1
a(lp4273
F0.358974
aaI39
aa(lp4274
I1
a(lp4275
F0.514286
aaI35
aa(lp4276
I1
a(lp4277
F0.377049
aaI61
aa(lp4278
I1
a(lp4279
F0.344828
aaI58
aa(lp4280
I1
a(lp4281
F0.428571
aaI63
aa(lp4282
I1
a(lp4283
F0.242424
aaI33
aa(lp4284
I1
a(lp4285
F0.206897
aaI29
aa(lp4286
I1
a(lp4287
F0.0
aaI21
aa(lp4288
I1
a(lp4289
F0.219512
aaI41
aa(lp4290
I1
a(lp4291
F0.433333
aaI30
aaa(lp4292
g1328
ag1329
a(lp4293
I1
a(lp4294
F0.258621
aaI58
aaa(lp4295
g1333
ag1334
a(lp4296
I1
a(lp4297
F0.25
aaI20
aa(lp4298
I1
a(lp4299
F0.307692
aaI26
aa(lp4300
I1
a(lp4301
F0.269231
aaI26
aa(lp4302
I1
a(lp4303
F0.380952
aaI21
aa(lp4304
I1
a(lp4305
F0.441176
aaI34
aa(lp4306
I1
a(lp4307
F0.466667
aaI30
aa(lp4308
I1
a(lp4309
F0.387097
aaI31
aa(lp4310
I1
a(lp4311
F0.259259
aaI27
aa(lp4312
I1
a(lp4313
F0.228571
aaI35
aaa(lp4314
g1338
ag1339
a(lp4315
I1
a(lp4316
F0.346154
aaI26
aa(lp4317
I1
a(lp4318
F0.296296
aaI27
aa(lp4319
I1
a(lp4320
F0.233333
aaI30
aa(lp4321
I1
a(lp4322
F0.214286
aaI28
aa(lp4323
I1
a(lp4324
F0.214286
aaI28
aa(lp4325
I1
a(lp4326
F0.222222
aaI27
aa(lp4327
I1
a(lp4328
F0.533333
aaI75
aa(lp4329
I1
a(lp4330
F0.392857
aaI28
aa(lp4331
I1
a(lp4332
F0.321429
aaI28
aa(lp4333
I1
a(lp4334
F0.36
aaI25
aa(lp4335
I1
a(lp4336
F0.391304
aaI23
aa(lp4337
I1
a(lp4338
F0.333333
aaI21
aa(lp4339
I1
a(lp4340
F0.380952
aaI21
aa(lp4341
I1
a(lp4342
F0.392857
aaI28
aa(lp4343
I1
a(lp4344
F0.375
aaI32
aa(lp4345
I1
a(lp4346
F0.0
aaI30
aa(lp4347
I1
a(lp4348
F0.447368
aaI38
aa(lp4349
I1
a(lp4350
F0.375
aaI24
aaa(lp4351
g1341
ag1342
aa(lp4352
g1344
ag1345
a(lp4353
I1
a(lp4354
F0.473684
aaI38
aa(lp4355
I1
a(lp4356
F0.333333
aaI24
aa(lp4357
I1
a(lp4358
F0.230769
aaI26
aa(lp4359
I1
a(lp4360
F0.241379
aaI29
aa(lp4361
I1
a(lp4362
F0.352941
aaI17
aaa(lp4363
g1347
ag1348
a(lp4364
I1
a(lp4365
F0.40625
aaI32
aa(lp4366
I1
a(lp4367
F0.405405
aaI37
aa(lp4368
I1
a(lp4369
F0.394737
aaI38
aa(lp4370
I1
a(lp4371
F0.431818
aaI44
aa(lp4372
I1
a(lp4373
F0.465116
aaI43
aa(lp4374
I1
a(lp4375
F0.454545
aaI44
aa(lp4376
I1
a(lp4377
F0.466667
aaI45
aa(lp4378
I1
a(lp4379
F0.386364
aaI44
aa(lp4380
I1
a(lp4381
F0.358974
aaI39
aa(lp4382
I1
a(lp4383
F0.5
aaI36
aa(lp4384
I1
a(lp4385
F0.488372
aaI43
aa(lp4386
I1
a(lp4387
F0.423077
aaI26
aa(lp4388
I1
a(lp4389
F0.208333
aaI24
aa(lp4390
I1
a(lp4391
F0.333333
aaI30
aa(lp4392
I1
a(lp4393
F0.340909
aaI44
aa(lp4394
I1
a(lp4395
F0.219512
aaI41
aa(lp4396
I1
a(lp4397
F0.384615
aaI39
aa(lp4398
I1
a(lp4399
F0.464286
aaI56
aa(lp4400
I1
a(lp4401
F0.3125
aaI32
aa(lp4402
I1
a(lp4403
F0.3125
aaI32
aa(lp4404
I1
a(lp4405
F0.36
aaI25
aa(lp4406
I1
a(lp4407
F0.371429
aaI35
aa(lp4408
I1
a(lp4409
F0.352941
aaI34
aa(lp4410
I1
a(lp4411
F0.222222
aaI27
aa(lp4412
I1
a(lp4413
F0.384615
aaI26
aa(lp4414
I1
a(lp4415
F0.366667
aaI30
aa(lp4416
I1
a(lp4417
F0.444444
aaI36
aa(lp4418
I1
a(lp4419
F0.457143
aaI35
aa(lp4420
I1
a(lp4421
F0.5
aaI34
aa(lp4422
I1
a(lp4423
F0.451613
aaI31
aa(lp4424
I1
a(lp4425
F0.4375
aaI32
aa(lp4426
I1
a(lp4427
F0.487179
aaI39
aa(lp4428
I1
a(lp4429
F0.324324
aaI37
aa(lp4430
I1
a(lp4431
F0.230769
aaI26
aa(lp4432
I1
a(lp4433
F0.36
aaI25
aa(lp4434
I1
a(lp4435
F0.36
aaI25
aa(lp4436
I1
a(lp4437
F0.307692
aaI26
aa(lp4438
I1
a(lp4439
F0.433333
aaI30
aa(lp4440
I1
a(lp4441
F0.433333
aaI30
aa(lp4442
I1
a(lp4443
F0.393939
aaI33
aa(lp4444
I1
a(lp4445
F0.416667
aaI36
aa(lp4446
I1
a(lp4447
F0.371429
aaI35
aa(lp4448
I1
a(lp4449
F0.472222
aaI36
aa(lp4450
I1
a(lp4451
F0.0
aaI14
aa(lp4452
I1
a(lp4453
F0.259259
aaI27
aa(lp4454
I1
a(lp4455
F0.269231
aaI26
aa(lp4456
I1
a(lp4457
F0.238095
aaI21
aa(lp4458
I1
a(lp4459
F0.28125
aaI32
aa(lp4460
I1
a(lp4461
F0.0
aaI36
aaa(lp4462
g1360
ag1361
a(lp4463
I1
a(lp4464
F0.206897
aaI29
aa(lp4465
I1
a(lp4466
F0.28
aaI25
aa(lp4467
I1
a(lp4468
F0.222222
aaI27
aaa(lp4469
g1367
ag1368
aa(lp4470
g1370
ag1371
a(lp4471
I1
a(lp4472
F0.222222
aaI27
aa(lp4473
I1
a(lp4474
F0.4
aaI35
aa(lp4475
I1
a(lp4476
F0.310345
aaI29
aa(lp4477
I1
a(lp4478
F0.411765
aaI34
aa(lp4479
I1
a(lp4480
F0.411765
aaI34
aa(lp4481
I1
a(lp4482
F0.424242
aaI33
aa(lp4483
I1
a(lp4484
F0.222222
aaI18
aa(lp4485
I1
a(lp4486
F0.235294
aaI17
aa(lp4487
I1
a(lp4488
F0.363636
aaI22
aa(lp4489
I1
a(lp4490
F0.296296
aaI27
aa(lp4491
I1
a(lp4492
F0.268293
aaI41
aa(lp4493
I1
a(lp4494
F0.3
aaI30
aaa(lp4495
g1377
ag1378
aa(lp4496
g1380
ag1381
a(lp4497
I1
a(lp4498
F0.44
aaI25
aa(lp4499
I1
a(lp4500
F0.432432
aaI37
aa(lp4501
I1
a(lp4502
F0.358974
aaI39
aa(lp4503
I1
a(lp4504
F0.65
aaI40
aa(lp4505
I1
a(lp4506
F0.466667
aaI45
aa(lp4507
I1
a(lp4508
F0.589744
aaI39
aa(lp4509
I1
a(lp4510
F0.208333
aaI48
aa(lp4511
I1
a(lp4512
F0.265306
aaI49
aa(lp4513
I1
a(lp4514
F0.0
aaI39
aa(lp4515
I1
a(lp4516
F0.424242
aaI33
aa(lp4517
I1
a(lp4518
F0.424242
aaI33
aaa(lp4519
g1385
ag1386
aa(lp4520
g1388
ag1389
a(lp4521
I1
a(lp4522
F0.484848
aaI33
aa(lp4523
I1
a(lp4524
F0.46875
aaI32
aa(lp4525
I1
a(lp4526
F0.433333
aaI30
aa(lp4527
I1
a(lp4528
F0.409091
aaI22
aa(lp4529
I1
a(lp4530
F0.368421
aaI19
aa(lp4531
I1
a(lp4532
F0.411765
aaI17
aa(lp4533
I1
a(lp4534
F0.208333
aaI24
aa(lp4535
I1
a(lp4536
F0.387097
aaI31
aa(lp4537
I1
a(lp4538
F0.28
aaI25
aa(lp4539
I1
a(lp4540
F0.411765
aaI34
aa(lp4541
I1
a(lp4542
F0.324324
aaI37
aa(lp4543
I1
a(lp4544
F0.481481
aaI27
aaa(lp4545
g1391
ag1392
aa(lp4546
g1394
ag1395
a(lp4547
I1
a(lp4548
F0.282609
aaI46
aa(lp4549
I1
a(lp4550
F0.302326
aaI43
aa(lp4551
I1
a(lp4552
F0.206897
aaI29
aa(lp4553
I1
a(lp4554
F0.666667
aaI27
aa(lp4555
I1
a(lp4556
F0.0
aaI16
aa(lp4557
I1
a(lp4558
F0.259259
aaI27
aa(lp4559
I1
a(lp4560
F0.217391
aaI23
aa(lp4561
I1
a(lp4562
F0.206897
aaI29
aaa(lp4563
g1403
ag1404
aa(lp4564
g1406
ag1407
a(lp4565
I1
a(lp4566
F0.3
aaI40
aa(lp4567
I1
a(lp4568
F0.292683
aaI41
aa(lp4569
I1
a(lp4570
F0.272727
aaI44
aaa(lp4571
g1409
ag1410
aa(lp4572
g1414
ag1415
a(lp4573
I1
a(lp4574
F0.3125
aaI32
aa(lp4575
I1
a(lp4576
F0.25
aaI20
aa(lp4577
I1
a(lp4578
F0.214286
aaI28
aa(lp4579
I1
a(lp4580
F0.347826
aaI23
aa(lp4581
I1
a(lp4582
F0.44
aaI25
aa(lp4583
I1
a(lp4584
F0.4
aaI15
aa(lp4585
I1
a(lp4586
F0.297297
aaI37
aa(lp4587
I1
a(lp4588
F0.36
aaI25
aa(lp4589
I1
a(lp4590
F0.344828
aaI29
aa(lp4591
I1
a(lp4592
F0.366667
aaI30
aa(lp4593
I1
a(lp4594
F0.526316
aaI38
aa(lp4595
I1
a(lp4596
F0.617647
aaI34
aa(lp4597
I1
a(lp4598
F0.518519
aaI54
aa(lp4599
I1
a(lp4600
F0.470588
aaI51
aa(lp4601
I1
a(lp4602
F0.206897
aaI29
aa(lp4603
I1
a(lp4604
F0.0
aaI7
aaa(lp4605
g1431
ag1432
a(lp4606
I1
a(lp4607
F0.410256
aaI39
aa(lp4608
I1
a(lp4609
F0.5
aaI28
aaa(lp4610
g1434
ag1435
a(lp4611
I1
a(lp4612
F0.222222
aaI27
aa(lp4613
I1
a(lp4614
F0.25641
aaI39
aa(lp4615
I1
a(lp4616
F0.225806
aaI31
aa(lp4617
I1
a(lp4618
F0.206897
aaI29
aaa(lp4619
g1457
ag1458
a(lp4620
I1
a(lp4621
F0.407407
aaI27
aa(lp4622
I1
a(lp4623
F0.310345
aaI29
aa(lp4624
I1
a(lp4625
F0.24
aaI25
aa(lp4626
I1
a(lp4627
F0.25
aaI24
aa(lp4628
I1
a(lp4629
F0.275862
aaI29
aa(lp4630
I1
a(lp4631
F0.32
aaI25
aa(lp4632
I1
a(lp4633
F0.424242
aaI33
aa(lp4634
I1
a(lp4635
F0.394737
aaI38
aa(lp4636
I1
a(lp4637
F0.361111
aaI36
aa(lp4638
I1
a(lp4639
F0.361111
aaI36
aaa(lp4640
g1460
ag1461
a(lp4641
I1
a(lp4642
F0.371429
aaI35
aa(lp4643
I1
a(lp4644
F0.4
aaI35
aaa(lp4645
g1463
ag1464
a(lp4646
I1
a(lp4647
F0.0
aaI36
aaa(lp4648
g1474
ag1475
a(lp4649
I1
a(lp4650
F0.307692
aaI26
aa(lp4651
I1
a(lp4652
F0.423077
aaI26
aa(lp4653
I1
a(lp4654
F0.461538
aaI26
aa(lp4655
I1
a(lp4656
F0.32
aaI25
aa(lp4657
I1
a(lp4658
F0.205882
aaI34
aa(lp4659
I1
a(lp4660
F0.225806
aaI31
aa(lp4661
I1
a(lp4662
F0.222222
aaI36
aa(lp4663
I1
a(lp4664
F0.307692
aaI26
aa(lp4665
I1
a(lp4666
F0.28
aaI25
aa(lp4667
I1
a(lp4668
F0.230769
aaI26
aa(lp4669
I1
a(lp4670
F0.416667
aaI24
aa(lp4671
I1
a(lp4672
F0.25
aaI28
aa(lp4673
I1
a(lp4674
F0.230769
aaI39
aa(lp4675
I1
a(lp4676
F0.230769
aaI52
aa(lp4677
I1
a(lp4678
F0.346154
aaI26
aa(lp4679
I1
a(lp4680
F0.230769
aaI39
aa(lp4681
I1
a(lp4682
F0.296296
aaI27
aa(lp4683
I1
a(lp4684
F0.304348
aaI23
aa(lp4685
I1
a(lp4686
F0.375
aaI24
aa(lp4687
I1
a(lp4688
F0.347826
aaI23
aa(lp4689
I1
a(lp4690
F0.442308
aaI52
aa(lp4691
I1
a(lp4692
F0.25
aaI32
aaa(lp4693
g1477
ag1478
aa(lp4694
g1480
ag1481
a(lp4695
I1
a(lp4696
F0.414634
aaI41
aaa(lp4697
g1483
ag1484
a(lp4698
I1
a(lp4699
F0.348837
aaI43
aa(lp4700
I1
a(lp4701
F0.209302
aaI43
aa(lp4702
I1
a(lp4703
F0.214286
aaI42
aa(lp4704
I1
a(lp4705
F0.233333
aaI30
aa(lp4706
I1
a(lp4707
F0.333333
aaI36
aa(lp4708
I1
a(lp4709
F0.225806
aaI31
aa(lp4710
I1
a(lp4711
F0.34375
aaI32
aa(lp4712
I1
a(lp4713
F0.386364
aaI44
aaa(lp4714
g1494
ag1495
aa(lp4715
g1509
ag1510
aa(lp4716
g1512
ag1513
aa(lp4717
g1537
ag1538
a(lp4718
I1
a(lp4719
F0.488372
aaI43
aa(lp4720
I1
a(lp4721
F0.472222
aaI36
aa(lp4722
I1
a(lp4723
F0.432432
aaI37
aa(lp4724
I1
a(lp4725
F0.37037
aaI27
aa(lp4726
I1
a(lp4727
F0.318182
aaI22
aa(lp4728
I1
a(lp4729
F0.214286
aaI28
aa(lp4730
I1
a(lp4731
F0.235294
aaI34
aa(lp4732
I1
a(lp4733
F0.344828
aaI58
aa(lp4734
I1
a(lp4735
F0.3
aaI30
aa(lp4736
I1
a(lp4737
F0.275862
aaI29
aa(lp4738
I1
a(lp4739
F0.266667
aaI30
aa(lp4740
I1
a(lp4741
F0.285714
aaI28
aa(lp4742
I1
a(lp4743
F0.285714
aaI28
aa(lp4744
I1
a(lp4745
F0.382353
aaI34
aa(lp4746
I1
a(lp4747
F0.363636
aaI33
aa(lp4748
I1
a(lp4749
F0.371429
aaI35
aa(lp4750
I1
a(lp4751
F0.333333
aaI27
aa(lp4752
I1
a(lp4753
F0.25
aaI20
aa(lp4754
I1
a(lp4755
F0.25
aaI20
aa(lp4756
I1
a(lp4757
F0.512821
aaI39
aa(lp4758
I1
a(lp4759
F0.444444
aaI36
aa(lp4760
I1
a(lp4761
F0.5
aaI38
aa(lp4762
I1
a(lp4763
F0.0
aaI35
aa(lp4764
I1
a(lp4765
F0.0
aaI25
aa(lp4766
I1
a(lp4767
F0.347826
aaI23
aa(lp4768
I1
a(lp4769
F0.4
aaI30
aa(lp4770
I1
a(lp4771
F0.0
aaI28
aa(lp4772
I1
a(lp4773
F0.52
aaI25
aa(lp4774
I1
a(lp4775
F0.457143
aaI35
aa(lp4776
I1
a(lp4777
F0.413793
aaI29
aaa(lp4778
g1562
ag1563
a(lp4779
I1
a(lp4780
F0.59375
aaI32
aa(lp4781
I1
a(lp4782
F0.484848
aaI33
aa(lp4783
I1
a(lp4784
F0.525
aaI40
aa(lp4785
I1
a(lp4786
F0.536585
aaI41
aa(lp4787
I1
a(lp4788
F0.285714
aaI28
aa(lp4789
I1
a(lp4790
F0.3
aaI30
aa(lp4791
I1
a(lp4792
F0.275862
aaI29
aa(lp4793
I1
a(lp4794
F0.230769
aaI26
aa(lp4795
I1
a(lp4796
F0.3
aaI30
aa(lp4797
I1
a(lp4798
F0.0
aaI13
aaa(lp4799
g1565
ag1566
aa(lp4800
g1568
ag1569
a(lp4801
I1
a(lp4802
F0.0
aaI11
aa(lp4803
I1
a(lp4804
F0.472
aaI125
aa(lp4805
I1
a(lp4806
F0.333333
aaI21
aa(lp4807
I1
a(lp4808
F0.32
aaI25
aa(lp4809
I1
a(lp4810
F0.346154
aaI26
aa(lp4811
I1
a(lp4812
F0.413793
aaI29
aa(lp4813
I1
a(lp4814
F0.419355
aaI31
aa(lp4815
I1
a(lp4816
F0.55
aaI40
aa(lp4817
I1
a(lp4818
F0.212121
aaI33
aa(lp4819
I1
a(lp4820
F0.235294
aaI34
aaa(lp4821
g1571
ag1572
a(lp4822
I1
a(lp4823
F0.488372
aaI43
aa(lp4824
I1
a(lp4825
F0.35
aaI40
aa(lp4826
I1
a(lp4827
F0.263158
aaI38
aa(lp4828
I1
a(lp4829
F0.36
aaI50
aa(lp4830
I1
a(lp4831
F0.291667
aaI24
aa(lp4832
I1
a(lp4833
F0.304348
aaI23
aa(lp4834
I1
a(lp4835
F0.264706
aaI34
aa(lp4836
I1
a(lp4837
F0.214286
aaI14
aa(lp4838
I1
a(lp4839
F0.214286
aaI14
aa(lp4840
I1
a(lp4841
F0.34375
aaI32
aa(lp4842
I1
a(lp4843
F0.333333
aaI33
aa(lp4844
I1
a(lp4845
F0.275862
aaI29
aa(lp4846
I1
a(lp4847
F0.21875
aaI32
aaa(lp4848
g1580
ag1581
aa(lp4849
g1583
ag1584
a(lp4850
I1
a(lp4851
F0.227273
aaI22
aa(lp4852
I1
a(lp4853
F0.2
aaI25
aa(lp4854
I1
a(lp4855
F0.24
aaI25
aa(lp4856
I1
a(lp4857
F0.206897
aaI29
aa(lp4858
I1
a(lp4859
F0.333333
aaI27
aa(lp4860
I1
a(lp4861
F0.571429
aaI28
aa(lp4862
I1
a(lp4863
F0.333333
aaI27
aa(lp4864
I1
a(lp4865
F0.464286
aaI28
aa(lp4866
I1
a(lp4867
F0.0
aaI36
aa(lp4868
I1
a(lp4869
F0.272727
aaI22
aa(lp4870
I1
a(lp4871
F0.269231
aaI26
aa(lp4872
I1
a(lp4873
F0.46875
aaI32
aa(lp4874
I1
a(lp4875
F0.208333
aaI24
aa(lp4876
I1
a(lp4877
F0.2
aaI25
aa(lp4878
I1
a(lp4879
F0.592593
aaI27
aa(lp4880
I1
a(lp4881
F0.545455
aaI33
aa(lp4882
I1
a(lp4883
F0.0
aaI7
aa(lp4884
I1
a(lp4885
F0.25
aaI28
aa(lp4886
I1
a(lp4887
F0.509434
aaI53
aaa(lp4888
g1586
ag1587
a(lp4889
I1
a(lp4890
F0.0
aaI8
aa(lp4891
I1
a(lp4892
F0.324324
aaI37
aa(lp4893
I1
a(lp4894
F0.333333
aaI27
aa(lp4895
I1
a(lp4896
F0.321429
aaI28
aa(lp4897
I1
a(lp4898
F0.344828
aaI29
aa(lp4899
I1
a(lp4900
F0.4
aaI30
aa(lp4901
I1
a(lp4902
F0.413793
aaI29
aa(lp4903
I1
a(lp4904
F0.387097
aaI31
aa(lp4905
I1
a(lp4906
F0.380952
aaI21
aa(lp4907
I1
a(lp4908
F0.4
aaI15
aa(lp4909
I1
a(lp4910
F0.375
aaI16
aa(lp4911
I1
a(lp4912
F0.424242
aaI33
aa(lp4913
I1
a(lp4914
F0.487179
aaI39
aa(lp4915
I1
a(lp4916
F0.0
aaI37
aa(lp4917
I1
a(lp4918
F0.361111
aaI36
aa(lp4919
I1
a(lp4920
F0.2
aaI25
aa(lp4921
I1
a(lp4922
F0.288889
aaI45
aa(lp4923
I1
a(lp4924
F0.295455
aaI44
aa(lp4925
I1
a(lp4926
F0.295455
aaI44
aa(lp4927
I1
a(lp4928
F0.317073
aaI41
aa(lp4929
I1
a(lp4930
F0.277778
aaI36
aa(lp4931
I1
a(lp4932
F0.230769
aaI39
aaa(lp4933
g1591
ag1592
a(lp4934
I1
a(lp4935
F0.0
aaI36
aa(lp4936
I1
a(lp4937
F0.238095
aaI21
aa(lp4938
I1
a(lp4939
F0.25
aaI12
aa(lp4940
I1
a(lp4941
F0.230769
aaI13
aa(lp4942
I1
a(lp4943
F0.423077
aaI26
aa(lp4944
I1
a(lp4945
F0.545455
aaI33
aa(lp4946
I1
a(lp4947
F0.551724
aaI29
aa(lp4948
I1
a(lp4949
F0.612903
aaI31
aa(lp4950
I1
a(lp4951
F0.296296
aaI27
aa(lp4952
I1
a(lp4953
F0.290323
aaI31
aa(lp4954
I1
a(lp4955
F0.4
aaI30
aa(lp4956
I1
a(lp4957
F0.24
aaI25
aa(lp4958
I1
a(lp4959
F0.24
aaI25
aa(lp4960
I1
a(lp4961
F0.266667
aaI30
aa(lp4962
I1
a(lp4963
F0.296296
aaI27
aa(lp4964
I1
a(lp4965
F0.344828
aaI29
aa(lp4966
I1
a(lp4967
F0.375
aaI32
aa(lp4968
I1
a(lp4969
F0.222222
aaI27
aaa(lp4970
g1594
ag1595
a(lp4971
I1
a(lp4972
F0.419355
aaI31
aaa(lp4973
g1605
ag1606
aa(lp4974
g1610
ag1611
a(lp4975
I1
a(lp4976
F0.269231
aaI26
aa(lp4977
I1
a(lp4978
F0.25
aaI24
aa(lp4979
I1
a(lp4980
F0.272727
aaI22
aa(lp4981
I1
a(lp4982
F0.26087
aaI23
aa(lp4983
I1
a(lp4984
F0.357143
aaI28
aa(lp4985
I1
a(lp4986
F0.392857
aaI28
aa(lp4987
I1
a(lp4988
F0.222222
aaI27
aa(lp4989
I1
a(lp4990
F0.230769
aaI26
aaa(lp4991
g1613
ag1614
aa(lp4992
g1616
ag1617
a(lp4993
I1
a(lp4994
F0.0
aaI14
aaa(lp4995
g1619
ag1620
aa(lp4996
g1622
ag1623
a(lp4997
I1
a(lp4998
F0.0
aaI36
aa(lp4999
I1
a(lp5000
F0.0
aaI5
aa(lp5001
I1
a(lp5002
F0.0
aaI6
aa(lp5003
I1
a(lp5004
F0.0
aaI10
aa(lp5005
I1
a(lp5006
F0.0
aaI12
aa(lp5007
I1
a(lp5008
F0.0
aaI7
aa(lp5009
I1
a(lp5010
F0.0
aaI6
aa(lp5011
I1
a(lp5012
F0.0
aaI6
aa(lp5013
I1
a(lp5014
F0.0
aaI6
aaa(lp5015
g1645
ag1646
a(lp5016
I1
a(lp5017
F0.214286
aaI28
aa(lp5018
I1
a(lp5019
F0.457143
aaI35
aa(lp5020
I1
a(lp5021
F0.470588
aaI34
aa(lp5022
I1
a(lp5023
F0.321429
aaI28
aa(lp5024
I1
a(lp5025
F0.36
aaI25
aa(lp5026
I1
a(lp5027
F0.230769
aaI26
aa(lp5028
I1
a(lp5029
F0.2
aaI25
aa(lp5030
I1
a(lp5031
F0.347826
aaI23
aa(lp5032
I1
a(lp5033
F0.346154
aaI26
aa(lp5034
I1
a(lp5035
F0.464286
aaI28
aaa(lp5036
g1666
ag1667
aa(lp5037
g1669
ag1670
a(lp5038
I1
a(lp5039
F0.0
aaI54
aaa(lp5040
g1672
ag1673
aa(lp5041
g1675
ag1676
a(lp5042
I1
a(lp5043
F0.7
aaI20
aa(lp5044
I1
a(lp5045
F0.0
aaI18
aa(lp5046
I1
a(lp5047
F0.0
aaI16
aa(lp5048
I1
a(lp5049
F0.52381
aaI21
aaa(lp5050
g1678
ag1679
a(lp5051
I1
a(lp5052
F0.285714
aaI42
aa(lp5053
I1
a(lp5054
F0.318182
aaI44
aa(lp5055
I1
a(lp5056
F0.387755
aaI49
aa(lp5057
I1
a(lp5058
F0.444444
aaI63
aa(lp5059
I1
a(lp5060
F0.363636
aaI33
aa(lp5061
I1
a(lp5062
F0.568182
aaI44
aa(lp5063
I1
a(lp5064
F0.375
aaI24
aaa(lp5065
g1685
ag1686
a(lp5066
I1
a(lp5067
F0.463415
aaI41
aaa(lp5068
g1688
ag1689
aa(lp5069
g1691
ag1692
a(lp5070
I1
a(lp5071
F0.222222
aaI18
aa(lp5072
I1
a(lp5073
F0.365854
aaI41
aaa(lp5074
g1694
ag1695
a(lp5075
I1
a(lp5076
F0.548387
aaI31
aa(lp5077
I1
a(lp5078
F0.545455
aaI33
aa(lp5079
I1
a(lp5080
F0.4
aaI25
aa(lp5081
I1
a(lp5082
F0.4
aaI25
aa(lp5083
I1
a(lp5084
F0.32
aaI25
aa(lp5085
I1
a(lp5086
F0.272727
aaI22
aa(lp5087
I1
a(lp5088
F0.315789
aaI19
aa(lp5089
I1
a(lp5090
F0.227273
aaI22
aa(lp5091
I1
a(lp5092
F0.285714
aaI21
aa(lp5093
I1
a(lp5094
F0.277778
aaI18
aa(lp5095
I1
a(lp5096
F0.421053
aaI19
aa(lp5097
I1
a(lp5098
F0.4
aaI20
aa(lp5099
I1
a(lp5100
F0.421053
aaI19
aa(lp5101
I1
a(lp5102
F0.368421
aaI19
aa(lp5103
I1
a(lp5104
F0.411765
aaI17
aa(lp5105
I1
a(lp5106
F0.423077
aaI26
aa(lp5107
I1
a(lp5108
F0.48
aaI25
aa(lp5109
I1
a(lp5110
F0.25
aaI16
aa(lp5111
I1
a(lp5112
F0.333333
aaI18
aa(lp5113
I1
a(lp5114
F0.333333
aaI18
aa(lp5115
I1
a(lp5116
F0.352941
aaI17
aa(lp5117
I1
a(lp5118
F0.5
aaI38
aa(lp5119
I1
a(lp5120
F0.473684
aaI38
aa(lp5121
I1
a(lp5122
F0.269231
aaI26
aa(lp5123
I1
a(lp5124
F0.2
aaI25
aa(lp5125
I1
a(lp5126
F0.208333
aaI24
aa(lp5127
I1
a(lp5128
F0.222222
aaI9
aa(lp5129
I1
a(lp5130
F0.3
aaI10
aa(lp5131
I1
a(lp5132
F0.25
aaI36
aaa(lp5133
g1697
ag1698
a(lp5134
I1
a(lp5135
F0.2
aaI25
aaa(lp5136
g1712
ag1713
a(lp5137
I1
a(lp5138
F0.269231
aaI26
aa(lp5139
I1
a(lp5140
F0.333333
aaI27
aa(lp5141
I1
a(lp5142
F0.357143
aaI28
aa(lp5143
I1
a(lp5144
F0.611111
aaI36
aa(lp5145
I1
a(lp5146
F0.222222
aaI9
aa(lp5147
I1
a(lp5148
F0.480769
aaI52
aa(lp5149
I1
a(lp5150
F0.333333
aaI18
aa(lp5151
I1
a(lp5152
F0.0
aaI14
aa(lp5153
I1
a(lp5154
F0.0
aaI11
aaa(lp5155
g1715
ag1716
a(lp5156
I1
a(lp5157
F0.344828
aaI29
aa(lp5158
I1
a(lp5159
F0.37037
aaI27
aa(lp5160
I1
a(lp5161
F0.375
aaI24
aa(lp5162
I1
a(lp5163
F0.304348
aaI23
aa(lp5164
I1
a(lp5165
F0.416667
aaI24
aa(lp5166
I1
a(lp5167
F0.461538
aaI26
aaa(lp5168
g1718
ag1719
a(lp5169
I1
a(lp5170
F0.0
aaI16
aa(lp5171
I1
a(lp5172
F0.0
aaI16
aaa(lp5173
g1721
ag1722
aa(lp5174
g1724
ag1725
a(lp5175
I1
a(lp5176
F0.344828
aaI29
aaa(lp5177
g1727
ag1728
a(lp5178
I1
a(lp5179
F0.297297
aaI37
aa(lp5180
I1
a(lp5181
F0.0
aaI19
aaa(lp5182
g1736
ag1737
aa(lp5183
g1739
ag1740
a(lp5184
I1
a(lp5185
F0.378378
aaI37
aa(lp5186
I1
a(lp5187
F0.304348
aaI23
aa(lp5188
I1
a(lp5189
F0.410256
aaI39
aa(lp5190
I1
a(lp5191
F0.405405
aaI37
aa(lp5192
I1
a(lp5193
F0.393939
aaI33
aaa(lp5194
g1744
ag1745
aa(lp5195
g1749
ag1750
aa(lp5196
g1752
ag1753
aa(lp5197
g1755
ag1756
aa(lp5198
g1794
ag1795
a(lp5199
I1
a(lp5200
F0.456522
aaI46
aa(lp5201
I1
a(lp5202
F0.354167
aaI48
aaa(lp5203
g1797
ag1798
a(lp5204
I1
a(lp5205
F0.567568
aaI37
aaa(lp5206
g1800
ag1801
a(lp5207
I1
a(lp5208
F0.3
aaI20
aa(lp5209
I1
a(lp5210
F0.428571
aaI28
aa(lp5211
I1
a(lp5212
F0.553191
aaI47
aa(lp5213
I1
a(lp5214
F0.407407
aaI27
aaa(lp5215
g1805
ag1806
aa(lp5216
g1808
ag1809
a(lp5217
I1
a(lp5218
F0.5
aaI60
aaa(lp5219
g1815
ag1816
aa(lp5220
g1818
ag1819
a(lp5221
I1
a(lp5222
F0.514286
aaI35
aa(lp5223
I1
a(lp5224
F0.514286
aaI35
aaa(lp5225
g1835
ag1836
aa(lp5226
g1846
ag1847
aa(lp5227
g1849
ag1850
aa(lp5228
g1852
ag1853
a(lp5229
I1
a(lp5230
F0.483871
aaI31
aaa(lp5231
g1861
ag1862
a(lp5232
I1
a(lp5233
F0.210526
aaI19
aaa(lp5234
g1872
ag1873
aa(lp5235
g1887
ag1888
a(lp5236
I1
a(lp5237
F0.233333
aaI30
aa(lp5238
I1
a(lp5239
F0.40625
aaI32
aa(lp5240
I1
a(lp5241
F0.333333
aaI21
aa(lp5242
I1
a(lp5243
F0.363636
aaI22
aa(lp5244
I1
a(lp5245
F0.307692
aaI26
aa(lp5246
I1
a(lp5247
F0.217391
aaI23
aa(lp5248
I1
a(lp5249
F0.208333
aaI24
aa(lp5250
I1
a(lp5251
F0.419355
aaI31
aa(lp5252
I1
a(lp5253
F0.433333
aaI30
aa(lp5254
I1
a(lp5255
F0.451613
aaI31
aa(lp5256
I1
a(lp5257
F0.272727
aaI11
aa(lp5258
I1
a(lp5259
F0.36
aaI25
aa(lp5260
I1
a(lp5261
F0.2
aaI15
aaa(lp5262
g1900
ag1901
aa(lp5263
g1903
ag1904
a(lp5264
I1
a(lp5265
F0.242424
aaI33
aa(lp5266
I1
a(lp5267
F0.421053
aaI19
aa(lp5268
I1
a(lp5269
F0.37931
aaI29
aa(lp5270
I1
a(lp5271
F0.387097
aaI31
aa(lp5272
I1
a(lp5273
F0.354839
aaI31
aa(lp5274
I1
a(lp5275
F0.393939
aaI33
aa(lp5276
I1
a(lp5277
F0.604651
aaI43
aaa(lp5278
g1906
ag1907
a(lp5279
I1
a(lp5280
F0.333333
aaI24
aa(lp5281
I1
a(lp5282
F0.0
aaI25
aa(lp5283
I1
a(lp5284
F0.217391
aaI23
aa(lp5285
I1
a(lp5286
F0.2
aaI10
aa(lp5287
I1
a(lp5288
F0.25
aaI8
aa(lp5289
I1
a(lp5290
F0.333333
aaI9
aa(lp5291
I1
a(lp5292
F0.230769
aaI26
aaa(lp5293
g1909
ag1910
a(lp5294
I1
a(lp5295
F0.0
aaI36
aaa(lp5296
g1912
ag1913
a(lp5297
I1
a(lp5298
F0.2
aaI20
aa(lp5299
I1
a(lp5300
F0.241379
aaI29
aaa(lp5301
g1915
ag1916
a(lp5302
I1
a(lp5303
F0.315789
aaI19
aa(lp5304
I1
a(lp5305
F0.384615
aaI26
aa(lp5306
I1
a(lp5307
F0.346154
aaI26
aa(lp5308
I1
a(lp5309
F0.333333
aaI27
aa(lp5310
I1
a(lp5311
F0.4
aaI30
aa(lp5312
I1
a(lp5313
F0.333333
aaI36
aa(lp5314
I1
a(lp5315
F0.289474
aaI38
aa(lp5316
I1
a(lp5317
F0.405405
aaI37
aa(lp5318
I1
a(lp5319
F0.555556
aaI45
aaa(lp5320
g1918
ag1919
a(lp5321
I1
a(lp5322
F0.548387
aaI31
aa(lp5323
I1
a(lp5324
F0.5
aaI32
aa(lp5325
I1
a(lp5326
F0.357143
aaI42
aa(lp5327
I1
a(lp5328
F0.521739
aaI46
aa(lp5329
I1
a(lp5330
F0.605263
aaI38
aa(lp5331
I1
a(lp5332
F0.0
aaI19
aa(lp5333
I1
a(lp5334
F0.0
aaI23
aa(lp5335
I1
a(lp5336
F0.0
aaI20
aa(lp5337
I1
a(lp5338
F0.227273
aaI22
aa(lp5339
I1
a(lp5340
F0.7
aaI10
aa(lp5341
I1
a(lp5342
F0.583333
aaI12
aa(lp5343
I1
a(lp5344
F0.521739
aaI23
aa(lp5345
I1
a(lp5346
F0.26087
aaI23
aa(lp5347
I1
a(lp5348
F0.3125
aaI32
aa(lp5349
I1
a(lp5350
F0.206897
aaI29
aa(lp5351
I1
a(lp5352
F0.241379
aaI29
aa(lp5353
I1
a(lp5354
F0.3125
aaI32
aa(lp5355
I1
a(lp5356
F0.36
aaI25
aa(lp5357
I1
a(lp5358
F0.333333
aaI24
aa(lp5359
I1
a(lp5360
F0.269231
aaI26
aa(lp5361
I1
a(lp5362
F0.296296
aaI27
aa(lp5363
I1
a(lp5364
F0.28
aaI25
aa(lp5365
I1
a(lp5366
F0.230769
aaI26
aa(lp5367
I1
a(lp5368
F0.214286
aaI28
aa(lp5369
I1
a(lp5370
F0.384615
aaI26
aa(lp5371
I1
a(lp5372
F0.378378
aaI37
aa(lp5373
I1
a(lp5374
F0.388889
aaI36
aaa(lp5375
g1929
ag1930
a(lp5376
I1
a(lp5377
F0.238095
aaI21
aa(lp5378
I1
a(lp5379
F0.432432
aaI37
aa(lp5380
I1
a(lp5381
F0.212121
aaI33
aa(lp5382
I1
a(lp5383
F0.235294
aaI34
aa(lp5384
I1
a(lp5385
F0.289474
aaI38
aa(lp5386
I1
a(lp5387
F0.324324
aaI37
aa(lp5388
I1
a(lp5389
F0.222222
aaI27
aa(lp5390
I1
a(lp5391
F0.346154
aaI26
aa(lp5392
I1
a(lp5393
F0.375
aaI48
aa(lp5394
I1
a(lp5395
F0.393939
aaI33
aa(lp5396
I1
a(lp5397
F0.25
aaI32
aa(lp5398
I1
a(lp5399
F0.263158
aaI38
aa(lp5400
I1
a(lp5401
F0.305556
aaI36
aa(lp5402
I1
a(lp5403
F0.238095
aaI21
aa(lp5404
I1
a(lp5405
F0.227273
aaI22
aa(lp5406
I1
a(lp5407
F0.5
aaI36
aa(lp5408
I1
a(lp5409
F0.37037
aaI27
aa(lp5410
I1
a(lp5411
F0.272727
aaI22
aa(lp5412
I1
a(lp5413
F0.25
aaI24
aa(lp5414
I1
a(lp5415
F0.25
aaI24
aa(lp5416
I1
a(lp5417
F0.375
aaI24
aa(lp5418
I1
a(lp5419
F0.461538
aaI13
aa(lp5420
I2
a(lp5421
F0.368421
aF0.631579
aaI19
aa(lp5422
I2
a(lp5423
F0.318182
aF0.681818
aaI22
aa(lp5424
I1
a(lp5425
F0.615385
aaI26
aaa(lp5426
g1940
ag1941
a(lp5427
I1
a(lp5428
F0.321429
aaI28
aa(lp5429
I1
a(lp5430
F0.25
aaI28
aa(lp5431
I1
a(lp5432
F0.208333
aaI24
aa(lp5433
I1
a(lp5434
F0.217391
aaI23
aa(lp5435
I1
a(lp5436
F0.208333
aaI24
aa(lp5437
I1
a(lp5438
F0.272727
aaI33
aa(lp5439
I1
a(lp5440
F0.222222
aaI9
aa(lp5441
I1
a(lp5442
F0.428571
aaI42
aa(lp5443
I1
a(lp5444
F0.5
aaI28
aa(lp5445
I1
a(lp5446
F0.315789
aaI19
aa(lp5447
I1
a(lp5448
F0.0
aaI16
aa(lp5449
I1
a(lp5450
F0.222222
aaI18
aa(lp5451
I1
a(lp5452
F0.37037
aaI27
aaa(lp5453
g1953
ag1954
aa(lp5454
g1956
ag1957
a(lp5455
I1
a(lp5456
F0.238095
aaI21
aa(lp5457
I1
a(lp5458
F0.307692
aaI26
aa(lp5459
I1
a(lp5460
F0.411765
aaI34
aaa(lp5461
g1961
ag1962
a(lp5462
I1
a(lp5463
F0.4
aaI45
aa(lp5464
I1
a(lp5465
F0.375
aaI24
aaa(lp5466
g1978
ag1979
a(lp5467
I1
a(lp5468
F0.44186
aaI43
aa(lp5469
I1
a(lp5470
F0.296296
aaI27
aa(lp5471
I1
a(lp5472
F0.4
aaI35
aa(lp5473
I1
a(lp5474
F0.393939
aaI33
aa(lp5475
I1
a(lp5476
F0.40625
aaI32
aa(lp5477
I1
a(lp5478
F0.540541
aaI37
aaa(lp5479
g1981
ag1982
a(lp5480
I1
a(lp5481
F0.0
aaI36
aa(lp5482
I1
a(lp5483
F0.277311
aaI119
aa(lp5484
I1
a(lp5485
F0.633663
aaI101
aaa(lp5486
g1988
ag1989
a(lp5487
I1
a(lp5488
F0.0
aaI11
aa(lp5489
I1
a(lp5490
F0.0
aaI8
aa(lp5491
I1
a(lp5492
F0.269231
aaI26
aa(lp5493
I1
a(lp5494
F0.384615
aaI26
aa(lp5495
I1
a(lp5496
F0.461538
aaI26
aa(lp5497
I1
a(lp5498
F0.518519
aaI27
aa(lp5499
I1
a(lp5500
F0.0
aaI13
aaa(lp5501
g2001
ag2002
aa(lp5502
g2008
ag2009
a(lp5503
I1
a(lp5504
F0.266667
aaI30
aa(lp5505
I1
a(lp5506
F0.206897
aaI29
aa(lp5507
I1
a(lp5508
F0.366667
aaI30
aa(lp5509
I1
a(lp5510
F0.419355
aaI31
aa(lp5511
I1
a(lp5512
F0.37037
aaI27
aa(lp5513
I1
a(lp5514
F0.285714
aaI21
aa(lp5515
I1
a(lp5516
F0.25641
aaI39
aaa(lp5517
g2013
ag2014
a(lp5518
I1
a(lp5519
F0.259259
aaI27
aa(lp5520
I1
a(lp5521
F0.352941
aaI34
aa(lp5522
I1
a(lp5523
F0.333333
aaI21
aa(lp5524
I1
a(lp5525
F0.0
aaI20
aaa(lp5526
g2026
ag2027
a(lp5527
I1
a(lp5528
F0.333333
aaI21
aa(lp5529
I1
a(lp5530
F0.540541
aaI37
aa(lp5531
I1
a(lp5532
F0.6
aaI35
aa(lp5533
I1
a(lp5534
F0.55
aaI40
aa(lp5535
I1
a(lp5536
F0.424242
aaI33
aa(lp5537
I1
a(lp5538
F0.384615
aaI26
aa(lp5539
I1
a(lp5540
F0.577778
aaI45
aa(lp5541
I1
a(lp5542
F0.459459
aaI37
aa(lp5543
I1
a(lp5544
F0.432432
aaI37
aa(lp5545
I1
a(lp5546
F0.390244
aaI41
aa(lp5547
I1
a(lp5548
F0.456522
aaI46
aa(lp5549
I1
a(lp5550
F0.5
aaI4
aa(lp5551
I1
a(lp5552
F0.483871
aaI31
aa(lp5553
I1
a(lp5554
F0.44
aaI25
aa(lp5555
I1
a(lp5556
F0.444444
aaI36
aa(lp5557
I1
a(lp5558
F0.461538
aaI39
aa(lp5559
I1
a(lp5560
F0.447368
aaI38
aa(lp5561
I1
a(lp5562
F0.470588
aaI34
aaa(lp5563
g2051
ag2052
a(lp5564
I1
a(lp5565
F0.625
aaI32
aa(lp5566
I1
a(lp5567
F0.238095
aaI21
aa(lp5568
I1
a(lp5569
F0.228571
aaI35
aa(lp5570
I1
a(lp5571
F0.222222
aaI36
aa(lp5572
I1
a(lp5573
F0.212121
aaI33
aaa(lp5574
g2054
ag2055
aa(lp5575
g2067
ag2068
aa(lp5576
g2070
ag2071
a(lp5577
I1
a(lp5578
F0.0
aaI50
aa(lp5579
I1
a(lp5580
F0.486486
aaI37
aa(lp5581
I1
a(lp5582
F0.0
aaI9
aa(lp5583
I1
a(lp5584
F0.516129
aaI31
aa(lp5585
I1
a(lp5586
F0.297297
aaI37
aa(lp5587
I1
a(lp5588
F0.30303
aaI33
aa(lp5589
I1
a(lp5590
F0.290323
aaI31
aaa(lp5591
g2077
ag2078
aa(lp5592
g2080
ag2081
a(lp5593
I1
a(lp5594
F0.25
aaI28
aa(lp5595
I1
a(lp5596
F0.375
aaI32
aa(lp5597
I1
a(lp5598
F0.352941
aaI34
aa(lp5599
I1
a(lp5600
F0.272727
aaI22
aa(lp5601
I1
a(lp5602
F0.380952
aaI21
aa(lp5603
I1
a(lp5604
F0.344828
aaI29
aaa(lp5605
g2083
ag2084
a(lp5606
I1
a(lp5607
F0.0
aaI14
aa(lp5608
I1
a(lp5609
F0.257143
aaI35
aa(lp5610
I1
a(lp5611
F0.309524
aaI42
aa(lp5612
I1
a(lp5613
F0.317073
aaI41
aa(lp5614
I1
a(lp5615
F0.275
aaI40
aa(lp5616
I1
a(lp5617
F0.222222
aaI36
aa(lp5618
I1
a(lp5619
F0.25641
aaI39
aa(lp5620
I1
a(lp5621
F0.233333
aaI30
aa(lp5622
I1
a(lp5623
F0.206897
aaI29
aa(lp5624
I1
a(lp5625
F0.512195
aaI41
aa(lp5626
I1
a(lp5627
F0.444444
aaI27
aa(lp5628
I1
a(lp5629
F0.458333
aaI24
aa(lp5630
I1
a(lp5631
F0.416667
aaI24
aa(lp5632
I1
a(lp5633
F0.346154
aaI26
aa(lp5634
I1
a(lp5635
F0.2
aaI20
aa(lp5636
I1
a(lp5637
F0.24
aaI25
aa(lp5638
I1
a(lp5639
F0.37037
aaI27
aa(lp5640
I1
a(lp5641
F0.333333
aaI18
aa(lp5642
I1
a(lp5643
F0.264706
aaI34
aa(lp5644
I1
a(lp5645
F0.466667
aaI30
aa(lp5646
I1
a(lp5647
F0.357143
aaI28
aa(lp5648
I1
a(lp5649
F0.382353
aaI34
aa(lp5650
I1
a(lp5651
F0.351351
aaI37
aa(lp5652
I1
a(lp5653
F0.45
aaI40
aa(lp5654
I1
a(lp5655
F0.842105
aaI19
aa(lp5656
I1
a(lp5657
F0.0
aaI20
aa(lp5658
I1
a(lp5659
F0.0
aaI17
aa(lp5660
I1
a(lp5661
F0.0
aaI17
aa(lp5662
I1
a(lp5663
F0.0
aaI16
aa(lp5664
I1
a(lp5665
F0.0
aaI19
aa(lp5666
I1
a(lp5667
F0.0
aaI19
aa(lp5668
I1
a(lp5669
F0.0
aaI21
aa(lp5670
I1
a(lp5671
F0.0
aaI18
aa(lp5672
I1
a(lp5673
F0.222222
aaI18
aa(lp5674
I1
a(lp5675
F0.464286
aaI28
aa(lp5676
I1
a(lp5677
F0.5
aaI30
aa(lp5678
I1
a(lp5679
F0.371429
aaI35
aa(lp5680
I1
a(lp5681
F0.482759
aaI29
aa(lp5682
I1
a(lp5683
F0.419355
aaI31
aa(lp5684
I1
a(lp5685
F0.378378
aaI37
aa(lp5686
I1
a(lp5687
F0.269841
aaI63
aa(lp5688
I1
a(lp5689
F0.333333
aaI69
aa(lp5690
I1
a(lp5691
F0.203704
aaI54
aa(lp5692
I1
a(lp5693
F0.205882
aaI34
aa(lp5694
I1
a(lp5695
F0.2
aaI35
aa(lp5696
I1
a(lp5697
F0.257143
aaI35
aaa(lp5698
g2086
ag2087
a(lp5699
I1
a(lp5700
F0.30303
aaI33
aag2404
a(lp5701
I1
a(lp5702
F0.210526
aaI19
aa(lp5703
I1
a(lp5704
F0.235294
aaI17
aa(lp5705
I1
a(lp5706
F0.25
aaI20
aa(lp5707
I1
a(lp5708
F0.333333
aaI24
aa(lp5709
I1
a(lp5710
F0.285714
aaI21
aa(lp5711
I1
a(lp5712
F0.304348
aaI23
aa(lp5713
I1
a(lp5714
F0.2
aaI25
aa(lp5715
I1
a(lp5716
F0.2
aaI25
aa(lp5717
I1
a(lp5718
F0.347826
aaI23
aa(lp5719
I1
a(lp5720
F0.363636
aaI33
aa(lp5721
I1
a(lp5722
F0.391304
aaI23
aa(lp5723
I1
a(lp5724
F0.4
aaI25
aa(lp5725
I1
a(lp5726
F0.454545
aaI33
aa(lp5727
I1
a(lp5728
F0.392857
aaI28
aa(lp5729
I1
a(lp5730
F0.4
aaI25
aa(lp5731
I1
a(lp5732
F0.214286
aaI14
aa(lp5733
I1
a(lp5734
F0.4
aaI25
aa(lp5735
I1
a(lp5736
F0.34375
aaI32
aa(lp5737
I1
a(lp5738
F0.4
aaI35
aa(lp5739
I1
a(lp5740
F0.21875
aaI32
aa(lp5741
I1
a(lp5742
F0.2
aaI35
aa(lp5743
I1
a(lp5744
F0.243243
aaI37
aaa(lp5745
g2089
ag2090
aa(lp5746
g2094
ag2095
aa(lp5747
g2099
ag2100
aa(lp5748
g2102
ag2103
a(lp5749
I1
a(lp5750
F0.380952
aaI21
aa(lp5751
I1
a(lp5752
F0.5
aaI32
aa(lp5753
I1
a(lp5754
F0.210526
aaI19
aa(lp5755
I1
a(lp5756
F0.428571
aaI35
aa(lp5757
I1
a(lp5758
F0.333333
aaI48
aa(lp5759
I1
a(lp5760
F0.61194
aaI67
aa(lp5761
I1
a(lp5762
F0.666667
aaI48
aa(lp5763
I1
a(lp5764
F0.423077
aaI52
aa(lp5765
I1
a(lp5766
F0.736842
aaI38
aa(lp5767
I1
a(lp5768
F0.540984
aaI61
aa(lp5769
I1
a(lp5770
F0.4
aaI50
aa(lp5771
I1
a(lp5772
F0.325
aaI40
aa(lp5773
I1
a(lp5774
F0.533333
aaI30
aa(lp5775
I1
a(lp5776
F0.536585
aaI41
aa(lp5777
I1
a(lp5778
F0.228571
aaI35
aa(lp5779
I1
a(lp5780
F0.25
aaI24
aa(lp5781
I1
a(lp5782
F0.807692
aaI26
aa(lp5783
I1
a(lp5784
F0.238095
aaI21
aa(lp5785
I1
a(lp5786
F0.238095
aaI21
aa(lp5787
I1
a(lp5788
F0.230769
aaI26
aa(lp5789
I1
a(lp5790
F0.214286
aaI28
aa(lp5791
I1
a(lp5792
F0.206897
aaI29
aa(lp5793
I1
a(lp5794
F0.333333
aaI30
aa(lp5795
I1
a(lp5796
F0.290323
aaI31
aaa(lp5797
g2107
ag2108
aa(lp5798
g2116
ag2117
aa(lp5799
g2121
ag2122
aa(lp5800
g2124
ag2125
a(lp5801
I1
a(lp5802
F0.0
aaI18
aa(lp5803
I1
a(lp5804
F0.0
aaI12
aa(lp5805
I1
a(lp5806
F0.0
aaI8
aa(lp5807
I1
a(lp5808
F0.0
aaI8
aa(lp5809
I1
a(lp5810
F0.0
aaI7
aa(lp5811
I1
a(lp5812
F0.0
aaI17
aa(lp5813
I1
a(lp5814
F0.0
aaI14
aa(lp5815
I1
a(lp5816
F0.0
aaI16
aa(lp5817
I1
a(lp5818
F0.0
aaI12
aa(lp5819
I1
a(lp5820
F0.0
aaI10
aa(lp5821
I1
a(lp5822
F0.0
aaI12
aa(lp5823
I1
a(lp5824
F0.0
aaI13
aa(lp5825
I1
a(lp5826
F0.0
aaI15
aa(lp5827
I1
a(lp5828
F0.0
aaI16
aa(lp5829
I1
a(lp5830
F0.0
aaI13
aa(lp5831
I1
a(lp5832
F0.0
aaI15
aa(lp5833
I1
a(lp5834
F0.0
aaI13
aa(lp5835
I1
a(lp5836
F0.0
aaI14
aa(lp5837
I1
a(lp5838
F0.0
aaI14
aa(lp5839
I1
a(lp5840
F0.0
aaI5
aa(lp5841
I1
a(lp5842
F0.0
aaI5
aa(lp5843
I1
a(lp5844
F0.0
aaI7
aa(lp5845
I1
a(lp5846
F0.0
aaI22
aa(lp5847
I1
a(lp5848
F0.0
aaI19
aa(lp5849
I1
a(lp5850
F0.0
aaI19
aa(lp5851
I1
a(lp5852
F0.0
aaI20
aa(lp5853
I1
a(lp5854
F0.0
aaI19
aa(lp5855
I1
a(lp5856
F0.0
aaI30
aa(lp5857
I1
a(lp5858
F0.0
aaI20
aa(lp5859
I1
a(lp5860
F0.0
aaI6
aa(lp5861
I1
a(lp5862
F0.333333
aaI6
aa(lp5863
I1
a(lp5864
F0.0
aaI4
aa(lp5865
I1
a(lp5866
F0.0
aaI2
aa(lp5867
I1
a(lp5868
F0.0
aaI2
aa(lp5869
I1
a(lp5870
F0.0
aaI15
aa(lp5871
I1
a(lp5872
F0.0
aaI17
aa(lp5873
I1
a(lp5874
F0.0
aaI10
aa(lp5875
I1
a(lp5876
F0.0
aaI12
aa(lp5877
I1
a(lp5878
F0.0
aaI12
aa(lp5879
I1
a(lp5880
F0.0
aaI12
aa(lp5881
I1
a(lp5882
F0.0
aaI6
aa(lp5883
I1
a(lp5884
F0.0
aaI17
aa(lp5885
I1
a(lp5886
F0.0
aaI17
aa(lp5887
I1
a(lp5888
F0.0
aaI35
aaa(lp5889
g2135
ag2136
a(lp5890
I1
a(lp5891
F0.333333
aaI27
aa(lp5892
I1
a(lp5893
F0.363636
aaI22
aa(lp5894
I1
a(lp5895
F0.323529
aaI34
aaa(lp5896
g2138
ag2139
a(lp5897
I1
a(lp5898
F0.413793
aaI29
aa(lp5899
I1
a(lp5900
F0.375
aaI24
aa(lp5901
I1
a(lp5902
F0.391304
aaI23
aa(lp5903
I1
a(lp5904
F0.35
aaI20
aa(lp5905
I1
a(lp5906
F0.272727
aaI22
aa(lp5907
I1
a(lp5908
F0.304348
aaI23
aaa(lp5909
g2141
ag2142
a(lp5910
I1
a(lp5911
F0.0
aaI36
aa(lp5912
I1
a(lp5913
F0.0
aaI44
aa(lp5914
I1
a(lp5915
F0.0
aaI47
aa(lp5916
I1
a(lp5917
F0.0
aaI34
aaa(lp5918
g2144
ag2145
a(lp5919
I1
a(lp5920
F0.28
aaI25
aaa(lp5921
g2147
ag2148
aa(lp5922
g2150
ag2151
aa(lp5923
g2155
ag2156
a(lp5924
I1
a(lp5925
F0.540541
aaI37
aa(lp5926
I1
a(lp5927
F0.428571
aaI42
aa(lp5928
I1
a(lp5929
F0.452381
aaI42
aaa(lp5930
g2162
ag2163
a(lp5931
I1
a(lp5932
F0.347826
aaI23
aa(lp5933
I1
a(lp5934
F0.424242
aaI33
aaa(lp5935
g2165
ag2166
a(lp5936
I1
a(lp5937
F0.344828
aaI29
aa(lp5938
I1
a(lp5939
F0.333333
aaI33
aa(lp5940
I1
a(lp5941
F0.323529
aaI34
aa(lp5942
I1
a(lp5943
F0.323529
aaI34
aaa(lp5944
g2170
ag2171
aa(lp5945
g2173
ag2174
aa(lp5946
g2180
ag2181
aa(lp5947
g2183
ag2184
aa(lp5948
g2186
ag2187
a(lp5949
I1
a(lp5950
F0.0
aaI36
aa(lp5951
I1
a(lp5952
F0.326531
aaI49
aa(lp5953
I1
a(lp5954
F0.259259
aaI27
aa(lp5955
I1
a(lp5956
F0.230769
aaI39
aa(lp5957
I1
a(lp5958
F0.375
aaI32
aa(lp5959
I1
a(lp5960
F0.45
aaI40
aa(lp5961
I1
a(lp5962
F0.410256
aaI39
aa(lp5963
I1
a(lp5964
F0.432432
aaI37
aa(lp5965
I1
a(lp5966
F0.484848
aaI33
aa(lp5967
I1
a(lp5968
F0.419355
aaI62
aa(lp5969
I1
a(lp5970
F0.236842
aaI38
aa(lp5971
I1
a(lp5972
F0.243243
aaI37
aa(lp5973
I1
a(lp5974
F0.25
aaI36
aa(lp5975
I1
a(lp5976
F0.222222
aaI27
aa(lp5977
I1
a(lp5978
F0.242424
aaI33
aa(lp5979
I1
a(lp5980
F0.257143
aaI35
aa(lp5981
I1
a(lp5982
F0.244444
aaI45
aa(lp5983
I1
a(lp5984
F0.342857
aaI35
aa(lp5985
I1
a(lp5986
F0.0
aaI13
aa(lp5987
I1
a(lp5988
F0.0
aaI15
aa(lp5989
I1
a(lp5990
F0.289474
aaI38
aa(lp5991
I1
a(lp5992
F0.309524
aaI42
aa(lp5993
I1
a(lp5994
F0.307692
aaI26
aa(lp5995
I1
a(lp5996
F0.24
aaI25
aa(lp5997
I1
a(lp5998
F0.346154
aaI26
aa(lp5999
I1
a(lp6000
F0.545455
aaI11
aa(lp6001
I1
a(lp6002
F0.555556
aaI9
aa(lp6003
I1
a(lp6004
F0.423077
aaI26
aaa(lp6005
g2201
ag2202
aa(lp6006
g2204
ag2205
aa(lp6007
g2207
ag2208
a(lp6008
I1
a(lp6009
F0.290323
aaI31
aa(lp6010
I1
a(lp6011
F0.285714
aaI21
aa(lp6012
I1
a(lp6013
F0.272727
aaI22
aa(lp6014
I1
a(lp6015
F0.3
aaI30
aaa(lp6016
g2210
ag2211
aa(lp6017
g2213
ag2214
aa(lp6018
g2216
ag2217
a(lp6019
I1
a(lp6020
F0.258065
aaI31
aa(lp6021
I1
a(lp6022
F0.285714
aaI28
aa(lp6023
I1
a(lp6024
F0.323529
aaI34
aa(lp6025
I1
a(lp6026
F0.5
aaI18
aa(lp6027
I1
a(lp6028
F0.428571
aaI14
aa(lp6029
I1
a(lp6030
F0.428571
aaI14
aa(lp6031
I2
a(lp6032
F0.333333
aF0.25
aaI12
aa(lp6033
I1
a(lp6034
F0.666667
aaI15
aa(lp6035
I1
a(lp6036
F0.333333
aaI21
aa(lp6037
I1
a(lp6038
F0.423077
aaI26
aa(lp6039
I1
a(lp6040
F0.384615
aaI26
aa(lp6041
I1
a(lp6042
F0.4
aaI25
aa(lp6043
I1
a(lp6044
F0.382353
aaI34
aa(lp6045
I1
a(lp6046
F0.604651
aaI43
aaa(lp6047
g2219
ag2220
a(lp6048
I1
a(lp6049
F0.428571
aaI63
aaa(lp6050
g2226
ag2227
a(lp6051
I1
a(lp6052
F0.25
aaI24
aa(lp6053
I1
a(lp6054
F0.28
aaI25
aa(lp6055
I1
a(lp6056
F0.333333
aaI21
aa(lp6057
I1
a(lp6058
F0.611111
aaI54
aa(lp6059
I1
a(lp6060
F0.521739
aaI46
aa(lp6061
I1
a(lp6062
F0.439024
aaI41
aa(lp6063
I1
a(lp6064
F0.441176
aaI34
aaa(lp6065
g2231
ag2232
a(lp6066
I1
a(lp6067
F0.272727
aaI33
aa(lp6068
I1
a(lp6069
F0.304348
aaI23
aa(lp6070
I1
a(lp6071
F0.390244
aaI41
aa(lp6072
I1
a(lp6073
F0.238095
aaI21
aa(lp6074
I1
a(lp6075
F0.28
aaI25
aa(lp6076
I1
a(lp6077
F0.28
aaI25
aa(lp6078
I1
a(lp6079
F0.447368
aaI38
aa(lp6080
I1
a(lp6081
F0.472222
aaI36
aa(lp6082
I1
a(lp6083
F0.444444
aaI36
aa(lp6084
I1
a(lp6085
F0.513514
aaI37
aa(lp6086
I1
a(lp6087
F0.540541
aaI37
aa(lp6088
I1
a(lp6089
F0.465116
aaI43
aa(lp6090
I1
a(lp6091
F0.382353
aaI34
aa(lp6092
I1
a(lp6093
F0.444444
aaI36
aa(lp6094
I1
a(lp6095
F0.27027
aaI37
aa(lp6096
I1
a(lp6097
F0.216216
aaI37
aa(lp6098
I1
a(lp6099
F0.225
aaI40
aa(lp6100
I1
a(lp6101
F0.230769
aaI39
aa(lp6102
I1
a(lp6103
F0.225
aaI40
aa(lp6104
I1
a(lp6105
F0.210526
aaI38
aa(lp6106
I1
a(lp6107
F0.216216
aaI37
aa(lp6108
I1
a(lp6109
F0.2
aaI35
aa(lp6110
I1
a(lp6111
F0.242424
aaI33
aa(lp6112
I1
a(lp6113
F0.4
aaI40
aa(lp6114
I1
a(lp6115
F0.37037
aaI27
aa(lp6116
I1
a(lp6117
F0.333333
aaI27
aa(lp6118
I1
a(lp6119
F0.344828
aaI29
aa(lp6120
I1
a(lp6121
F0.407407
aaI27
aa(lp6122
I1
a(lp6123
F0.512195
aaI41
aa(lp6124
I1
a(lp6125
F0.444444
aaI36
aa(lp6126
I1
a(lp6127
F0.416667
aaI36
aa(lp6128
I1
a(lp6129
F0.673077
aaI52
aa(lp6130
I1
a(lp6131
F0.625
aaI48
aa(lp6132
I1
a(lp6133
F0.258065
aaI31
aa(lp6134
I1
a(lp6135
F0.210526
aaI38
aa(lp6136
I1
a(lp6137
F0.37931
aaI29
aa(lp6138
I1
a(lp6139
F0.466667
aaI30
aa(lp6140
I1
a(lp6141
F0.296296
aaI27
aa(lp6142
I1
a(lp6143
F0.263158
aaI38
aa(lp6144
I1
a(lp6145
F0.242424
aaI33
aaa(lp6146
g2276
ag2277
aa(lp6147
g2279
ag2280
a(lp6148
I1
a(lp6149
F0.391304
aaI23
aa(lp6150
I1
a(lp6151
F0.333333
aaI24
aa(lp6152
I1
a(lp6153
F0.428571
aaI28
aa(lp6154
I1
a(lp6155
F0.464286
aaI28
aa(lp6156
I1
a(lp6157
F0.464286
aaI28
aa(lp6158
I1
a(lp6159
F0.35
aaI20
aa(lp6160
I1
a(lp6161
F0.380952
aaI21
aa(lp6162
I1
a(lp6163
F0.48
aaI25
aa(lp6164
I1
a(lp6165
F0.3125
aaI32
aa(lp6166
I1
a(lp6167
F0.310345
aaI29
aa(lp6168
I1
a(lp6169
F0.36
aaI25
aa(lp6170
I1
a(lp6171
F0.238095
aaI21
aa(lp6172
I1
a(lp6173
F0.25
aaI20
aa(lp6174
I1
a(lp6175
F0.333333
aaI15
aa(lp6176
I1
a(lp6177
F0.214286
aaI14
aa(lp6178
I1
a(lp6179
F0.2
aaI15
aa(lp6180
I1
a(lp6181
F0.222222
aaI18
aa(lp6182
I1
a(lp6183
F0.714286
aaI21
aa(lp6184
I1
a(lp6185
F0.25
aaI20
aa(lp6186
I1
a(lp6187
F0.0
aaI16
aa(lp6188
I1
a(lp6189
F0.0
aaI17
aa(lp6190
I1
a(lp6191
F0.0
aaI23
aaa(lp6192
g2282
ag2283
aa(lp6193
g2289
ag2290
aa(lp6194
g2292
ag2293
a(lp6195
I1
a(lp6196
F0.392857
aaI28
aa(lp6197
I1
a(lp6198
F0.433333
aaI30
aa(lp6199
I1
a(lp6200
F0.446809
aaI47
aa(lp6201
I1
a(lp6202
F0.606061
aaI33
aa(lp6203
I1
a(lp6204
F0.344828
aaI29
aa(lp6205
I1
a(lp6206
F0.395349
aaI43
aa(lp6207
I1
a(lp6208
F0.241379
aaI29
aa(lp6209
I1
a(lp6210
F0.25
aaI28
aa(lp6211
I1
a(lp6212
F0.26087
aaI23
aa(lp6213
I1
a(lp6214
F0.475
aaI40
aa(lp6215
I1
a(lp6216
F0.296296
aaI27
aa(lp6217
I1
a(lp6218
F0.208333
aaI24
aa(lp6219
I1
a(lp6220
F0.263158
aaI19
aa(lp6221
I1
a(lp6222
F0.277778
aaI18
aa(lp6223
I1
a(lp6224
F0.242424
aaI33
aa(lp6225
I1
a(lp6226
F0.242424
aaI33
aaa(lp6227
g2297
ag2298
a(lp6228
I1
a(lp6229
F0.5
aaI38
aaa(lp6230
g2300
ag2301
a(lp6231
I1
a(lp6232
F0.2
aaI35
aa(lp6233
I1
a(lp6234
F0.25
aaI32
aa(lp6235
I1
a(lp6236
F0.236842
aaI38
aa(lp6237
I1
a(lp6238
F0.235294
aaI34
aa(lp6239
I1
a(lp6240
F0.727273
aaI33
aa(lp6241
I1
a(lp6242
F0.30303
aaI33
aa(lp6243
I1
a(lp6244
F0.212121
aaI33
aa(lp6245
I1
a(lp6246
F0.307692
aaI13
aa(lp6247
I1
a(lp6248
F0.307692
aaI13
aa(lp6249
I1
a(lp6250
F0.333333
aaI12
aaa(lp6251
g2309
ag2310
a(lp6252
I1
a(lp6253
F0.578947
aaI38
aa(lp6254
I1
a(lp6255
F0.578947
aaI38
aa(lp6256
I1
a(lp6257
F0.6
aaI45
aa(lp6258
I1
a(lp6259
F0.577778
aaI45
aa(lp6260
I1
a(lp6261
F0.536585
aaI41
aa(lp6262
I1
a(lp6263
F0.512821
aaI39
aa(lp6264
I1
a(lp6265
F0.547619
aaI42
aa(lp6266
I1
a(lp6267
F0.371429
aaI35
aa(lp6268
I1
a(lp6269
F0.342105
aaI38
aa(lp6270
I1
a(lp6271
F0.375
aaI40
aa(lp6272
I1
a(lp6273
F0.363636
aaI22
aaa(lp6274
g2314
ag2315
aa(lp6275
g2317
ag2318
a(lp6276
I1
a(lp6277
F0.515152
aaI33
aa(lp6278
I1
a(lp6279
F0.2
aaI30
aa(lp6280
I1
a(lp6281
F0.2
aaI25
aa(lp6282
I1
a(lp6283
F0.235294
aaI34
aaa(lp6284
g2320
ag2321
aa(lp6285
g2325
ag2326
aa(lp6286
g2330
ag2331
aa(lp6287
g2333
ag2334
aa(lp6288
g2336
ag2337
a(lp6289
I1
a(lp6290
F0.305556
aaI36
aa(lp6291
I1
a(lp6292
F0.540541
aaI37
aa(lp6293
I1
a(lp6294
F0.416667
aaI36
aaa(lp6295
g2353
ag2354
aa(lp6296
g2356
ag2357
a(lp6297
I1
a(lp6298
F0.206897
aaI29
aa(lp6299
I1
a(lp6300
F0.2
aaI30
aa(lp6301
I1
a(lp6302
F0.459459
aaI74
aa(lp6303
I1
a(lp6304
F0.307692
aaI52
aa(lp6305
I1
a(lp6306
F0.282051
aaI39
aaa(lp6307
g2433
ag2434
aa(lp6308
g2436
ag2437
aa(lp6309
g2439
ag2440
aa(lp6310
g2442
ag2443
aa(lp6311
g2449
ag2450
a(lp6312
I1
a(lp6313
F0.454545
aaI33
aa(lp6314
I1
a(lp6315
F0.230769
aaI26
aa(lp6316
I1
a(lp6317
F0.3
aaI20
aa(lp6318
I1
a(lp6319
F0.263158
aaI19
aa(lp6320
I1
a(lp6321
F0.407407
aaI27
aa(lp6322
I1
a(lp6323
F0.454545
aaI33
aa(lp6324
I1
a(lp6325
F0.428571
aaI28
aa(lp6326
I1
a(lp6327
F0.432432
aaI37
aa(lp6328
I1
a(lp6329
F0.387097
aaI31
aa(lp6330
I1
a(lp6331
F0.531915
aaI47
aaa(lp6332
g2452
ag2453
a(lp6333
I1
a(lp6334
F0.230769
aaI26
aa(lp6335
I1
a(lp6336
F0.310345
aaI29
aa(lp6337
I1
a(lp6338
F0.535714
aaI28
aa(lp6339
I1
a(lp6340
F0.458333
aaI24
aa(lp6341
I1
a(lp6342
F0.230769
aaI26
aa(lp6343
I1
a(lp6344
F0.5
aaI28
aa(lp6345
I1
a(lp6346
F0.464286
aaI28
aaa(lp6347
g2455
ag2456
aa(lp6348
g2458
ag2459
aa(lp6349
g2461
ag2462
a(lp6350
I1
a(lp6351
F0.581395
aaI43
aa(lp6352
I1
a(lp6353
F0.214286
aaI28
aa(lp6354
I1
a(lp6355
F0.24
aaI25
aa(lp6356
I1
a(lp6357
F0.25
aaI28
aa(lp6358
I1
a(lp6359
F0.269231
aaI26
aa(lp6360
I1
a(lp6361
F0.258065
aaI31
aa(lp6362
I1
a(lp6363
F0.225806
aaI31
aa(lp6364
I1
a(lp6365
F0.25
aaI28
aa(lp6366
I1
a(lp6367
F0.275862
aaI29
aa(lp6368
I1
a(lp6369
F0.314286
aaI35
aa(lp6370
I1
a(lp6371
F0.395683
aaI139
aa(lp6372
I1
a(lp6373
F0.385714
aaI70
aaa(lp6374
g2464
ag2465
a(lp6375
I1
a(lp6376
F0.318182
aaI22
aa(lp6377
I1
a(lp6378
F0.368421
aaI38
aa(lp6379
I1
a(lp6380
F0.263158
aaI38
aa(lp6381
I1
a(lp6382
F0.552632
aaI38
aa(lp6383
I1
a(lp6384
F0.4375
aaI16
aaa(lp6385
g2471
ag2472
a(lp6386
I1
a(lp6387
F0.35
aaI40
aa(lp6388
I1
a(lp6389
F0.28
aaI25
aa(lp6390
I1
a(lp6391
F0.333333
aaI27
aa(lp6392
I1
a(lp6393
F0.37037
aaI27
aa(lp6394
I1
a(lp6395
F0.344828
aaI29
aa(lp6396
I1
a(lp6397
F0.344828
aaI29
aa(lp6398
I1
a(lp6399
F0.214286
aaI28
aa(lp6400
I1
a(lp6401
F0.205882
aaI34
aa(lp6402
I1
a(lp6403
F0.214286
aaI14
aa(lp6404
I1
a(lp6405
F0.333333
aaI6
aaa(lp6406
g2474
ag2475
a(lp6407
I1
a(lp6408
F0.341463
aaI41
aaassS'diploids'
p6409
(dp6410
g3
(lp6411
(lp6412
S'scaffold167467_cov101'
p6413
aS'scaffold67159_cov68'
p6414
aa(lp6415
S'scaffold20004_cov62'
p6416
aS'scaffold4610_cov62'
p6417
a(lp6418
I1
a(lp6419
F0.0
aaI7
aa(lp6420
I1
a(lp6421
F0.25
aaI32
aaa(lp6422
S'scaffold2677_cov108'
p6423
aS'scaffold6974_cov73'
p6424
a(lp6425
I1
a(lp6426
F0.238095
aaI21
aa(lp6427
I1
a(lp6428
F0.611111
aaI18
aa(lp6429
I1
a(lp6430
F0.0
aaI13
aa(lp6431
I1
a(lp6432
F0.222222
aaI27
aa(lp6433
I1
a(lp6434
F0.233333
aaI30
aa(lp6435
I1
a(lp6436
F0.222222
aaI27
aa(lp6437
I1
a(lp6438
F0.238095
aaI21
aa(lp6439
I1
a(lp6440
F0.235294
aaI17
aa(lp6441
I1
a(lp6442
F0.222222
aaI18
aaa(lp6443
S'scaffold50322_cov70'
p6444
aS'scaffold50494_cov83'
p6445
a(lp6446
I1
a(lp6447
F0.214286
aaI14
aaa(lp6448
S'scaffold11821_cov67'
p6449
aS'scaffold16084_cov74'
p6450
a(lp6451
I1
a(lp6452
F0.0
aaI15
aa(lp6453
I1
a(lp6454
F0.3
aaI20
aa(lp6455
I1
a(lp6456
F0.263158
aaI19
aa(lp6457
I1
a(lp6458
F0.626866
aaI67
aa(lp6459
I1
a(lp6460
F0.268293
aaI41
aa(lp6461
I1
a(lp6462
F0.393939
aaI33
aa(lp6463
I1
a(lp6464
F0.4
aaI30
aa(lp6465
I1
a(lp6466
F0.25
aaI16
aaa(lp6467
S'scaffold6054_cov102'
p6468
aS'scaffold661_cov69'
p6469
aa(lp6470
S'scaffold21633_cov84'
p6471
aS'scaffold4019_cov99'
p6472
a(lp6473
I1
a(lp6474
F0.4
aaI30
aa(lp6475
I1
a(lp6476
F0.28
aaI25
aa(lp6477
I1
a(lp6478
F0.214286
aaI28
aa(lp6479
I1
a(lp6480
F0.214286
aaI14
aa(lp6481
I1
a(lp6482
F0.318182
aaI22
aa(lp6483
I1
a(lp6484
F0.318182
aaI22
aa(lp6485
I1
a(lp6486
F0.318182
aaI22
aa(lp6487
I1
a(lp6488
F0.294118
aaI34
aa(lp6489
I1
a(lp6490
F0.342857
aaI35
aa(lp6491
I1
a(lp6492
F0.59375
aaI32
aa(lp6493
I1
a(lp6494
F0.37037
aaI27
aa(lp6495
I1
a(lp6496
F0.333333
aaI24
aa(lp6497
I1
a(lp6498
F0.291667
aaI24
aa(lp6499
I1
a(lp6500
F0.375
aaI32
aa(lp6501
I1
a(lp6502
F0.30303
aaI33
aa(lp6503
I1
a(lp6504
F0.419355
aaI31
aa(lp6505
I1
a(lp6506
F0.428571
aaI35
aaa(lp6507
S'scaffold192192_cov171'
p6508
aS'scaffold8532_cov71'
p6509
aa(lp6510
S'scaffold16609_cov69'
p6511
aS'scaffold52798_cov134'
p6512
aa(lp6513
S'scaffold15237_cov73'
p6514
aS'scaffold24301_cov102'
p6515
aa(lp6516
S'scaffold12706_cov81'
p6517
aS'scaffold16044_cov69'
p6518
a(lp6519
I1
a(lp6520
F0.227273
aaI22
aa(lp6521
I1
a(lp6522
F0.416667
aaI24
aa(lp6523
I1
a(lp6524
F0.4
aaI25
aaa(lp6525
S'scaffold29165_cov60'
p6526
aS'scaffold561_cov86'
p6527
aa(lp6528
S'scaffold1143_cov170'
p6529
aS'scaffold1145_cov65'
p6530
aa(lp6531
S'scaffold25513_cov91'
p6532
aS'scaffold92575_cov70'
p6533
aa(lp6534
S'scaffold1143_cov170'
p6535
aS'scaffold185565_cov204'
p6536
aa(lp6537
S'scaffold18411_cov77'
p6538
aS'scaffold3448_cov89'
p6539
a(lp6540
I1
a(lp6541
F0.230769
aaI26
aa(lp6542
I1
a(lp6543
F0.52381
aaI42
aa(lp6544
I1
a(lp6545
F0.377778
aaI45
aaa(lp6546
S'scaffold12557_cov77'
p6547
aS'scaffold167464_cov86'
p6548
a(lp6549
I1
a(lp6550
F0.53125
aaI32
aa(lp6551
I1
a(lp6552
F0.434783
aaI23
aa(lp6553
I1
a(lp6554
F0.526316
aaI19
aa(lp6555
I1
a(lp6556
F0.52381
aaI21
aaa(lp6557
S'scaffold1498_cov63'
p6558
aS'scaffold33427_cov79'
p6559
a(lp6560
I1
a(lp6561
F0.0
aaI16
aa(lp6562
I1
a(lp6563
F0.0
aaI11
aa(lp6564
I1
a(lp6565
F0.0
aaI12
aa(lp6566
I1
a(lp6567
F0.0
aaI11
aa(lp6568
I1
a(lp6569
F0.0
aaI11
aa(lp6570
I1
a(lp6571
F0.0
aaI11
aa(lp6572
I1
a(lp6573
F0.0
aaI12
aa(lp6574
I1
a(lp6575
F0.208333
aaI24
aa(lp6576
I1
a(lp6577
F0.25
aaI40
aa(lp6578
I1
a(lp6579
F0.545455
aaI44
aa(lp6580
I1
a(lp6581
F0.25
aaI28
aa(lp6582
I1
a(lp6583
F0.275862
aaI29
aa(lp6584
I1
a(lp6585
F0.275862
aaI29
aa(lp6586
I1
a(lp6587
F0.214286
aaI28
aaa(lp6588
S'scaffold23696_cov107'
p6589
aS'scaffold46569_cov79'
p6590
aa(lp6591
S'scaffold1649_cov91'
p6592
aS'scaffold165507_cov120'
p6593
a(lp6594
I1
a(lp6595
F0.394737
aaI38
aa(lp6596
I1
a(lp6597
F0.5
aaI38
aa(lp6598
I1
a(lp6599
F0.407407
aaI27
aa(lp6600
I1
a(lp6601
F0.238095
aaI21
aa(lp6602
I1
a(lp6603
F0.333333
aaI24
aa(lp6604
I1
a(lp6605
F0.26087
aaI23
aa(lp6606
I1
a(lp6607
F0.24
aaI25
aa(lp6608
I1
a(lp6609
F0.230769
aaI26
aa(lp6610
I1
a(lp6611
F0.241379
aaI29
aa(lp6612
I1
a(lp6613
F0.285714
aaI28
aa(lp6614
I1
a(lp6615
F0.217391
aaI23
aa(lp6616
I1
a(lp6617
F0.28
aaI25
aa(lp6618
I1
a(lp6619
F0.227273
aaI22
aa(lp6620
I1
a(lp6621
F0.263158
aaI19
aa(lp6622
I1
a(lp6623
F0.538462
aaI39
aa(lp6624
I1
a(lp6625
F0.472222
aaI36
aa(lp6626
I1
a(lp6627
F0.588235
aaI51
aa(lp6628
I1
a(lp6629
F0.206897
aaI29
aaa(lp6630
S'scaffold45339_cov132'
p6631
aS'scaffold5542_cov64'
p6632
aa(lp6633
S'scaffold38008_cov141'
p6634
aS'scaffold5960_cov65'
p6635
a(lp6636
I1
a(lp6637
F0.333333
aaI33
aa(lp6638
I1
a(lp6639
F0.441176
aaI34
aa(lp6640
I1
a(lp6641
F0.342857
aaI35
aaa(lp6642
S'scaffold20641_cov90'
p6643
aS'scaffold8011_cov68'
p6644
aa(lp6645
S'scaffold1929_cov135'
p6646
aS'scaffold9933_cov110'
p6647
a(lp6648
I1
a(lp6649
F0.0
aaI46
aa(lp6650
I1
a(lp6651
F0.543478
aaI46
aaa(lp6652
S'scaffold3002_cov145'
p6653
aS'scaffold32103_cov132'
p6654
aa(lp6655
S'scaffold10215_cov75'
p6656
aS'scaffold16998_cov67'
p6657
aa(lp6658
S'scaffold15785_cov113'
p6659
aS'scaffold66380_cov110'
p6660
aa(lp6661
S'scaffold43353_cov68'
p6662
aS'scaffold77207_cov117'
p6663
a(lp6664
I1
a(lp6665
F0.407407
aaI27
aa(lp6666
I1
a(lp6667
F0.208333
aaI24
aa(lp6668
I1
a(lp6669
F0.28
aaI25
aa(lp6670
I1
a(lp6671
F0.393939
aaI33
aaa(lp6672
S'scaffold10670_cov88'
p6673
aS'scaffold7453_cov60'
p6674
aa(lp6675
S'scaffold11081_cov88'
p6676
aS'scaffold26032_cov70'
p6677
a(lp6678
I1
a(lp6679
F0.444444
aaI36
aa(lp6680
I1
a(lp6681
F0.428571
aaI35
aa(lp6682
I1
a(lp6683
F0.411765
aaI34
aa(lp6684
I1
a(lp6685
F0.304348
aaI23
aa(lp6686
I1
a(lp6687
F0.380952
aaI21
aa(lp6688
I1
a(lp6689
F0.0
aaI16
aa(lp6690
I1
a(lp6691
F0.0
aaI18
aa(lp6692
I1
a(lp6693
F0.0
aaI18
aaa(lp6694
S'scaffold1978_cov92'
p6695
aS'scaffold2699_cov70'
p6696
aa(lp6697
S'scaffold166682_cov143'
p6698
aS'scaffold374_cov71'
p6699
a(lp6700
I1
a(lp6701
F0.0
aaI27
aa(lp6702
I1
a(lp6703
F0.0
aaI15
aa(lp6704
I1
a(lp6705
F0.206897
aaI29
aa(lp6706
I1
a(lp6707
F0.25
aaI32
aa(lp6708
I1
a(lp6709
F0.235294
aaI34
aa(lp6710
I1
a(lp6711
F0.3125
aaI32
aa(lp6712
I1
a(lp6713
F0.470588
aaI34
aa(lp6714
I1
a(lp6715
F0.53125
aaI32
aa(lp6716
I1
a(lp6717
F0.0
aaI15
aa(lp6718
I1
a(lp6719
F0.0
aaI17
aa(lp6720
I1
a(lp6721
F0.0
aaI18
aaa(lp6722
S'scaffold4585_cov69'
p6723
aS'scaffold6268_cov78'
p6724
a(lp6725
I1
a(lp6726
F0.0
aaI24
aa(lp6727
I1
a(lp6728
F0.263158
aaI19
aaa(lp6729
S'scaffold12870_cov60'
p6730
aS'scaffold19598_cov123'
p6731
aa(lp6732
S'scaffold166809_cov123'
p6733
aS'scaffold57805_cov71'
p6734
aa(lp6735
S'scaffold195195_cov811'
p6736
aS'scaffold5496_cov92'
p6737
aa(lp6738
S'scaffold15386_cov80'
p6739
aS'scaffold23731_cov68'
p6740
aa(lp6741
S'scaffold141950_cov79'
p6742
aS'scaffold9327_cov109'
p6743
aa(lp6744
S'scaffold19197_cov73'
p6745
aS'scaffold4030_cov67'
p6746
aa(lp6747
S'scaffold165470_cov102'
p6748
aS'scaffold48928_cov92'
p6749
a(lp6750
I1
a(lp6751
F0.666667
aaI36
aa(lp6752
I1
a(lp6753
F0.65625
aaI32
aa(lp6754
I1
a(lp6755
F0.628571
aaI35
aa(lp6756
I1
a(lp6757
F0.545455
aaI44
aa(lp6758
I1
a(lp6759
F0.583333
aaI36
aa(lp6760
I1
a(lp6761
F0.4
aaI30
aa(lp6762
I1
a(lp6763
F0.514286
aaI35
aa(lp6764
I1
a(lp6765
F0.428571
aaI28
aaa(lp6766
S'scaffold104_cov67'
p6767
aS'scaffold34705_cov67'
p6768
aa(lp6769
S'scaffold16632_cov63'
p6770
aS'scaffold178103_cov209'
p6771
aa(lp6772
S'scaffold279_cov75'
p6773
aS'scaffold7438_cov111'
p6774
a(lp6775
I1
a(lp6776
F0.333333
aaI39
aa(lp6777
I1
a(lp6778
F0.341463
aaI41
aa(lp6779
I1
a(lp6780
F0.212121
aaI33
aa(lp6781
I1
a(lp6782
F0.3
aaI30
aaa(lp6783
S'scaffold4052_cov74'
p6784
aS'scaffold5847_cov85'
p6785
aa(lp6786
S'scaffold10461_cov66'
p6787
aS'scaffold10462_cov135'
p6788
aasg2476
(lp6789
(lp6790
g6413
ag6414
a(lp6791
I1
a(lp6792
F0.413793
aaI29
aa(lp6793
I1
a(lp6794
F0.229508
aaI61
aa(lp6795
I1
a(lp6796
F0.487179
aaI39
aaa(lp6797
g6416
ag6417
a(lp6798
I1
a(lp6799
F0.241379
aaI29
aa(lp6800
I1
a(lp6801
F0.333333
aaI27
aa(lp6802
I1
a(lp6803
F0.869565
aaI23
aa(lp6804
I1
a(lp6805
F0.24
aaI25
aa(lp6806
I1
a(lp6807
F0.263158
aaI19
aa(lp6808
I1
a(lp6809
F0.3125
aaI16
aa(lp6810
I1
a(lp6811
F0.4
aaI15
aa(lp6812
I1
a(lp6813
F0.409091
aaI22
aa(lp6814
I1
a(lp6815
F0.409091
aaI22
aa(lp6816
I1
a(lp6817
F0.428571
aaI21
aa(lp6818
I1
a(lp6819
F0.409091
aaI22
aa(lp6820
I1
a(lp6821
F0.230769
aaI26
aa(lp6822
I1
a(lp6823
F0.4375
aaI16
aa(lp6824
I1
a(lp6825
F0.315789
aaI19
aa(lp6826
I1
a(lp6827
F0.285714
aaI21
aa(lp6828
I1
a(lp6829
F0.266667
aaI15
aa(lp6830
I1
a(lp6831
F0.35
aaI60
aa(lp6832
I1
a(lp6833
F0.586957
aaI46
aa(lp6834
I1
a(lp6835
F0.507246
aaI69
aa(lp6836
I1
a(lp6837
F0.202703
aaI74
aa(lp6838
I1
a(lp6839
F0.543478
aaI46
aaa(lp6840
g6423
ag6424
a(lp6841
I1
a(lp6842
F0.407407
aaI27
aa(lp6843
I1
a(lp6844
F0.407407
aaI27
aa(lp6845
I1
a(lp6846
F0.55814
aaI43
aa(lp6847
I1
a(lp6848
F0.346154
aaI26
aaa(lp6849
g6444
ag6445
aa(lp6850
g6449
ag6450
a(lp6851
I1
a(lp6852
F0.25
aaI20
aa(lp6853
I1
a(lp6854
F0.304348
aaI23
aa(lp6855
I1
a(lp6856
F0.315789
aaI19
aa(lp6857
I1
a(lp6858
F0.2
aaI20
aa(lp6859
I1
a(lp6860
F0.24
aaI25
aa(lp6861
I1
a(lp6862
F0.368421
aaI19
aa(lp6863
I1
a(lp6864
F0.5
aaI14
aa(lp6865
I1
a(lp6866
F0.225806
aaI31
aa(lp6867
I1
a(lp6868
F0.25
aaI32
aa(lp6869
I1
a(lp6870
F0.212121
aaI33
aa(lp6871
I1
a(lp6872
F0.25
aaI28
aa(lp6873
I1
a(lp6874
F0.4
aaI40
aa(lp6875
I1
a(lp6876
F0.358974
aaI39
aa(lp6877
I1
a(lp6878
F0.617021
aaI47
aa(lp6879
I1
a(lp6880
F0.607143
aaI56
aa(lp6881
I1
a(lp6882
F0.672414
aaI58
aa(lp6883
I1
a(lp6884
F0.666667
aaI60
aaa(lp6885
g6468
ag6469
a(lp6886
I1
a(lp6887
F0.444444
aaI27
aa(lp6888
I1
a(lp6889
F0.2
aaI30
aa(lp6890
I1
a(lp6891
F0.583333
aaI24
aaa(lp6892
g6471
ag6472
aa(lp6893
g6508
ag6509
aa(lp6894
g6511
ag6512
aa(lp6895
g6514
ag6515
a(lp6896
I1
a(lp6897
F0.5
aaI34
aa(lp6898
I1
a(lp6899
F0.690476
aaI42
aa(lp6900
I1
a(lp6901
F0.0
aaI17
aa(lp6902
I1
a(lp6903
F0.583333
aaI36
aaa(lp6904
g6517
ag6518
a(lp6905
I1
a(lp6906
F0.206897
aaI29
aa(lp6907
I1
a(lp6908
F0.0
aaI23
aaa(lp6909
g6526
ag6527
aa(lp6910
g6529
ag6530
aa(lp6911
g6532
ag6533
aa(lp6912
g6535
ag6536
aa(lp6913
g6538
ag6539
a(lp6914
I1
a(lp6915
F0.242424
aaI33
aaa(lp6916
g6547
ag6548
a(lp6917
I1
a(lp6918
F0.322581
aaI31
aaa(lp6919
g6558
ag6559
a(lp6920
I1
a(lp6921
F0.0
aaI7
aa(lp6922
I1
a(lp6923
F0.0
aaI10
aa(lp6924
I1
a(lp6925
F0.3
aaI50
aaa(lp6926
g6589
ag6590
a(lp6927
I1
a(lp6928
F0.297297
aaI37
aaa(lp6929
g6592
ag6593
a(lp6930
I1
a(lp6931
F0.472222
aaI36
aa(lp6932
I1
a(lp6933
F0.230769
aaI26
aa(lp6934
I1
a(lp6935
F0.269231
aaI26
aa(lp6936
I1
a(lp6937
F0.214286
aaI14
aa(lp6938
I1
a(lp6939
F0.25
aaI16
aa(lp6940
I1
a(lp6941
F0.423077
aaI26
aa(lp6942
I1
a(lp6943
F0.35
aaI20
aa(lp6944
I1
a(lp6945
F0.477273
aaI44
aa(lp6946
I1
a(lp6947
F0.418605
aaI43
aa(lp6948
I1
a(lp6949
F0.214286
aaI28
aa(lp6950
I1
a(lp6951
F0.323529
aaI34
aa(lp6952
I1
a(lp6953
F0.357143
aaI28
aa(lp6954
I1
a(lp6955
F0.317073
aaI41
aa(lp6956
I1
a(lp6957
F0.25
aaI44
aa(lp6958
I1
a(lp6959
F0.2
aaI50
aa(lp6960
I1
a(lp6961
F0.208333
aaI48
aa(lp6962
I1
a(lp6963
F0.25641
aaI39
aa(lp6964
I1
a(lp6965
F0.304348
aaI23
aa(lp6966
I1
a(lp6967
F0.296296
aaI27
aa(lp6968
I1
a(lp6969
F0.272727
aaI33
aa(lp6970
I1
a(lp6971
F0.30303
aaI33
aa(lp6972
I1
a(lp6973
F0.352941
aaI34
aa(lp6974
I1
a(lp6975
F0.305556
aaI36
aa(lp6976
I1
a(lp6977
F0.297297
aaI37
aa(lp6978
I1
a(lp6979
F0.297297
aaI37
aa(lp6980
I1
a(lp6981
F0.275862
aaI29
aa(lp6982
I1
a(lp6983
F0.258065
aaI31
aa(lp6984
I1
a(lp6985
F0.222222
aaI27
aaa(lp6986
g6631
ag6632
aa(lp6987
g6634
ag6635
aa(lp6988
g6643
ag6644
aa(lp6989
g6646
ag6647
a(lp6990
I1
a(lp6991
F0.2
aaI60
aa(lp6992
I1
a(lp6993
F0.536585
aaI41
aa(lp6994
I1
a(lp6995
F0.52381
aaI42
aa(lp6996
I1
a(lp6997
F0.296296
aaI27
aa(lp6998
I1
a(lp6999
F0.357143
aaI28
aaa(lp7000
g6653
ag6654
aa(lp7001
g6656
ag6657
a(lp7002
I1
a(lp7003
F0.8125
aaI16
aaa(lp7004
g6659
ag6660
aa(lp7005
g6662
ag6663
aa(lp7006
g6673
ag6674
aa(lp7007
g6676
ag6677
aa(lp7008
g6695
ag6696
a(lp7009
I1
a(lp7010
F0.0
aaI25
aa(lp7011
I1
a(lp7012
F0.210526
aaI19
aa(lp7013
I1
a(lp7014
F0.2
aaI20
aa(lp7015
I1
a(lp7016
F0.2
aaI20
aa(lp7017
I1
a(lp7018
F0.272727
aaI22
aaa(lp7019
g6698
ag6699
aa(lp7020
g6723
ag6724
aa(lp7021
g6730
ag6731
aa(lp7022
g6733
ag6734
aa(lp7023
g6736
ag6737
aa(lp7024
g6739
ag6740
aa(lp7025
g6742
ag6743
aa(lp7026
g6745
ag6746
a(lp7027
I1
a(lp7028
F0.363636
aaI33
aa(lp7029
I1
a(lp7030
F0.363636
aaI33
aa(lp7031
I1
a(lp7032
F0.387097
aaI31
aa(lp7033
I1
a(lp7034
F0.45
aaI20
aa(lp7035
I1
a(lp7036
F0.615385
aaI13
aa(lp7037
I1
a(lp7038
F0.388889
aaI18
aa(lp7039
I1
a(lp7040
F0.333333
aaI24
aaa(lp7041
g6748
ag6749
aa(lp7042
g6767
ag6768
aa(lp7043
g6770
ag6771
a(lp7044
I1
a(lp7045
F0.4
aaI25
aaa(lp7046
g6773
ag6774
a(lp7047
I1
a(lp7048
F0.30303
aaI33
aa(lp7049
I1
a(lp7050
F0.333333
aaI30
aa(lp7051
I1
a(lp7052
F0.342857
aaI35
aa(lp7053
I1
a(lp7054
F0.4
aaI40
aaa(lp7055
g6784
ag6785
a(lp7056
I1
a(lp7057
F0.263158
aaI19
aa(lp7058
I1
a(lp7059
F0.315789
aaI19
aa(lp7060
I1
a(lp7061
F0.315789
aaI19
aaa(lp7062
g6787
ag6788
a(lp7063
I1
a(lp7064
F0.28
aaI25
aa(lp7065
I1
a(lp7066
F0.361702
aaI47
aa(lp7067
I1
a(lp7068
F0.463415
aaI41
aaass.