(dp0
S'triploids'
p1
(dp2
S'down'
p3
(lp4
(lp5
S'scaffold167486_cov93'
p6
aS'scaffold32268_cov68'
p7
aa(lp8
S'scaffold3954_cov94'
p9
aS'scaffold73744_cov62'
p10
aa(lp11
S'scaffold13284_cov147'
p12
aS'scaffold23977_cov68'
p13
aa(lp14
S'scaffold10148_cov99'
p15
aS'scaffold6498_cov76'
p16
a(lp17
I1
a(lp18
F0.206897
aaI58
aa(lp19
I1
a(lp20
F0.210526
aaI57
aa(lp21
I1
a(lp22
F0.305085
aaI59
aa(lp23
I1
a(lp24
F0.259259
aaI54
aa(lp25
I1
a(lp26
F0.25
aaI52
aa(lp27
I1
a(lp28
F0.361111
aaI72
aa(lp29
I1
a(lp30
F0.342466
aaI73
aa(lp31
I1
a(lp32
F0.315068
aaI73
aa(lp33
I1
a(lp34
F0.24359
aaI78
aa(lp35
I1
a(lp36
F0.219178
aaI73
aa(lp37
I1
a(lp38
F0.226667
aaI75
aa(lp39
I1
a(lp40
F0.207792
aaI77
aa(lp41
I1
a(lp42
F0.210526
aaI76
aa(lp43
I1
a(lp44
F0.367816
aaI87
aa(lp45
I1
a(lp46
F0.283784
aaI74
aa(lp47
I1
a(lp48
F0.47
aaI100
aa(lp49
I1
a(lp50
F0.357143
aaI84
aa(lp51
I1
a(lp52
F0.361702
aaI94
aa(lp53
I1
a(lp54
F0.364583
aaI96
aa(lp55
I1
a(lp56
F0.425
aaI120
aa(lp57
I1
a(lp58
F0.396396
aaI111
aa(lp59
I1
a(lp60
F0.428571
aaI84
aa(lp61
I1
a(lp62
F0.2875
aaI80
aa(lp63
I1
a(lp64
F0.270588
aaI85
aa(lp65
I1
a(lp66
F0.272727
aaI99
aa(lp67
I1
a(lp68
F0.23622
aaI127
aaa(lp69
S'scaffold2658_cov137'
p70
aS'scaffold4421_cov66'
p71
aa(lp72
S'scaffold8528_cov135'
p73
aS'scaffold10431_cov72'
p74
a(lp75
I1
a(lp76
F0.333333
aaI87
aa(lp77
I1
a(lp78
F0.297619
aaI84
aaa(lp79
S'scaffold160792_cov138'
p80
aS'scaffold90278_cov81'
p81
a(lp82
I1
a(lp83
F0.482517
aaI143
aaa(lp84
S'scaffold6934_cov101'
p85
aS'scaffold5476_cov91'
p86
a(lp87
I1
a(lp88
F0.215909
aaI88
aaa(lp89
S'scaffold167467_cov101'
p90
aS'scaffold67159_cov68'
p91
aa(lp92
S'scaffold13631_cov149'
p93
aS'scaffold1043_cov70'
p94
aa(lp95
S'scaffold4095_cov147'
p96
aS'scaffold1076_cov67'
p97
aa(lp98
S'scaffold4610_cov62'
p99
aS'scaffold20004_cov62'
p100
a(lp101
I1
a(lp102
F0.246575
aaI73
aa(lp103
I1
a(lp104
F0.253165
aaI79
aa(lp105
I1
a(lp106
F0.246154
aaI65
aa(lp107
I1
a(lp108
F0.263736
aaI91
aa(lp109
I1
a(lp110
F0.472527
aaI91
aa(lp111
I1
a(lp112
F0.3125
aaI96
aa(lp113
I1
a(lp114
F0.418848
aaI191
aa(lp115
I1
a(lp116
F0.514286
aaI105
aa(lp117
I1
a(lp118
F0.528497
aaI193
aa(lp119
I1
a(lp120
F0.555556
aaI135
aaa(lp121
S'scaffold26651_cov113'
p122
aS'scaffold2076_cov75'
p123
a(lp124
I1
a(lp125
F0.377778
aaI90
aaa(lp126
S'scaffold37943_cov120'
p127
aS'scaffold39367_cov97'
p128
a(lp129
I1
a(lp130
F0.37037
aaI81
aa(lp131
I1
a(lp132
F0.347826
aaI92
aa(lp133
I1
a(lp134
F0.471545
aaI123
aa(lp135
I1
a(lp136
F0.490909
aaI110
aa(lp137
I1
a(lp138
F0.466102
aaI118
aa(lp139
I1
a(lp140
F0.469027
aaI113
aa(lp141
I1
a(lp142
F0.446602
aaI103
aa(lp143
I1
a(lp144
F0.447619
aaI105
aa(lp145
I1
a(lp146
F0.423423
aaI111
aa(lp147
I1
a(lp148
F0.41
aaI100
aa(lp149
I1
a(lp150
F0.417476
aaI103
aa(lp151
I1
a(lp152
F0.465347
aaI101
aa(lp153
I1
a(lp154
F0.444444
aaI99
aa(lp155
I1
a(lp156
F0.285714
aaI70
aa(lp157
I1
a(lp158
F0.382979
aaI94
aa(lp159
I1
a(lp160
F0.365854
aaI82
aa(lp161
I1
a(lp162
F0.408602
aaI93
aa(lp163
I1
a(lp164
F0.503876
aaI129
aa(lp165
I1
a(lp166
F0.424528
aaI106
aa(lp167
I1
a(lp168
F0.518182
aaI110
aa(lp169
I1
a(lp170
F0.481818
aaI110
aa(lp171
I1
a(lp172
F0.486726
aaI113
aa(lp173
I1
a(lp174
F0.56044
aaI91
aa(lp175
I1
a(lp176
F0.445545
aaI101
aa(lp177
I1
a(lp178
F0.391753
aaI97
aa(lp179
I1
a(lp180
F0.474576
aaI118
aa(lp181
I1
a(lp182
F0.4
aaI75
aa(lp183
I1
a(lp184
F0.394737
aaI76
aa(lp185
I1
a(lp186
F0.376623
aaI77
aa(lp187
I1
a(lp188
F0.390244
aaI82
aa(lp189
I1
a(lp190
F0.433735
aaI83
aa(lp191
I1
a(lp192
F0.459459
aaI74
aa(lp193
I1
a(lp194
F0.467532
aaI77
aa(lp195
I1
a(lp196
F0.423077
aaI78
aa(lp197
I1
a(lp198
F0.386667
aaI75
aa(lp199
I1
a(lp200
F0.430556
aaI72
aa(lp201
I1
a(lp202
F0.443038
aaI79
aa(lp203
I1
a(lp204
F0.391304
aaI69
aa(lp205
I1
a(lp206
F0.438356
aaI73
aa(lp207
I1
a(lp208
F0.485714
aaI70
aa(lp209
I1
a(lp210
F0.343284
aaI67
aa(lp211
I1
a(lp212
F0.37037
aaI81
aa(lp213
I1
a(lp214
F0.380952
aaI84
aa(lp215
I1
a(lp216
F0.367089
aaI79
aa(lp217
I1
a(lp218
F0.357143
aaI84
aa(lp219
I1
a(lp220
F0.325581
aaI86
aa(lp221
I1
a(lp222
F0.392405
aaI79
aa(lp223
I1
a(lp224
F0.373333
aaI75
aa(lp225
I1
a(lp226
F0.413333
aaI75
aa(lp227
I1
a(lp228
F0.447761
aaI67
aa(lp229
I1
a(lp230
F0.42623
aaI61
aa(lp231
I1
a(lp232
F0.4625
aaI80
aa(lp233
I1
a(lp234
F0.423529
aaI85
aa(lp235
I1
a(lp236
F0.320988
aaI81
aaa(lp237
S'scaffold11629_cov141'
p238
aS'scaffold11627_cov72'
p239
aa(lp240
S'scaffold2522_cov147'
p241
aS'scaffold2520_cov73'
p242
aa(lp243
S'scaffold3257_cov146'
p244
aS'scaffold16169_cov72'
p245
a(lp246
I1
a(lp247
F0.292994
aaI157
aa(lp248
I1
a(lp249
F0.0
aaI140
aaa(lp250
S'scaffold33358_cov122'
p251
aS'scaffold11974_cov67'
p252
a(lp253
I1
a(lp254
F0.229508
aaI61
aaa(lp255
S'scaffold17315_cov142'
p256
aS'scaffold17316_cov65'
p257
aa(lp258
S'scaffold27512_cov124'
p259
aS'scaffold9838_cov70'
p260
a(lp261
I1
a(lp262
F0.202381
aaI84
aa(lp263
I1
a(lp264
F0.366972
aaI109
aaa(lp265
S'scaffold1868_cov136'
p266
aS'scaffold7102_cov63'
p267
aa(lp268
S'scaffold19614_cov87'
p269
aS'scaffold74444_cov64'
p270
aa(lp271
S'scaffold165401_cov148'
p272
aS'scaffold12422_cov71'
p273
a(lp274
I1
a(lp275
F0.590604
aaI149
aaa(lp276
S'scaffold108_cov145'
p277
aS'scaffold107_cov67'
p278
aa(lp279
S'scaffold96847_cov139'
p280
aS'scaffold3943_cov70'
p281
aa(lp282
S'scaffold47647_cov69'
p283
aS'scaffold7129_cov63'
p284
aa(lp285
S'scaffold6388_cov146'
p286
aS'scaffold8779_cov66'
p287
a(lp288
I1
a(lp289
F0.833333
aaI48
aa(lp290
I1
a(lp291
F0.854167
aaI48
aa(lp292
I1
a(lp293
F0.827586
aaI58
aa(lp294
I1
a(lp295
F0.323171
aaI164
aaa(lp296
S'scaffold167512_cov105'
p297
aS'scaffold132398_cov66'
p298
aa(lp299
S'scaffold90279_cov161'
p300
aS'scaffold90278_cov81'
p301
aa(lp302
S'scaffold1391_cov96'
p303
aS'scaffold46961_cov69'
p304
aa(lp305
S'scaffold56728_cov119'
p306
aS'scaffold11627_cov72'
p307
aa(lp308
S'scaffold50322_cov70'
p309
aS'scaffold50494_cov83'
p310
aa(lp311
S'scaffold8397_cov125'
p312
aS'scaffold2722_cov84'
p313
a(lp314
I1
a(lp315
F0.0
aaI45
aa(lp316
I1
a(lp317
F0.0
aaI48
aa(lp318
I1
a(lp319
F0.836735
aaI49
aaa(lp320
S'scaffold2416_cov137'
p321
aS'scaffold2417_cov66'
p322
aa(lp323
S'scaffold20419_cov113'
p324
aS'scaffold114_cov72'
p325
aa(lp326
S'scaffold27148_cov73'
p327
aS'scaffold860_cov64'
p328
aa(lp329
S'scaffold4513_cov135'
p330
aS'scaffold59029_cov68'
p331
aa(lp332
S'scaffold406_cov110'
p333
aS'scaffold39105_cov66'
p334
aa(lp335
S'scaffold11821_cov67'
p336
aS'scaffold16084_cov74'
p337
a(lp338
I1
a(lp339
F0.241379
aaI87
aa(lp340
I1
a(lp341
F0.3
aaI110
aa(lp342
I1
a(lp343
F0.256881
aaI109
aa(lp344
I1
a(lp345
F0.404959
aaI121
aa(lp346
I1
a(lp347
F0.407407
aaI108
aa(lp348
I1
a(lp349
F0.247706
aaI109
aa(lp350
I1
a(lp351
F0.25
aaI112
aa(lp352
I1
a(lp353
F0.462185
aaI119
aa(lp354
I1
a(lp355
F0.451852
aaI135
aa(lp356
I1
a(lp357
F0.496454
aaI141
aa(lp358
I1
a(lp359
F0.472222
aaI144
aaa(lp360
S'scaffold11225_cov146'
p361
aS'scaffold33238_cov67'
p362
aa(lp363
S'scaffold1158_cov100'
p364
aS'scaffold100812_cov62'
p365
aa(lp366
S'scaffold4036_cov142'
p367
aS'scaffold10658_cov62'
p368
aa(lp369
S'scaffold12688_cov135'
p370
aS'scaffold12686_cov61'
p371
a(lp372
I1
a(lp373
F0.75
aaI12
aa(lp374
I1
a(lp375
F0.864865
aaI37
aaa(lp376
S'scaffold9676_cov145'
p377
aS'scaffold16231_cov68'
p378
aa(lp379
S'scaffold180_cov107'
p380
aS'scaffold1171_cov70'
p381
a(lp382
I1
a(lp383
F0.217391
aaI92
aaa(lp384
S'scaffold29230_cov135'
p385
aS'scaffold7717_cov65'
p386
aa(lp387
S'scaffold166708_cov122'
p388
aS'scaffold697_cov68'
p389
aa(lp390
S'scaffold6658_cov76'
p391
aS'scaffold860_cov64'
p392
aa(lp393
S'scaffold53892_cov107'
p394
aS'scaffold57838_cov69'
p395
aa(lp396
S'scaffold10313_cov102'
p397
aS'scaffold21316_cov65'
p398
aa(lp399
S'scaffold5667_cov96'
p400
aS'scaffold8355_cov67'
p401
a(lp402
I1
a(lp403
F0.215385
aaI65
aa(lp404
I1
a(lp405
F0.226667
aaI75
aaa(lp406
S'scaffold167496_cov97'
p407
aS'scaffold29206_cov81'
p408
a(lp409
I1
a(lp410
F0.275862
aaI58
aa(lp411
I1
a(lp412
F0.271186
aaI59
aa(lp413
I1
a(lp414
F0.280702
aaI57
aa(lp415
I1
a(lp416
F0.264151
aaI53
aa(lp417
I1
a(lp418
F0.301587
aaI63
aa(lp419
I1
a(lp420
F0.333333
aaI60
aa(lp421
I1
a(lp422
F0.363636
aaI66
aa(lp423
I1
a(lp424
F0.303371
aaI89
aa(lp425
I1
a(lp426
F0.246753
aaI77
aa(lp427
I1
a(lp428
F0.211268
aaI71
aaa(lp429
S'scaffold26582_cov78'
p430
aS'scaffold5481_cov69'
p431
aa(lp432
S'scaffold31513_cov82'
p433
aS'scaffold5259_cov70'
p434
aa(lp435
S'scaffold40887_cov133'
p436
aS'scaffold46748_cov73'
p437
aa(lp438
S'scaffold165520_cov190'
p439
aS'scaffold59464_cov122'
p440
aa(lp441
S'scaffold4555_cov123'
p442
aS'scaffold65460_cov69'
p443
aa(lp444
S'scaffold21633_cov84'
p445
aS'scaffold4019_cov99'
p446
a(lp447
I1
a(lp448
F0.220779
aaI77
aa(lp449
I1
a(lp450
F0.240506
aaI79
aa(lp451
I1
a(lp452
F0.246914
aaI81
aa(lp453
I1
a(lp454
F0.26506
aaI83
aa(lp455
I1
a(lp456
F0.277108
aaI83
aa(lp457
I1
a(lp458
F0.287356
aaI87
aa(lp459
I1
a(lp460
F0.232558
aaI86
aa(lp461
I1
a(lp462
F0.229885
aaI87
aa(lp463
I1
a(lp464
F0.232558
aaI86
aa(lp465
I1
a(lp466
F0.393617
aaI94
aa(lp467
I1
a(lp468
F0.41
aaI100
aa(lp469
I1
a(lp470
F0.349398
aaI83
aa(lp471
I1
a(lp472
F0.26087
aaI69
aa(lp473
I1
a(lp474
F0.28125
aaI64
aa(lp475
I1
a(lp476
F0.258621
aaI58
aa(lp477
I1
a(lp478
F0.37
aaI100
aa(lp479
I1
a(lp480
F0.454545
aaI110
aa(lp481
I1
a(lp482
F0.276243
aaI181
aa(lp483
I1
a(lp484
F0.628571
aaI140
aaa(lp485
S'scaffold20825_cov153'
p486
aS'scaffold24052_cov69'
p487
aa(lp488
S'scaffold14473_cov147'
p489
aS'scaffold33229_cov65'
p490
aa(lp491
S'scaffold11599_cov105'
p492
aS'scaffold61789_cov64'
p493
aa(lp494
S'scaffold192192_cov171'
p495
aS'scaffold8532_cov71'
p496
aa(lp497
S'scaffold13917_cov148'
p498
aS'scaffold28422_cov65'
p499
aa(lp500
S'scaffold53875_cov130'
p501
aS'scaffold25755_cov75'
p502
aa(lp503
S'scaffold24301_cov102'
p504
aS'scaffold15237_cov73'
p505
aa(lp506
S'scaffold22882_cov105'
p507
aS'scaffold5203_cov76'
p508
a(lp509
I1
a(lp510
F0.847826
aaI46
aa(lp511
I1
a(lp512
F0.75
aaI28
aaa(lp513
S'scaffold16120_cov143'
p514
aS'scaffold9901_cov65'
p515
aa(lp516
S'scaffold22339_cov108'
p517
aS'scaffold15124_cov63'
p518
a(lp519
I1
a(lp520
F0.415254
aaI118
aa(lp521
I1
a(lp522
F0.411765
aaI85
aaa(lp523
S'scaffold15763_cov140'
p524
aS'scaffold7011_cov67'
p525
aa(lp526
S'scaffold3674_cov106'
p527
aS'scaffold57150_cov68'
p528
aa(lp529
S'scaffold8694_cov129'
p530
aS'scaffold8135_cov71'
p531
a(lp532
I1
a(lp533
F0.311475
aaI61
aa(lp534
I1
a(lp535
F0.505376
aaI93
aaa(lp536
S'scaffold166685_cov152'
p537
aS'scaffold2832_cov75'
p538
aa(lp539
S'scaffold903_cov126'
p540
aS'scaffold1840_cov66'
p541
aa(lp542
S'scaffold12706_cov81'
p543
aS'scaffold16044_cov69'
p544
a(lp545
I1
a(lp546
F0.323529
aaI102
aa(lp547
I1
a(lp548
F0.27451
aaI102
aa(lp549
I1
a(lp550
F0.323232
aaI99
aa(lp551
I1
a(lp552
F0.275862
aaI87
aa(lp553
I1
a(lp554
F0.25
aaI80
aaa(lp555
S'scaffold34941_cov134'
p556
aS'scaffold1333_cov60'
p557
a(lp558
I1
a(lp559
F0.811321
aaI53
aaa(lp560
S'scaffold4413_cov63'
p561
aS'scaffold15975_cov67'
p562
aa(lp563
S'scaffold6820_cov103'
p564
aS'scaffold6818_cov67'
p565
a(lp566
I1
a(lp567
F0.358209
aaI67
aa(lp568
I1
a(lp569
F0.347826
aaI69
aa(lp570
I1
a(lp571
F0.352941
aaI68
aa(lp572
I1
a(lp573
F0.377049
aaI61
aa(lp574
I1
a(lp575
F0.333333
aaI81
aa(lp576
I1
a(lp577
F0.304878
aaI82
aa(lp578
I1
a(lp579
F0.27027
aaI74
aa(lp580
I1
a(lp581
F0.260274
aaI73
aa(lp582
I1
a(lp583
F0.308824
aaI68
aa(lp584
I1
a(lp585
F0.34375
aaI64
aa(lp586
I1
a(lp587
F0.25
aaI72
aa(lp588
I1
a(lp589
F0.263158
aaI76
aa(lp590
I1
a(lp591
F0.266667
aaI75
aa(lp592
I1
a(lp593
F0.256757
aaI74
aa(lp594
I1
a(lp595
F0.26087
aaI69
aa(lp596
I1
a(lp597
F0.262295
aaI61
aa(lp598
I1
a(lp599
F0.210526
aaI57
aa(lp600
I1
a(lp601
F0.207792
aaI77
aa(lp602
I1
a(lp603
F0.210526
aaI76
aa(lp604
I1
a(lp605
F0.226667
aaI75
aa(lp606
I1
a(lp607
F0.474138
aaI116
aa(lp608
I1
a(lp609
F0.495327
aaI107
aaa(lp610
S'scaffold4931_cov109'
p611
aS'scaffold2702_cov92'
p612
a(lp613
I1
a(lp614
F0.3125
aaI80
aa(lp615
I1
a(lp616
F0.320513
aaI78
aaa(lp617
S'scaffold3133_cov141'
p618
aS'scaffold30966_cov62'
p619
aa(lp620
S'scaffold6620_cov103'
p621
aS'scaffold7907_cov67'
p622
aa(lp623
S'scaffold95367_cov139'
p624
aS'scaffold95366_cov79'
p625
aa(lp626
S'scaffold9131_cov93'
p627
aS'scaffold28864_cov67'
p628
a(lp629
I1
a(lp630
F0.25
aaI12
aa(lp631
I1
a(lp632
F0.266667
aaI15
aa(lp633
I1
a(lp634
F0.266667
aaI15
aa(lp635
I1
a(lp636
F0.25
aaI16
aa(lp637
I1
a(lp638
F0.230769
aaI13
aa(lp639
I1
a(lp640
F0.25
aaI12
aa(lp641
I1
a(lp642
F0.222222
aaI9
aa(lp643
I1
a(lp644
F0.333333
aaI12
aa(lp645
I1
a(lp646
F0.571429
aaI7
aa(lp647
I1
a(lp648
F0.25
aaI8
aa(lp649
I1
a(lp650
F0.714286
aaI28
aa(lp651
I1
a(lp652
F0.285714
aaI14
aa(lp653
I1
a(lp654
F0.954545
aaI22
aaa(lp655
S'scaffold19827_cov125'
p656
aS'scaffold167515_cov69'
p657
a(lp658
I1
a(lp659
F0.336066
aaI122
aa(lp660
I1
a(lp661
F0.245763
aaI118
aa(lp662
I1
a(lp663
F0.590909
aaI44
aa(lp664
I1
a(lp665
F0.565217
aaI46
aa(lp666
I1
a(lp667
F0.541667
aaI48
aa(lp668
I1
a(lp669
F0.630769
aaI65
aaa(lp670
S'scaffold5296_cov115'
p671
aS'scaffold2979_cov71'
p672
aa(lp673
S'scaffold35735_cov102'
p674
aS'scaffold4162_cov69'
p675
a(lp676
I1
a(lp677
F0.872093
aaI86
aaa(lp678
S'scaffold36202_cov116'
p679
aS'scaffold32923_cov104'
p680
aa(lp681
S'scaffold14189_cov153'
p682
aS'scaffold2637_cov71'
p683
aa(lp684
S'scaffold1394_cov148'
p685
aS'scaffold1395_cov70'
p686
aa(lp687
S'scaffold165441_cov141'
p688
aS'scaffold2849_cov95'
p689
a(lp690
I1
a(lp691
F0.45
aaI20
aa(lp692
I1
a(lp693
F0.380952
aaI21
aa(lp694
I1
a(lp695
F0.230769
aaI13
aa(lp696
I1
a(lp697
F0.578947
aaI19
aa(lp698
I1
a(lp699
F0.619048
aaI21
aa(lp700
I1
a(lp701
F0.617021
aaI47
aa(lp702
I1
a(lp703
F0.761905
aaI42
aa(lp704
I1
a(lp705
F0.757576
aaI33
aa(lp706
I1
a(lp707
F0.896552
aaI58
aa(lp708
I1
a(lp709
F0.0
aaI60
aa(lp710
I1
a(lp711
F0.87931
aaI58
aa(lp712
I1
a(lp713
F0.864407
aaI59
aa(lp714
I1
a(lp715
F0.870968
aaI62
aa(lp716
I1
a(lp717
F0.0
aaI56
aa(lp718
I1
a(lp719
F0.875
aaI56
aa(lp720
I1
a(lp721
F0.0
aaI79
aa(lp722
I1
a(lp723
F0.685714
aaI35
aa(lp724
I1
a(lp725
F0.72973
aaI37
aa(lp726
I1
a(lp727
F0.69697
aaI33
aa(lp728
I1
a(lp729
F0.333333
aaI36
aa(lp730
I1
a(lp731
F0.642857
aaI42
aa(lp732
I1
a(lp733
F0.733333
aaI45
aa(lp734
I1
a(lp735
F0.72
aaI50
aa(lp736
I1
a(lp737
F0.8
aaI50
aaa(lp738
S'scaffold21927_cov117'
p739
aS'scaffold6252_cov71'
p740
a(lp741
I1
a(lp742
F0.213592
aaI103
aaa(lp743
S'scaffold8966_cov109'
p744
aS'scaffold3586_cov72'
p745
aa(lp746
S'scaffold514_cov77'
p747
aS'scaffold2213_cov74'
p748
aa(lp749
S'scaffold3987_cov100'
p750
aS'scaffold14924_cov62'
p751
a(lp752
I1
a(lp753
F0.9
aaI40
aaa(lp754
S'scaffold2987_cov88'
p755
aS'scaffold4224_cov73'
p756
a(lp757
I1
a(lp758
F0.421569
aaI102
aa(lp759
I1
a(lp760
F0.512195
aaI123
aa(lp761
I1
a(lp762
F0.467213
aaI122
aa(lp763
I1
a(lp764
F0.435897
aaI78
aa(lp765
I1
a(lp766
F0.4
aaI100
aa(lp767
I1
a(lp768
F0.42
aaI100
aa(lp769
I1
a(lp770
F0.392857
aaI112
aa(lp771
I1
a(lp772
F0.416667
aaI96
aa(lp773
I1
a(lp774
F0.464286
aaI84
aa(lp775
I1
a(lp776
F0.214286
aaI84
aa(lp777
I1
a(lp778
F0.8
aaI50
aaa(lp779
S'scaffold164974_cov139'
p780
aS'scaffold2833_cov61'
p781
aa(lp782
S'scaffold3477_cov108'
p783
aS'scaffold10061_cov67'
p784
aa(lp785
S'scaffold9403_cov96'
p786
aS'scaffold23269_cov69'
p787
aa(lp788
S'scaffold48176_cov76'
p789
aS'scaffold42838_cov68'
p790
aa(lp791
S'scaffold3722_cov135'
p792
aS'scaffold3719_cov67'
p793
a(lp794
I1
a(lp795
F0.213115
aaI61
aa(lp796
I1
a(lp797
F0.2
aaI60
aa(lp798
I1
a(lp799
F0.346154
aaI104
aaa(lp800
S'scaffold165461_cov100'
p801
aS'scaffold10491_cov66'
p802
aa(lp803
S'scaffold14267_cov83'
p804
aS'scaffold1125_cov68'
p805
a(lp806
I1
a(lp807
F0.3
aaI20
aa(lp808
I1
a(lp809
F0.272727
aaI11
aa(lp810
I1
a(lp811
F0.2
aaI10
aa(lp812
I1
a(lp813
F0.2
aaI10
aa(lp814
I1
a(lp815
F0.0
aaI8
aa(lp816
I1
a(lp817
F0.655172
aaI29
aa(lp818
I1
a(lp819
F0.222222
aaI9
aa(lp820
I1
a(lp821
F0.3
aaI10
aa(lp822
I1
a(lp823
F0.375
aaI8
aa(lp824
I1
a(lp825
F0.428571
aaI7
aa(lp826
I1
a(lp827
F0.428571
aaI7
aa(lp828
I1
a(lp829
F0.333333
aaI9
aa(lp830
I1
a(lp831
F0.285714
aaI14
aa(lp832
I1
a(lp833
F0.666667
aaI21
aa(lp834
I1
a(lp835
F0.714286
aaI21
aa(lp836
I1
a(lp837
F0.6
aaI20
aa(lp838
I1
a(lp839
F0.6
aaI20
aa(lp840
I1
a(lp841
F0.5625
aaI16
aa(lp842
I1
a(lp843
F0.75
aaI16
aa(lp844
I1
a(lp845
F0.529412
aaI17
aa(lp846
I1
a(lp847
F0.272727
aaI11
aa(lp848
I1
a(lp849
F0.285714
aaI14
aa(lp850
I1
a(lp851
F0.285714
aaI14
aa(lp852
I1
a(lp853
F0.285714
aaI14
aa(lp854
I1
a(lp855
F0.804348
aaI46
aa(lp856
I1
a(lp857
F0.634146
aaI41
aa(lp858
I1
a(lp859
F0.653061
aaI49
aa(lp860
I1
a(lp861
F0.444444
aaI18
aa(lp862
I1
a(lp863
F0.619048
aaI21
aa(lp864
I1
a(lp865
F0.272727
aaI11
aa(lp866
I1
a(lp867
F0.469945
aaI183
aaa(lp868
S'scaffold32619_cov118'
p869
aS'scaffold20061_cov80'
p870
a(lp871
I1
a(lp872
F0.478632
aaI117
aa(lp873
I1
a(lp874
F0.5
aaI118
aa(lp875
I1
a(lp876
F0.346667
aaI75
aaa(lp877
S'scaffold3738_cov114'
p878
aS'scaffold11440_cov66'
p879
aa(lp880
S'scaffold11968_cov142'
p881
aS'scaffold3404_cov63'
p882
aa(lp883
S'scaffold4957_cov147'
p884
aS'scaffold2304_cov67'
p885
aa(lp886
S'scaffold6014_cov96'
p887
aS'scaffold69980_cov67'
p888
aa(lp889
S'scaffold117137_cov65'
p890
aS'scaffold17627_cov105'
p891
aa(lp892
S'scaffold165395_cov77'
p893
aS'scaffold42402_cov68'
p894
a(lp895
I1
a(lp896
F0.224138
aaI58
aaa(lp897
S'scaffold12770_cov157'
p898
aS'scaffold21646_cov62'
p899
aa(lp900
S'scaffold2416_cov137'
p901
aS'scaffold16788_cov63'
p902
aa(lp903
S'scaffold167565_cov117'
p904
aS'scaffold893_cov66'
p905
aa(lp906
S'scaffold49558_cov135'
p907
aS'scaffold10462_cov135'
p908
aa(lp909
S'scaffold25651_cov100'
p910
aS'scaffold46961_cov69'
p911
aa(lp912
S'scaffold14527_cov64'
p913
aS'scaffold14528_cov66'
p914
aa(lp915
S'scaffold3122_cov145'
p916
aS'scaffold3123_cov67'
p917
aa(lp918
S'scaffold8282_cov147'
p919
aS'scaffold8279_cov69'
p920
aa(lp921
S'scaffold903_cov126'
p922
aS'scaffold900_cov65'
p923
aa(lp924
S'scaffold26778_cov137'
p925
aS'scaffold13891_cov62'
p926
aa(lp927
S'scaffold7194_cov116'
p928
aS'scaffold6437_cov66'
p929
aa(lp930
S'scaffold33427_cov79'
p931
aS'scaffold1498_cov63'
p932
a(lp933
I1
a(lp934
F0.359223
aaI103
aaa(lp935
S'scaffold70862_cov124'
p936
aS'scaffold34357_cov65'
p937
aa(lp938
S'scaffold14197_cov99'
p939
aS'scaffold6524_cov65'
p940
a(lp941
I1
a(lp942
F0.5
aaI14
aa(lp943
I1
a(lp944
F0.583333
aaI12
aa(lp945
I1
a(lp946
F0.375
aaI16
aa(lp947
I1
a(lp948
F0.375
aaI16
aa(lp949
I1
a(lp950
F0.48
aaI25
aa(lp951
I1
a(lp952
F0.708333
aaI48
aa(lp953
I1
a(lp954
F0.708333
aaI48
aa(lp955
I1
a(lp956
F0.826087
aaI23
aa(lp957
I1
a(lp958
F0.611111
aaI18
aa(lp959
I1
a(lp960
F0.45
aaI20
aa(lp961
I1
a(lp962
F0.285714
aaI14
aa(lp963
I1
a(lp964
F0.25
aaI12
aa(lp965
I1
a(lp966
F0.305556
aaI36
aaa(lp967
S'scaffold15885_cov116'
p968
aS'scaffold15073_cov71'
p969
a(lp970
I1
a(lp971
F0.475728
aaI103
aa(lp972
I1
a(lp973
F0.254902
aaI102
aa(lp974
I1
a(lp975
F0.442029
aaI138
aaa(lp976
S'scaffold3010_cov130'
p977
aS'scaffold3009_cov66'
p978
a(lp979
I1
a(lp980
F0.0
aaI14
aa(lp981
I1
a(lp982
F0.571429
aaI21
aa(lp983
I1
a(lp984
F0.5625
aaI16
aa(lp985
I1
a(lp986
F0.5625
aaI16
aaa(lp987
S'scaffold34740_cov99'
p988
aS'scaffold10321_cov72'
p989
aa(lp990
S'scaffold45626_cov132'
p991
aS'scaffold26610_cov67'
p992
aa(lp993
S'scaffold19276_cov115'
p994
aS'scaffold33185_cov125'
p995
aa(lp996
S'scaffold13917_cov148'
p997
aS'scaffold5199_cov65'
p998
aa(lp999
S'scaffold4489_cov91'
p1000
aS'scaffold166706_cov72'
p1001
aa(lp1002
S'scaffold23696_cov107'
p1003
aS'scaffold46569_cov79'
p1004
aa(lp1005
S'scaffold14010_cov120'
p1006
aS'scaffold9558_cov65'
p1007
a(lp1008
I1
a(lp1009
F0.0
aaI62
aaa(lp1010
S'scaffold7174_cov138'
p1011
aS'scaffold6615_cov72'
p1012
a(lp1013
I1
a(lp1014
F0.233333
aaI60
aa(lp1015
I1
a(lp1016
F0.0
aaI14
aaa(lp1017
S'scaffold8983_cov110'
p1018
aS'scaffold5722_cov65'
p1019
aa(lp1020
S'scaffold165507_cov120'
p1021
aS'scaffold1649_cov91'
p1022
a(lp1023
I1
a(lp1024
F0.321101
aaI109
aa(lp1025
I1
a(lp1026
F0.26087
aaI92
aa(lp1027
I1
a(lp1028
F0.243243
aaI74
aa(lp1029
I1
a(lp1030
F0.271739
aaI92
aa(lp1031
I1
a(lp1032
F0.233333
aaI60
aa(lp1033
I1
a(lp1034
F0.263158
aaI57
aa(lp1035
I1
a(lp1036
F0.230769
aaI65
aa(lp1037
I1
a(lp1038
F0.287234
aaI94
aa(lp1039
I1
a(lp1040
F0.456311
aaI103
aa(lp1041
I1
a(lp1042
F0.390909
aaI110
aa(lp1043
I1
a(lp1044
F0.439394
aaI66
aa(lp1045
I1
a(lp1046
F0.484536
aaI97
aa(lp1047
I1
a(lp1048
F0.28
aaI100
aa(lp1049
I1
a(lp1050
F0.344444
aaI90
aa(lp1051
I1
a(lp1052
F0.275
aaI80
aa(lp1053
I1
a(lp1054
F0.210526
aaI76
aa(lp1055
I1
a(lp1056
F0.307692
aaI91
aa(lp1057
I1
a(lp1058
F0.271739
aaI92
aa(lp1059
I1
a(lp1060
F0.267327
aaI101
aa(lp1061
I1
a(lp1062
F0.277108
aaI83
aa(lp1063
I1
a(lp1064
F0.291139
aaI79
aa(lp1065
I1
a(lp1066
F0.27381
aaI84
aa(lp1067
I1
a(lp1068
F0.263736
aaI91
aa(lp1069
I1
a(lp1070
F0.305263
aaI95
aa(lp1071
I1
a(lp1072
F0.288889
aaI90
aa(lp1073
I1
a(lp1074
F0.290698
aaI86
aa(lp1075
I1
a(lp1076
F0.380435
aaI92
aaa(lp1077
S'scaffold7147_cov103'
p1078
aS'scaffold7146_cov65'
p1079
a(lp1080
I1
a(lp1081
F0.435897
aaI78
aaa(lp1082
S'scaffold166767_cov133'
p1083
aS'scaffold166788_cov64'
p1084
aa(lp1085
S'scaffold14010_cov120'
p1086
aS'scaffold20924_cov70'
p1087
aa(lp1088
S'scaffold14968_cov70'
p1089
aS'scaffold5208_cov124'
p1090
aa(lp1091
S'scaffold33079_cov127'
p1092
aS'scaffold21398_cov73'
p1093
aa(lp1094
S'scaffold45339_cov132'
p1095
aS'scaffold5542_cov64'
p1096
aa(lp1097
S'scaffold37263_cov117'
p1098
aS'scaffold4202_cov67'
p1099
a(lp1100
I1
a(lp1101
F0.246154
aaI65
aa(lp1102
I1
a(lp1103
F0.302326
aaI86
aa(lp1104
I1
a(lp1105
F0.284091
aaI88
aa(lp1106
I1
a(lp1107
F0.296703
aaI91
aa(lp1108
I1
a(lp1109
F0.280899
aaI89
aa(lp1110
I1
a(lp1111
F0.259259
aaI81
aa(lp1112
I1
a(lp1113
F0.301075
aaI93
aa(lp1114
I1
a(lp1115
F0.28866
aaI97
aa(lp1116
I1
a(lp1117
F0.284091
aaI88
aa(lp1118
I1
a(lp1119
F0.357143
aaI98
aa(lp1120
I1
a(lp1121
F0.353535
aaI99
aa(lp1122
I1
a(lp1123
F0.385965
aaI114
aa(lp1124
I1
a(lp1125
F0.511628
aaI129
aa(lp1126
I1
a(lp1127
F0.458333
aaI120
aa(lp1128
I1
a(lp1129
F0.474138
aaI116
aa(lp1130
I1
a(lp1131
F0.483871
aaI124
aaa(lp1132
S'scaffold62223_cov138'
p1133
aS'scaffold41553_cov82'
p1134
aa(lp1135
S'scaffold167537_cov112'
p1136
aS'scaffold540_cov68'
p1137
a(lp1138
I1
a(lp1139
F0.0
aaI56
aaa(lp1140
S'scaffold1030_cov88'
p1141
aS'scaffold20924_cov70'
p1142
a(lp1143
I1
a(lp1144
F0.323529
aaI68
aaa(lp1145
S'scaffold5060_cov136'
p1146
aS'scaffold5059_cov70'
p1147
a(lp1148
I1
a(lp1149
F0.818182
aaI44
aaa(lp1150
S'scaffold2398_cov98'
p1151
aS'scaffold2617_cov76'
p1152
a(lp1153
I1
a(lp1154
F0.6
aaI75
aa(lp1155
I1
a(lp1156
F0.6
aaI75
aa(lp1157
I1
a(lp1158
F0.232877
aaI73
aa(lp1159
I1
a(lp1160
F0.236111
aaI72
aa(lp1161
I1
a(lp1162
F0.0
aaI70
aa(lp1163
I1
a(lp1164
F0.24
aaI75
aa(lp1165
I1
a(lp1166
F0.236842
aaI76
aa(lp1167
I1
a(lp1168
F0.24
aaI75
aa(lp1169
I1
a(lp1170
F0.25
aaI80
aa(lp1171
I1
a(lp1172
F0.451389
aaI144
aa(lp1173
I1
a(lp1174
F0.267241
aaI116
aa(lp1175
I1
a(lp1176
F0.384
aaI125
aa(lp1177
I1
a(lp1178
F0.457364
aaI129
aa(lp1179
I1
a(lp1180
F0.333333
aaI168
aa(lp1181
I1
a(lp1182
F0.422414
aaI116
aa(lp1183
I1
a(lp1184
F0.270833
aaI96
aa(lp1185
I1
a(lp1186
F0.306931
aaI101
aaa(lp1187
S'scaffold9303_cov137'
p1188
aS'scaffold3018_cov62'
p1189
aa(lp1190
S'scaffold28224_cov147'
p1191
aS'scaffold166774_cov71'
p1192
aa(lp1193
S'scaffold165413_cov124'
p1194
aS'scaffold1323_cov67'
p1195
aa(lp1196
S'scaffold1637_cov151'
p1197
aS'scaffold20670_cov68'
p1198
aa(lp1199
S'scaffold36067_cov121'
p1200
aS'scaffold10421_cov69'
p1201
aa(lp1202
S'scaffold9037_cov132'
p1203
aS'scaffold7705_cov77'
p1204
aa(lp1205
S'scaffold38008_cov141'
p1206
aS'scaffold5960_cov65'
p1207
aa(lp1208
S'scaffold7174_cov138'
p1209
aS'scaffold2501_cov70'
p1210
aa(lp1211
S'scaffold7264_cov122'
p1212
aS'scaffold10275_cov68'
p1213
aa(lp1214
S'scaffold90706_cov103'
p1215
aS'scaffold2061_cov67'
p1216
a(lp1217
I1
a(lp1218
F0.314607
aaI89
aa(lp1219
I1
a(lp1220
F0.304348
aaI92
aa(lp1221
I1
a(lp1222
F0.353659
aaI82
aa(lp1223
I1
a(lp1224
F0.375
aaI80
aa(lp1225
I1
a(lp1226
F0.785714
aaI42
aa(lp1227
I1
a(lp1228
F0.21519
aaI79
aa(lp1229
I1
a(lp1230
F0.898855
aaI524
aa(lp1231
I1
a(lp1232
F0.202703
aaI74
aa(lp1233
I1
a(lp1234
F0.219512
aaI82
aa(lp1235
I1
a(lp1236
F0.208333
aaI72
aa(lp1237
I1
a(lp1238
F0.353448
aaI116
aaa(lp1239
S'scaffold8011_cov68'
p1240
aS'scaffold20641_cov90'
p1241
aa(lp1242
S'scaffold25662_cov161'
p1243
aS'scaffold25660_cov79'
p1244
aa(lp1245
S'scaffold3559_cov143'
p1246
aS'scaffold9683_cov69'
p1247
a(lp1248
I1
a(lp1249
F0.5
aaI4
aaa(lp1250
S'scaffold25492_cov142'
p1251
aS'scaffold24079_cov69'
p1252
a(lp1253
I1
a(lp1254
F0.373737
aaI99
aa(lp1255
I1
a(lp1256
F0.349057
aaI106
aaa(lp1257
S'scaffold18420_cov96'
p1258
aS'scaffold167535_cov101'
p1259
a(lp1260
I1
a(lp1261
F0.256757
aaI74
aa(lp1262
I1
a(lp1263
F0.486957
aaI115
aa(lp1264
I1
a(lp1265
F0.238806
aaI67
aa(lp1266
I1
a(lp1267
F0.276923
aaI65
aa(lp1268
I1
a(lp1269
F0.287879
aaI66
aaa(lp1270
S'scaffold51750_cov85'
p1271
aS'scaffold39128_cov65'
p1272
aa(lp1273
S'scaffold9703_cov100'
p1274
aS'scaffold166756_cov71'
p1275
aa(lp1276
S'scaffold12601_cov106'
p1277
aS'scaffold12765_cov63'
p1278
a(lp1279
I1
a(lp1280
F0.228916
aaI83
aaa(lp1281
S'scaffold4941_cov130'
p1282
aS'scaffold29738_cov68'
p1283
aa(lp1284
S'scaffold9324_cov148'
p1285
aS'scaffold9325_cov63'
p1286
aa(lp1287
S'scaffold29312_cov132'
p1288
aS'scaffold9996_cov69'
p1289
aa(lp1290
S'scaffold17051_cov101'
p1291
aS'scaffold2939_cov64'
p1292
aa(lp1293
S'scaffold10858_cov149'
p1294
aS'scaffold10857_cov70'
p1295
aa(lp1296
S'scaffold43497_cov152'
p1297
aS'scaffold48022_cov63'
p1298
aa(lp1299
S'scaffold6824_cov114'
p1300
aS'scaffold542_cov70'
p1301
a(lp1302
I1
a(lp1303
F0.78
aaI50
aaa(lp1304
S'scaffold10713_cov124'
p1305
aS'scaffold4604_cov80'
p1306
a(lp1307
I1
a(lp1308
F0.740741
aaI27
aaa(lp1309
S'scaffold21338_cov100'
p1310
aS'scaffold8647_cov65'
p1311
a(lp1312
I1
a(lp1313
F0.206897
aaI58
aaa(lp1314
S'scaffold18416_cov135'
p1315
aS'scaffold16862_cov66'
p1316
aa(lp1317
S'scaffold17874_cov144'
p1318
aS'scaffold38164_cov70'
p1319
aa(lp1320
S'scaffold19924_cov91'
p1321
aS'scaffold10385_cov64'
p1322
a(lp1323
I1
a(lp1324
F0.2125
aaI80
aa(lp1325
I1
a(lp1326
F0.213333
aaI75
aaa(lp1327
S'scaffold1491_cov109'
p1328
aS'scaffold3256_cov68'
p1329
a(lp1330
I1
a(lp1331
F0.379747
aaI79
aa(lp1332
I1
a(lp1333
F0.449541
aaI109
aaa(lp1334
S'scaffold167598_cov96'
p1335
aS'scaffold7183_cov82'
p1336
a(lp1337
I1
a(lp1338
F0.222222
aaI72
aaa(lp1339
S'scaffold3807_cov105'
p1340
aS'scaffold3967_cov66'
p1341
aa(lp1342
S'scaffold182819_cov255'
p1343
aS'scaffold2675_cov72'
p1344
aa(lp1345
S'scaffold1354_cov130'
p1346
aS'scaffold8335_cov68'
p1347
aa(lp1348
S'scaffold77207_cov117'
p1349
aS'scaffold43353_cov68'
p1350
aa(lp1351
S'scaffold36663_cov134'
p1352
aS'scaffold75670_cov64'
p1353
aa(lp1354
S'scaffold843_cov127'
p1355
aS'scaffold844_cov69'
p1356
a(lp1357
I1
a(lp1358
F0.231884
aaI69
aaa(lp1359
S'scaffold6481_cov91'
p1360
aS'scaffold47796_cov64'
p1361
aa(lp1362
S'scaffold10670_cov88'
p1363
aS'scaffold7453_cov60'
p1364
a(lp1365
I1
a(lp1366
F0.226804
aaI97
aaa(lp1367
S'scaffold18912_cov140'
p1368
aS'scaffold18914_cov65'
p1369
aa(lp1370
S'scaffold3349_cov142'
p1371
aS'scaffold5670_cov74'
p1372
aa(lp1373
S'scaffold11081_cov88'
p1374
aS'scaffold26032_cov70'
p1375
a(lp1376
I1
a(lp1377
F0.388235
aaI85
aa(lp1378
I1
a(lp1379
F0.416667
aaI84
aa(lp1380
I1
a(lp1381
F0.441558
aaI77
aa(lp1382
I1
a(lp1383
F0.467532
aaI77
aa(lp1384
I1
a(lp1385
F0.507042
aaI71
aaa(lp1386
S'scaffold2048_cov125'
p1387
aS'scaffold7977_cov71'
p1388
a(lp1389
I1
a(lp1390
F0.28
aaI75
aaa(lp1391
S'scaffold11204_cov106'
p1392
aS'scaffold30140_cov63'
p1393
a(lp1394
I1
a(lp1395
F0.0
aaI47
aa(lp1396
I1
a(lp1397
F0.0
aaI44
aa(lp1398
I1
a(lp1399
F0.0
aaI48
aa(lp1400
I1
a(lp1401
F0.346667
aaI75
aa(lp1402
I1
a(lp1403
F0.223881
aaI67
aaa(lp1404
S'scaffold167504_cov85'
p1405
aS'scaffold17931_cov63'
p1406
aa(lp1407
S'scaffold6426_cov139'
p1408
aS'scaffold6427_cov67'
p1409
aa(lp1410
S'scaffold165417_cov143'
p1411
aS'scaffold16672_cov63'
p1412
aa(lp1413
S'scaffold36663_cov134'
p1414
aS'scaffold30167_cov70'
p1415
a(lp1416
I1
a(lp1417
F0.231707
aaI82
aa(lp1418
I1
a(lp1419
F0.548223
aaI197
aa(lp1420
I1
a(lp1421
F0.223529
aaI85
aaa(lp1422
S'scaffold18584_cov139'
p1423
aS'scaffold15986_cov63'
p1424
aa(lp1425
S'scaffold73411_cov102'
p1426
aS'scaffold25947_cov73'
p1427
aa(lp1428
S'scaffold14567_cov126'
p1429
aS'scaffold42400_cov69'
p1430
aa(lp1431
S'scaffold6704_cov127'
p1432
aS'scaffold6524_cov65'
p1433
a(lp1434
I1
a(lp1435
F0.416667
aaI12
aa(lp1436
I1
a(lp1437
F0.416667
aaI12
aa(lp1438
I1
a(lp1439
F0.363636
aaI11
aa(lp1440
I1
a(lp1441
F0.416667
aaI12
aa(lp1442
I1
a(lp1443
F0.307692
aaI13
aag945
ag947
a(lp1444
I1
a(lp1445
F0.375
aaI16
aa(lp1446
I1
a(lp1447
F0.3
aaI20
aa(lp1448
I1
a(lp1449
F0.461538
aaI26
aa(lp1450
I1
a(lp1451
F0.461538
aaI26
aa(lp1452
I1
a(lp1453
F0.464286
aaI28
aa(lp1454
I1
a(lp1455
F0.571429
aaI28
aa(lp1456
I1
a(lp1457
F0.592593
aaI27
aa(lp1458
I1
a(lp1459
F0.8
aaI20
aa(lp1460
I1
a(lp1461
F0.2
aaI10
aa(lp1462
I1
a(lp1463
F0.307692
aaI13
aa(lp1464
I1
a(lp1465
F0.571429
aaI7
aa(lp1466
I1
a(lp1467
F0.5
aaI8
aa(lp1468
I1
a(lp1469
F0.5
aaI8
aa(lp1470
I1
a(lp1471
F0.545455
aaI22
aa(lp1472
I1
a(lp1473
F0.5
aaI20
aa(lp1474
I1
a(lp1475
F0.428571
aaI21
aa(lp1476
I1
a(lp1477
F0.5
aaI22
aa(lp1478
I1
a(lp1479
F0.5
aaI22
aa(lp1480
I1
a(lp1481
F0.4375
aaI16
aa(lp1482
I1
a(lp1483
F0.384615
aaI13
aa(lp1484
I1
a(lp1485
F0.416667
aaI12
aa(lp1486
I1
a(lp1487
F0.222222
aaI9
aa(lp1488
I1
a(lp1489
F0.619048
aaI21
aaa(lp1490
S'scaffold18457_cov115'
p1491
aS'scaffold32162_cov89'
p1492
a(lp1493
I1
a(lp1494
F0.358779
aaI131
aa(lp1495
I1
a(lp1496
F0.247863
aaI117
aa(lp1497
I1
a(lp1498
F0.272727
aaI88
aa(lp1499
I1
a(lp1500
F0.325581
aaI86
aa(lp1501
I1
a(lp1502
F0.3
aaI90
aaa(lp1503
S'scaffold1978_cov92'
p1504
aS'scaffold2699_cov70'
p1505
a(lp1506
I1
a(lp1507
F0.320388
aaI103
aa(lp1508
I1
a(lp1509
F0.21519
aaI79
aa(lp1510
I1
a(lp1511
F0.2
aaI80
aa(lp1512
I1
a(lp1513
F0.794521
aaI73
aa(lp1514
I1
a(lp1515
F0.282609
aaI46
aa(lp1516
I1
a(lp1517
F0.807018
aaI57
aa(lp1518
I1
a(lp1519
F0.833333
aaI48
aa(lp1520
I1
a(lp1521
F0.702703
aaI37
aa(lp1522
I1
a(lp1523
F0.675676
aaI37
aa(lp1524
I1
a(lp1525
F0.75
aaI40
aa(lp1526
I1
a(lp1527
F0.75
aaI36
aaa(lp1528
S'scaffold43863_cov126'
p1529
aS'scaffold7672_cov74'
p1530
a(lp1531
I1
a(lp1532
F0.235955
aaI89
aa(lp1533
I1
a(lp1534
F0.22
aaI100
aa(lp1535
I1
a(lp1536
F0.354167
aaI96
aa(lp1537
I1
a(lp1538
F0.246753
aaI77
aa(lp1539
I1
a(lp1540
F0.495798
aaI119
aa(lp1541
I1
a(lp1542
F0.387097
aaI93
aa(lp1543
I1
a(lp1544
F0.280488
aaI82
aa(lp1545
I1
a(lp1546
F0.228916
aaI83
aa(lp1547
I1
a(lp1548
F0.295918
aaI98
aa(lp1549
I1
a(lp1550
F0.206897
aaI58
aa(lp1551
I1
a(lp1552
F0.206897
aaI58
aa(lp1553
I1
a(lp1554
F0.236364
aaI55
aa(lp1555
I1
a(lp1556
F0.329897
aaI97
aaa(lp1557
S'scaffold10581_cov98'
p1558
aS'scaffold17516_cov69'
p1559
a(lp1560
I1
a(lp1561
F0.273973
aaI73
aa(lp1562
I1
a(lp1563
F0.329268
aaI82
aaa(lp1564
S'scaffold4107_cov90'
p1565
aS'scaffold6409_cov65'
p1566
aa(lp1567
S'scaffold165573_cov134'
p1568
aS'scaffold6928_cov65'
p1569
aa(lp1570
S'scaffold721_cov134'
p1571
aS'scaffold720_cov79'
p1572
aa(lp1573
S'scaffold9757_cov95'
p1574
aS'scaffold3630_cov66'
p1575
a(lp1576
I1
a(lp1577
F0.326733
aaI101
aaa(lp1578
S'scaffold18542_cov139'
p1579
aS'scaffold26015_cov66'
p1580
aa(lp1581
S'scaffold4321_cov104'
p1582
aS'scaffold9387_cov68'
p1583
aa(lp1584
S'scaffold167650_cov100'
p1585
aS'scaffold21768_cov66'
p1586
a(lp1587
I1
a(lp1588
F0.892308
aaI65
aa(lp1589
I1
a(lp1590
F0.887097
aaI62
aa(lp1591
I1
a(lp1592
F0.0
aaI65
aaa(lp1593
S'scaffold34203_cov139'
p1594
aS'scaffold18396_cov65'
p1595
aa(lp1596
S'scaffold3745_cov115'
p1597
aS'scaffold7430_cov66'
p1598
a(lp1599
I1
a(lp1600
F0.261364
aaI88
aa(lp1601
I1
a(lp1602
F0.219512
aaI82
aa(lp1603
I1
a(lp1604
F0.283951
aaI81
aaa(lp1605
S'scaffold181240_cov148'
p1606
aS'scaffold59620_cov74'
p1607
aa(lp1608
S'scaffold27354_cov105'
p1609
aS'scaffold16165_cov73'
p1610
aa(lp1611
S'scaffold11499_cov143'
p1612
aS'scaffold19165_cov65'
p1613
aa(lp1614
S'scaffold166682_cov143'
p1615
aS'scaffold374_cov71'
p1616
a(lp1617
I1
a(lp1618
F0.853659
aaI41
aa(lp1619
I1
a(lp1620
F0.220339
aaI59
aa(lp1621
I1
a(lp1622
F0.238095
aaI63
aa(lp1623
I1
a(lp1624
F0.237288
aaI59
aa(lp1625
I1
a(lp1626
F0.241935
aaI62
aa(lp1627
I1
a(lp1628
F0.25
aaI64
aa(lp1629
I1
a(lp1630
F0.471264
aaI87
aa(lp1631
I1
a(lp1632
F0.478723
aaI94
aaa(lp1633
S'scaffold167515_cov69'
p1634
aS'scaffold1497_cov69'
p1635
aa(lp1636
S'scaffold11274_cov111'
p1637
aS'scaffold2804_cov69'
p1638
aa(lp1639
S'scaffold73058_cov93'
p1640
aS'scaffold5775_cov75'
p1641
a(lp1642
I1
a(lp1643
F0.216418
aaI134
aa(lp1644
I1
a(lp1645
F0.238532
aaI109
aa(lp1646
I1
a(lp1647
F0.588608
aaI158
aa(lp1648
I1
a(lp1649
F0.56
aaI125
aa(lp1650
I1
a(lp1651
F0.629921
aaI127
aa(lp1652
I1
a(lp1653
F0.287879
aaI132
aaa(lp1654
S'scaffold3566_cov79'
p1655
aS'scaffold4610_cov62'
p1656
aa(lp1657
S'scaffold12892_cov134'
p1658
aS'scaffold47938_cov75'
p1659
aa(lp1660
S'scaffold4939_cov152'
p1661
aS'scaffold4940_cov72'
p1662
aa(lp1663
S'scaffold13862_cov109'
p1664
aS'scaffold8878_cov69'
p1665
aa(lp1666
S'scaffold166331_cov132'
p1667
aS'scaffold8565_cov73'
p1668
a(lp1669
I1
a(lp1670
F0.254545
aaI55
aa(lp1671
I1
a(lp1672
F0.657895
aaI38
aa(lp1673
I1
a(lp1674
F0.685714
aaI35
aa(lp1675
I1
a(lp1676
F0.742857
aaI35
aaa(lp1677
S'scaffold14578_cov124'
p1678
aS'scaffold14579_cov112'
p1679
a(lp1680
I1
a(lp1681
F0.727273
aaI33
aa(lp1682
I1
a(lp1683
F0.6875
aaI32
aa(lp1684
I1
a(lp1685
F0.521739
aaI23
aa(lp1686
I1
a(lp1687
F0.247059
aaI170
aa(lp1688
I1
a(lp1689
F0.764706
aaI68
aaa(lp1690
S'scaffold26431_cov130'
p1691
aS'scaffold15686_cov66'
p1692
aa(lp1693
S'scaffold9117_cov151'
p1694
aS'scaffold9115_cov70'
p1695
aa(lp1696
S'scaffold1006_cov111'
p1697
aS'scaffold1003_cov64'
p1698
a(lp1699
I1
a(lp1700
F0.0
aaI52
aaa(lp1701
S'scaffold7298_cov66'
p1702
aS'scaffold5572_cov101'
p1703
a(lp1704
I1
a(lp1705
F0.25
aaI16
aa(lp1706
I1
a(lp1707
F0.272727
aaI11
aa(lp1708
I1
a(lp1709
F0.272727
aaI11
aa(lp1710
I1
a(lp1711
F0.285714
aaI7
aa(lp1712
I1
a(lp1713
F0.285714
aaI7
aa(lp1714
I1
a(lp1715
F0.540541
aaI37
aa(lp1716
I1
a(lp1717
F0.714286
aaI28
aa(lp1718
I1
a(lp1719
F0.857143
aaI35
aa(lp1720
I1
a(lp1721
F0.846154
aaI39
aaa(lp1722
S'scaffold19598_cov123'
p1723
aS'scaffold12870_cov60'
p1724
aa(lp1725
S'scaffold57805_cov71'
p1726
aS'scaffold166809_cov123'
p1727
aa(lp1728
S'scaffold6206_cov112'
p1729
aS'scaffold19927_cov67'
p1730
aa(lp1731
S'scaffold1808_cov87'
p1732
aS'scaffold18178_cov78'
p1733
aa(lp1734
S'scaffold4678_cov116'
p1735
aS'scaffold46295_cov125'
p1736
aa(lp1737
S'scaffold3133_cov141'
p1738
aS'scaffold3135_cov68'
p1739
a(lp1740
I1
a(lp1741
F0.0
aaI9
aa(lp1742
I1
a(lp1743
F0.3
aaI10
aa(lp1744
I1
a(lp1745
F0.5
aaI24
aaa(lp1746
S'scaffold182_cov83'
p1747
aS'scaffold16044_cov69'
p1748
aa(lp1749
S'scaffold20825_cov153'
p1750
aS'scaffold20824_cov72'
p1751
aa(lp1752
S'scaffold94664_cov148'
p1753
aS'scaffold11692_cov72'
p1754
aa(lp1755
S'scaffold45520_cov151'
p1756
aS'scaffold45518_cov71'
p1757
aa(lp1758
S'scaffold49421_cov62'
p1759
aS'scaffold1071_cov92'
p1760
a(lp1761
I1
a(lp1762
F0.75
aaI4
aa(lp1763
I1
a(lp1764
F0.0
aaI2
aaa(lp1765
S'scaffold3432_cov123'
p1766
aS'scaffold3406_cov67'
p1767
a(lp1768
I1
a(lp1769
F0.212121
aaI66
aa(lp1770
I1
a(lp1771
F0.328947
aaI76
aa(lp1772
I1
a(lp1773
F0.375
aaI64
aa(lp1774
I1
a(lp1775
F0.428571
aaI63
aa(lp1776
I1
a(lp1777
F0.573034
aaI89
aa(lp1778
I1
a(lp1779
F0.365385
aaI52
aa(lp1780
I1
a(lp1781
F0.354167
aaI48
aa(lp1782
I1
a(lp1783
F0.412698
aaI63
aa(lp1784
I1
a(lp1785
F0.205882
aaI68
aa(lp1786
I1
a(lp1787
F0.267857
aaI56
aa(lp1788
I1
a(lp1789
F0.245283
aaI53
aa(lp1790
I1
a(lp1791
F0.265625
aaI64
aa(lp1792
I1
a(lp1793
F0.257576
aaI66
aa(lp1794
I1
a(lp1795
F0.247706
aaI109
aa(lp1796
I1
a(lp1797
F0.25
aaI72
aaa(lp1798
S'scaffold12001_cov141'
p1799
aS'scaffold12003_cov68'
p1800
aa(lp1801
S'scaffold5456_cov152'
p1802
aS'scaffold67160_cov58'
p1803
aa(lp1804
S'scaffold166729_cov102'
p1805
aS'scaffold165425_cov72'
p1806
aa(lp1807
S'scaffold21534_cov145'
p1808
aS'scaffold21531_cov67'
p1809
aa(lp1810
S'scaffold9312_cov104'
p1811
aS'scaffold35511_cov69'
p1812
aa(lp1813
S'scaffold55111_cov144'
p1814
aS'scaffold55112_cov70'
p1815
aa(lp1816
S'scaffold25594_cov137'
p1817
aS'scaffold19109_cov84'
p1818
a(lp1819
I1
a(lp1820
F0.278788
aaI165
aa(lp1821
I1
a(lp1822
F0.234568
aaI162
aa(lp1823
I1
a(lp1824
F0.251497
aaI167
aa(lp1825
I1
a(lp1826
F0.247059
aaI170
aa(lp1827
I1
a(lp1828
F0.24
aaI175
aa(lp1829
I1
a(lp1830
F0.248447
aaI161
aa(lp1831
I1
a(lp1832
F0.23125
aaI160
aa(lp1833
I1
a(lp1834
F0.276243
aaI181
aa(lp1835
I1
a(lp1836
F0.220859
aaI163
aa(lp1837
I1
a(lp1838
F0.209302
aaI172
aa(lp1839
I1
a(lp1840
F0.323077
aaI195
aa(lp1841
I1
a(lp1842
F0.314433
aaI194
aaa(lp1843
S'scaffold12903_cov71'
p1844
aS'scaffold10491_cov66'
p1845
aa(lp1846
S'scaffold33902_cov94'
p1847
aS'scaffold8504_cov71'
p1848
aa(lp1849
S'scaffold27219_cov142'
p1850
aS'scaffold16554_cov65'
p1851
aa(lp1852
S'scaffold165434_cov141'
p1853
aS'scaffold29886_cov66'
p1854
a(lp1855
I1
a(lp1856
F0.222222
aaI9
aa(lp1857
I1
a(lp1858
F0.272727
aaI11
aa(lp1859
I1
a(lp1860
F0.272727
aaI11
aa(lp1861
I1
a(lp1862
F0.4
aaI15
aa(lp1863
I1
a(lp1864
F0.294118
aaI17
aa(lp1865
I1
a(lp1866
F0.0
aaI10
aa(lp1867
I1
a(lp1868
F0.717949
aaI39
aa(lp1869
I1
a(lp1870
F0.3125
aaI16
aa(lp1871
I1
a(lp1872
F0.25
aaI16
aa(lp1873
I1
a(lp1874
F0.25
aaI16
aa(lp1875
I1
a(lp1876
F0.272727
aaI11
aa(lp1877
I1
a(lp1878
F0.3
aaI10
aa(lp1879
I1
a(lp1880
F0.3
aaI10
aaa(lp1881
S'scaffold1435_cov93'
p1882
aS'scaffold4122_cov62'
p1883
a(lp1884
I1
a(lp1885
F0.214286
aaI14
aa(lp1886
I1
a(lp1887
F0.24
aaI75
aaa(lp1888
S'scaffold95123_cov91'
p1889
aS'scaffold2350_cov77'
p1890
a(lp1891
I1
a(lp1892
F0.0
aaI45
aa(lp1893
I1
a(lp1894
F0.0
aaI42
aaa(lp1895
S'scaffold11842_cov94'
p1896
aS'scaffold158_cov68'
p1897
a(lp1898
I1
a(lp1899
F0.214286
aaI84
aa(lp1900
I1
a(lp1901
F0.271605
aaI81
aaa(lp1902
S'scaffold34153_cov147'
p1903
aS'scaffold48213_cov76'
p1904
aa(lp1905
S'scaffold141950_cov79'
p1906
aS'scaffold9327_cov109'
p1907
aa(lp1908
S'scaffold7481_cov74'
p1909
aS'scaffold89446_cov79'
p1910
aa(lp1911
S'scaffold5399_cov135'
p1912
aS'scaffold14003_cov64'
p1913
aa(lp1914
S'scaffold19197_cov73'
p1915
aS'scaffold4030_cov67'
p1916
aa(lp1917
S'scaffold63014_cov63'
p1918
aS'scaffold35689_cov78'
p1919
a(lp1920
I1
a(lp1921
F0.2
aaI15
aaa(lp1922
S'scaffold16608_cov151'
p1923
aS'scaffold117332_cov60'
p1924
aa(lp1925
S'scaffold5433_cov148'
p1926
aS'scaffold4791_cov68'
p1927
aa(lp1928
S'scaffold16606_cov107'
p1929
aS'scaffold42581_cov70'
p1930
a(lp1931
I1
a(lp1932
F0.298701
aaI77
aa(lp1933
I1
a(lp1934
F0.333333
aaI87
aa(lp1935
I1
a(lp1936
F0.279412
aaI68
aa(lp1937
I1
a(lp1938
F0.275362
aaI69
aa(lp1939
I1
a(lp1940
F0.202703
aaI74
aaa(lp1941
S'scaffold2507_cov119'
p1942
aS'scaffold414_cov67'
p1943
a(lp1944
I1
a(lp1945
F0.328947
aaI76
aaa(lp1946
S'scaffold6378_cov134'
p1947
aS'scaffold6379_cov64'
p1948
a(lp1949
I1
a(lp1950
F0.0
aaI47
aaa(lp1951
S'scaffold6580_cov70'
p1952
aS'scaffold36738_cov76'
p1953
aa(lp1954
S'scaffold27251_cov134'
p1955
aS'scaffold26715_cov65'
p1956
aa(lp1957
S'scaffold34705_cov67'
p1958
aS'scaffold104_cov67'
p1959
aa(lp1960
S'scaffold7224_cov118'
p1961
aS'scaffold775_cov72'
p1962
a(lp1963
I1
a(lp1964
F0.642857
aaI28
aa(lp1965
I1
a(lp1966
F0.2
aaI15
aa(lp1967
I1
a(lp1968
F0.214286
aaI14
aa(lp1969
I1
a(lp1970
F0.230769
aaI13
aa(lp1971
I1
a(lp1972
F0.214286
aaI14
aa(lp1973
I1
a(lp1974
F0.2
aaI15
aa(lp1975
I1
a(lp1976
F0.352941
aaI17
aa(lp1977
I1
a(lp1978
F0.352941
aaI17
aa(lp1979
I1
a(lp1980
F0.307692
aaI13
aa(lp1981
I1
a(lp1982
F0.3
aaI20
aa(lp1983
I1
a(lp1984
F0.277778
aaI18
aa(lp1985
I1
a(lp1986
F0.25
aaI20
aa(lp1987
I1
a(lp1988
F0.269231
aaI26
aa(lp1989
I1
a(lp1990
F0.576923
aaI26
aa(lp1991
I1
a(lp1992
F0.636364
aaI11
aa(lp1993
I1
a(lp1994
F0.5
aaI12
aa(lp1995
I1
a(lp1996
F0.5
aaI10
aa(lp1997
I1
a(lp1998
F0.444444
aaI9
aa(lp1999
I1
a(lp2000
F0.75
aaI4
aa(lp2001
I1
a(lp2002
F0.428571
aaI7
aa(lp2003
I2
a(lp2004
F0.285714
aF0.428571
aaI7
aa(lp2005
I1
a(lp2006
F0.71875
aaI32
aaa(lp2007
S'scaffold6055_cov140'
p2008
aS'scaffold30423_cov65'
p2009
aa(lp2010
S'scaffold1760_cov96'
p2011
aS'scaffold1762_cov75'
p2012
a(lp2013
I1
a(lp2014
F0.223881
aaI67
aa(lp2015
I1
a(lp2016
F0.222222
aaI63
aa(lp2017
I1
a(lp2018
F0.206349
aaI63
aa(lp2019
I1
a(lp2020
F0.56
aaI75
aa(lp2021
I1
a(lp2022
F0.413333
aaI75
aa(lp2023
I1
a(lp2024
F0.320988
aaI81
aa(lp2025
I1
a(lp2026
F0.222222
aaI72
aa(lp2027
I1
a(lp2028
F0.551724
aaI116
aaa(lp2029
S'scaffold213265_cov125'
p2030
aS'scaffold13885_cov142'
p2031
aa(lp2032
S'scaffold178103_cov209'
p2033
aS'scaffold16632_cov63'
p2034
a(lp2035
I1
a(lp2036
F0.40708
aaI113
aaa(lp2037
S'scaffold36163_cov117'
p2038
aS'scaffold6928_cov65'
p2039
a(lp2040
I1
a(lp2041
F0.22807
aaI57
aaa(lp2042
S'scaffold7438_cov111'
p2043
aS'scaffold279_cov75'
p2044
a(lp2045
I1
a(lp2046
F0.2
aaI65
aa(lp2047
I1
a(lp2048
F0.213115
aaI61
aa(lp2049
I1
a(lp2050
F0.271605
aaI81
aa(lp2051
I1
a(lp2052
F0.383838
aaI99
aaa(lp2053
S'scaffold167503_cov98'
p2054
aS'scaffold7473_cov63'
p2055
a(lp2056
I1
a(lp2057
F0.246914
aaI324
aa(lp2058
I1
a(lp2059
F0.285714
aaI168
aa(lp2060
I1
a(lp2061
F0.40113
aaI177
aa(lp2062
I1
a(lp2063
F0.303371
aaI178
aaa(lp2064
S'scaffold1316_cov119'
p2065
aS'scaffold5085_cov79'
p2066
a(lp2067
I1
a(lp2068
F0.0
aaI62
aa(lp2069
I1
a(lp2070
F0.0
aaI60
aa(lp2071
I1
a(lp2072
F0.442308
aaI104
aa(lp2073
I1
a(lp2074
F0.254902
aaI51
aa(lp2075
I1
a(lp2076
F0.295082
aaI61
aa(lp2077
I1
a(lp2078
F0.276923
aaI65
aa(lp2079
I1
a(lp2080
F0.436364
aaI110
aa(lp2081
I1
a(lp2082
F0.368421
aaI57
aa(lp2083
I1
a(lp2084
F0.315789
aaI57
aa(lp2085
I1
a(lp2086
F0.328125
aaI64
aa(lp2087
I1
a(lp2088
F0.323529
aaI68
aa(lp2089
I1
a(lp2090
F0.319149
aaI47
aa(lp2091
I1
a(lp2092
F0.326531
aaI49
aaa(lp2093
S'scaffold17086_cov103'
p2094
aS'scaffold17615_cov61'
p2095
aa(lp2096
S'scaffold14104_cov135'
p2097
aS'scaffold22906_cov63'
p2098
a(lp2099
I1
a(lp2100
F0.304348
aaI23
aa(lp2101
I1
a(lp2102
F0.310345
aaI29
aa(lp2103
I1
a(lp2104
F0.828571
aaI35
aa(lp2105
I1
a(lp2106
F0.313433
aaI134
aa(lp2107
I1
a(lp2108
F0.269231
aaI26
aa(lp2109
I1
a(lp2110
F0.653846
aaI26
aa(lp2111
I1
a(lp2112
F0.2
aaI25
aaa(lp2113
S'scaffold107606_cov134'
p2114
aS'scaffold107607_cov79'
p2115
aa(lp2116
S'scaffold164980_cov146'
p2117
aS'scaffold3955_cov67'
p2118
a(lp2119
I1
a(lp2120
F0.0
aaI10
aaa(lp2121
S'scaffold15395_cov68'
p2122
aS'scaffold114629_cov63'
p2123
aa(lp2124
S'scaffold21352_cov62'
p2125
aS'scaffold78461_cov65'
p2126
aa(lp2127
S'scaffold22793_cov63'
p2128
aS'scaffold22791_cov67'
p2129
a(lp2130
I1
a(lp2131
F0.2
aaI50
aa(lp2132
I1
a(lp2133
F0.0
aaI34
aa(lp2134
I1
a(lp2135
F0.469388
aaI98
aa(lp2136
I1
a(lp2137
F0.388889
aaI90
aa(lp2138
I1
a(lp2139
F0.217391
aaI69
aa(lp2140
I1
a(lp2141
F0.213592
aaI103
aa(lp2142
I1
a(lp2143
F0.204082
aaI98
aa(lp2144
I1
a(lp2145
F0.302632
aaI76
aa(lp2146
I1
a(lp2147
F0.361111
aaI108
aa(lp2148
I1
a(lp2149
F0.292453
aaI106
aa(lp2150
I1
a(lp2151
F0.263736
aaI91
aa(lp2152
I1
a(lp2153
F0.274725
aaI91
aa(lp2154
I1
a(lp2155
F0.278351
aaI97
aa(lp2156
I1
a(lp2157
F0.310345
aaI87
aa(lp2158
I1
a(lp2159
F0.410256
aaI78
aa(lp2160
I1
a(lp2161
F0.298507
aaI67
aa(lp2162
I1
a(lp2163
F0.285714
aaI70
aa(lp2164
I1
a(lp2165
F0.271429
aaI70
aa(lp2166
I1
a(lp2167
F0.291667
aaI72
aa(lp2168
I1
a(lp2169
F0.253731
aaI67
aa(lp2170
I1
a(lp2171
F0.246575
aaI73
aa(lp2172
I1
a(lp2173
F0.24
aaI75
aa(lp2174
I1
a(lp2175
F0.208791
aaI91
aa(lp2176
I1
a(lp2177
F0.21978
aaI91
aa(lp2178
I1
a(lp2179
F0.21519
aaI79
aa(lp2180
I1
a(lp2181
F0.253165
aaI79
aa(lp2182
I1
a(lp2183
F0.268293
aaI82
aa(lp2184
I1
a(lp2185
F0.308642
aaI81
aa(lp2186
I1
a(lp2187
F0.277778
aaI72
aa(lp2188
I1
a(lp2189
F0.273973
aaI73
aa(lp2190
I1
a(lp2191
F0.290698
aaI86
aa(lp2192
I1
a(lp2193
F0.287234
aaI94
aa(lp2194
I1
a(lp2195
F0.267442
aaI86
aa(lp2196
I1
a(lp2197
F0.246753
aaI77
aa(lp2198
I1
a(lp2199
F0.409091
aaI110
aa(lp2200
I1
a(lp2201
F0.367347
aaI98
aa(lp2202
I1
a(lp2203
F0.313725
aaI51
aa(lp2204
I1
a(lp2205
F0.390625
aaI64
aa(lp2206
I1
a(lp2207
F0.462366
aaI93
aa(lp2208
I1
a(lp2209
F0.228571
aaI70
aa(lp2210
I1
a(lp2211
F0.260274
aaI73
aa(lp2212
I1
a(lp2213
F0.208955
aaI67
aa(lp2214
I1
a(lp2215
F0.27381
aaI168
aa(lp2216
I1
a(lp2217
F0.25974
aaI231
aa(lp2218
I1
a(lp2219
F0.360656
aaI183
aa(lp2220
I1
a(lp2221
F0.270833
aaI96
aa(lp2222
I1
a(lp2223
F0.275
aaI80
aa(lp2224
I1
a(lp2225
F0.203704
aaI108
aa(lp2226
I1
a(lp2227
F0.217822
aaI101
aaa(lp2228
S'scaffold5694_cov90'
p2229
aS'scaffold21004_cov60'
p2230
a(lp2231
I1
a(lp2232
F0.277778
aaI54
aaa(lp2233
S'scaffold10298_cov88'
p2234
aS'scaffold12318_cov65'
p2235
aa(lp2236
S'scaffold8620_cov63'
p2237
aS'scaffold23855_cov65'
p2238
a(lp2239
I1
a(lp2240
F0.289855
aaI69
aaa(lp2241
S'scaffold1518_cov144'
p2242
aS'scaffold7273_cov73'
p2243
aa(lp2244
S'scaffold3714_cov147'
p2245
aS'scaffold3718_cov71'
p2246
a(lp2247
I1
a(lp2248
F0.0
aaI30
aa(lp2249
I1
a(lp2250
F0.0
aaI40
aa(lp2251
I1
a(lp2252
F0.202532
aaI79
aa(lp2253
I1
a(lp2254
F0.0
aaI90
aaa(lp2255
S'scaffold20332_cov97'
p2256
aS'scaffold7080_cov68'
p2257
aa(lp2258
S'scaffold49078_cov128'
p2259
aS'scaffold54587_cov60'
p2260
aa(lp2261
S'scaffold10475_cov143'
p2262
aS'scaffold10474_cov65'
p2263
aa(lp2264
S'scaffold6306_cov146'
p2265
aS'scaffold6305_cov69'
p2266
aa(lp2267
S'scaffold1865_cov101'
p2268
aS'scaffold58306_cov63'
p2269
aa(lp2270
S'scaffold11499_cov143'
p2271
aS'scaffold11874_cov70'
p2272
aa(lp2273
S'scaffold34203_cov139'
p2274
aS'scaffold15986_cov63'
p2275
aa(lp2276
S'scaffold4589_cov98'
p2277
aS'scaffold4585_cov69'
p2278
aa(lp2279
S'scaffold2129_cov167'
p2280
aS'scaffold92330_cov67'
p2281
aa(lp2282
S'scaffold34203_cov139'
p2283
aS'scaffold4395_cov68'
p2284
aa(lp2285
S'scaffold5847_cov85'
p2286
aS'scaffold4052_cov74'
p2287
aa(lp2288
S'scaffold10574_cov127'
p2289
aS'scaffold11171_cov138'
p2290
aa(lp2291
S'scaffold5348_cov143'
p2292
aS'scaffold91295_cov60'
p2293
aa(lp2294
S'scaffold22816_cov146'
p2295
aS'scaffold22815_cov69'
p2296
aa(lp2297
S'scaffold122299_cov139'
p2298
aS'scaffold122298_cov65'
p2299
aa(lp2300
S'scaffold18351_cov137'
p2301
aS'scaffold16169_cov72'
p2302
aa(lp2303
S'scaffold15731_cov124'
p2304
aS'scaffold1701_cov70'
p2305
a(lp2306
I1
a(lp2307
F0.285714
aaI56
aa(lp2308
I1
a(lp2309
F0.280702
aaI57
aaa(lp2310
S'scaffold1170_cov146'
p2311
aS'scaffold69771_cov67'
p2312
aa(lp2313
S'scaffold3741_cov108'
p2314
aS'scaffold2061_cov67'
p2315
aa(lp2316
S'scaffold1461_cov134'
p2317
aS'scaffold13020_cov66'
p2318
aa(lp2319
S'scaffold16201_cov125'
p2320
aS'scaffold51827_cov73'
p2321
aa(lp2322
S'scaffold21068_cov65'
p2323
aS'scaffold10337_cov80'
p2324
aa(lp2325
S'scaffold6532_cov126'
p2326
aS'scaffold5058_cov63'
p2327
aa(lp2328
S'scaffold38959_cov135'
p2329
aS'scaffold57178_cov79'
p2330
a(lp2331
I1
a(lp2332
F0.32
aaI75
aa(lp2333
I1
a(lp2334
F0.325581
aaI86
aa(lp2335
I1
a(lp2336
F0.318182
aaI88
aa(lp2337
I1
a(lp2338
F0.207792
aaI77
aa(lp2339
I1
a(lp2340
F0.246575
aaI73
aa(lp2341
I1
a(lp2342
F0.380282
aaI71
aaa(lp2343
S'scaffold17601_cov135'
p2344
aS'scaffold1994_cov63'
p2345
a(lp2346
I1
a(lp2347
F0.548387
aaI62
aaa(lp2348
S'scaffold16294_cov110'
p2349
aS'scaffold7481_cov74'
p2350
a(lp2351
I1
a(lp2352
F0.233333
aaI90
aa(lp2353
I1
a(lp2354
F0.244444
aaI90
aa(lp2355
I1
a(lp2356
F0.427481
aaI131
aa(lp2357
I1
a(lp2358
F0.350877
aaI114
aa(lp2359
I1
a(lp2360
F0.366071
aaI112
aa(lp2361
I1
a(lp2362
F0.428571
aaI119
aa(lp2363
I1
a(lp2364
F0.409836
aaI122
aa(lp2365
I1
a(lp2366
F0.406504
aaI123
aa(lp2367
I1
a(lp2368
F0.393701
aaI127
aa(lp2369
I1
a(lp2370
F0.403226
aaI124
aa(lp2371
I1
a(lp2372
F0.244186
aaI86
aa(lp2373
I1
a(lp2374
F0.540541
aaI74
aa(lp2375
I1
a(lp2376
F0.506329
aaI79
aa(lp2377
I1
a(lp2378
F0.539326
aaI89
aa(lp2379
I1
a(lp2380
F0.482353
aaI85
aa(lp2381
I1
a(lp2382
F0.553398
aaI103
aa(lp2383
I1
a(lp2384
F0.565657
aaI99
aa(lp2385
I1
a(lp2386
F0.569892
aaI93
aa(lp2387
I1
a(lp2388
F0.566667
aaI90
aa(lp2389
I1
a(lp2390
F0.243243
aaI74
aa(lp2391
I1
a(lp2392
F0.213333
aaI75
aa(lp2393
I1
a(lp2394
F0.272727
aaI88
aaa(lp2395
S'scaffold31627_cov123'
p2396
aS'scaffold1614_cov71'
p2397
a(lp2398
I1
a(lp2399
F0.5625
aaI32
aa(lp2400
I1
a(lp2401
F0.25
aaI32
aa(lp2402
I1
a(lp2403
F0.227273
aaI22
aa(lp2404
I1
a(lp2405
F0.307692
aaI26
aaa(lp2406
S'scaffold5399_cov135'
p2407
aS'scaffold8409_cov62'
p2408
aa(lp2409
S'scaffold4605_cov69'
p2410
aS'scaffold4604_cov80'
p2411
a(lp2412
I1
a(lp2413
F0.791667
aaI24
aaa(lp2414
S'scaffold13624_cov94'
p2415
aS'scaffold72210_cov77'
p2416
aa(lp2417
S'scaffold19315_cov107'
p2418
aS'scaffold7113_cov70'
p2419
a(lp2420
I1
a(lp2421
F0.6
aaI120
aaa(lp2422
S'scaffold165629_cov145'
p2423
aS'scaffold33634_cov72'
p2424
aa(lp2425
S'scaffold183201_cov134'
p2426
aS'scaffold6997_cov65'
p2427
aa(lp2428
S'scaffold22010_cov97'
p2429
aS'scaffold401_cov67'
p2430
aa(lp2431
S'scaffold17015_cov140'
p2432
aS'scaffold4528_cov69'
p2433
aa(lp2434
S'scaffold21453_cov86'
p2435
aS'scaffold4784_cov67'
p2436
aa(lp2437
S'scaffold13852_cov94'
p2438
aS'scaffold7585_cov68'
p2439
a(lp2440
I1
a(lp2441
F0.0
aaI24
aaa(lp2442
S'scaffold165420_cov139'
p2443
aS'scaffold27291_cov70'
p2444
aa(lp2445
S'scaffold476_cov90'
p2446
aS'scaffold8782_cov64'
p2447
aa(lp2448
S'scaffold9044_cov136'
p2449
aS'scaffold2501_cov70'
p2450
a(lp2451
I1
a(lp2452
F0.558559
aaI111
aa(lp2453
I1
a(lp2454
F0.300885
aaI113
aa(lp2455
I1
a(lp2456
F0.299065
aaI107
aa(lp2457
I1
a(lp2458
F0.350877
aaI114
aa(lp2459
I1
a(lp2460
F0.242424
aaI99
aa(lp2461
I1
a(lp2462
F0.27551
aaI98
aa(lp2463
I1
a(lp2464
F0.303922
aaI102
aa(lp2465
I1
a(lp2466
F0.226667
aaI75
aa(lp2467
I1
a(lp2468
F0.213333
aaI75
aaa(lp2469
S'scaffold60916_cov101'
p2470
aS'scaffold2562_cov78'
p2471
aa(lp2472
S'scaffold6452_cov96'
p2473
aS'scaffold5694_cov90'
p2474
a(lp2475
I1
a(lp2476
F0.516484
aaI91
aa(lp2477
I1
a(lp2478
F0.344262
aaI61
aa(lp2479
I1
a(lp2480
F0.480519
aaI77
aa(lp2481
I1
a(lp2482
F0.881579
aaI76
aa(lp2483
I1
a(lp2484
F0.0
aaI84
aa(lp2485
I1
a(lp2486
F0.469697
aaI66
aa(lp2487
I1
a(lp2488
F0.43299
aaI97
aa(lp2489
I1
a(lp2490
F0.428571
aaI98
aa(lp2491
I1
a(lp2492
F0.4
aaI95
aa(lp2493
I1
a(lp2494
F0.427184
aaI103
aa(lp2495
I1
a(lp2496
F0.214286
aaI56
aa(lp2497
I1
a(lp2498
F0.283019
aaI53
aa(lp2499
I1
a(lp2500
F0.338462
aaI65
aa(lp2501
I1
a(lp2502
F0.338235
aaI68
aa(lp2503
I1
a(lp2504
F0.343284
aaI67
aa(lp2505
I1
a(lp2506
F0.338235
aaI68
aa(lp2507
I1
a(lp2508
F0.244444
aaI45
aa(lp2509
I1
a(lp2510
F0.212766
aaI47
aa(lp2511
I1
a(lp2512
F0.232558
aaI43
aa(lp2513
I1
a(lp2514
F0.282609
aaI46
aa(lp2515
I1
a(lp2516
F0.326923
aaI52
aa(lp2517
I1
a(lp2518
F0.322581
aaI62
aa(lp2519
I1
a(lp2520
F0.285714
aaI70
aa(lp2521
I1
a(lp2522
F0.277778
aaI72
aa(lp2523
I1
a(lp2524
F0.266667
aaI75
aa(lp2525
I1
a(lp2526
F0.253012
aaI83
aa(lp2527
I1
a(lp2528
F0.414414
aaI111
aa(lp2529
I1
a(lp2530
F0.381818
aaI110
aa(lp2531
I1
a(lp2532
F0.37963
aaI108
aa(lp2533
I1
a(lp2534
F0.361702
aaI94
aa(lp2535
I1
a(lp2536
F0.340659
aaI91
aa(lp2537
I1
a(lp2538
F0.358696
aaI92
aa(lp2539
I1
a(lp2540
F0.406593
aaI91
aa(lp2541
I1
a(lp2542
F0.211538
aaI52
aa(lp2543
I1
a(lp2544
F0.30303
aaI66
aa(lp2545
I1
a(lp2546
F0.296875
aaI64
aa(lp2547
I1
a(lp2548
F0.242857
aaI70
aa(lp2549
I1
a(lp2550
F0.319444
aaI72
aa(lp2551
I1
a(lp2552
F0.333333
aaI63
aa(lp2553
I1
a(lp2554
F0.387097
aaI62
aa(lp2555
I1
a(lp2556
F0.38806
aaI67
aa(lp2557
I1
a(lp2558
F0.203125
aaI64
aa(lp2559
I1
a(lp2560
F0.228571
aaI70
aa(lp2561
I1
a(lp2562
F0.289474
aaI76
aa(lp2563
I1
a(lp2564
F0.227273
aaI88
aa(lp2565
I1
a(lp2566
F0.219512
aaI41
aa(lp2567
I1
a(lp2568
F0.204545
aaI44
aa(lp2569
I1
a(lp2570
F0.36
aaI50
aa(lp2571
I1
a(lp2572
F0.38
aaI50
aa(lp2573
I1
a(lp2574
F0.333333
aaI45
aa(lp2575
I1
a(lp2576
F0.369565
aaI46
aaa(lp2577
S'scaffold4116_cov143'
p2578
aS'scaffold6097_cov70'
p2579
aa(lp2580
S'scaffold451_cov146'
p2581
aS'scaffold449_cov70'
p2582
aa(lp2583
S'scaffold167824_cov153'
p2584
aS'scaffold540_cov68'
p2585
aa(lp2586
S'scaffold182_cov83'
p2587
aS'scaffold3533_cov68'
p2588
a(lp2589
I1
a(lp2590
F0.336735
aaI98
aaa(lp2591
S'scaffold167494_cov111'
p2592
aS'scaffold12899_cov60'
p2593
aa(lp2594
S'scaffold3456_cov132'
p2595
aS'scaffold166714_cov62'
p2596
aa(lp2597
S'scaffold37213_cov79'
p2598
aS'scaffold29941_cov91'
p2599
aa(lp2600
S'scaffold183613_cov153'
p2601
aS'scaffold5720_cov71'
p2602
aa(lp2603
S'scaffold7005_cov65'
p2604
aS'scaffold7006_cov83'
p2605
a(lp2606
I1
a(lp2607
F0.0
aaI52
aa(lp2608
I1
a(lp2609
F0.814815
aaI27
aa(lp2610
I1
a(lp2611
F0.827586
aaI29
aa(lp2612
I1
a(lp2613
F0.823529
aaI34
aa(lp2614
I1
a(lp2615
F0.833333
aaI36
aa(lp2616
I1
a(lp2617
F0.866667
aaI30
aa(lp2618
I1
a(lp2619
F0.59375
aaI32
aa(lp2620
I1
a(lp2621
F0.48
aaI25
aa(lp2622
I1
a(lp2623
F0.48
aaI25
aa(lp2624
I1
a(lp2625
F0.48
aaI25
aa(lp2626
I1
a(lp2627
F0.444444
aaI27
aa(lp2628
I1
a(lp2629
F0.666667
aaI24
aa(lp2630
I1
a(lp2631
F0.740741
aaI27
aa(lp2632
I1
a(lp2633
F0.730769
aaI26
aa(lp2634
I1
a(lp2635
F0.8125
aaI32
aa(lp2636
I1
a(lp2637
F0.78125
aaI32
aa(lp2638
I1
a(lp2639
F0.480519
aaI154
aaa(lp2640
S'scaffold10462_cov135'
p2641
aS'scaffold10461_cov66'
p2642
aa(lp2643
S'scaffold5046_cov63'
p2644
aS'scaffold5049_cov88'
p2645
a(lp2646
I1
a(lp2647
F0.223301
aaI103
aa(lp2648
I1
a(lp2649
F0.239583
aaI96
aa(lp2650
I1
a(lp2651
F0.236842
aaI76
aa(lp2652
I1
a(lp2653
F0.385714
aaI70
aa(lp2654
I1
a(lp2655
F0.315068
aaI73
aa(lp2656
I1
a(lp2657
F0.3
aaI70
aa(lp2658
I1
a(lp2659
F0.353846
aaI65
aaa(lp2660
S'scaffold19586_cov139'
p2661
aS'scaffold30711_cov65'
p2662
aasS'up'
p2663
(lp2664
(lp2665
g6
ag7
a(lp2666
I1
a(lp2667
F0.327485
aaI171
aa(lp2668
I1
a(lp2669
F0.204819
aaI83
aa(lp2670
I1
a(lp2671
F0.469565
aaI115
aa(lp2672
I1
a(lp2673
F0.443396
aaI106
aa(lp2674
I1
a(lp2675
F0.431193
aaI109
aa(lp2676
I1
a(lp2677
F0.375
aaI96
aa(lp2678
I1
a(lp2679
F0.283951
aaI81
aa(lp2680
I1
a(lp2681
F0.283951
aaI81
aa(lp2682
I1
a(lp2683
F0.467742
aaI124
aa(lp2684
I1
a(lp2685
F0.257485
aaI167
aa(lp2686
I1
a(lp2687
F0.217391
aaI115
aa(lp2688
I1
a(lp2689
F0.634921
aaI126
aa(lp2690
I1
a(lp2691
F0.546296
aaI108
aa(lp2692
I1
a(lp2693
F0.589286
aaI112
aa(lp2694
I1
a(lp2695
F0.404494
aaI89
aa(lp2696
I1
a(lp2697
F0.361446
aaI83
aa(lp2698
I1
a(lp2699
F0.363636
aaI88
aa(lp2700
I1
a(lp2701
F0.353659
aaI82
aa(lp2702
I1
a(lp2703
F0.325301
aaI83
aa(lp2704
I1
a(lp2705
F0.395833
aaI96
aa(lp2706
I1
a(lp2707
F0.277108
aaI83
aa(lp2708
I1
a(lp2709
F0.255814
aaI86
aa(lp2710
I1
a(lp2711
F0.522059
aaI136
aa(lp2712
I1
a(lp2713
F0.28125
aaI96
aa(lp2714
I1
a(lp2715
F0.304348
aaI69
aaa(lp2716
g9
ag10
a(lp2717
I1
a(lp2718
F0.302632
aaI76
aa(lp2719
I1
a(lp2720
F0.25
aaI80
aa(lp2721
I1
a(lp2722
F0.347368
aaI95
aa(lp2723
I1
a(lp2724
F0.2
aaI75
aaa(lp2725
g12
ag13
aa(lp2726
g15
ag16
aa(lp2727
g70
ag71
a(lp2728
I1
a(lp2729
F0.363636
aaI88
aa(lp2730
I1
a(lp2731
F0.37027
aaI740
aa(lp2732
I1
a(lp2733
F0.425926
aaI108
aaa(lp2734
g73
ag74
a(lp2735
I1
a(lp2736
F0.217391
aaI92
aa(lp2737
I1
a(lp2738
F0.265957
aaI94
aa(lp2739
I1
a(lp2740
F0.220588
aaI68
aaa(lp2741
g80
ag81
aa(lp2742
g85
ag86
aa(lp2743
g90
ag91
a(lp2744
I1
a(lp2745
F0.541667
aaI72
aa(lp2746
I1
a(lp2747
F0.223881
aaI134
aa(lp2748
I1
a(lp2749
F0.446809
aaI94
aaa(lp2750
g93
ag94
a(lp2751
I1
a(lp2752
F0.306306
aaI111
aa(lp2753
I1
a(lp2754
F0.442029
aaI138
aaa(lp2755
g96
ag97
aa(lp2756
g99
ag100
a(lp2757
I1
a(lp2758
F0.372093
aaI86
aa(lp2759
I1
a(lp2760
F0.213115
aaI61
aa(lp2761
I1
a(lp2762
F0.274194
aaI62
aa(lp2763
I1
a(lp2764
F0.35
aaI80
aaa(lp2765
g122
ag123
a(lp2766
I1
a(lp2767
F0.40625
aaI96
aa(lp2768
I1
a(lp2769
F0.39
aaI100
aa(lp2770
I1
a(lp2771
F0.3
aaI100
aa(lp2772
I1
a(lp2773
F0.268817
aaI93
aa(lp2774
I1
a(lp2775
F0.28125
aaI96
aa(lp2776
I1
a(lp2777
F0.30303
aaI99
aaa(lp2778
g127
ag128
a(lp2779
I1
a(lp2780
F0.568966
aaI174
aa(lp2781
I1
a(lp2782
F0.207692
aaI130
aa(lp2783
I1
a(lp2784
F0.248366
aaI153
aa(lp2785
I1
a(lp2786
F0.509709
aaI206
aa(lp2787
I1
a(lp2788
F0.207547
aaI106
aa(lp2789
I1
a(lp2790
F0.212121
aaI132
aa(lp2791
I1
a(lp2792
F0.207692
aaI130
aa(lp2793
I1
a(lp2794
F0.484375
aaI64
aa(lp2795
I1
a(lp2796
F0.202381
aaI84
aa(lp2797
I1
a(lp2798
F0.21978
aaI91
aa(lp2799
I1
a(lp2800
F0.496154
aaI260
aa(lp2801
I1
a(lp2802
F0.210526
aaI152
aa(lp2803
I1
a(lp2804
F0.223684
aaI152
aa(lp2805
I1
a(lp2806
F0.20979
aaI143
aa(lp2807
I1
a(lp2808
F0.201299
aaI154
aa(lp2809
I1
a(lp2810
F0.326271
aaI236
aa(lp2811
I1
a(lp2812
F0.369369
aaI111
aa(lp2813
I1
a(lp2814
F0.433333
aaI120
aa(lp2815
I1
a(lp2816
F0.333333
aaI141
aa(lp2817
I1
a(lp2818
F0.423077
aaI104
aaa(lp2819
g238
ag239
a(lp2820
I1
a(lp2821
F0.307692
aaI91
aa(lp2822
I1
a(lp2823
F0.461538
aaI117
aa(lp2824
I1
a(lp2825
F0.417391
aaI115
aa(lp2826
I1
a(lp2827
F0.242424
aaI99
aa(lp2828
I1
a(lp2829
F0.26
aaI100
aa(lp2830
I1
a(lp2831
F0.424
aaI125
aaa(lp2832
g241
ag242
a(lp2833
I1
a(lp2834
F0.353383
aaI133
aa(lp2835
I1
a(lp2836
F0.407692
aaI130
aa(lp2837
I1
a(lp2838
F0.333333
aaI117
aa(lp2839
I1
a(lp2840
F0.382353
aaI136
aa(lp2841
I1
a(lp2842
F0.384106
aaI151
aa(lp2843
I1
a(lp2844
F0.395833
aaI96
aa(lp2845
I1
a(lp2846
F0.404959
aaI121
aa(lp2847
I1
a(lp2848
F0.42963
aaI135
aa(lp2849
I1
a(lp2850
F0.357143
aaI126
aa(lp2851
I1
a(lp2852
F0.406897
aaI145
aa(lp2853
I1
a(lp2854
F0.254717
aaI106
aaa(lp2855
g244
ag245
aa(lp2856
g251
ag252
a(lp2857
I1
a(lp2858
F0.42
aaI100
aa(lp2859
I1
a(lp2860
F0.306667
aaI75
aa(lp2861
I1
a(lp2862
F0.219178
aaI73
aa(lp2863
I1
a(lp2864
F0.205479
aaI73
aa(lp2865
I1
a(lp2866
F0.25974
aaI77
aa(lp2867
I1
a(lp2868
F0.32
aaI100
aa(lp2869
I1
a(lp2870
F0.205882
aaI102
aa(lp2871
I1
a(lp2872
F0.224719
aaI89
aa(lp2873
I1
a(lp2874
F0.545455
aaI121
aa(lp2875
I1
a(lp2876
F0.513274
aaI113
aa(lp2877
I1
a(lp2878
F0.513274
aaI113
aa(lp2879
I1
a(lp2880
F0.544
aaI125
aa(lp2881
I1
a(lp2882
F0.557377
aaI122
aa(lp2883
I1
a(lp2884
F0.584
aaI125
aa(lp2885
I1
a(lp2886
F0.544
aaI125
aa(lp2887
I1
a(lp2888
F0.463636
aaI110
aa(lp2889
I1
a(lp2890
F0.548872
aaI133
aa(lp2891
I1
a(lp2892
F0.56338
aaI142
aa(lp2893
I1
a(lp2894
F0.55303
aaI132
aa(lp2895
I1
a(lp2896
F0.523364
aaI107
aaa(lp2897
g256
ag257
aa(lp2898
g259
ag260
a(lp2899
I1
a(lp2900
F0.2
aaI60
aa(lp2901
I1
a(lp2902
F0.306452
aaI62
aaa(lp2903
g266
ag267
aa(lp2904
g269
ag270
aa(lp2905
g272
ag273
aa(lp2906
g277
ag278
aa(lp2907
g280
ag281
aa(lp2908
g283
ag284
aa(lp2909
g286
ag287
aa(lp2910
g297
ag298
a(lp2911
I1
a(lp2912
F0.220339
aaI59
aa(lp2913
I1
a(lp2914
F0.262295
aaI61
aa(lp2915
I1
a(lp2916
F0.442478
aaI113
aa(lp2917
I1
a(lp2918
F0.385246
aaI122
aa(lp2919
I1
a(lp2920
F0.353982
aaI113
aa(lp2921
I1
a(lp2922
F0.35
aaI120
aa(lp2923
I1
a(lp2924
F0.41
aaI100
aa(lp2925
I1
a(lp2926
F0.385965
aaI114
aa(lp2927
I1
a(lp2928
F0.396552
aaI116
aa(lp2929
I1
a(lp2930
F0.268293
aaI123
aa(lp2931
I1
a(lp2932
F0.308411
aaI107
aaa(lp2933
g300
ag301
aa(lp2934
g303
ag304
a(lp2935
I1
a(lp2936
F0.245283
aaI53
aa(lp2937
I1
a(lp2938
F0.495726
aaI117
aa(lp2939
I1
a(lp2940
F0.457627
aaI118
aa(lp2941
I1
a(lp2942
F0.435185
aaI108
aa(lp2943
I1
a(lp2944
F0.514019
aaI107
aa(lp2945
I1
a(lp2946
F0.477876
aaI113
aa(lp2947
I1
a(lp2948
F0.40625
aaI96
aa(lp2949
I1
a(lp2950
F0.439024
aaI82
aa(lp2951
I1
a(lp2952
F0.289474
aaI76
aa(lp2953
I1
a(lp2954
F0.355932
aaI59
aaa(lp2955
g306
ag307
a(lp2956
I1
a(lp2957
F0.362903
aaI124
aaa(lp2958
g309
ag310
aa(lp2959
g312
ag313
aa(lp2960
g321
ag322
aa(lp2961
g324
ag325
aa(lp2962
g327
ag328
aa(lp2963
g330
ag331
a(lp2964
I1
a(lp2965
F0.443182
aaI264
aa(lp2966
I1
a(lp2967
F0.850575
aaI87
aa(lp2968
I1
a(lp2969
F0.325
aaI80
aa(lp2970
I1
a(lp2971
F0.306452
aaI62
aa(lp2972
I1
a(lp2973
F0.327869
aaI61
aa(lp2974
I1
a(lp2975
F0.239583
aaI96
aa(lp2976
I1
a(lp2977
F0.2625
aaI80
aa(lp2978
I1
a(lp2979
F0.230769
aaI91
aa(lp2980
I1
a(lp2981
F0.307692
aaI104
aa(lp2982
I1
a(lp2983
F0.278351
aaI97
aa(lp2984
I1
a(lp2985
F0.294118
aaI102
aa(lp2986
I1
a(lp2987
F0.314286
aaI105
aaa(lp2988
g333
ag334
a(lp2989
I1
a(lp2990
F0.344444
aaI90
aa(lp2991
I1
a(lp2992
F0.202128
aaI94
aa(lp2993
I1
a(lp2994
F0.206897
aaI87
aa(lp2995
I1
a(lp2996
F0.231707
aaI82
aa(lp2997
I1
a(lp2998
F0.25
aaI76
aa(lp2999
I1
a(lp3000
F0.223684
aaI76
aa(lp3001
I1
a(lp3002
F0.232877
aaI73
aa(lp3003
I1
a(lp3004
F0.287356
aaI87
aa(lp3005
I1
a(lp3006
F0.330275
aaI109
aa(lp3007
I1
a(lp3008
F0.292453
aaI106
aa(lp3009
I1
a(lp3010
F0.27619
aaI105
aa(lp3011
I1
a(lp3012
F0.315789
aaI95
aa(lp3013
I1
a(lp3014
F0.28125
aaI96
aa(lp3015
I1
a(lp3016
F0.329897
aaI97
aa(lp3017
I1
a(lp3018
F0.385542
aaI83
aa(lp3019
I1
a(lp3020
F0.352381
aaI105
aa(lp3021
I1
a(lp3022
F0.287356
aaI87
aaa(lp3023
g336
ag337
a(lp3024
I1
a(lp3025
F0.264706
aaI204
aa(lp3026
I1
a(lp3027
F0.686636
aaI217
aa(lp3028
I1
a(lp3029
F0.228395
aaI162
aa(lp3030
I1
a(lp3031
F0.373333
aaI150
aa(lp3032
I1
a(lp3033
F0.247706
aaI109
aa(lp3034
I1
a(lp3035
F0.276786
aaI112
aa(lp3036
I1
a(lp3037
F0.301075
aaI93
aa(lp3038
I1
a(lp3039
F0.25
aaI64
aaa(lp3040
g361
ag362
aa(lp3041
g364
ag365
a(lp3042
I1
a(lp3043
F0.488372
aaI129
aa(lp3044
I1
a(lp3045
F0.36
aaI75
aa(lp3046
I1
a(lp3047
F0.3375
aaI80
aa(lp3048
I1
a(lp3049
F0.324675
aaI77
aa(lp3050
I1
a(lp3051
F0.222222
aaI72
aaa(lp3052
g367
ag368
aa(lp3053
g370
ag371
aa(lp3054
g377
ag378
aa(lp3055
g380
ag381
a(lp3056
I1
a(lp3057
F0.349398
aaI83
aa(lp3058
I1
a(lp3059
F0.343434
aaI99
aa(lp3060
I1
a(lp3061
F0.508929
aaI112
aa(lp3062
I1
a(lp3063
F0.287356
aaI87
aaa(lp3064
g385
ag386
aa(lp3065
g388
ag389
a(lp3066
I1
a(lp3067
F0.0
aaI63
aa(lp3068
I1
a(lp3069
F0.0
aaI56
aa(lp3070
I1
a(lp3071
F0.0
aaI52
aa(lp3072
I1
a(lp3073
F0.866667
aaI45
aa(lp3074
I1
a(lp3075
F0.887324
aaI71
aa(lp3076
I1
a(lp3077
F0.478261
aaI23
aa(lp3078
I1
a(lp3079
F0.642857
aaI14
aa(lp3080
I1
a(lp3081
F0.333333
aaI6
aa(lp3082
I1
a(lp3083
F0.428571
aaI7
aa(lp3084
I1
a(lp3085
F0.709677
aaI31
aa(lp3086
I1
a(lp3087
F0.653846
aaI52
aaa(lp3088
g391
ag392
aa(lp3089
g394
ag395
aa(lp3090
g397
ag398
a(lp3091
I1
a(lp3092
F0.495327
aaI107
aa(lp3093
I1
a(lp3094
F0.47541
aaI122
aaa(lp3095
g400
ag401
a(lp3096
I1
a(lp3097
F0.24359
aaI78
aa(lp3098
I1
a(lp3099
F0.311688
aaI77
aa(lp3100
I1
a(lp3101
F0.303797
aaI79
aa(lp3102
I1
a(lp3103
F0.301205
aaI83
aa(lp3104
I1
a(lp3105
F0.235714
aaI140
aa(lp3106
I1
a(lp3107
F0.376471
aaI85
aa(lp3108
I1
a(lp3109
F0.398148
aaI108
aa(lp3110
I1
a(lp3111
F0.234568
aaI81
aa(lp3112
I1
a(lp3113
F0.206897
aaI87
aa(lp3114
I1
a(lp3115
F0.267442
aaI86
aaa(lp3116
g407
ag408
a(lp3117
I1
a(lp3118
F0.309735
aaI113
aa(lp3119
I1
a(lp3120
F0.226994
aaI163
aa(lp3121
I1
a(lp3122
F0.272727
aaI77
aa(lp3123
I1
a(lp3124
F0.283784
aaI74
aa(lp3125
I1
a(lp3126
F0.22807
aaI57
aa(lp3127
I1
a(lp3128
F0.362069
aaI58
aa(lp3129
I1
a(lp3130
F0.305556
aaI72
aa(lp3131
I1
a(lp3132
F0.289474
aaI76
aa(lp3133
I1
a(lp3134
F0.218391
aaI87
aa(lp3135
I1
a(lp3136
F0.233333
aaI90
aa(lp3137
I1
a(lp3138
F0.529412
aaI119
aa(lp3139
I1
a(lp3140
F0.351064
aaI94
aaa(lp3141
g430
ag431
a(lp3142
I1
a(lp3143
F0.0
aaI102
aa(lp3144
I1
a(lp3145
F0.787879
aaI33
aa(lp3146
I1
a(lp3147
F0.416667
aaI24
aa(lp3148
I1
a(lp3149
F0.478261
aaI23
aa(lp3150
I1
a(lp3151
F0.478261
aaI23
aa(lp3152
I1
a(lp3153
F0.35
aaI20
aa(lp3154
I1
a(lp3155
F0.380952
aaI21
aa(lp3156
I1
a(lp3157
F0.714286
aaI21
aa(lp3158
I1
a(lp3159
F0.727273
aaI22
aa(lp3160
I1
a(lp3161
F0.851064
aaI47
aa(lp3162
I1
a(lp3163
F0.833333
aaI48
aa(lp3164
I1
a(lp3165
F0.342857
aaI70
aa(lp3166
I1
a(lp3167
F0.333333
aaI81
aa(lp3168
I1
a(lp3169
F0.323529
aaI68
aaa(lp3170
g433
ag434
a(lp3171
I1
a(lp3172
F0.269231
aaI78
aa(lp3173
I1
a(lp3174
F0.261905
aaI84
aa(lp3175
I1
a(lp3176
F0.282353
aaI85
aa(lp3177
I1
a(lp3178
F0.202381
aaI84
aa(lp3179
I1
a(lp3180
F0.319149
aaI94
aa(lp3181
I1
a(lp3182
F0.268817
aaI93
aa(lp3183
I1
a(lp3184
F0.290909
aaI110
aa(lp3185
I1
a(lp3186
F0.230769
aaI78
aaa(lp3187
g436
ag437
a(lp3188
I1
a(lp3189
F0.314286
aaI70
aaa(lp3190
g439
ag440
aa(lp3191
g442
ag443
aa(lp3192
g445
ag446
aa(lp3193
g486
ag487
aa(lp3194
g489
ag490
aa(lp3195
g492
ag493
a(lp3196
I1
a(lp3197
F0.291667
aaI72
aa(lp3198
I1
a(lp3199
F0.273973
aaI73
aa(lp3200
I1
a(lp3201
F0.273973
aaI73
aa(lp3202
I1
a(lp3203
F0.246377
aaI69
aa(lp3204
I1
a(lp3205
F0.344444
aaI90
aa(lp3206
I1
a(lp3207
F0.351852
aaI54
aa(lp3208
I1
a(lp3209
F0.339623
aaI53
aa(lp3210
I1
a(lp3211
F0.457627
aaI59
aa(lp3212
I1
a(lp3213
F0.362069
aaI58
aa(lp3214
I1
a(lp3215
F0.339623
aaI53
aa(lp3216
I1
a(lp3217
F0.202381
aaI84
aaa(lp3218
g495
ag496
aa(lp3219
g498
ag499
aa(lp3220
g501
ag502
aa(lp3221
g504
ag505
a(lp3222
I1
a(lp3223
F0.39604
aaI101
aa(lp3224
I1
a(lp3225
F0.440367
aaI109
aaa(lp3226
g507
ag508
a(lp3227
I1
a(lp3228
F0.242105
aaI95
aa(lp3229
I1
a(lp3230
F0.0
aaI121
aa(lp3231
I1
a(lp3232
F0.325
aaI120
aa(lp3233
I1
a(lp3234
F0.411215
aaI107
aa(lp3235
I1
a(lp3236
F0.0
aaI77
aa(lp3237
I1
a(lp3238
F0.358974
aaI78
aa(lp3239
I1
a(lp3240
F0.39604
aaI101
aa(lp3241
I1
a(lp3242
F0.389381
aaI113
aa(lp3243
I1
a(lp3244
F0.375
aaI112
aa(lp3245
I1
a(lp3246
F0.247312
aaI93
aa(lp3247
I1
a(lp3248
F0.260274
aaI73
aa(lp3249
I1
a(lp3250
F0.297619
aaI84
aa(lp3251
I1
a(lp3252
F0.298851
aaI87
aa(lp3253
I1
a(lp3254
F0.345238
aaI84
aa(lp3255
I1
a(lp3256
F0.382022
aaI89
aa(lp3257
I1
a(lp3258
F0.375
aaI88
aa(lp3259
I1
a(lp3260
F0.237624
aaI101
aa(lp3261
I1
a(lp3262
F0.236559
aaI93
aa(lp3263
I1
a(lp3264
F0.236559
aaI93
aa(lp3265
I1
a(lp3266
F0.274725
aaI91
aa(lp3267
I1
a(lp3268
F0.422222
aaI90
aa(lp3269
I1
a(lp3270
F0.25
aaI84
aaa(lp3271
g514
ag515
aa(lp3272
g517
ag518
a(lp3273
I1
a(lp3274
F0.345455
aaI110
aa(lp3275
I1
a(lp3276
F0.355769
aaI104
aa(lp3277
I1
a(lp3278
F0.514286
aaI140
aa(lp3279
I1
a(lp3280
F0.691057
aaI123
aa(lp3281
I1
a(lp3282
F0.356061
aaI132
aa(lp3283
I1
a(lp3284
F0.302857
aaI175
aa(lp3285
I1
a(lp3286
F0.305085
aaI177
aa(lp3287
I1
a(lp3288
F0.307263
aaI179
aa(lp3289
I1
a(lp3290
F0.325843
aaI178
aa(lp3291
I1
a(lp3292
F0.335165
aaI182
aa(lp3293
I1
a(lp3294
F0.308411
aaI107
aa(lp3295
I1
a(lp3296
F0.321429
aaI140
aa(lp3297
I1
a(lp3298
F0.280303
aaI132
aa(lp3299
I1
a(lp3300
F0.293233
aaI133
aa(lp3301
I1
a(lp3302
F0.598425
aaI127
aa(lp3303
I1
a(lp3304
F0.636364
aaI132
aa(lp3305
I1
a(lp3306
F0.582781
aaI151
aa(lp3307
I1
a(lp3308
F0.446602
aaI103
aa(lp3309
I1
a(lp3310
F0.469388
aaI98
aa(lp3311
I1
a(lp3312
F0.243697
aaI119
aa(lp3313
I1
a(lp3314
F0.225
aaI120
aa(lp3315
I1
a(lp3316
F0.264463
aaI121
aa(lp3317
I1
a(lp3318
F0.262295
aaI122
aa(lp3319
I1
a(lp3320
F0.505155
aaI97
aa(lp3321
I1
a(lp3322
F0.0
aaI78
aa(lp3323
I1
a(lp3324
F0.211268
aaI71
aa(lp3325
I1
a(lp3326
F0.211268
aaI71
aa(lp3327
I1
a(lp3328
F0.217391
aaI69
aa(lp3329
I1
a(lp3330
F0.215909
aaI88
aaa(lp3331
g524
ag525
aa(lp3332
g527
ag528
a(lp3333
I1
a(lp3334
F0.369048
aaI84
aa(lp3335
I1
a(lp3336
F0.377551
aaI98
aa(lp3337
I1
a(lp3338
F0.392157
aaI102
aa(lp3339
I1
a(lp3340
F0.273684
aaI95
aaa(lp3341
g530
ag531
a(lp3342
I1
a(lp3343
F0.347826
aaI92
aa(lp3344
I1
a(lp3345
F0.474138
aaI116
aaa(lp3346
g537
ag538
aa(lp3347
g540
ag541
aa(lp3348
g543
ag544
a(lp3349
I1
a(lp3350
F0.278351
aaI97
aaa(lp3351
g556
ag557
aa(lp3352
g561
ag562
aa(lp3353
g564
ag565
a(lp3354
I1
a(lp3355
F0.208333
aaI96
aa(lp3356
I1
a(lp3357
F0.243243
aaI74
aa(lp3358
I1
a(lp3359
F0.285714
aaI70
aa(lp3360
I1
a(lp3361
F0.228571
aaI70
aa(lp3362
I1
a(lp3363
F0.265823
aaI79
aa(lp3364
I1
a(lp3365
F0.26087
aaI92
aa(lp3366
I1
a(lp3367
F0.270833
aaI96
aa(lp3368
I1
a(lp3369
F0.234694
aaI98
aa(lp3370
I1
a(lp3371
F0.236559
aaI93
aa(lp3372
I1
a(lp3373
F0.388889
aaI126
aa(lp3374
I1
a(lp3375
F0.385965
aaI114
aa(lp3376
I1
a(lp3377
F0.230769
aaI91
aa(lp3378
I1
a(lp3379
F0.228916
aaI83
aa(lp3380
I1
a(lp3381
F0.310345
aaI87
aaa(lp3382
g611
ag612
aa(lp3383
g618
ag619
aa(lp3384
g621
ag622
a(lp3385
I1
a(lp3386
F0.43956
aaI91
aa(lp3387
I1
a(lp3388
F0.340426
aaI94
aa(lp3389
I1
a(lp3390
F0.358491
aaI106
aa(lp3391
I1
a(lp3392
F0.435644
aaI101
aa(lp3393
I1
a(lp3394
F0.373626
aaI91
aa(lp3395
I1
a(lp3396
F0.214286
aaI98
aa(lp3397
I1
a(lp3398
F0.221154
aaI104
aa(lp3399
I1
a(lp3400
F0.237624
aaI101
aa(lp3401
I1
a(lp3402
F0.80303
aaI66
aa(lp3403
I1
a(lp3404
F0.26506
aaI83
aa(lp3405
I1
a(lp3406
F0.3
aaI80
aa(lp3407
I1
a(lp3408
F0.306818
aaI88
aa(lp3409
I1
a(lp3410
F0.272727
aaI88
aaa(lp3411
g624
ag625
aa(lp3412
g627
ag628
aa(lp3413
g656
ag657
a(lp3414
I1
a(lp3415
F0.5
aaI70
aa(lp3416
I1
a(lp3417
F0.447368
aaI76
aa(lp3418
I1
a(lp3419
F0.37037
aaI81
aaa(lp3420
g671
ag672
a(lp3421
I1
a(lp3422
F0.385321
aaI109
aa(lp3423
I1
a(lp3424
F0.305263
aaI95
aa(lp3425
I1
a(lp3426
F0.314815
aaI108
aa(lp3427
I1
a(lp3428
F0.287234
aaI94
aa(lp3429
I1
a(lp3430
F0.353535
aaI99
aa(lp3431
I1
a(lp3432
F0.386139
aaI101
aa(lp3433
I1
a(lp3434
F0.384615
aaI91
aa(lp3435
I1
a(lp3436
F0.393939
aaI99
aa(lp3437
I1
a(lp3438
F0.325843
aaI89
aa(lp3439
I1
a(lp3440
F0.308511
aaI94
aa(lp3441
I1
a(lp3442
F0.301075
aaI93
aa(lp3443
I1
a(lp3444
F0.352459
aaI122
aaa(lp3445
g674
ag675
a(lp3446
I1
a(lp3447
F0.608
aaI125
aa(lp3448
I1
a(lp3449
F0.464646
aaI99
aa(lp3450
I1
a(lp3451
F0.632479
aaI117
aa(lp3452
I1
a(lp3453
F0.516667
aaI120
aa(lp3454
I1
a(lp3455
F0.631148
aaI122
aa(lp3456
I1
a(lp3457
F0.655462
aaI119
aaa(lp3458
g679
ag680
aa(lp3459
g682
ag683
aa(lp3460
g685
ag686
a(lp3461
I1
a(lp3462
F0.357895
aaI95
aa(lp3463
I1
a(lp3464
F0.347826
aaI115
aa(lp3465
I1
a(lp3466
F0.556338
aaI142
aa(lp3467
I1
a(lp3468
F0.521429
aaI140
aa(lp3469
I1
a(lp3470
F0.310345
aaI87
aa(lp3471
I1
a(lp3472
F0.375
aaI120
aa(lp3473
I1
a(lp3474
F0.424
aaI125
aa(lp3475
I1
a(lp3476
F0.405405
aaI111
aa(lp3477
I1
a(lp3478
F0.326733
aaI101
aaa(lp3479
g688
ag689
aa(lp3480
g739
ag740
aa(lp3481
g744
ag745
aa(lp3482
g747
ag748
a(lp3483
I1
a(lp3484
F0.222222
aaI63
aa(lp3485
I1
a(lp3486
F0.273973
aaI73
aa(lp3487
I1
a(lp3488
F0.4125
aaI80
aa(lp3489
I1
a(lp3490
F0.428571
aaI77
aa(lp3491
I1
a(lp3492
F0.258065
aaI62
aaa(lp3493
g750
ag751
a(lp3494
I1
a(lp3495
F0.302083
aaI96
aa(lp3496
I1
a(lp3497
F0.261364
aaI88
aa(lp3498
I1
a(lp3499
F0.296703
aaI91
aa(lp3500
I1
a(lp3501
F0.382022
aaI89
aa(lp3502
I1
a(lp3503
F0.608247
aaI97
aa(lp3504
I1
a(lp3505
F0.319149
aaI94
aa(lp3506
I1
a(lp3507
F0.246753
aaI77
aa(lp3508
I1
a(lp3509
F0.347368
aaI95
aa(lp3510
I1
a(lp3511
F0.396226
aaI106
aa(lp3512
I1
a(lp3513
F0.5
aaI114
aa(lp3514
I1
a(lp3515
F0.0
aaI110
aa(lp3516
I1
a(lp3517
F0.373737
aaI99
aa(lp3518
I1
a(lp3519
F0.295918
aaI98
aa(lp3520
I1
a(lp3521
F0.252525
aaI99
aa(lp3522
I1
a(lp3523
F0.275862
aaI87
aaa(lp3524
g755
ag756
a(lp3525
I1
a(lp3526
F0.2
aaI30
aa(lp3527
I1
a(lp3528
F0.258427
aaI89
aa(lp3529
I1
a(lp3530
F0.406593
aaI91
aa(lp3531
I1
a(lp3532
F0.404762
aaI84
aa(lp3533
I1
a(lp3534
F0.386667
aaI75
aa(lp3535
I1
a(lp3536
F0.364583
aaI96
aa(lp3537
I1
a(lp3538
F0.295455
aaI88
aa(lp3539
I1
a(lp3540
F0.35443
aaI79
aa(lp3541
I1
a(lp3542
F0.333333
aaI84
aa(lp3543
I1
a(lp3544
F0.337349
aaI83
aa(lp3545
I1
a(lp3546
F0.26087
aaI69
aa(lp3547
I1
a(lp3548
F0.3
aaI80
aa(lp3549
I1
a(lp3550
F0.410256
aaI78
aa(lp3551
I1
a(lp3552
F0.423077
aaI78
aa(lp3553
I1
a(lp3554
F0.240506
aaI79
aa(lp3555
I1
a(lp3556
F0.316456
aaI79
aa(lp3557
I1
a(lp3558
F0.324675
aaI77
aa(lp3559
I1
a(lp3560
F0.317073
aaI82
aa(lp3561
I1
a(lp3562
F0.267857
aaI56
aa(lp3563
I1
a(lp3564
F0.272727
aaI55
aa(lp3565
I1
a(lp3566
F0.433962
aaI106
aa(lp3567
I1
a(lp3568
F0.238636
aaI88
aa(lp3569
I1
a(lp3570
F0.222222
aaI81
aa(lp3571
I1
a(lp3572
F0.287356
aaI87
aa(lp3573
I1
a(lp3574
F0.340426
aaI94
aa(lp3575
I1
a(lp3576
F0.4
aaI110
aa(lp3577
I1
a(lp3578
F0.258065
aaI62
aa(lp3579
I1
a(lp3580
F0.3
aaI70
aa(lp3581
I1
a(lp3582
F0.310811
aaI74
aa(lp3583
I1
a(lp3584
F0.3
aaI80
aa(lp3585
I1
a(lp3586
F0.304878
aaI82
aa(lp3587
I1
a(lp3588
F0.25
aaI76
aa(lp3589
I1
a(lp3590
F0.245283
aaI106
aa(lp3591
I1
a(lp3592
F0.220183
aaI109
aa(lp3593
I1
a(lp3594
F0.218182
aaI110
aa(lp3595
I1
a(lp3596
F0.220183
aaI109
aa(lp3597
I1
a(lp3598
F0.220183
aaI109
aa(lp3599
I1
a(lp3600
F0.384615
aaI91
aa(lp3601
I1
a(lp3602
F0.41791
aaI67
aa(lp3603
I1
a(lp3604
F0.4375
aaI96
aa(lp3605
I1
a(lp3606
F0.519685
aaI127
aa(lp3607
I1
a(lp3608
F0.491667
aaI120
aa(lp3609
I1
a(lp3610
F0.405405
aaI74
aa(lp3611
I1
a(lp3612
F0.432432
aaI74
aa(lp3613
I1
a(lp3614
F0.452055
aaI73
aaa(lp3615
g780
ag781
aa(lp3616
g783
ag784
a(lp3617
I1
a(lp3618
F0.322581
aaI93
aa(lp3619
I1
a(lp3620
F0.244186
aaI86
aa(lp3621
I1
a(lp3622
F0.244186
aaI86
aa(lp3623
I1
a(lp3624
F0.323529
aaI102
aa(lp3625
I1
a(lp3626
F0.311321
aaI106
aa(lp3627
I1
a(lp3628
F0.308411
aaI107
aa(lp3629
I1
a(lp3630
F0.319149
aaI94
aa(lp3631
I1
a(lp3632
F0.236842
aaI76
aa(lp3633
I1
a(lp3634
F0.422222
aaI45
aa(lp3635
I1
a(lp3636
F0.899115
aaI1130
aaa(lp3637
g786
ag787
a(lp3638
I1
a(lp3639
F0.495327
aaI107
aa(lp3640
I1
a(lp3641
F0.367347
aaI98
aa(lp3642
I1
a(lp3643
F0.309524
aaI84
aa(lp3644
I1
a(lp3645
F0.302326
aaI86
aa(lp3646
I1
a(lp3647
F0.411348
aaI141
aa(lp3648
I1
a(lp3649
F0.416058
aaI137
aa(lp3650
I1
a(lp3651
F0.441176
aaI136
aa(lp3652
I1
a(lp3653
F0.484375
aaI128
aaa(lp3654
g789
ag790
aa(lp3655
g792
ag793
a(lp3656
I1
a(lp3657
F0.308824
aaI68
aa(lp3658
I1
a(lp3659
F0.329114
aaI79
aa(lp3660
I1
a(lp3661
F0.3125
aaI80
aa(lp3662
I1
a(lp3663
F0.409524
aaI105
aa(lp3664
I1
a(lp3665
F0.454545
aaI121
aaa(lp3666
g801
ag802
aa(lp3667
g804
ag805
a(lp3668
I1
a(lp3669
F0.2
aaI75
aa(lp3670
I1
a(lp3671
F0.5
aaI74
aa(lp3672
I1
a(lp3673
F0.231884
aaI69
aa(lp3674
I1
a(lp3675
F0.225352
aaI71
aa(lp3676
I1
a(lp3677
F0.364706
aaI85
aa(lp3678
I1
a(lp3679
F0.337349
aaI83
aa(lp3680
I1
a(lp3681
F0.612403
aaI129
aa(lp3682
I1
a(lp3683
F0.535433
aaI127
aa(lp3684
I1
a(lp3685
F0.530303
aaI132
aa(lp3686
I1
a(lp3687
F0.436508
aaI126
aa(lp3688
I1
a(lp3689
F0.290909
aaI110
aa(lp3690
I1
a(lp3691
F0.302752
aaI109
aa(lp3692
I1
a(lp3693
F0.326923
aaI104
aa(lp3694
I1
a(lp3695
F0.345455
aaI110
aa(lp3696
I1
a(lp3697
F0.339623
aaI106
aa(lp3698
I1
a(lp3699
F0.435644
aaI101
aa(lp3700
I1
a(lp3701
F0.397959
aaI98
aa(lp3702
I1
a(lp3703
F0.258065
aaI93
aa(lp3704
I1
a(lp3705
F0.253165
aaI79
aa(lp3706
I1
a(lp3707
F0.5
aaI130
aa(lp3708
I1
a(lp3709
F0.242105
aaI95
aaa(lp3710
g869
ag870
a(lp3711
I1
a(lp3712
F0.398374
aaI123
aa(lp3713
I1
a(lp3714
F0.429688
aaI128
aa(lp3715
I1
a(lp3716
F0.448
aaI125
aa(lp3717
I1
a(lp3718
F0.47541
aaI122
aa(lp3719
I1
a(lp3720
F0.385246
aaI122
aa(lp3721
I1
a(lp3722
F0.350877
aaI114
aa(lp3723
I1
a(lp3724
F0.351145
aaI131
aa(lp3725
I1
a(lp3726
F0.416667
aaI72
aa(lp3727
I1
a(lp3728
F0.391304
aaI69
aaa(lp3729
g878
ag879
a(lp3730
I1
a(lp3731
F0.282609
aaI138
aa(lp3732
I1
a(lp3733
F0.397959
aaI98
aa(lp3734
I1
a(lp3735
F0.40625
aaI96
aa(lp3736
I1
a(lp3737
F0.438776
aaI98
aa(lp3738
I1
a(lp3739
F0.418367
aaI98
aa(lp3740
I1
a(lp3741
F0.380597
aaI134
aa(lp3742
I1
a(lp3743
F0.425197
aaI127
aa(lp3744
I1
a(lp3745
F0.352
aaI125
aa(lp3746
I1
a(lp3747
F0.389313
aaI131
aa(lp3748
I1
a(lp3749
F0.442308
aaI104
aaa(lp3750
g881
ag882
aa(lp3751
g884
ag885
aa(lp3752
g887
ag888
a(lp3753
I1
a(lp3754
F0.218391
aaI87
aa(lp3755
I1
a(lp3756
F0.348315
aaI89
aa(lp3757
I1
a(lp3758
F0.258065
aaI93
aa(lp3759
I1
a(lp3760
F0.233333
aaI90
aa(lp3761
I1
a(lp3762
F0.255319
aaI94
aa(lp3763
I1
a(lp3764
F0.25
aaI92
aa(lp3765
I1
a(lp3766
F0.273684
aaI95
aa(lp3767
I1
a(lp3768
F0.322581
aaI62
aa(lp3769
I1
a(lp3770
F0.301587
aaI63
aa(lp3771
I1
a(lp3772
F0.222222
aaI90
aa(lp3773
I1
a(lp3774
F0.217391
aaI92
aa(lp3775
I1
a(lp3776
F0.225352
aaI71
aaa(lp3777
g890
ag891
aa(lp3778
g893
ag894
a(lp3779
I1
a(lp3780
F0.253731
aaI67
aa(lp3781
I1
a(lp3782
F0.226667
aaI75
aa(lp3783
I1
a(lp3784
F0.213333
aaI75
aa(lp3785
I1
a(lp3786
F0.309524
aaI84
aa(lp3787
I1
a(lp3788
F0.233333
aaI90
aaa(lp3789
g898
ag899
a(lp3790
I1
a(lp3791
F0.626761
aaI142
aaa(lp3792
g901
ag902
a(lp3793
I1
a(lp3794
F0.296053
aaI152
aaa(lp3795
g904
ag905
aa(lp3796
g907
ag908
aa(lp3797
g910
ag911
aa(lp3798
g913
ag914
a(lp3799
I1
a(lp3800
F0.427419
aaI124
aa(lp3801
I1
a(lp3802
F0.478873
aaI142
aa(lp3803
I1
a(lp3804
F0.247706
aaI109
aaa(lp3805
g916
ag917
aa(lp3806
g919
ag920
aa(lp3807
g922
ag923
a(lp3808
I1
a(lp3809
F0.428571
aaI112
aaa(lp3810
g925
ag926
aa(lp3811
g928
ag929
a(lp3812
I1
a(lp3813
F0.214286
aaI14
aa(lp3814
I1
a(lp3815
F0.275862
aaI29
aa(lp3816
I1
a(lp3817
F0.438596
aaI57
aa(lp3818
I1
a(lp3819
F0.377358
aaI53
aa(lp3820
I1
a(lp3821
F0.346154
aaI52
aa(lp3822
I1
a(lp3823
F0.297872
aaI47
aa(lp3824
I1
a(lp3825
F0.349206
aaI63
aa(lp3826
I1
a(lp3827
F0.380282
aaI71
aa(lp3828
I1
a(lp3829
F0.380282
aaI71
aa(lp3830
I1
a(lp3831
F0.397436
aaI78
aa(lp3832
I1
a(lp3833
F0.351351
aaI74
aa(lp3834
I1
a(lp3835
F0.307692
aaI65
aa(lp3836
I1
a(lp3837
F0.253165
aaI79
aa(lp3838
I1
a(lp3839
F0.25
aaI80
aa(lp3840
I1
a(lp3841
F0.253012
aaI83
aa(lp3842
I1
a(lp3843
F0.258065
aaI62
aa(lp3844
I1
a(lp3845
F0.209677
aaI62
aa(lp3846
I1
a(lp3847
F0.285714
aaI56
aa(lp3848
I1
a(lp3849
F0.217391
aaI69
aa(lp3850
I1
a(lp3851
F0.26087
aaI69
aa(lp3852
I1
a(lp3853
F0.25
aaI68
aaa(lp3854
g931
ag932
a(lp3855
I1
a(lp3856
F0.230769
aaI91
aa(lp3857
I1
a(lp3858
F0.330709
aaI127
aa(lp3859
I1
a(lp3860
F0.541284
aaI109
aa(lp3861
I1
a(lp3862
F0.336957
aaI92
aa(lp3863
I1
a(lp3864
F0.309524
aaI84
aa(lp3865
I1
a(lp3866
F0.341176
aaI85
aaa(lp3867
g936
ag937
aa(lp3868
g939
ag940
a(lp3869
I1
a(lp3870
F0.369048
aaI84
aa(lp3871
I1
a(lp3872
F0.207254
aaI193
aa(lp3873
I1
a(lp3874
F0.3125
aaI96
aa(lp3875
I1
a(lp3876
F0.223529
aaI85
aa(lp3877
I1
a(lp3878
F0.431034
aaI116
aa(lp3879
I1
a(lp3880
F0.290323
aaI93
aa(lp3881
I1
a(lp3882
F0.314607
aaI89
aa(lp3883
I1
a(lp3884
F0.382609
aaI115
aa(lp3885
I1
a(lp3886
F0.37931
aaI116
aa(lp3887
I1
a(lp3888
F0.396226
aaI159
aa(lp3889
I1
a(lp3890
F0.0
aaI160
aa(lp3891
I1
a(lp3892
F0.0
aaI144
aa(lp3893
I1
a(lp3894
F0.22449
aaI98
aaa(lp3895
g968
ag969
a(lp3896
I1
a(lp3897
F0.330645
aaI124
aa(lp3898
I1
a(lp3899
F0.421053
aaI133
aa(lp3900
I1
a(lp3901
F0.430108
aaI93
aa(lp3902
I1
a(lp3903
F0.4
aaI95
aa(lp3904
I1
a(lp3905
F0.415842
aaI101
aa(lp3906
I1
a(lp3907
F0.337349
aaI83
aa(lp3908
I1
a(lp3909
F0.253165
aaI79
aaa(lp3910
g977
ag978
a(lp3911
I1
a(lp3912
F0.450549
aaI91
aa(lp3913
I1
a(lp3914
F0.392405
aaI79
aa(lp3915
I1
a(lp3916
F0.516129
aaI93
aaa(lp3917
g988
ag989
a(lp3918
I1
a(lp3919
F0.271605
aaI81
aa(lp3920
I1
a(lp3921
F0.284091
aaI88
aa(lp3922
I1
a(lp3923
F0.274725
aaI91
aa(lp3924
I1
a(lp3925
F0.241935
aaI62
aa(lp3926
I1
a(lp3927
F0.234375
aaI64
aa(lp3928
I1
a(lp3929
F0.233333
aaI60
aa(lp3930
I1
a(lp3931
F0.306452
aaI62
aa(lp3932
I1
a(lp3933
F0.3
aaI40
aaa(lp3934
g991
ag992
aa(lp3935
g994
ag995
aa(lp3936
g997
ag998
aa(lp3937
g1000
ag1001
a(lp3938
I1
a(lp3939
F0.22619
aaI84
aa(lp3940
I1
a(lp3941
F0.206897
aaI87
aa(lp3942
I1
a(lp3943
F0.213333
aaI75
aa(lp3944
I1
a(lp3945
F0.227273
aaI66
aa(lp3946
I1
a(lp3947
F0.246575
aaI73
aa(lp3948
I1
a(lp3949
F0.256757
aaI74
aa(lp3950
I1
a(lp3951
F0.317647
aaI85
aa(lp3952
I1
a(lp3953
F0.25641
aaI78
aa(lp3954
I1
a(lp3955
F0.304878
aaI82
aa(lp3956
I1
a(lp3957
F0.308642
aaI81
aaa(lp3958
g1003
ag1004
a(lp3959
I1
a(lp3960
F0.437037
aaI135
aaa(lp3961
g1006
ag1007
a(lp3962
I1
a(lp3963
F0.491071
aaI112
aa(lp3964
I1
a(lp3965
F0.285714
aaI98
aa(lp3966
I1
a(lp3967
F0.263158
aaI76
aa(lp3968
I1
a(lp3969
F0.482143
aaI112
aa(lp3970
I1
a(lp3971
F0.393939
aaI132
aa(lp3972
I1
a(lp3973
F0.252874
aaI87
aa(lp3974
I1
a(lp3975
F0.40458
aaI131
aaa(lp3976
g1011
ag1012
aa(lp3977
g1018
ag1019
aa(lp3978
g1021
ag1022
a(lp3979
I1
a(lp3980
F0.36036
aaI111
aa(lp3981
I1
a(lp3982
F0.348214
aaI112
aa(lp3983
I1
a(lp3984
F0.394231
aaI104
aa(lp3985
I1
a(lp3986
F0.422222
aaI90
aa(lp3987
I1
a(lp3988
F0.467391
aaI92
aa(lp3989
I1
a(lp3990
F0.435294
aaI85
aa(lp3991
I1
a(lp3992
F0.333333
aaI57
aa(lp3993
I1
a(lp3994
F0.345455
aaI55
aa(lp3995
I1
a(lp3996
F0.326923
aaI52
aa(lp3997
I1
a(lp3998
F0.352113
aaI71
aa(lp3999
I1
a(lp4000
F0.319444
aaI72
aa(lp4001
I1
a(lp4002
F0.318841
aaI69
aa(lp4003
I1
a(lp4004
F0.324324
aaI74
aa(lp4005
I1
a(lp4006
F0.241379
aaI87
aa(lp4007
I1
a(lp4008
F0.278351
aaI97
aa(lp4009
I1
a(lp4010
F0.5
aaI112
aa(lp4011
I1
a(lp4012
F0.264368
aaI87
aa(lp4013
I1
a(lp4014
F0.430556
aaI144
aa(lp4015
I1
a(lp4016
F0.244186
aaI86
aa(lp4017
I1
a(lp4018
F0.2
aaI90
aa(lp4019
I1
a(lp4020
F0.233333
aaI90
aa(lp4021
I1
a(lp4022
F0.23913
aaI92
aa(lp4023
I1
a(lp4024
F0.255102
aaI98
aa(lp4025
I1
a(lp4026
F0.244898
aaI98
aa(lp4027
I1
a(lp4028
F0.236559
aaI93
aa(lp4029
I1
a(lp4030
F0.241758
aaI91
aa(lp4031
I1
a(lp4032
F0.241379
aaI87
aa(lp4033
I1
a(lp4034
F0.241758
aaI91
aa(lp4035
I1
a(lp4036
F0.233645
aaI107
aaa(lp4037
g1078
ag1079
a(lp4038
I1
a(lp4039
F0.223881
aaI67
aa(lp4040
I1
a(lp4041
F0.243243
aaI74
aa(lp4042
I1
a(lp4043
F0.313953
aaI86
aa(lp4044
I1
a(lp4045
F0.311828
aaI93
aa(lp4046
I1
a(lp4047
F0.387097
aaI93
aa(lp4048
I1
a(lp4049
F0.388235
aaI85
aa(lp4050
I1
a(lp4051
F0.278481
aaI79
aa(lp4052
I1
a(lp4053
F0.229508
aaI61
aa(lp4054
I1
a(lp4055
F0.245902
aaI61
aa(lp4056
I1
a(lp4057
F0.213483
aaI89
aaa(lp4058
g1083
ag1084
aa(lp4059
g1086
ag1087
a(lp4060
I1
a(lp4061
F0.367347
aaI196
aa(lp4062
I1
a(lp4063
F0.392157
aaI51
aaa(lp4064
g1089
ag1090
aa(lp4065
g1092
ag1093
aa(lp4066
g1095
ag1096
aa(lp4067
g1098
ag1099
a(lp4068
I1
a(lp4069
F0.477876
aaI113
aa(lp4070
I1
a(lp4071
F0.213483
aaI89
aa(lp4072
I1
a(lp4073
F0.294737
aaI95
aa(lp4074
I1
a(lp4075
F0.271739
aaI92
aa(lp4076
I1
a(lp4077
F0.25
aaI80
aa(lp4078
I1
a(lp4079
F0.448276
aaI116
aa(lp4080
I1
a(lp4081
F0.225352
aaI71
aa(lp4082
I1
a(lp4083
F0.263889
aaI72
aa(lp4084
I1
a(lp4085
F0.257143
aaI70
aa(lp4086
I1
a(lp4087
F0.235294
aaI68
aa(lp4088
I1
a(lp4089
F0.263889
aaI72
aa(lp4090
I1
a(lp4091
F0.285714
aaI70
aa(lp4092
I1
a(lp4093
F0.514286
aaI105
aa(lp4094
I1
a(lp4095
F0.460784
aaI102
aa(lp4096
I1
a(lp4097
F0.392523
aaI107
aa(lp4098
I1
a(lp4099
F0.441667
aaI120
aa(lp4100
I1
a(lp4101
F0.619048
aaI105
aa(lp4102
I1
a(lp4103
F0.396947
aaI131
aa(lp4104
I1
a(lp4105
F0.409722
aaI144
aa(lp4106
I1
a(lp4107
F0.583333
aaI96
aa(lp4108
I1
a(lp4109
F0.540816
aaI98
aa(lp4110
I1
a(lp4111
F0.479339
aaI121
aa(lp4112
I1
a(lp4113
F0.207317
aaI82
aa(lp4114
I1
a(lp4115
F0.397959
aaI98
aaa(lp4116
g1133
ag1134
a(lp4117
I1
a(lp4118
F0.318182
aaI88
aa(lp4119
I1
a(lp4120
F0.336735
aaI98
aaa(lp4121
g1136
ag1137
aa(lp4122
g1141
ag1142
a(lp4123
I1
a(lp4124
F0.5
aaI134
aa(lp4125
I1
a(lp4126
F0.433824
aaI136
aaa(lp4127
g1146
ag1147
aa(lp4128
g1151
ag1152
a(lp4129
I1
a(lp4130
F0.306452
aaI62
aa(lp4131
I1
a(lp4132
F0.373626
aaI91
aa(lp4133
I1
a(lp4134
F0.484375
aaI128
aa(lp4135
I1
a(lp4136
F0.52
aaI100
aa(lp4137
I1
a(lp4138
F0.389381
aaI113
aa(lp4139
I1
a(lp4140
F0.471698
aaI106
aa(lp4141
I1
a(lp4142
F0.509434
aaI106
aa(lp4143
I1
a(lp4144
F0.372093
aaI86
aa(lp4145
I1
a(lp4146
F0.223684
aaI76
aa(lp4147
I1
a(lp4148
F0.34375
aaI96
aa(lp4149
I1
a(lp4150
F0.339623
aaI106
aa(lp4151
I1
a(lp4152
F0.314815
aaI108
aa(lp4153
I1
a(lp4154
F0.346154
aaI104
aa(lp4155
I1
a(lp4156
F0.311111
aaI90
aa(lp4157
I1
a(lp4158
F0.257143
aaI70
aa(lp4159
I1
a(lp4160
F0.217822
aaI101
aa(lp4161
I1
a(lp4162
F0.216495
aaI97
aa(lp4163
I1
a(lp4164
F0.206522
aaI92
aa(lp4165
I1
a(lp4166
F0.206522
aaI92
aa(lp4167
I1
a(lp4168
F0.206522
aaI92
aa(lp4169
I1
a(lp4170
F0.387931
aaI116
aa(lp4171
I1
a(lp4172
F0.35
aaI120
aa(lp4173
I1
a(lp4174
F0.355072
aaI138
aa(lp4175
I1
a(lp4176
F0.448276
aaI116
aa(lp4177
I1
a(lp4178
F0.268817
aaI93
aa(lp4179
I1
a(lp4180
F0.31
aaI100
aa(lp4181
I1
a(lp4182
F0.25
aaI80
aa(lp4183
I1
a(lp4184
F0.47619
aaI126
aa(lp4185
I1
a(lp4186
F0.453782
aaI119
aa(lp4187
I1
a(lp4188
F0.243902
aaI82
aa(lp4189
I1
a(lp4190
F0.433962
aaI106
aa(lp4191
I1
a(lp4192
F0.272727
aaI99
aa(lp4193
I1
a(lp4194
F0.3
aaI100
aa(lp4195
I1
a(lp4196
F0.514019
aaI107
aa(lp4197
I1
a(lp4198
F0.547009
aaI117
aa(lp4199
I1
a(lp4200
F0.546218
aaI119
aa(lp4201
I1
a(lp4202
F0.470588
aaI102
aa(lp4203
I1
a(lp4204
F0.539683
aaI126
aa(lp4205
I1
a(lp4206
F0.484615
aaI130
aa(lp4207
I1
a(lp4208
F0.525862
aaI116
aa(lp4209
I1
a(lp4210
F0.342342
aaI111
aa(lp4211
I1
a(lp4212
F0.385246
aaI122
aa(lp4213
I1
a(lp4214
F0.421053
aaI114
aa(lp4215
I1
a(lp4216
F0.316832
aaI101
aaa(lp4217
g1188
ag1189
aa(lp4218
g1191
ag1192
aa(lp4219
g1194
ag1195
aa(lp4220
g1197
ag1198
aa(lp4221
g1200
ag1201
aa(lp4222
g1203
ag1204
a(lp4223
I1
a(lp4224
F0.282609
aaI92
aa(lp4225
I1
a(lp4226
F0.321101
aaI109
aa(lp4227
I1
a(lp4228
F0.217822
aaI101
aa(lp4229
I1
a(lp4230
F0.23301
aaI103
aa(lp4231
I1
a(lp4232
F0.324324
aaI74
aa(lp4233
I1
a(lp4234
F0.202247
aaI89
aa(lp4235
I1
a(lp4236
F0.409836
aaI122
aaa(lp4237
g1206
ag1207
a(lp4238
I1
a(lp4239
F0.518182
aaI110
aa(lp4240
I1
a(lp4241
F0.419355
aaI124
aa(lp4242
I1
a(lp4243
F0.350427
aaI117
aaa(lp4244
g1209
ag1210
aa(lp4245
g1212
ag1213
aa(lp4246
g1215
ag1216
a(lp4247
I1
a(lp4248
F0.344371
aaI151
aa(lp4249
I1
a(lp4250
F0.215686
aaI153
aa(lp4251
I1
a(lp4252
F0.366197
aaI71
aa(lp4253
I1
a(lp4254
F0.272727
aaI176
aa(lp4255
I1
a(lp4256
F0.518797
aaI133
aa(lp4257
I1
a(lp4258
F0.515625
aaI128
aa(lp4259
I1
a(lp4260
F0.529851
aaI134
aa(lp4261
I1
a(lp4262
F0.522727
aaI132
aa(lp4263
I1
a(lp4264
F0.358974
aaI156
aa(lp4265
I1
a(lp4266
F0.355705
aaI149
aa(lp4267
I1
a(lp4268
F0.311111
aaI135
aa(lp4269
I1
a(lp4270
F0.268293
aaI123
aa(lp4271
I1
a(lp4272
F0.245614
aaI114
aa(lp4273
I1
a(lp4274
F0.239316
aaI117
aa(lp4275
I1
a(lp4276
F0.266129
aaI124
aa(lp4277
I1
a(lp4278
F0.291045
aaI134
aa(lp4279
I1
a(lp4280
F0.274194
aaI124
aa(lp4281
I1
a(lp4282
F0.272727
aaI143
aa(lp4283
I1
a(lp4284
F0.28169
aaI142
aa(lp4285
I1
a(lp4286
F0.430657
aaI137
aa(lp4287
I1
a(lp4288
F0.255556
aaI90
aa(lp4289
I1
a(lp4290
F0.247059
aaI85
aa(lp4291
I1
a(lp4292
F0.234568
aaI81
aa(lp4293
I1
a(lp4294
F0.574324
aaI148
aa(lp4295
I1
a(lp4296
F0.37037
aaI108
aa(lp4297
I1
a(lp4298
F0.538462
aaI130
aa(lp4299
I1
a(lp4300
F0.451327
aaI113
aa(lp4301
I1
a(lp4302
F0.495935
aaI123
aa(lp4303
I1
a(lp4304
F0.0
aaI13
aa(lp4305
I1
a(lp4306
F0.272727
aaI77
aa(lp4307
I1
a(lp4308
F0.263736
aaI91
aaa(lp4309
g1240
ag1241
aa(lp4310
g1243
ag1244
aa(lp4311
g1246
ag1247
a(lp4312
I1
a(lp4313
F0.56391
aaI133
aa(lp4314
I1
a(lp4315
F0.428571
aaI112
aaa(lp4316
g1251
ag1252
aa(lp4317
g1258
ag1259
aa(lp4318
g1271
ag1272
aa(lp4319
g1274
ag1275
a(lp4320
I1
a(lp4321
F0.424779
aaI113
aa(lp4322
I1
a(lp4323
F0.224719
aaI89
aa(lp4324
I1
a(lp4325
F0.23913
aaI92
aa(lp4326
I1
a(lp4327
F0.223404
aaI94
aa(lp4328
I1
a(lp4329
F0.228261
aaI92
aa(lp4330
I1
a(lp4331
F0.208791
aaI91
aaa(lp4332
g1277
ag1278
a(lp4333
I1
a(lp4334
F0.383721
aaI86
aa(lp4335
I1
a(lp4336
F0.463158
aaI95
aa(lp4337
I1
a(lp4338
F0.459016
aaI122
aa(lp4339
I1
a(lp4340
F0.435484
aaI124
aa(lp4341
I1
a(lp4342
F0.364486
aaI107
aa(lp4343
I1
a(lp4344
F0.204082
aaI98
aa(lp4345
I1
a(lp4346
F0.266667
aaI75
aa(lp4347
I1
a(lp4348
F0.277778
aaI72
aa(lp4349
I1
a(lp4350
F0.25
aaI68
aa(lp4351
I1
a(lp4352
F0.235294
aaI68
aa(lp4353
I1
a(lp4354
F0.413793
aaI87
aa(lp4355
I1
a(lp4356
F0.459184
aaI98
aa(lp4357
I1
a(lp4358
F0.342857
aaI70
aa(lp4359
I1
a(lp4360
F0.315068
aaI73
aa(lp4361
I1
a(lp4362
F0.212121
aaI66
aaa(lp4363
g1282
ag1283
aa(lp4364
g1285
ag1286
a(lp4365
I1
a(lp4366
F0.27381
aaI84
aaa(lp4367
g1288
ag1289
aa(lp4368
g1291
ag1292
a(lp4369
I1
a(lp4370
F0.289474
aaI76
aa(lp4371
I1
a(lp4372
F0.206349
aaI63
aaa(lp4373
g1294
ag1295
aa(lp4374
g1297
ag1298
aa(lp4375
g1300
ag1301
a(lp4376
I1
a(lp4377
F0.247191
aaI89
aa(lp4378
I1
a(lp4379
F0.518519
aaI108
aa(lp4380
I1
a(lp4381
F0.519737
aaI152
aa(lp4382
I1
a(lp4383
F0.485714
aaI140
aa(lp4384
I1
a(lp4385
F0.516556
aaI151
aa(lp4386
I1
a(lp4387
F0.229885
aaI87
aa(lp4388
I1
a(lp4389
F0.223529
aaI85
aa(lp4390
I1
a(lp4391
F0.444444
aaI135
aa(lp4392
I1
a(lp4393
F0.351351
aaI111
aa(lp4394
I1
a(lp4395
F0.3
aaI90
aa(lp4396
I1
a(lp4397
F0.373494
aaI83
aa(lp4398
I1
a(lp4399
F0.481203
aaI133
aa(lp4400
I1
a(lp4401
F0.440299
aaI134
aaa(lp4402
g1305
ag1306
aa(lp4403
g1310
ag1311
a(lp4404
I1
a(lp4405
F0.2
aaI85
aa(lp4406
I1
a(lp4407
F0.208333
aaI72
aa(lp4408
I1
a(lp4409
F0.265823
aaI79
aa(lp4410
I1
a(lp4411
F0.369048
aaI84
aa(lp4412
I1
a(lp4413
F0.372093
aaI86
aa(lp4414
I1
a(lp4415
F0.366667
aaI90
aa(lp4416
I1
a(lp4417
F0.3
aaI70
aa(lp4418
I1
a(lp4419
F0.445545
aaI101
aa(lp4420
I1
a(lp4421
F0.36
aaI100
aa(lp4422
I1
a(lp4423
F0.319588
aaI97
aa(lp4424
I1
a(lp4425
F0.284091
aaI88
aaa(lp4426
g1315
ag1316
a(lp4427
I1
a(lp4428
F0.409357
aaI171
aaa(lp4429
g1318
ag1319
aa(lp4430
g1321
ag1322
a(lp4431
I1
a(lp4432
F0.42268
aaI97
aa(lp4433
I1
a(lp4434
F0.398058
aaI103
aa(lp4435
I1
a(lp4436
F0.436364
aaI110
aa(lp4437
I1
a(lp4438
F0.431193
aaI109
aa(lp4439
I1
a(lp4440
F0.403846
aaI104
aa(lp4441
I1
a(lp4442
F0.261538
aaI65
aaa(lp4443
g1328
ag1329
a(lp4444
I1
a(lp4445
F0.360825
aaI97
aa(lp4446
I1
a(lp4447
F0.366337
aaI101
aa(lp4448
I1
a(lp4449
F0.397959
aaI98
aa(lp4450
I1
a(lp4451
F0.4
aaI105
aa(lp4452
I1
a(lp4453
F0.39823
aaI113
aa(lp4454
I1
a(lp4455
F0.396396
aaI111
aa(lp4456
I1
a(lp4457
F0.401869
aaI107
aa(lp4458
I1
a(lp4459
F0.453846
aaI130
aa(lp4460
I1
a(lp4461
F0.45614
aaI114
aa(lp4462
I1
a(lp4463
F0.258065
aaI31
aa(lp4464
I1
a(lp4465
F0.463636
aaI110
aa(lp4466
I1
a(lp4467
F0.39604
aaI101
aa(lp4468
I1
a(lp4469
F0.382353
aaI68
aa(lp4470
I1
a(lp4471
F0.253165
aaI79
aa(lp4472
I1
a(lp4473
F0.304348
aaI92
aa(lp4474
I1
a(lp4475
F0.4
aaI95
aa(lp4476
I1
a(lp4477
F0.367925
aaI106
aa(lp4478
I1
a(lp4479
F0.393162
aaI117
aa(lp4480
I1
a(lp4481
F0.352381
aaI105
aa(lp4482
I1
a(lp4483
F0.2
aaI70
aa(lp4484
I1
a(lp4485
F0.492063
aaI126
aa(lp4486
I1
a(lp4487
F0.382812
aaI128
aa(lp4488
I1
a(lp4489
F0.503704
aaI135
aa(lp4490
I1
a(lp4491
F0.430894
aaI123
aa(lp4492
I1
a(lp4493
F0.292135
aaI89
aa(lp4494
I1
a(lp4495
F0.273684
aaI95
aa(lp4496
I1
a(lp4497
F0.223881
aaI67
aa(lp4498
I1
a(lp4499
F0.414894
aaI94
aa(lp4500
I1
a(lp4501
F0.27619
aaI105
aa(lp4502
I1
a(lp4503
F0.247423
aaI97
aa(lp4504
I1
a(lp4505
F0.457447
aaI94
aa(lp4506
I1
a(lp4507
F0.446602
aaI103
aa(lp4508
I1
a(lp4509
F0.446429
aaI112
aa(lp4510
I1
a(lp4511
F0.434783
aaI115
aa(lp4512
I1
a(lp4513
F0.457627
aaI118
aa(lp4514
I1
a(lp4515
F0.380165
aaI121
aa(lp4516
I1
a(lp4517
F0.373984
aaI123
aa(lp4518
I1
a(lp4519
F0.475
aaI120
aa(lp4520
I1
a(lp4521
F0.526786
aaI112
aa(lp4522
I1
a(lp4523
F0.328767
aaI73
aa(lp4524
I1
a(lp4525
F0.333333
aaI57
aa(lp4526
I1
a(lp4527
F0.267442
aaI86
aa(lp4528
I1
a(lp4529
F0.2
aaI85
aa(lp4530
I1
a(lp4531
F0.206897
aaI87
aa(lp4532
I1
a(lp4533
F0.204545
aaI88
aa(lp4534
I1
a(lp4535
F0.211111
aaI90
aa(lp4536
I1
a(lp4537
F0.231579
aaI95
aa(lp4538
I1
a(lp4539
F0.255319
aaI94
aa(lp4540
I1
a(lp4541
F0.255556
aaI90
aa(lp4542
I1
a(lp4543
F0.291667
aaI96
aa(lp4544
I1
a(lp4545
F0.54386
aaI57
aa(lp4546
I1
a(lp4547
F0.325301
aaI83
aa(lp4548
I1
a(lp4549
F0.257143
aaI70
aa(lp4550
I1
a(lp4551
F0.220779
aaI77
aa(lp4552
I1
a(lp4553
F0.383178
aaI107
aaa(lp4554
g1335
ag1336
a(lp4555
I1
a(lp4556
F0.206522
aaI92
aa(lp4557
I1
a(lp4558
F0.240506
aaI79
aa(lp4559
I1
a(lp4560
F0.0
aaI76
aa(lp4561
I1
a(lp4562
F0.22619
aaI84
aa(lp4563
I1
a(lp4564
F0.2
aaI85
aa(lp4565
I1
a(lp4566
F0.302817
aaI142
aa(lp4567
I1
a(lp4568
F0.21374
aaI131
aa(lp4569
I1
a(lp4570
F0.285714
aaI98
aa(lp4571
I1
a(lp4572
F0.277228
aaI101
aa(lp4573
I1
a(lp4574
F0.27451
aaI102
aa(lp4575
I1
a(lp4576
F0.283019
aaI106
aa(lp4577
I1
a(lp4578
F0.238095
aaI84
aa(lp4579
I1
a(lp4580
F0.243902
aaI82
aa(lp4581
I1
a(lp4582
F0.238095
aaI84
aa(lp4583
I1
a(lp4584
F0.235294
aaI85
aa(lp4585
I1
a(lp4586
F0.229885
aaI87
aaa(lp4587
g1340
ag1341
aa(lp4588
g1343
ag1344
aa(lp4589
g1346
ag1347
a(lp4590
I1
a(lp4591
F0.504505
aaI111
aa(lp4592
I1
a(lp4593
F0.43
aaI100
aa(lp4594
I1
a(lp4595
F0.442308
aaI104
aa(lp4596
I1
a(lp4597
F0.53125
aaI96
aa(lp4598
I1
a(lp4599
F0.5
aaI116
aaa(lp4600
g1349
ag1350
a(lp4601
I1
a(lp4602
F0.777778
aaI117
aaa(lp4603
g1352
ag1353
aa(lp4604
g1355
ag1356
aa(lp4605
g1360
ag1361
a(lp4606
I1
a(lp4607
F0.236641
aaI131
aa(lp4608
I1
a(lp4609
F0.245614
aaI114
aa(lp4610
I1
a(lp4611
F0.214286
aaI28
aa(lp4612
I1
a(lp4613
F0.223684
aaI76
aa(lp4614
I1
a(lp4615
F0.269663
aaI89
aa(lp4616
I1
a(lp4617
F0.328571
aaI70
aa(lp4618
I1
a(lp4619
F0.410256
aaI78
aa(lp4620
I1
a(lp4621
F0.0
aaI87
aa(lp4622
I1
a(lp4623
F0.3375
aaI80
aa(lp4624
I1
a(lp4625
F0.253731
aaI67
aa(lp4626
I1
a(lp4627
F0.234694
aaI98
aa(lp4628
I1
a(lp4629
F0.223404
aaI94
aa(lp4630
I1
a(lp4631
F0.247423
aaI97
aa(lp4632
I1
a(lp4633
F0.22
aaI100
aa(lp4634
I1
a(lp4635
F0.245098
aaI102
aaa(lp4636
g1363
ag1364
aa(lp4637
g1368
ag1369
a(lp4638
I1
a(lp4639
F0.0
aaI110
aaa(lp4640
g1371
ag1372
a(lp4641
I1
a(lp4642
F0.3
aaI20
aa(lp4643
I1
a(lp4644
F0.0
aaI71
aaa(lp4645
g1374
ag1375
aa(lp4646
g1387
ag1388
aa(lp4647
g1392
ag1393
a(lp4648
I1
a(lp4649
F0.0
aaI48
aa(lp4650
I1
a(lp4651
F0.0
aaI52
aaa(lp4652
g1405
ag1406
a(lp4653
I1
a(lp4654
F0.495238
aaI105
aa(lp4655
I1
a(lp4656
F0.453782
aaI119
aa(lp4657
I1
a(lp4658
F0.277778
aaI72
aa(lp4659
I1
a(lp4660
F0.28
aaI75
aa(lp4661
I1
a(lp4662
F0.316456
aaI79
aaa(lp4663
g1408
ag1409
aa(lp4664
g1411
ag1412
a(lp4665
I1
a(lp4666
F0.402174
aaI92
aa(lp4667
I1
a(lp4668
F0.393617
aaI94
aaa(lp4669
g1414
ag1415
a(lp4670
I1
a(lp4671
F0.4
aaI140
aaa(lp4672
g1423
ag1424
aa(lp4673
g1426
ag1427
aa(lp4674
g1429
ag1430
a(lp4675
I1
a(lp4676
F0.446281
aaI121
aaa(lp4677
g1432
ag1433
a(lp4678
I1
a(lp4679
F0.44697
aaI132
aa(lp4680
I1
a(lp4681
F0.211864
aaI118
aa(lp4682
I1
a(lp4683
F0.224
aaI125
aa(lp4684
I1
a(lp4685
F0.237705
aaI122
aa(lp4686
I1
a(lp4687
F0.252336
aaI107
aa(lp4688
I1
a(lp4689
F0.26087
aaI115
aa(lp4690
I1
a(lp4691
F0.585366
aaI123
aa(lp4692
I1
a(lp4693
F0.47619
aaI105
aa(lp4694
I1
a(lp4695
F0.466667
aaI105
aa(lp4696
I1
a(lp4697
F0.576271
aaI118
aaa(lp4698
g1491
ag1492
aa(lp4699
g1504
ag1505
a(lp4700
I1
a(lp4701
F0.75
aaI40
aa(lp4702
I1
a(lp4703
F0.285714
aaI7
aaa(lp4704
g1529
ag1530
aa(lp4705
g1558
ag1559
a(lp4706
I1
a(lp4707
F0.37931
aaI116
aa(lp4708
I1
a(lp4709
F0.531746
aaI126
aa(lp4710
I1
a(lp4711
F0.439655
aaI116
aa(lp4712
I1
a(lp4713
F0.464286
aaI56
aa(lp4714
I1
a(lp4715
F0.396552
aaI58
aa(lp4716
I1
a(lp4717
F0.363636
aaI66
aa(lp4718
I1
a(lp4719
F0.397516
aaI161
aa(lp4720
I1
a(lp4721
F0.219178
aaI73
aa(lp4722
I1
a(lp4723
F0.213333
aaI75
aa(lp4724
I1
a(lp4725
F0.202532
aaI79
aa(lp4726
I1
a(lp4727
F0.238095
aaI84
aa(lp4728
I1
a(lp4729
F0.271605
aaI81
aa(lp4730
I1
a(lp4731
F0.309524
aaI84
aa(lp4732
I1
a(lp4733
F0.255814
aaI86
aa(lp4734
I1
a(lp4735
F0.298701
aaI77
aa(lp4736
I1
a(lp4737
F0.309859
aaI71
aa(lp4738
I1
a(lp4739
F0.289474
aaI76
aa(lp4740
I1
a(lp4741
F0.317647
aaI85
aa(lp4742
I1
a(lp4743
F0.285714
aaI84
aa(lp4744
I1
a(lp4745
F0.305882
aaI85
aa(lp4746
I1
a(lp4747
F0.471154
aaI104
aa(lp4748
I1
a(lp4749
F0.442105
aaI95
aa(lp4750
I1
a(lp4751
F0.488722
aaI133
aa(lp4752
I1
a(lp4753
F0.392157
aaI102
aa(lp4754
I1
a(lp4755
F0.410526
aaI95
aa(lp4756
I1
a(lp4757
F0.376471
aaI85
aa(lp4758
I1
a(lp4759
F0.384615
aaI91
aa(lp4760
I1
a(lp4761
F0.544828
aaI145
aa(lp4762
I1
a(lp4763
F0.39823
aaI113
aaa(lp4764
g1565
ag1566
a(lp4765
I1
a(lp4766
F0.258065
aaI93
aa(lp4767
I1
a(lp4768
F0.247525
aaI101
aa(lp4769
I1
a(lp4770
F0.256881
aaI109
aa(lp4771
I1
a(lp4772
F0.273504
aaI117
aa(lp4773
I1
a(lp4774
F0.254386
aaI114
aa(lp4775
I1
a(lp4776
F0.0
aaI83
aaa(lp4777
g1568
ag1569
aa(lp4778
g1571
ag1572
a(lp4779
I1
a(lp4780
F0.473684
aaI38
aa(lp4781
I1
a(lp4782
F0.476852
aaI432
aa(lp4783
I1
a(lp4784
F0.392157
aaI102
aa(lp4785
I1
a(lp4786
F0.39604
aaI101
aa(lp4787
I1
a(lp4788
F0.391753
aaI97
aa(lp4789
I1
a(lp4790
F0.371429
aaI105
aa(lp4791
I1
a(lp4792
F0.336735
aaI98
aa(lp4793
I1
a(lp4794
F0.464567
aaI127
aa(lp4795
I1
a(lp4796
F0.344086
aaI93
aa(lp4797
I1
a(lp4798
F0.314607
aaI89
aa(lp4799
I1
a(lp4800
F0.318681
aaI91
aaa(lp4801
g1574
ag1575
a(lp4802
I1
a(lp4803
F0.483051
aaI118
aa(lp4804
I1
a(lp4805
F0.23913
aaI184
aa(lp4806
I1
a(lp4807
F0.452381
aaI126
aa(lp4808
I1
a(lp4809
F0.335878
aaI131
aa(lp4810
I1
a(lp4811
F0.242991
aaI107
aa(lp4812
I1
a(lp4813
F0.318681
aaI91
aa(lp4814
I1
a(lp4815
F0.357895
aaI95
aa(lp4816
I1
a(lp4817
F0.301075
aaI93
aa(lp4818
I1
a(lp4819
F0.372414
aaI145
aa(lp4820
I1
a(lp4821
F0.234043
aaI141
aa(lp4822
I1
a(lp4823
F0.458716
aaI109
aa(lp4824
I1
a(lp4825
F0.43609
aaI133
aa(lp4826
I1
a(lp4827
F0.25
aaI168
aa(lp4828
I1
a(lp4829
F0.28125
aaI160
aa(lp4830
I1
a(lp4831
F0.237037
aaI135
aa(lp4832
I1
a(lp4833
F0.280576
aaI139
aa(lp4834
I1
a(lp4835
F0.276923
aaI130
aa(lp4836
I1
a(lp4837
F0.287879
aaI132
aaa(lp4838
g1579
ag1580
aa(lp4839
g1582
ag1583
a(lp4840
I1
a(lp4841
F0.259259
aaI108
aa(lp4842
I1
a(lp4843
F0.275862
aaI87
aa(lp4844
I1
a(lp4845
F0.2625
aaI80
aa(lp4846
I1
a(lp4847
F0.313131
aaI99
aa(lp4848
I1
a(lp4849
F0.266667
aaI90
aa(lp4850
I1
a(lp4851
F0.255319
aaI94
aa(lp4852
I1
a(lp4853
F0.5
aaI60
aa(lp4854
I1
a(lp4855
F0.294118
aaI102
aa(lp4856
I1
a(lp4857
F0.282828
aaI99
aa(lp4858
I1
a(lp4859
F0.582278
aaI79
aa(lp4860
I1
a(lp4861
F0.254237
aaI59
aa(lp4862
I1
a(lp4863
F0.25
aaI60
aa(lp4864
I1
a(lp4865
F0.298507
aaI67
aa(lp4866
I1
a(lp4867
F0.333333
aaI45
aa(lp4868
I1
a(lp4869
F0.552632
aaI114
aa(lp4870
I1
a(lp4871
F0.411765
aaI85
aa(lp4872
I1
a(lp4873
F0.402299
aaI87
aa(lp4874
I1
a(lp4875
F0.402299
aaI87
aa(lp4876
I1
a(lp4877
F0.244444
aaI90
aa(lp4878
I1
a(lp4879
F0.227273
aaI88
aa(lp4880
I1
a(lp4881
F0.302083
aaI96
aa(lp4882
I1
a(lp4883
F0.297872
aaI94
aa(lp4884
I1
a(lp4885
F0.294737
aaI95
aa(lp4886
I1
a(lp4887
F0.263158
aaI95
aa(lp4888
I1
a(lp4889
F0.243902
aaI82
aa(lp4890
I1
a(lp4891
F0.225
aaI80
aa(lp4892
I1
a(lp4893
F0.294574
aaI129
aaa(lp4894
g1585
ag1586
a(lp4895
I1
a(lp4896
F0.0
aaI6
aa(lp4897
I1
a(lp4898
F0.413793
aaI87
aa(lp4899
I1
a(lp4900
F0.528846
aaI104
aa(lp4901
I1
a(lp4902
F0.46875
aaI96
aa(lp4903
I1
a(lp4904
F0.460784
aaI102
aa(lp4905
I1
a(lp4906
F0.476636
aaI107
aa(lp4907
I1
a(lp4908
F0.438202
aaI89
aa(lp4909
I1
a(lp4910
F0.448276
aaI87
aa(lp4911
I1
a(lp4912
F0.244444
aaI90
aa(lp4913
I1
a(lp4914
F0.254237
aaI59
aa(lp4915
I1
a(lp4916
F0.233333
aaI60
aa(lp4917
I1
a(lp4918
F0.340426
aaI94
aa(lp4919
I1
a(lp4920
F0.393617
aaI94
aa(lp4921
I1
a(lp4922
F0.350877
aaI114
aa(lp4923
I1
a(lp4924
F0.414815
aaI135
aa(lp4925
I1
a(lp4926
F0.410959
aaI146
aa(lp4927
I1
a(lp4928
F0.326923
aaI104
aa(lp4929
I1
a(lp4930
F0.226667
aaI75
aa(lp4931
I1
a(lp4932
F0.236111
aaI72
aa(lp4933
I1
a(lp4934
F0.318182
aaI88
aa(lp4935
I1
a(lp4936
F0.322581
aaI93
aa(lp4937
I1
a(lp4938
F0.373737
aaI99
aa(lp4939
I1
a(lp4940
F0.346939
aaI98
aa(lp4941
I1
a(lp4942
F0.315789
aaI95
aa(lp4943
I1
a(lp4944
F0.311321
aaI106
aa(lp4945
I1
a(lp4946
F0.371429
aaI70
aaa(lp4947
g1594
ag1595
aa(lp4948
g1597
ag1598
a(lp4949
I1
a(lp4950
F0.341463
aaI82
aa(lp4951
I1
a(lp4952
F0.306818
aaI88
aa(lp4953
I1
a(lp4954
F0.272727
aaI77
aa(lp4955
I1
a(lp4956
F0.303797
aaI79
aa(lp4957
I1
a(lp4958
F0.225352
aaI71
aa(lp4959
I1
a(lp4960
F0.213333
aaI75
aa(lp4961
I1
a(lp4962
F0.225352
aaI71
aa(lp4963
I1
a(lp4964
F0.401961
aaI102
aaa(lp4965
g1606
ag1607
aa(lp4966
g1609
ag1610
a(lp4967
I1
a(lp4968
F0.224719
aaI89
aa(lp4969
I1
a(lp4970
F0.22619
aaI84
aa(lp4971
I1
a(lp4972
F0.207792
aaI77
aa(lp4973
I1
a(lp4974
F0.236559
aaI93
aa(lp4975
I1
a(lp4976
F0.266667
aaI90
aa(lp4977
I1
a(lp4978
F0.333333
aaI114
aa(lp4979
I1
a(lp4980
F0.275229
aaI109
aaa(lp4981
g1612
ag1613
aa(lp4982
g1615
ag1616
aa(lp4983
g1634
ag1635
aa(lp4984
g1637
ag1638
a(lp4985
I1
a(lp4986
F0.418803
aaI117
aa(lp4987
I1
a(lp4988
F0.546392
aaI97
aa(lp4989
I1
a(lp4990
F0.446809
aaI94
aa(lp4991
I1
a(lp4992
F0.470588
aaI119
aa(lp4993
I1
a(lp4994
F0.307692
aaI78
aa(lp4995
I1
a(lp4996
F0.325
aaI80
aa(lp4997
I1
a(lp4998
F0.357143
aaI84
aa(lp4999
I1
a(lp5000
F0.380435
aaI92
aa(lp5001
I1
a(lp5002
F0.24
aaI75
aa(lp5003
I1
a(lp5004
F0.342857
aaI70
aa(lp5005
I1
a(lp5006
F0.358025
aaI81
aa(lp5007
I1
a(lp5008
F0.337209
aaI86
aa(lp5009
I1
a(lp5010
F0.314607
aaI89
aa(lp5011
I1
a(lp5012
F0.404255
aaI94
aa(lp5013
I1
a(lp5014
F0.365591
aaI93
aa(lp5015
I1
a(lp5016
F0.446602
aaI103
aa(lp5017
I1
a(lp5018
F0.352273
aaI88
aa(lp5019
I1
a(lp5020
F0.282353
aaI85
aa(lp5021
I1
a(lp5022
F0.2
aaI65
aa(lp5023
I1
a(lp5024
F0.208955
aaI67
aa(lp5025
I1
a(lp5026
F0.236111
aaI72
aaa(lp5027
g1640
ag1641
a(lp5028
I1
a(lp5029
F0.275862
aaI87
aa(lp5030
I1
a(lp5031
F0.240506
aaI79
aa(lp5032
I1
a(lp5033
F0.223684
aaI76
aa(lp5034
I1
a(lp5035
F0.45098
aaI102
aa(lp5036
I1
a(lp5037
F0.436893
aaI103
aa(lp5038
I1
a(lp5039
F0.327434
aaI113
aa(lp5040
I1
a(lp5041
F0.300971
aaI103
aa(lp5042
I1
a(lp5043
F0.256757
aaI74
aa(lp5044
I1
a(lp5045
F0.21519
aaI79
aa(lp5046
I1
a(lp5047
F0.261364
aaI88
aa(lp5048
I1
a(lp5049
F0.274725
aaI91
aa(lp5050
I1
a(lp5051
F0.450704
aaI71
aa(lp5052
I1
a(lp5053
F0.325581
aaI86
aa(lp5054
I1
a(lp5055
F0.216867
aaI83
aa(lp5056
I1
a(lp5057
F0.216867
aaI83
aa(lp5058
I1
a(lp5059
F0.388889
aaI72
aaa(lp5060
g1655
ag1656
aa(lp5061
g1658
ag1659
a(lp5062
I1
a(lp5063
F0.536
aaI125
aaa(lp5064
g1661
ag1662
aa(lp5065
g1664
ag1665
a(lp5066
I1
a(lp5067
F0.2
aaI85
aa(lp5068
I1
a(lp5069
F0.39
aaI100
aa(lp5070
I1
a(lp5071
F0.414141
aaI99
aa(lp5072
I1
a(lp5073
F0.369565
aaI92
aa(lp5074
I1
a(lp5075
F0.348315
aaI89
aaa(lp5076
g1667
ag1668
a(lp5077
I1
a(lp5078
F0.45082
aaI122
aa(lp5079
I1
a(lp5080
F0.475806
aaI124
aa(lp5081
I1
a(lp5082
F0.508333
aaI120
aa(lp5083
I1
a(lp5084
F0.5
aaI124
aa(lp5085
I1
a(lp5086
F0.31068
aaI103
aa(lp5087
I1
a(lp5088
F0.468085
aaI188
aaa(lp5089
g1678
ag1679
a(lp5090
I1
a(lp5091
F0.528
aaI125
aaa(lp5092
g1691
ag1692
aa(lp5093
g1694
ag1695
aa(lp5094
g1697
ag1698
a(lp5095
I1
a(lp5096
F0.606838
aaI117
aa(lp5097
I1
a(lp5098
F0.625
aaI112
aa(lp5099
I1
a(lp5100
F0.231884
aaI69
aa(lp5101
I1
a(lp5102
F0.253333
aaI75
aa(lp5103
I1
a(lp5104
F0.285714
aaI77
aa(lp5105
I1
a(lp5106
F0.338028
aaI71
aa(lp5107
I1
a(lp5108
F0.333333
aaI69
aa(lp5109
I1
a(lp5110
F0.3625
aaI80
aa(lp5111
I1
a(lp5112
F0.37234
aaI94
aa(lp5113
I1
a(lp5114
F0.315789
aaI95
aa(lp5115
I1
a(lp5116
F0.271739
aaI92
aa(lp5117
I1
a(lp5118
F0.291262
aaI103
aa(lp5119
I1
a(lp5120
F0.3
aaI100
aa(lp5121
I1
a(lp5122
F0.333333
aaI105
aa(lp5123
I1
a(lp5124
F0.340206
aaI97
aa(lp5125
I1
a(lp5126
F0.34375
aaI96
aa(lp5127
I1
a(lp5128
F0.445652
aaI92
aa(lp5129
I1
a(lp5130
F0.44898
aaI98
aa(lp5131
I1
a(lp5132
F0.378378
aaI74
aa(lp5133
I1
a(lp5134
F0.388889
aaI72
aa(lp5135
I1
a(lp5136
F0.373333
aaI75
aa(lp5137
I1
a(lp5138
F0.383562
aaI73
aa(lp5139
I1
a(lp5140
F0.4375
aaI96
aa(lp5141
I1
a(lp5142
F0.475248
aaI101
aa(lp5143
I1
a(lp5144
F0.3875
aaI80
aa(lp5145
I1
a(lp5146
F0.379747
aaI79
aa(lp5147
I1
a(lp5148
F0.333333
aaI81
aa(lp5149
I1
a(lp5150
F0.337349
aaI83
aa(lp5151
I1
a(lp5152
F0.265823
aaI79
aa(lp5153
I1
a(lp5154
F0.350877
aaI57
aa(lp5155
I1
a(lp5156
F0.307692
aaI65
aa(lp5157
I1
a(lp5158
F0.445255
aaI137
aaa(lp5159
g1702
ag1703
aa(lp5160
g1723
ag1724
aa(lp5161
g1726
ag1727
aa(lp5162
g1729
ag1730
aa(lp5163
g1732
ag1733
aa(lp5164
g1735
ag1736
a(lp5165
I1
a(lp5166
F0.436975
aaI119
aa(lp5167
I1
a(lp5168
F0.257426
aaI101
aaa(lp5169
g1738
ag1739
aa(lp5170
g1747
ag1748
aa(lp5171
g1750
ag1751
aa(lp5172
g1753
ag1754
aa(lp5173
g1756
ag1757
aa(lp5174
g1759
ag1760
a(lp5175
I1
a(lp5176
F0.230769
aaI65
aaa(lp5177
g1766
ag1767
aa(lp5178
g1799
ag1800
aa(lp5179
g1802
ag1803
a(lp5180
I1
a(lp5181
F0.351351
aaI111
aaa(lp5182
g1805
ag1806
a(lp5183
I1
a(lp5184
F0.398148
aaI108
aa(lp5185
I1
a(lp5186
F0.373832
aaI107
aa(lp5187
I1
a(lp5188
F0.478992
aaI119
aa(lp5189
I1
a(lp5190
F0.364286
aaI140
aa(lp5191
I1
a(lp5192
F0.230769
aaI78
aa(lp5193
I1
a(lp5194
F0.240506
aaI79
aa(lp5195
I1
a(lp5196
F0.21519
aaI79
aaa(lp5197
g1808
ag1809
aa(lp5198
g1811
ag1812
a(lp5199
I1
a(lp5200
F0.359223
aaI103
aa(lp5201
I1
a(lp5202
F0.277778
aaI108
aa(lp5203
I1
a(lp5204
F0.259615
aaI104
aa(lp5205
I1
a(lp5206
F0.26
aaI100
aa(lp5207
I1
a(lp5208
F0.247619
aaI105
aa(lp5209
I1
a(lp5210
F0.267327
aaI101
aa(lp5211
I1
a(lp5212
F0.247423
aaI97
aa(lp5213
I1
a(lp5214
F0.319588
aaI97
aa(lp5215
I1
a(lp5216
F0.357143
aaI98
aa(lp5217
I1
a(lp5218
F0.360825
aaI97
aa(lp5219
I1
a(lp5220
F0.237374
aaI198
aaa(lp5221
g1814
ag1815
aa(lp5222
g1817
ag1818
aa(lp5223
g1844
ag1845
a(lp5224
I1
a(lp5225
F0.61194
aaI67
aa(lp5226
I1
a(lp5227
F0.635135
aaI74
aa(lp5228
I1
a(lp5229
F0.623377
aaI77
aa(lp5230
I1
a(lp5231
F0.648649
aaI74
aaa(lp5232
g1847
ag1848
aa(lp5233
g1850
ag1851
aa(lp5234
g1853
ag1854
a(lp5235
I1
a(lp5236
F0.209184
aaI196
aaa(lp5237
g1882
ag1883
aa(lp5238
g1889
ag1890
aa(lp5239
g1896
ag1897
a(lp5240
I1
a(lp5241
F0.255319
aaI94
aa(lp5242
I1
a(lp5243
F0.2
aaI90
aa(lp5244
I1
a(lp5245
F0.218391
aaI87
aa(lp5246
I1
a(lp5247
F0.2
aaI85
aa(lp5248
I1
a(lp5249
F0.240964
aaI83
aaa(lp5250
g1903
ag1904
aa(lp5251
g1906
ag1907
aa(lp5252
g1909
ag1910
a(lp5253
I1
a(lp5254
F0.45
aaI40
aa(lp5255
I1
a(lp5256
F0.71831
aaI71
aa(lp5257
I1
a(lp5258
F0.712329
aaI73
aa(lp5259
I1
a(lp5260
F0.761364
aaI88
aa(lp5261
I1
a(lp5262
F0.265823
aaI79
aa(lp5263
I1
a(lp5264
F0.32
aaI100
aa(lp5265
I1
a(lp5266
F0.315789
aaI95
aa(lp5267
I1
a(lp5268
F0.54
aaI100
aa(lp5269
I1
a(lp5270
F0.512821
aaI117
aa(lp5271
I1
a(lp5272
F0.561983
aaI121
aaa(lp5273
g1912
ag1913
aa(lp5274
g1915
ag1916
a(lp5275
I1
a(lp5276
F0.270833
aaI96
aa(lp5277
I1
a(lp5278
F0.317647
aaI85
aa(lp5279
I1
a(lp5280
F0.301205
aaI83
aa(lp5281
I1
a(lp5282
F0.4
aaI65
aa(lp5283
I1
a(lp5284
F0.308824
aaI68
aa(lp5285
I1
a(lp5286
F0.241379
aaI58
aa(lp5287
I1
a(lp5288
F0.222222
aaI63
aa(lp5289
I1
a(lp5290
F0.215385
aaI65
aa(lp5291
I1
a(lp5292
F0.383721
aaI86
aa(lp5293
I1
a(lp5294
F0.372093
aaI86
aa(lp5295
I1
a(lp5296
F0.333333
aaI63
aaa(lp5297
g1918
ag1919
aa(lp5298
g1923
ag1924
aa(lp5299
g1926
ag1927
aa(lp5300
g1929
ag1930
a(lp5301
I1
a(lp5302
F0.395604
aaI91
aa(lp5303
I1
a(lp5304
F0.368421
aaI95
aa(lp5305
I1
a(lp5306
F0.436242
aaI149
aa(lp5307
I1
a(lp5308
F0.515873
aaI126
aa(lp5309
I1
a(lp5310
F0.474747
aaI99
aa(lp5311
I1
a(lp5312
F0.294118
aaI51
aa(lp5313
I1
a(lp5314
F0.333333
aaI57
aa(lp5315
I1
a(lp5316
F0.316667
aaI60
aa(lp5317
I1
a(lp5318
F0.378788
aaI66
aa(lp5319
I1
a(lp5320
F0.470588
aaI34
aa(lp5321
I1
a(lp5322
F0.432432
aaI37
aa(lp5323
I1
a(lp5324
F0.360465
aaI86
aa(lp5325
I1
a(lp5326
F0.289157
aaI83
aa(lp5327
I1
a(lp5328
F0.446602
aaI103
aa(lp5329
I1
a(lp5330
F0.264368
aaI87
aa(lp5331
I1
a(lp5332
F0.252632
aaI95
aa(lp5333
I1
a(lp5334
F0.266667
aaI90
aa(lp5335
I1
a(lp5336
F0.211765
aaI85
aa(lp5337
I1
a(lp5338
F0.24359
aaI78
aa(lp5339
I1
a(lp5340
F0.222222
aaI72
aa(lp5341
I1
a(lp5342
F0.295775
aaI71
aa(lp5343
I1
a(lp5344
F0.208955
aaI67
aa(lp5345
I1
a(lp5346
F0.258065
aaI62
aa(lp5347
I1
a(lp5348
F0.302632
aaI76
aa(lp5349
I1
a(lp5350
F0.257732
aaI97
aa(lp5351
I1
a(lp5352
F0.244444
aaI90
aaa(lp5353
g1942
ag1943
a(lp5354
I1
a(lp5355
F0.259259
aaI81
aa(lp5356
I1
a(lp5357
F0.280899
aaI89
aa(lp5358
I1
a(lp5359
F0.488095
aaI84
aa(lp5360
I1
a(lp5361
F0.302326
aaI86
aa(lp5362
I1
a(lp5363
F0.263158
aaI95
aa(lp5364
I1
a(lp5365
F0.202532
aaI79
aa(lp5366
I1
a(lp5367
F0.303922
aaI102
aa(lp5368
I1
a(lp5369
F0.320755
aaI106
aa(lp5370
I1
a(lp5371
F0.504854
aaI103
aa(lp5372
I1
a(lp5373
F0.5
aaI106
aa(lp5374
I1
a(lp5375
F0.429907
aaI107
aa(lp5376
I1
a(lp5377
F0.424528
aaI106
aa(lp5378
I1
a(lp5379
F0.419643
aaI112
aa(lp5380
I1
a(lp5381
F0.360656
aaI122
aa(lp5382
I1
a(lp5383
F0.313433
aaI134
aa(lp5384
I1
a(lp5385
F0.333333
aaI102
aa(lp5386
I1
a(lp5387
F0.246154
aaI65
aa(lp5388
I1
a(lp5389
F0.258621
aaI58
aa(lp5390
I1
a(lp5391
F0.412371
aaI97
aa(lp5392
I1
a(lp5393
F0.324324
aaI74
aa(lp5394
I1
a(lp5395
F0.266667
aaI75
aa(lp5396
I1
a(lp5397
F0.263158
aaI76
aa(lp5398
I1
a(lp5399
F0.263158
aaI76
aa(lp5400
I1
a(lp5401
F0.285714
aaI70
aa(lp5402
I1
a(lp5403
F0.291139
aaI79
aa(lp5404
I1
a(lp5405
F0.296703
aaI91
aa(lp5406
I1
a(lp5407
F0.357895
aaI95
aaa(lp5408
g1947
ag1948
a(lp5409
I1
a(lp5410
F0.441176
aaI34
aaa(lp5411
g1952
ag1953
aa(lp5412
g1955
ag1956
aa(lp5413
g1958
ag1959
aa(lp5414
g1961
ag1962
a(lp5415
I1
a(lp5416
F0.407692
aaI130
aaa(lp5417
g2008
ag2009
a(lp5418
I1
a(lp5419
F0.217252
aaI313
aa(lp5420
I1
a(lp5421
F0.486989
aaI269
aaa(lp5422
g2011
ag2012
a(lp5423
I1
a(lp5424
F0.303797
aaI79
aa(lp5425
I1
a(lp5426
F0.304348
aaI92
aa(lp5427
I1
a(lp5428
F0.303922
aaI102
aa(lp5429
I1
a(lp5430
F0.284211
aaI95
aa(lp5431
I1
a(lp5432
F0.37963
aaI108
aa(lp5433
I1
a(lp5434
F0.32
aaI100
aa(lp5435
I1
a(lp5436
F0.272727
aaI99
aaa(lp5437
g2030
ag2031
aa(lp5438
g2033
ag2034
aa(lp5439
g2038
ag2039
a(lp5440
I1
a(lp5441
F0.434783
aaI92
aa(lp5442
I1
a(lp5443
F0.272727
aaI88
aa(lp5444
I1
a(lp5445
F0.344086
aaI93
aaa(lp5446
g2043
ag2044
a(lp5447
I1
a(lp5448
F0.2375
aaI80
aa(lp5449
I1
a(lp5450
F0.230769
aaI78
aa(lp5451
I1
a(lp5452
F0.280899
aaI89
aa(lp5453
I1
a(lp5454
F0.380435
aaI92
aa(lp5455
I1
a(lp5456
F0.347826
aaI92
aa(lp5457
I1
a(lp5458
F0.352381
aaI105
aa(lp5459
I1
a(lp5460
F0.32381
aaI105
aa(lp5461
I1
a(lp5462
F0.330097
aaI103
aaa(lp5463
g2054
ag2055
a(lp5464
I1
a(lp5465
F0.227848
aaI79
aa(lp5466
I1
a(lp5467
F0.296703
aaI91
aa(lp5468
I1
a(lp5469
F0.35514
aaI107
aa(lp5470
I1
a(lp5471
F0.27451
aaI102
aaa(lp5472
g2065
ag2066
a(lp5473
I1
a(lp5474
F0.350427
aaI117
aa(lp5475
I1
a(lp5476
F0.411765
aaI119
aa(lp5477
I1
a(lp5478
F0.435115
aaI131
aa(lp5479
I1
a(lp5480
F0.351351
aaI111
aa(lp5481
I1
a(lp5482
F0.268041
aaI97
aa(lp5483
I1
a(lp5484
F0.398305
aaI118
aa(lp5485
I1
a(lp5486
F0.297872
aaI94
aa(lp5487
I1
a(lp5488
F0.378641
aaI103
aa(lp5489
I1
a(lp5490
F0.306667
aaI75
aa(lp5491
I1
a(lp5492
F0.287879
aaI66
aa(lp5493
I1
a(lp5494
F0.460784
aaI102
aa(lp5495
I1
a(lp5496
F0.434783
aaI92
aa(lp5497
I1
a(lp5498
F0.442623
aaI122
aa(lp5499
I1
a(lp5500
F0.447619
aaI105
aa(lp5501
I1
a(lp5502
F0.448598
aaI107
aa(lp5503
I1
a(lp5504
F0.475728
aaI103
aaa(lp5505
g2094
ag2095
a(lp5506
I1
a(lp5507
F0.486239
aaI109
aa(lp5508
I1
a(lp5509
F0.296703
aaI91
aa(lp5510
I1
a(lp5511
F0.275362
aaI69
aa(lp5512
I1
a(lp5513
F0.308824
aaI68
aa(lp5514
I1
a(lp5515
F0.359375
aaI64
aa(lp5516
I1
a(lp5517
F0.3
aaI60
aa(lp5518
I1
a(lp5519
F0.318182
aaI66
aaa(lp5520
g2097
ag2098
aa(lp5521
g2114
ag2115
aa(lp5522
g2117
ag2118
a(lp5523
I1
a(lp5524
F0.508671
aaI173
aa(lp5525
I1
a(lp5526
F0.415254
aaI118
aaa(lp5527
g2122
ag2123
aa(lp5528
g2125
ag2126
aa(lp5529
g2128
ag2129
aa(lp5530
g2229
ag2230
a(lp5531
I1
a(lp5532
F0.375
aaI96
aag2533
a(lp5533
I1
a(lp5534
F0.241935
aaI62
aa(lp5535
I1
a(lp5536
F0.264706
aaI68
aa(lp5537
I1
a(lp5538
F0.457143
aaI70
aa(lp5539
I1
a(lp5540
F0.453125
aaI64
aa(lp5541
I1
a(lp5542
F0.459016
aaI61
aa(lp5543
I1
a(lp5544
F0.490566
aaI53
aa(lp5545
I1
a(lp5546
F0.4
aaI65
aa(lp5547
I1
a(lp5548
F0.46875
aaI64
aa(lp5549
I1
a(lp5550
F0.351852
aaI54
aa(lp5551
I1
a(lp5552
F0.260274
aaI73
aa(lp5553
I1
a(lp5554
F0.361446
aaI83
aa(lp5555
I1
a(lp5556
F0.287879
aaI66
aa(lp5557
I1
a(lp5558
F0.328947
aaI76
aag2561
a(lp5559
I1
a(lp5560
F0.238095
aaI63
aa(lp5561
I1
a(lp5562
F0.341772
aaI79
aa(lp5563
I1
a(lp5564
F0.285714
aaI63
aa(lp5565
I1
a(lp5566
F0.342857
aaI70
aa(lp5567
I1
a(lp5568
F0.271429
aaI70
aa(lp5569
I1
a(lp5570
F0.260274
aaI73
aa(lp5571
I1
a(lp5572
F0.282051
aaI78
aaa(lp5573
g2234
ag2235
aa(lp5574
g2237
ag2238
aa(lp5575
g2242
ag2243
aa(lp5576
g2245
ag2246
aa(lp5577
g2256
ag2257
aa(lp5578
g2259
ag2260
aa(lp5579
g2262
ag2263
aa(lp5580
g2265
ag2266
a(lp5581
I1
a(lp5582
F0.6
aaI5
aaa(lp5583
g2268
ag2269
a(lp5584
I1
a(lp5585
F0.373333
aaI75
aa(lp5586
I1
a(lp5587
F0.296875
aaI64
aa(lp5588
I1
a(lp5589
F0.290323
aaI62
aa(lp5590
I1
a(lp5591
F0.230769
aaI52
aa(lp5592
I1
a(lp5593
F0.211538
aaI52
aa(lp5594
I1
a(lp5595
F0.315217
aaI92
aa(lp5596
I1
a(lp5597
F0.24359
aaI78
aaa(lp5598
g2271
ag2272
a(lp5599
I1
a(lp5600
F0.390476
aaI105
aa(lp5601
I1
a(lp5602
F0.306667
aaI75
aa(lp5603
I1
a(lp5604
F0.438776
aaI98
aa(lp5605
I1
a(lp5606
F0.486239
aaI109
aa(lp5607
I1
a(lp5608
F0.507143
aaI140
aaa(lp5609
g2274
ag2275
aa(lp5610
g2277
ag2278
aa(lp5611
g2280
ag2281
a(lp5612
I1
a(lp5613
F0.510949
aaI137
aa(lp5614
I1
a(lp5615
F0.490196
aaI102
aa(lp5616
I1
a(lp5617
F0.46875
aaI96
aaa(lp5618
g2283
ag2284
aa(lp5619
g2286
ag2287
aa(lp5620
g2289
ag2290
a(lp5621
I1
a(lp5622
F0.417391
aaI115
aa(lp5623
I1
a(lp5624
F0.345133
aaI113
aa(lp5625
I1
a(lp5626
F0.365854
aaI123
aa(lp5627
I1
a(lp5628
F0.324074
aaI108
aaa(lp5629
g2292
ag2293
aa(lp5630
g2295
ag2296
aa(lp5631
g2298
ag2299
aa(lp5632
g2301
ag2302
aa(lp5633
g2304
ag2305
a(lp5634
I1
a(lp5635
F0.488722
aaI133
aa(lp5636
I1
a(lp5637
F0.226415
aaI106
aa(lp5638
I1
a(lp5639
F0.309278
aaI97
aa(lp5640
I1
a(lp5641
F0.24
aaI75
aa(lp5642
I1
a(lp5643
F0.439252
aaI107
aa(lp5644
I1
a(lp5645
F0.44186
aaI129
aa(lp5646
I1
a(lp5647
F0.324786
aaI117
aa(lp5648
I1
a(lp5649
F0.368932
aaI103
aa(lp5650
I1
a(lp5651
F0.440367
aaI109
aa(lp5652
I1
a(lp5653
F0.352
aaI125
aa(lp5654
I1
a(lp5655
F0.239437
aaI71
aa(lp5656
I1
a(lp5657
F0.236559
aaI93
aa(lp5658
I1
a(lp5659
F0.273684
aaI95
aa(lp5660
I1
a(lp5661
F0.25
aaI108
aa(lp5662
I1
a(lp5663
F0.398148
aaI108
aa(lp5664
I1
a(lp5665
F0.244444
aaI90
aa(lp5666
I1
a(lp5667
F0.23913
aaI92
aa(lp5668
I1
a(lp5669
F0.35
aaI100
aa(lp5670
I1
a(lp5671
F0.273684
aaI95
aa(lp5672
I1
a(lp5673
F0.336283
aaI113
aa(lp5674
I1
a(lp5675
F0.256098
aaI82
aa(lp5676
I1
a(lp5677
F0.271605
aaI81
aa(lp5678
I1
a(lp5679
F0.479167
aaI48
aa(lp5680
I1
a(lp5681
F0.4
aaI55
aa(lp5682
I1
a(lp5683
F0.340909
aaI88
aaa(lp5684
g2311
ag2312
aa(lp5685
g2314
ag2315
aa(lp5686
g2317
ag2318
a(lp5687
I1
a(lp5688
F0.317647
aaI85
aa(lp5689
I1
a(lp5690
F0.318182
aaI88
aa(lp5691
I1
a(lp5692
F0.489362
aaI94
aa(lp5693
I1
a(lp5694
F0.426966
aaI89
aaa(lp5695
g2320
ag2321
a(lp5696
I1
a(lp5697
F0.307692
aaI52
aa(lp5698
I1
a(lp5699
F0.22449
aaI49
aa(lp5700
I1
a(lp5701
F0.24
aaI50
aaa(lp5702
g2323
ag2324
aa(lp5703
g2326
ag2327
aa(lp5704
g2329
ag2330
a(lp5705
I1
a(lp5706
F0.231638
aaI177
aa(lp5707
I1
a(lp5708
F0.290816
aaI196
aa(lp5709
I1
a(lp5710
F0.324074
aaI216
aa(lp5711
I1
a(lp5712
F0.312796
aaI211
aa(lp5713
I1
a(lp5714
F0.316872
aaI243
aa(lp5715
I1
a(lp5716
F0.294872
aaI234
aa(lp5717
I1
a(lp5718
F0.265957
aaI188
aa(lp5719
I1
a(lp5720
F0.218579
aaI183
aaa(lp5721
g2344
ag2345
a(lp5722
I1
a(lp5723
F0.224138
aaI58
aa(lp5724
I1
a(lp5725
F0.468085
aaI141
aa(lp5726
I1
a(lp5727
F0.391753
aaI97
aa(lp5728
I1
a(lp5729
F0.416667
aaI108
aaa(lp5730
g2349
ag2350
a(lp5731
I1
a(lp5732
F0.365385
aaI104
aa(lp5733
I1
a(lp5734
F0.448718
aaI78
aa(lp5735
I1
a(lp5736
F0.49505
aaI101
aa(lp5737
I1
a(lp5738
F0.341772
aaI79
aa(lp5739
I1
a(lp5740
F0.309859
aaI71
aa(lp5741
I1
a(lp5742
F0.302632
aaI76
aa(lp5743
I1
a(lp5744
F0.333333
aaI75
aa(lp5745
I1
a(lp5746
F0.214286
aaI70
aa(lp5747
I1
a(lp5748
F0.22973
aaI74
aa(lp5749
I1
a(lp5750
F0.423913
aaI92
aa(lp5751
I1
a(lp5752
F0.336842
aaI95
aa(lp5753
I1
a(lp5754
F0.333333
aaI102
aa(lp5755
I1
a(lp5756
F0.326087
aaI92
aa(lp5757
I1
a(lp5758
F0.355556
aaI90
aa(lp5759
I1
a(lp5760
F0.376344
aaI93
aa(lp5761
I1
a(lp5762
F0.378947
aaI95
aa(lp5763
I1
a(lp5764
F0.521277
aaI94
aa(lp5765
I1
a(lp5766
F0.351351
aaI74
aa(lp5767
I1
a(lp5768
F0.349515
aaI103
aa(lp5769
I1
a(lp5770
F0.283951
aaI81
aa(lp5771
I1
a(lp5772
F0.256098
aaI82
aa(lp5773
I1
a(lp5774
F0.277108
aaI83
aa(lp5775
I1
a(lp5776
F0.325581
aaI86
aa(lp5777
I1
a(lp5778
F0.329545
aaI88
aa(lp5779
I1
a(lp5780
F0.333333
aaI93
aa(lp5781
I1
a(lp5782
F0.365591
aaI93
aa(lp5783
I1
a(lp5784
F0.356322
aaI87
aa(lp5785
I1
a(lp5786
F0.348837
aaI86
aa(lp5787
I1
a(lp5788
F0.289474
aaI76
aa(lp5789
I1
a(lp5790
F0.333333
aaI81
aa(lp5791
I1
a(lp5792
F0.213115
aaI61
aa(lp5793
I1
a(lp5794
F0.209677
aaI62
aa(lp5795
I1
a(lp5796
F0.2
aaI55
aa(lp5797
I1
a(lp5798
F0.225806
aaI62
aa(lp5799
I1
a(lp5800
F0.25
aaI68
aa(lp5801
I1
a(lp5802
F0.242424
aaI66
aa(lp5803
I1
a(lp5804
F0.279412
aaI68
aa(lp5805
I1
a(lp5806
F0.487395
aaI119
aa(lp5807
I1
a(lp5808
F0.366071
aaI112
aa(lp5809
I1
a(lp5810
F0.368421
aaI114
aa(lp5811
I1
a(lp5812
F0.2
aaI60
aa(lp5813
I1
a(lp5814
F0.638889
aaI72
aa(lp5815
I1
a(lp5816
F0.480769
aaI52
aa(lp5817
I1
a(lp5818
F0.2
aaI70
aa(lp5819
I1
a(lp5820
F0.222222
aaI72
aa(lp5821
I1
a(lp5822
F0.234375
aaI64
aa(lp5823
I1
a(lp5824
F0.292308
aaI65
aa(lp5825
I1
a(lp5826
F0.283333
aaI60
aa(lp5827
I1
a(lp5828
F0.225806
aaI62
aa(lp5829
I1
a(lp5830
F0.297297
aaI111
aa(lp5831
I1
a(lp5832
F0.274336
aaI113
aa(lp5833
I1
a(lp5834
F0.217647
aaI170
aaa(lp5835
g2396
ag2397
aa(lp5836
g2407
ag2408
a(lp5837
I1
a(lp5838
F0.343284
aaI67
aa(lp5839
I1
a(lp5840
F0.322581
aaI62
aa(lp5841
I1
a(lp5842
F0.344262
aaI61
aa(lp5843
I1
a(lp5844
F0.387097
aaI62
aa(lp5845
I1
a(lp5846
F0.457627
aaI59
aa(lp5847
I1
a(lp5848
F0.287356
aaI87
aa(lp5849
I1
a(lp5850
F0.284211
aaI95
aa(lp5851
I1
a(lp5852
F0.306667
aaI75
aa(lp5853
I1
a(lp5854
F0.456311
aaI103
aa(lp5855
I1
a(lp5856
F0.453704
aaI108
aa(lp5857
I1
a(lp5858
F0.403846
aaI104
aa(lp5859
I1
a(lp5860
F0.443182
aaI88
aa(lp5861
I1
a(lp5862
F0.367647
aaI68
aa(lp5863
I1
a(lp5864
F0.242857
aaI70
aa(lp5865
I1
a(lp5866
F0.223881
aaI67
aa(lp5867
I1
a(lp5868
F0.26087
aaI69
aa(lp5869
I1
a(lp5870
F0.472527
aaI91
aa(lp5871
I1
a(lp5872
F0.2
aaI80
aa(lp5873
I1
a(lp5874
F0.273684
aaI95
aaa(lp5875
g2410
ag2411
aa(lp5876
g2415
ag2416
a(lp5877
I1
a(lp5878
F0.255814
aaI86
aa(lp5879
I1
a(lp5880
F0.295775
aaI71
aa(lp5881
I1
a(lp5882
F0.306818
aaI88
aaa(lp5883
g2418
ag2419
a(lp5884
I1
a(lp5885
F0.458333
aaI72
aa(lp5886
I1
a(lp5887
F0.5
aaI92
aa(lp5888
I1
a(lp5889
F0.257143
aaI140
aa(lp5890
I1
a(lp5891
F0.463768
aaI138
aa(lp5892
I1
a(lp5893
F0.490196
aaI153
aa(lp5894
I1
a(lp5895
F0.273504
aaI117
aa(lp5896
I1
a(lp5897
F0.235294
aaI119
aa(lp5898
I1
a(lp5899
F0.220339
aaI118
aa(lp5900
I1
a(lp5901
F0.218487
aaI119
aa(lp5902
I1
a(lp5903
F0.401235
aaI162
aa(lp5904
I1
a(lp5905
F0.428571
aaI84
aa(lp5906
I1
a(lp5907
F0.420455
aaI88
aa(lp5908
I1
a(lp5909
F0.382979
aaI94
aa(lp5910
I1
a(lp5911
F0.263158
aaI76
aa(lp5912
I1
a(lp5913
F0.28169
aaI71
aa(lp5914
I1
a(lp5915
F0.313253
aaI83
aa(lp5916
I1
a(lp5917
F0.305882
aaI85
aa(lp5918
I1
a(lp5919
F0.267442
aaI86
aa(lp5920
I1
a(lp5921
F0.262626
aaI99
aa(lp5922
I1
a(lp5923
F0.272727
aaI99
aa(lp5924
I1
a(lp5925
F0.575221
aaI113
aa(lp5926
I1
a(lp5927
F0.602273
aaI88
aa(lp5928
I1
a(lp5929
F0.2125
aaI80
aa(lp5930
I1
a(lp5931
F0.223684
aaI76
aa(lp5932
I1
a(lp5933
F0.284091
aaI88
aaa(lp5934
g2423
ag2424
a(lp5935
I1
a(lp5936
F0.521008
aaI119
aaa(lp5937
g2426
ag2427
a(lp5938
I1
a(lp5939
F0.240964
aaI83
aa(lp5940
I1
a(lp5941
F0.326316
aaI95
aa(lp5942
I1
a(lp5943
F0.307692
aaI104
aa(lp5944
I1
a(lp5945
F0.313725
aaI102
aa(lp5946
I1
a(lp5947
F0.227723
aaI101
aa(lp5948
I1
a(lp5949
F0.242424
aaI99
aaa(lp5950
g2429
ag2430
a(lp5951
I1
a(lp5952
F0.507463
aaI134
aa(lp5953
I1
a(lp5954
F0.464912
aaI114
aa(lp5955
I1
a(lp5956
F0.512397
aaI121
aa(lp5957
I1
a(lp5958
F0.525424
aaI118
aa(lp5959
I1
a(lp5960
F0.476636
aaI107
aa(lp5961
I1
a(lp5962
F0.451923
aaI104
aa(lp5963
I1
a(lp5964
F0.444444
aaI108
aa(lp5965
I1
a(lp5966
F0.430894
aaI123
aa(lp5967
I1
a(lp5968
F0.398374
aaI123
aa(lp5969
I1
a(lp5970
F0.421875
aaI128
aa(lp5971
I1
a(lp5972
F0.268041
aaI97
aaa(lp5973
g2432
ag2433
aa(lp5974
g2435
ag2436
a(lp5975
I1
a(lp5976
F0.308824
aaI68
aa(lp5977
I1
a(lp5978
F0.293478
aaI92
aaa(lp5979
g2438
ag2439
aa(lp5980
g2443
ag2444
aa(lp5981
g2446
ag2447
aa(lp5982
g2449
ag2450
a(lp5983
I1
a(lp5984
F0.22973
aaI74
aa(lp5985
I1
a(lp5986
F0.420635
aaI126
aa(lp5987
I1
a(lp5988
F0.366337
aaI101
aa(lp5989
I1
a(lp5990
F0.330097
aaI103
aaa(lp5991
g2470
ag2471
aa(lp5992
g2473
ag2474
a(lp5993
I1
a(lp5994
F0.333333
aaI78
aa(lp5995
I1
a(lp5996
F0.516304
aaI184
aaa(lp5997
g2578
ag2579
aa(lp5998
g2581
ag2582
a(lp5999
I1
a(lp6000
F0.44
aaI125
aaa(lp6001
g2584
ag2585
aa(lp6002
g2587
ag2588
aa(lp6003
g2592
ag2593
a(lp6004
I1
a(lp6005
F0.472222
aaI108
aa(lp6006
I1
a(lp6007
F0.418919
aaI74
aa(lp6008
I1
a(lp6009
F0.418919
aaI74
aa(lp6010
I1
a(lp6011
F0.372549
aaI102
aa(lp6012
I1
a(lp6013
F0.357143
aaI84
aa(lp6014
I1
a(lp6015
F0.444444
aaI108
aa(lp6016
I1
a(lp6017
F0.442105
aaI95
aa(lp6018
I1
a(lp6019
F0.465347
aaI101
aa(lp6020
I1
a(lp6021
F0.441176
aaI102
aa(lp6022
I1
a(lp6023
F0.465116
aaI129
aaa(lp6024
g2595
ag2596
aa(lp6025
g2598
ag2599
aa(lp6026
g2601
ag2602
aa(lp6027
g2604
ag2605
aa(lp6028
g2641
ag2642
aa(lp6029
g2644
ag2645
aa(lp6030
g2661
ag2662
a(lp6031
I1
a(lp6032
F0.384615
aaI26
aaassS'diploids'
p6033
(dp6034
g3
(lp6035
(lp6036
S'scaffold15895_cov77'
p6037
aS'scaffold49814_cov72'
p6038
aa(lp6039
S'scaffold2677_cov108'
p6040
aS'scaffold6974_cov73'
p6041
a(lp6042
I1
a(lp6043
F0.340909
aaI88
aa(lp6044
I1
a(lp6045
F0.344828
aaI87
aa(lp6046
I1
a(lp6047
F0.481132
aaI106
aa(lp6048
I1
a(lp6049
F0.203704
aaI108
aaa(lp6050
S'scaffold33112_cov67'
p6051
aS'scaffold33753_cov69'
p6052
a(lp6053
I1
a(lp6054
F0.46729
aaI107
aa(lp6055
I1
a(lp6056
F0.28866
aaI97
aa(lp6057
I1
a(lp6058
F0.282828
aaI99
aa(lp6059
I1
a(lp6060
F0.402174
aaI92
aa(lp6061
I1
a(lp6062
F0.273684
aaI95
aa(lp6063
I1
a(lp6064
F0.350649
aaI77
aa(lp6065
I1
a(lp6066
F0.342857
aaI70
aa(lp6067
I1
a(lp6068
F0.442478
aaI113
aa(lp6069
I1
a(lp6070
F0.22619
aaI84
aa(lp6071
I1
a(lp6072
F0.317073
aaI82
aaa(lp6073
S'scaffold166740_cov68'
p6074
aS'scaffold167477_cov80'
p6075
aa(lp6076
S'scaffold1716_cov94'
p6077
aS'scaffold45397_cov62'
p6078
a(lp6079
I1
a(lp6080
F0.45045
aaI111
aa(lp6081
I1
a(lp6082
F0.39604
aaI101
aa(lp6083
I1
a(lp6084
F0.444444
aaI81
aaa(lp6085
S'scaffold6054_cov102'
p6086
aS'scaffold661_cov69'
p6087
aa(lp6088
S'scaffold16609_cov69'
p6089
aS'scaffold52798_cov134'
p6090
aa(lp6091
S'scaffold10275_cov68'
p6092
aS'scaffold62474_cov113'
p6093
aa(lp6094
S'scaffold23999_cov72'
p6095
aS'scaffold3701_cov67'
p6096
aa(lp6097
S'scaffold29165_cov60'
p6098
aS'scaffold561_cov86'
p6099
aa(lp6100
S'scaffold1143_cov170'
p6101
aS'scaffold1145_cov65'
p6102
aa(lp6103
S'scaffold25513_cov91'
p6104
aS'scaffold92575_cov70'
p6105
aa(lp6106
S'scaffold166345_cov136'
p6107
aS'scaffold367_cov102'
p6108
aa(lp6109
S'scaffold1143_cov170'
p6110
aS'scaffold185565_cov204'
p6111
aa(lp6112
S'scaffold29989_cov70'
p6113
aS'scaffold66329_cov132'
p6114
aa(lp6115
S'scaffold18411_cov77'
p6116
aS'scaffold3448_cov89'
p6117
aa(lp6118
S'scaffold12557_cov77'
p6119
aS'scaffold167464_cov86'
p6120
aa(lp6121
S'scaffold1929_cov135'
p6122
aS'scaffold9933_cov110'
p6123
a(lp6124
I1
a(lp6125
F0.518248
aaI137
aaa(lp6126
S'scaffold35435_cov126'
p6127
aS'scaffold9757_cov95'
p6128
aa(lp6129
S'scaffold3002_cov145'
p6130
aS'scaffold32103_cov132'
p6131
aa(lp6132
S'scaffold12335_cov66'
p6133
aS'scaffold8993_cov67'
p6134
a(lp6135
I1
a(lp6136
F0.75
aaI32
aaa(lp6137
S'scaffold10215_cov75'
p6138
aS'scaffold16998_cov67'
p6139
aa(lp6140
S'scaffold15785_cov113'
p6141
aS'scaffold66380_cov110'
p6142
aa(lp6143
S'scaffold8548_cov121'
p6144
aS'scaffold9073_cov65'
p6145
aa(lp6146
S'scaffold14572_cov90'
p6147
aS'scaffold4478_cov68'
p6148
aa(lp6149
S'scaffold56505_cov129'
p6150
aS'scaffold60_cov119'
p6151
aa(lp6152
S'scaffold11928_cov70'
p6153
aS'scaffold46909_cov63'
p6154
aa(lp6155
S'scaffold4585_cov69'
p6156
aS'scaffold6268_cov78'
p6157
a(lp6158
I1
a(lp6159
F0.218391
aaI87
aa(lp6160
I1
a(lp6161
F0.426966
aaI89
aaa(lp6162
S'scaffold14527_cov64'
p6163
aS'scaffold1873_cov63'
p6164
aa(lp6165
S'scaffold20513_cov68'
p6166
aS'scaffold25966_cov129'
p6167
aa(lp6168
S'scaffold195195_cov811'
p6169
aS'scaffold5496_cov92'
p6170
aa(lp6171
S'scaffold15386_cov80'
p6172
aS'scaffold23731_cov68'
p6173
aa(lp6174
S'scaffold165470_cov102'
p6175
aS'scaffold48928_cov92'
p6176
a(lp6177
I1
a(lp6178
F0.306931
aaI101
aa(lp6179
I1
a(lp6180
F0.268817
aaI93
aa(lp6181
I1
a(lp6182
F0.293578
aaI109
aa(lp6183
I1
a(lp6184
F0.382812
aaI128
aa(lp6185
I1
a(lp6186
F0.496124
aaI129
aa(lp6187
I1
a(lp6188
F0.320755
aaI106
aa(lp6189
I1
a(lp6190
F0.37963
aaI108
aa(lp6191
I1
a(lp6192
F0.311111
aaI90
aa(lp6193
I1
a(lp6194
F0.417476
aaI103
aaa(lp6195
S'scaffold5995_cov84'
p6196
aS'scaffold6502_cov73'
p6197
aa(lp6198
S'scaffold7098_cov89'
p6199
aS'scaffold8421_cov73'
p6200
a(lp6201
I1
a(lp6202
F0.458333
aaI72
aaa(lp6203
S'scaffold2767_cov75'
p6204
aS'scaffold9955_cov79'
p6205
aa(lp6206
S'scaffold11271_cov65'
p6207
aS'scaffold8101_cov85'
p6208
aa(lp6209
S'scaffold24500_cov65'
p6210
aS'scaffold57197_cov90'
p6211
a(lp6212
I1
a(lp6213
F0.234043
aaI94
aaasg2663
(lp6214
(lp6215
g6037
ag6038
a(lp6216
I1
a(lp6217
F0.355263
aaI76
aaa(lp6218
g6040
ag6041
a(lp6219
I1
a(lp6220
F0.826667
aaI75
aaa(lp6221
g6051
ag6052
a(lp6222
I1
a(lp6223
F0.533333
aaI75
aa(lp6224
I1
a(lp6225
F0.45098
aaI51
aaa(lp6226
g6074
ag6075
a(lp6227
I1
a(lp6228
F0.267241
aaI116
aa(lp6229
I1
a(lp6230
F0.268908
aaI119
aa(lp6231
I1
a(lp6232
F0.264151
aaI106
aa(lp6233
I1
a(lp6234
F0.266055
aaI109
aa(lp6235
I1
a(lp6236
F0.346667
aaI75
aa(lp6237
I1
a(lp6238
F0.207317
aaI82
aa(lp6239
I1
a(lp6240
F0.206897
aaI87
aaa(lp6241
g6077
ag6078
aa(lp6242
g6086
ag6087
a(lp6243
I1
a(lp6244
F0.268657
aaI67
aa(lp6245
I1
a(lp6246
F0.412371
aaI97
aa(lp6247
I1
a(lp6248
F0.43617
aaI94
aaa(lp6249
g6089
ag6090
aa(lp6250
g6092
ag6093
aa(lp6251
g6095
ag6096
aa(lp6252
g6098
ag6099
aa(lp6253
g6101
ag6102
aa(lp6254
g6104
ag6105
aa(lp6255
g6107
ag6108
aa(lp6256
g6110
ag6111
aa(lp6257
g6113
ag6114
a(lp6258
I1
a(lp6259
F0.266667
aaI75
aa(lp6260
I1
a(lp6261
F0.253165
aaI79
aa(lp6262
I1
a(lp6263
F0.240506
aaI79
aaa(lp6264
g6116
ag6117
a(lp6265
I1
a(lp6266
F0.295238
aaI105
aa(lp6267
I1
a(lp6268
F0.491667
aaI120
aa(lp6269
I1
a(lp6270
F0.412587
aaI143
aaa(lp6271
g6119
ag6120
a(lp6272
I1
a(lp6273
F0.50495
aaI101
aa(lp6274
I1
a(lp6275
F0.303371
aaI89
aaa(lp6276
g6122
ag6123
a(lp6277
I1
a(lp6278
F0.387387
aaI111
aa(lp6279
I1
a(lp6280
F0.449275
aaI69
aaa(lp6281
g6127
ag6128
aa(lp6282
g6130
ag6131
aa(lp6283
g6133
ag6134
a(lp6284
I1
a(lp6285
F0.258621
aaI58
aaa(lp6286
g6138
ag6139
aa(lp6287
g6141
ag6142
aa(lp6288
g6144
ag6145
a(lp6289
I1
a(lp6290
F0.6
aaI30
aaa(lp6291
g6147
ag6148
a(lp6292
I1
a(lp6293
F0.287356
aaI87
aa(lp6294
I1
a(lp6295
F0.259259
aaI81
aa(lp6296
I1
a(lp6297
F0.21519
aaI79
aaa(lp6298
g6150
ag6151
aa(lp6299
g6153
ag6154
aa(lp6300
g6156
ag6157
aa(lp6301
g6163
ag6164
a(lp6302
I1
a(lp6303
F0.32967
aaI91
aa(lp6304
I1
a(lp6305
F0.329114
aaI79
aa(lp6306
I1
a(lp6307
F0.316456
aaI79
aa(lp6308
I1
a(lp6309
F0.46
aaI100
aa(lp6310
I1
a(lp6311
F0.342342
aaI111
aa(lp6312
I1
a(lp6313
F0.220779
aaI77
aaa(lp6314
g6166
ag6167
a(lp6315
I1
a(lp6316
F0.480392
aaI102
aa(lp6317
I1
a(lp6318
F0.461538
aaI104
aa(lp6319
I1
a(lp6320
F0.478992
aaI119
aa(lp6321
I1
a(lp6322
F0.453782
aaI119
aa(lp6323
I1
a(lp6324
F0.443548
aaI124
aa(lp6325
I1
a(lp6326
F0.392857
aaI112
aa(lp6327
I1
a(lp6328
F0.40678
aaI118
aa(lp6329
I1
a(lp6330
F0.409836
aaI122
aaa(lp6331
g6169
ag6170
aa(lp6332
g6172
ag6173
aa(lp6333
g6175
ag6176
a(lp6334
I1
a(lp6335
F0.204819
aaI83
aa(lp6336
I1
a(lp6337
F0.236842
aaI76
aa(lp6338
I1
a(lp6339
F0.252747
aaI91
aaa(lp6340
g6196
ag6197
a(lp6341
I1
a(lp6342
F0.504505
aaI111
aa(lp6343
I1
a(lp6344
F0.320388
aaI103
aa(lp6345
I1
a(lp6346
F0.330097
aaI103
aa(lp6347
I1
a(lp6348
F0.326531
aaI98
aa(lp6349
I1
a(lp6350
F0.45082
aaI122
aa(lp6351
I1
a(lp6352
F0.217391
aaI92
aa(lp6353
I1
a(lp6354
F0.266667
aaI105
aaa(lp6355
g6199
ag6200
a(lp6356
I1
a(lp6357
F0.280899
aaI89
aa(lp6358
I1
a(lp6359
F0.450382
aaI131
aa(lp6360
I1
a(lp6361
F0.566667
aaI120
aa(lp6362
I1
a(lp6363
F0.271845
aaI103
aa(lp6364
I1
a(lp6365
F0.254237
aaI59
aa(lp6366
I1
a(lp6367
F0.355932
aaI59
aa(lp6368
I1
a(lp6369
F0.376812
aaI69
aa(lp6370
I1
a(lp6371
F0.4
aaI90
aa(lp6372
I1
a(lp6373
F0.345238
aaI84
aa(lp6374
I1
a(lp6375
F0.345238
aaI84
aa(lp6376
I1
a(lp6377
F0.298701
aaI77
aa(lp6378
I1
a(lp6379
F0.231884
aaI69
aa(lp6380
I1
a(lp6381
F0.246377
aaI69
aa(lp6382
I1
a(lp6383
F0.209677
aaI62
aaa(lp6384
g6204
ag6205
aa(lp6385
g6207
ag6208
aa(lp6386
g6210
ag6211
aass.