(dp0
S'triploids'
p1
(dp2
S'down'
p3
(lp4
(lp5
S'scaffold167486_cov93'
p6
aS'scaffold32268_cov68'
p7
aa(lp8
S'scaffold3954_cov94'
p9
aS'scaffold73744_cov62'
p10
aa(lp11
S'scaffold13284_cov147'
p12
aS'scaffold23977_cov68'
p13
aa(lp14
S'scaffold15895_cov77'
p15
aS'scaffold49814_cov72'
p16
aa(lp17
S'scaffold10148_cov99'
p18
aS'scaffold6498_cov76'
p19
a(lp20
I1
a(lp21
F0.2
aaI40
aa(lp22
I1
a(lp23
F0.210526
aaI38
aa(lp24
I1
a(lp25
F0.297297
aaI74
aa(lp26
I1
a(lp27
F0.241379
aaI58
aa(lp28
I1
a(lp29
F0.255319
aaI47
aa(lp30
I1
a(lp31
F0.4
aaI75
aa(lp32
I1
a(lp33
F0.355263
aaI76
aa(lp34
I1
a(lp35
F0.350649
aaI77
aa(lp36
I1
a(lp37
F0.380282
aaI71
aa(lp38
I1
a(lp39
F0.40625
aaI64
aa(lp40
I1
a(lp41
F0.288889
aaI45
aa(lp42
I1
a(lp43
F0.43662
aaI71
aa(lp44
I1
a(lp45
F0.25
aaI60
aa(lp46
I1
a(lp47
F0.254237
aaI59
aa(lp48
I1
a(lp49
F0.252525
aaI99
aaa(lp50
S'scaffold2658_cov137'
p51
aS'scaffold4421_cov66'
p52
aa(lp53
S'scaffold8528_cov135'
p54
aS'scaffold10431_cov72'
p55
aa(lp56
S'scaffold160792_cov138'
p57
aS'scaffold90278_cov81'
p58
a(lp59
I1
a(lp60
F0.376623
aaI77
aaa(lp61
S'scaffold6934_cov101'
p62
aS'scaffold5476_cov91'
p63
aa(lp64
S'scaffold167467_cov101'
p65
aS'scaffold67159_cov68'
p66
aa(lp67
S'scaffold13631_cov149'
p68
aS'scaffold1043_cov70'
p69
aa(lp70
S'scaffold4095_cov147'
p71
aS'scaffold1076_cov67'
p72
aa(lp73
S'scaffold26651_cov113'
p74
aS'scaffold2076_cov75'
p75
a(lp76
I1
a(lp77
F0.388889
aaI54
aaa(lp78
S'scaffold37943_cov120'
p79
aS'scaffold39367_cov97'
p80
a(lp81
I1
a(lp82
F0.492537
aaI67
aa(lp83
I1
a(lp84
F0.534247
aaI73
aa(lp85
I1
a(lp86
F0.447059
aaI85
aa(lp87
I1
a(lp88
F0.428571
aaI63
aa(lp89
I1
a(lp90
F0.4
aaI65
aa(lp91
I1
a(lp92
F0.457627
aaI59
aa(lp93
I1
a(lp94
F0.381818
aaI55
aa(lp95
I1
a(lp96
F0.4
aaI60
aa(lp97
I1
a(lp98
F0.333333
aaI57
aa(lp99
I1
a(lp100
F0.245902
aaI61
aa(lp101
I1
a(lp102
F0.283333
aaI60
aa(lp103
I1
a(lp104
F0.358209
aaI67
aa(lp105
I1
a(lp106
F0.590164
aaI61
aa(lp107
I1
a(lp108
F0.403846
aaI52
aa(lp109
I1
a(lp110
F0.244444
aaI45
aa(lp111
I1
a(lp112
F0.340426
aaI47
aa(lp113
I1
a(lp114
F0.333333
aaI48
aa(lp115
I1
a(lp116
F0.507463
aaI67
aa(lp117
I1
a(lp118
F0.421053
aaI76
aa(lp119
I1
a(lp120
F0.415385
aaI65
aa(lp121
I1
a(lp122
F0.493506
aaI77
aa(lp123
I1
a(lp124
F0.448718
aaI78
aa(lp125
I1
a(lp126
F0.505618
aaI89
aa(lp127
I1
a(lp128
F0.444444
aaI81
aa(lp129
I1
a(lp130
F0.428571
aaI63
aa(lp131
I1
a(lp132
F0.428571
aaI70
aa(lp133
I1
a(lp134
F0.243902
aaI41
aa(lp135
I1
a(lp136
F0.255814
aaI43
aa(lp137
I1
a(lp138
F0.255814
aaI43
aa(lp139
I1
a(lp140
F0.277778
aaI36
aa(lp141
I1
a(lp142
F0.294118
aaI34
aa(lp143
I1
a(lp144
F0.236842
aaI38
aa(lp145
I1
a(lp146
F0.225
aaI40
aa(lp147
I1
a(lp148
F0.205128
aaI39
aa(lp149
I1
a(lp150
F0.238095
aaI42
aa(lp151
I1
a(lp152
F0.225
aaI40
aa(lp153
I1
a(lp154
F0.205128
aaI39
aa(lp155
I1
a(lp156
F0.222222
aaI45
aa(lp157
I1
a(lp158
F0.466667
aaI60
aa(lp159
I1
a(lp160
F0.43662
aaI71
aa(lp161
I1
a(lp162
F0.349206
aaI63
aaa(lp163
S'scaffold11629_cov141'
p164
aS'scaffold11627_cov72'
p165
aa(lp166
S'scaffold2522_cov147'
p167
aS'scaffold2520_cov73'
p168
aa(lp169
S'scaffold3257_cov146'
p170
aS'scaffold16169_cov72'
p171
a(lp172
I1
a(lp173
F0.362069
aaI174
aa(lp174
I1
a(lp175
F0.393365
aaI211
aaa(lp176
S'scaffold33358_cov122'
p177
aS'scaffold11974_cov67'
p178
aa(lp179
S'scaffold17315_cov142'
p180
aS'scaffold17316_cov65'
p181
aa(lp182
S'scaffold27512_cov124'
p183
aS'scaffold9838_cov70'
p184
a(lp185
I1
a(lp186
F0.2
aaI45
aa(lp187
I1
a(lp188
F0.254902
aaI51
aa(lp189
I1
a(lp190
F0.375
aaI56
aaa(lp191
S'scaffold1868_cov136'
p192
aS'scaffold7102_cov63'
p193
aa(lp194
S'scaffold165401_cov148'
p195
aS'scaffold12422_cov71'
p196
a(lp197
I1
a(lp198
F0.208333
aaI48
aa(lp199
I1
a(lp200
F0.241379
aaI58
aa(lp201
I1
a(lp202
F0.521368
aaI117
aaa(lp203
S'scaffold108_cov145'
p204
aS'scaffold107_cov67'
p205
aa(lp206
S'scaffold96847_cov139'
p207
aS'scaffold3943_cov70'
p208
aa(lp209
S'scaffold47647_cov69'
p210
aS'scaffold7129_cov63'
p211
aa(lp212
S'scaffold6388_cov146'
p213
aS'scaffold8779_cov66'
p214
a(lp215
I1
a(lp216
F0.0
aaI50
aa(lp217
I1
a(lp218
F0.3
aaI50
aa(lp219
I1
a(lp220
F0.421053
aaI57
aa(lp221
I1
a(lp222
F0.268293
aaI82
aaa(lp223
S'scaffold167512_cov105'
p224
aS'scaffold132398_cov66'
p225
a(lp226
I1
a(lp227
F0.2
aaI35
aaa(lp228
S'scaffold90279_cov161'
p229
aS'scaffold90278_cov81'
p230
aa(lp231
S'scaffold167477_cov80'
p232
aS'scaffold166740_cov68'
p233
a(lp234
I1
a(lp235
F0.232558
aaI43
aaa(lp236
S'scaffold1391_cov96'
p237
aS'scaffold46961_cov69'
p238
aa(lp239
S'scaffold56728_cov119'
p240
aS'scaffold11627_cov72'
p241
aa(lp242
S'scaffold50494_cov83'
p243
aS'scaffold50322_cov70'
p244
aa(lp245
S'scaffold8397_cov125'
p246
aS'scaffold2722_cov84'
p247
a(lp248
I1
a(lp249
F0.0
aaI38
aa(lp250
I1
a(lp251
F0.0
aaI42
aa(lp252
I1
a(lp253
F0.864865
aaI37
aaa(lp254
S'scaffold2416_cov137'
p255
aS'scaffold2417_cov66'
p256
aa(lp257
S'scaffold20419_cov113'
p258
aS'scaffold114_cov72'
p259
aa(lp260
S'scaffold27148_cov73'
p261
aS'scaffold860_cov64'
p262
aa(lp263
S'scaffold4513_cov135'
p264
aS'scaffold59029_cov68'
p265
aa(lp266
S'scaffold406_cov110'
p267
aS'scaffold39105_cov66'
p268
aa(lp269
S'scaffold1716_cov94'
p270
aS'scaffold45397_cov62'
p271
aa(lp272
S'scaffold11225_cov146'
p273
aS'scaffold33238_cov67'
p274
aa(lp275
S'scaffold1158_cov100'
p276
aS'scaffold100812_cov62'
p277
aa(lp278
S'scaffold4036_cov142'
p279
aS'scaffold10658_cov62'
p280
aa(lp281
S'scaffold12688_cov135'
p282
aS'scaffold12686_cov61'
p283
aa(lp284
S'scaffold9676_cov145'
p285
aS'scaffold16231_cov68'
p286
aa(lp287
S'scaffold180_cov107'
p288
aS'scaffold1171_cov70'
p289
a(lp290
I1
a(lp291
F0.257143
aaI70
aa(lp292
I1
a(lp293
F0.225352
aaI71
aa(lp294
I1
a(lp295
F0.285714
aaI63
aa(lp296
I1
a(lp297
F0.264151
aaI53
aa(lp298
I1
a(lp299
F0.24
aaI50
aa(lp300
I1
a(lp301
F0.2
aaI50
aaa(lp302
S'scaffold29230_cov135'
p303
aS'scaffold7717_cov65'
p304
aa(lp305
S'scaffold166708_cov122'
p306
aS'scaffold697_cov68'
p307
aa(lp308
S'scaffold6658_cov76'
p309
aS'scaffold860_cov64'
p310
aa(lp311
S'scaffold10313_cov102'
p312
aS'scaffold21316_cov65'
p313
aa(lp314
S'scaffold5667_cov96'
p315
aS'scaffold8355_cov67'
p316
a(lp317
I1
a(lp318
F0.208333
aaI48
aa(lp319
I1
a(lp320
F0.0
aaI44
aa(lp321
I1
a(lp322
F0.214286
aaI42
aaa(lp323
S'scaffold167496_cov97'
p324
aS'scaffold29206_cov81'
p325
a(lp326
I1
a(lp327
F0.47541
aaI61
aa(lp328
I1
a(lp329
F0.467742
aaI62
aa(lp330
I1
a(lp331
F0.47541
aaI61
aa(lp332
I1
a(lp333
F0.47541
aaI61
aa(lp334
I1
a(lp335
F0.423729
aaI59
aa(lp336
I1
a(lp337
F0.358491
aaI53
aa(lp338
I1
a(lp339
F0.368421
aaI57
aa(lp340
I1
a(lp341
F0.342466
aaI73
aa(lp342
I1
a(lp343
F0.319444
aaI72
aa(lp344
I1
a(lp345
F0.318841
aaI69
aaa(lp346
S'scaffold31513_cov82'
p347
aS'scaffold5259_cov70'
p348
a(lp349
I1
a(lp350
F0.217391
aaI46
aa(lp351
I1
a(lp352
F0.204545
aaI44
aa(lp353
I1
a(lp354
F0.295455
aaI44
aa(lp355
I1
a(lp356
F0.333333
aaI57
aaa(lp357
S'scaffold40887_cov133'
p358
aS'scaffold46748_cov73'
p359
aa(lp360
S'scaffold165520_cov190'
p361
aS'scaffold59464_cov122'
p362
aa(lp363
S'scaffold65460_cov69'
p364
aS'scaffold4555_cov123'
p365
aa(lp366
S'scaffold4019_cov99'
p367
aS'scaffold21633_cov84'
p368
aa(lp369
S'scaffold20825_cov153'
p370
aS'scaffold24052_cov69'
p371
aa(lp372
S'scaffold14473_cov147'
p373
aS'scaffold33229_cov65'
p374
aa(lp375
S'scaffold11599_cov105'
p376
aS'scaffold61789_cov64'
p377
aa(lp378
S'scaffold192192_cov171'
p379
aS'scaffold8532_cov71'
p380
aa(lp381
S'scaffold13917_cov148'
p382
aS'scaffold28422_cov65'
p383
aa(lp384
S'scaffold53875_cov130'
p385
aS'scaffold25755_cov75'
p386
aa(lp387
S'scaffold62474_cov113'
p388
aS'scaffold10275_cov68'
p389
aa(lp390
S'scaffold22882_cov105'
p391
aS'scaffold5203_cov76'
p392
aa(lp393
S'scaffold16120_cov143'
p394
aS'scaffold9901_cov65'
p395
aa(lp396
S'scaffold22339_cov108'
p397
aS'scaffold15124_cov63'
p398
a(lp399
I1
a(lp400
F0.536585
aaI123
aa(lp401
I1
a(lp402
F0.368421
aaI57
aaa(lp403
S'scaffold15763_cov140'
p404
aS'scaffold7011_cov67'
p405
a(lp406
I1
a(lp407
F0.424242
aaI66
aa(lp408
I1
a(lp409
F0.458333
aaI72
aaa(lp410
S'scaffold3674_cov106'
p411
aS'scaffold57150_cov68'
p412
aa(lp413
S'scaffold8694_cov129'
p414
aS'scaffold8135_cov71'
p415
a(lp416
I1
a(lp417
F0.4
aaI30
aa(lp418
I1
a(lp419
F0.476744
aaI86
aaa(lp420
S'scaffold166685_cov152'
p421
aS'scaffold2832_cov75'
p422
aa(lp423
S'scaffold903_cov126'
p424
aS'scaffold1840_cov66'
p425
aa(lp426
S'scaffold34941_cov134'
p427
aS'scaffold1333_cov60'
p428
aa(lp429
S'scaffold561_cov86'
p430
aS'scaffold29165_cov60'
p431
aa(lp432
S'scaffold6820_cov103'
p433
aS'scaffold6818_cov67'
p434
a(lp435
I1
a(lp436
F0.225
aaI40
aa(lp437
I1
a(lp438
F0.2
aaI40
aa(lp439
I1
a(lp440
F0.209302
aaI43
aa(lp441
I1
a(lp442
F0.232558
aaI43
aa(lp443
I1
a(lp444
F0.204545
aaI44
aa(lp445
I1
a(lp446
F0.275
aaI40
aa(lp447
I1
a(lp448
F0.305556
aaI36
aa(lp449
I1
a(lp450
F0.341463
aaI41
aa(lp451
I1
a(lp452
F0.319149
aaI47
aa(lp453
I1
a(lp454
F0.4
aaI60
aa(lp455
I1
a(lp456
F0.392157
aaI51
aa(lp457
I1
a(lp458
F0.474359
aaI78
aaa(lp459
S'scaffold4931_cov109'
p460
aS'scaffold2702_cov92'
p461
a(lp462
I1
a(lp463
F0.234043
aaI47
aa(lp464
I1
a(lp465
F0.229167
aaI48
aaa(lp466
S'scaffold3133_cov141'
p467
aS'scaffold30966_cov62'
p468
aa(lp469
S'scaffold6620_cov103'
p470
aS'scaffold7907_cov67'
p471
aa(lp472
S'scaffold95367_cov139'
p473
aS'scaffold95366_cov79'
p474
aa(lp475
S'scaffold166345_cov136'
p476
aS'scaffold367_cov102'
p477
aa(lp478
S'scaffold9131_cov93'
p479
aS'scaffold28864_cov67'
p480
a(lp481
I1
a(lp482
F0.4
aaI20
aaa(lp483
S'scaffold19827_cov125'
p484
aS'scaffold167515_cov69'
p485
a(lp486
I1
a(lp487
F0.301587
aaI63
aa(lp488
I1
a(lp489
F0.285714
aaI63
aaa(lp490
S'scaffold5296_cov115'
p491
aS'scaffold2979_cov71'
p492
aa(lp493
S'scaffold35735_cov102'
p494
aS'scaffold4162_cov69'
p495
a(lp496
I1
a(lp497
F0.674699
aaI83
aaa(lp498
S'scaffold36202_cov116'
p499
aS'scaffold32923_cov104'
p500
aa(lp501
S'scaffold14189_cov153'
p502
aS'scaffold2637_cov71'
p503
aa(lp504
S'scaffold1394_cov148'
p505
aS'scaffold1395_cov70'
p506
aa(lp507
S'scaffold165441_cov141'
p508
aS'scaffold2849_cov95'
p509
a(lp510
I1
a(lp511
F0.213115
aaI61
aa(lp512
I1
a(lp513
F0.213115
aaI61
aa(lp514
I1
a(lp515
F0.207547
aaI53
aa(lp516
I1
a(lp517
F0.4
aaI70
aa(lp518
I1
a(lp519
F0.208333
aaI48
aa(lp520
I1
a(lp521
F0.22449
aaI49
aaa(lp522
S'scaffold21927_cov117'
p523
aS'scaffold6252_cov71'
p524
a(lp525
I1
a(lp526
F0.411765
aaI51
aa(lp527
I1
a(lp528
F0.211111
aaI90
aaa(lp529
S'scaffold8966_cov109'
p530
aS'scaffold3586_cov72'
p531
a(lp532
I1
a(lp533
F0.383333
aaI60
aa(lp534
I1
a(lp535
F0.309091
aaI55
aaa(lp536
S'scaffold514_cov77'
p537
aS'scaffold2213_cov74'
p538
aa(lp539
S'scaffold3987_cov100'
p540
aS'scaffold14924_cov62'
p541
aa(lp542
S'scaffold2987_cov88'
p543
aS'scaffold4224_cov73'
p544
a(lp545
I1
a(lp546
F0.376812
aaI69
aa(lp547
I1
a(lp548
F0.378788
aaI66
aa(lp549
I1
a(lp550
F0.327273
aaI55
aa(lp551
I1
a(lp552
F0.215385
aaI65
aa(lp553
I1
a(lp554
F0.342105
aaI76
aa(lp555
I1
a(lp556
F0.333333
aaI78
aa(lp557
I1
a(lp558
F0.229508
aaI61
aa(lp559
I1
a(lp560
F0.347222
aaI72
aa(lp561
I1
a(lp562
F0.454545
aaI66
aa(lp563
I1
a(lp564
F0.209677
aaI62
aa(lp565
I1
a(lp566
F0.214286
aaI56
aaa(lp567
S'scaffold164974_cov139'
p568
aS'scaffold2833_cov61'
p569
aa(lp570
S'scaffold3477_cov108'
p571
aS'scaffold10061_cov67'
p572
aa(lp573
S'scaffold9403_cov96'
p574
aS'scaffold23269_cov69'
p575
aa(lp576
S'scaffold48176_cov76'
p577
aS'scaffold42838_cov68'
p578
aa(lp579
S'scaffold3722_cov135'
p580
aS'scaffold3719_cov67'
p581
a(lp582
I1
a(lp583
F0.25641
aaI39
aa(lp584
I1
a(lp585
F0.265306
aaI49
aa(lp586
I1
a(lp587
F0.265306
aaI49
aa(lp588
I1
a(lp589
F0.22
aaI50
aa(lp590
I1
a(lp591
F0.568966
aaI58
aaa(lp592
S'scaffold165461_cov100'
p593
aS'scaffold10491_cov66'
p594
aa(lp595
S'scaffold32619_cov118'
p596
aS'scaffold20061_cov80'
p597
a(lp598
I1
a(lp599
F0.349206
aaI63
aa(lp600
I1
a(lp601
F0.377049
aaI61
aa(lp602
I1
a(lp603
F0.298246
aaI57
aaa(lp604
S'scaffold3738_cov114'
p605
aS'scaffold11440_cov66'
p606
aa(lp607
S'scaffold11968_cov142'
p608
aS'scaffold3404_cov63'
p609
aa(lp610
S'scaffold4957_cov147'
p611
aS'scaffold2304_cov67'
p612
aa(lp613
S'scaffold6014_cov96'
p614
aS'scaffold69980_cov67'
p615
aa(lp616
S'scaffold165395_cov77'
p617
aS'scaffold42402_cov68'
p618
aa(lp619
S'scaffold12770_cov157'
p620
aS'scaffold21646_cov62'
p621
aa(lp622
S'scaffold2416_cov137'
p623
aS'scaffold16788_cov63'
p624
aa(lp625
S'scaffold167565_cov117'
p626
aS'scaffold893_cov66'
p627
a(lp628
I1
a(lp629
F0.2
aaI40
aaa(lp630
S'scaffold49558_cov135'
p631
aS'scaffold10462_cov135'
p632
aa(lp633
S'scaffold25651_cov100'
p634
aS'scaffold46961_cov69'
p635
aa(lp636
S'scaffold66329_cov132'
p637
aS'scaffold29989_cov70'
p638
a(lp639
I1
a(lp640
F0.3
aaI50
aaa(lp641
S'scaffold14528_cov66'
p642
aS'scaffold14527_cov64'
p643
a(lp644
I1
a(lp645
F0.351852
aaI54
aa(lp646
I1
a(lp647
F0.370968
aaI62
aa(lp648
I1
a(lp649
F0.484375
aaI64
aaa(lp650
S'scaffold3122_cov145'
p651
aS'scaffold3123_cov67'
p652
aa(lp653
S'scaffold8282_cov147'
p654
aS'scaffold8279_cov69'
p655
aa(lp656
S'scaffold903_cov126'
p657
aS'scaffold900_cov65'
p658
aa(lp659
S'scaffold26778_cov137'
p660
aS'scaffold13891_cov62'
p661
aa(lp662
S'scaffold7194_cov116'
p663
aS'scaffold6437_cov66'
p664
aa(lp665
S'scaffold33427_cov79'
p666
aS'scaffold1498_cov63'
p667
a(lp668
I1
a(lp669
F0.435484
aaI62
aaa(lp670
S'scaffold70862_cov124'
p671
aS'scaffold34357_cov65'
p672
aa(lp673
S'scaffold14197_cov99'
p674
aS'scaffold6524_cov65'
p675
a(lp676
I1
a(lp677
F0.210526
aaI57
aa(lp678
I1
a(lp679
F0.388889
aaI54
aaa(lp680
S'scaffold15885_cov116'
p681
aS'scaffold15073_cov71'
p682
a(lp683
I1
a(lp684
F0.266667
aaI60
aa(lp685
I1
a(lp686
F0.241379
aaI58
aa(lp687
I1
a(lp688
F0.391892
aaI74
aa(lp689
I1
a(lp690
F0.276316
aaI76
aa(lp691
I1
a(lp692
F0.430108
aaI93
aaa(lp693
S'scaffold3010_cov130'
p694
aS'scaffold3009_cov66'
p695
aa(lp696
S'scaffold34740_cov99'
p697
aS'scaffold10321_cov72'
p698
aa(lp699
S'scaffold45626_cov132'
p700
aS'scaffold26610_cov67'
p701
aa(lp702
S'scaffold19276_cov115'
p703
aS'scaffold33185_cov125'
p704
aa(lp705
S'scaffold13917_cov148'
p706
aS'scaffold5199_cov65'
p707
aa(lp708
S'scaffold4489_cov91'
p709
aS'scaffold166706_cov72'
p710
a(lp711
I1
a(lp712
F0.204545
aaI44
aa(lp713
I1
a(lp714
F0.219512
aaI41
aaa(lp715
S'scaffold23696_cov107'
p716
aS'scaffold46569_cov79'
p717
a(lp718
I1
a(lp719
F0.0
aaI26
aaa(lp720
S'scaffold14010_cov120'
p721
aS'scaffold9558_cov65'
p722
a(lp723
I1
a(lp724
F0.341463
aaI41
aaa(lp725
S'scaffold7174_cov138'
p726
aS'scaffold6615_cov72'
p727
a(lp728
I1
a(lp729
F0.264151
aaI53
aa(lp730
I1
a(lp731
F0.4375
aaI16
aa(lp732
I1
a(lp733
F0.222222
aaI18
aaa(lp734
S'scaffold8983_cov110'
p735
aS'scaffold5722_cov65'
p736
aa(lp737
S'scaffold165507_cov120'
p738
aS'scaffold1649_cov91'
p739
a(lp740
I1
a(lp741
F0.297297
aaI74
aa(lp742
I1
a(lp743
F0.238806
aaI67
aa(lp744
I1
a(lp745
F0.218182
aaI55
aa(lp746
I1
a(lp747
F0.212121
aaI66
aa(lp748
I1
a(lp749
F0.355932
aaI59
aa(lp750
I1
a(lp751
F0.373134
aaI67
aa(lp752
I1
a(lp753
F0.322581
aaI62
aa(lp754
I1
a(lp755
F0.531646
aaI79
aa(lp756
I1
a(lp757
F0.460526
aaI76
aa(lp758
I1
a(lp759
F0.376812
aaI69
aa(lp760
I1
a(lp761
F0.353846
aaI65
aa(lp762
I1
a(lp763
F0.265625
aaI64
aa(lp764
I1
a(lp765
F0.222222
aaI63
aa(lp766
I1
a(lp767
F0.339623
aaI53
aa(lp768
I1
a(lp769
F0.32
aaI50
aa(lp770
I1
a(lp771
F0.377778
aaI45
aa(lp772
I1
a(lp773
F0.325581
aaI43
aa(lp774
I1
a(lp775
F0.238095
aaI42
aa(lp776
I1
a(lp777
F0.214286
aaI42
aa(lp778
I1
a(lp779
F0.2
aaI40
aa(lp780
I1
a(lp781
F0.387097
aaI62
aaa(lp782
S'scaffold7147_cov103'
p783
aS'scaffold7146_cov65'
p784
a(lp785
I1
a(lp786
F0.396226
aaI53
aa(lp787
I1
a(lp788
F0.266667
aaI60
aaa(lp789
S'scaffold166767_cov133'
p790
aS'scaffold166788_cov64'
p791
aa(lp792
S'scaffold14010_cov120'
p793
aS'scaffold20924_cov70'
p794
aa(lp795
S'scaffold14968_cov70'
p796
aS'scaffold5208_cov124'
p797
aa(lp798
S'scaffold33079_cov127'
p799
aS'scaffold21398_cov73'
p800
aa(lp801
S'scaffold45339_cov132'
p802
aS'scaffold5542_cov64'
p803
aa(lp804
S'scaffold37263_cov117'
p805
aS'scaffold4202_cov67'
p806
a(lp807
I1
a(lp808
F0.4
aaI60
aa(lp809
I1
a(lp810
F0.269841
aaI63
aa(lp811
I1
a(lp812
F0.3
aaI70
aa(lp813
I1
a(lp814
F0.3
aaI70
aa(lp815
I1
a(lp816
F0.236364
aaI55
aa(lp817
I1
a(lp818
F0.35
aaI60
aa(lp819
I1
a(lp820
F0.378788
aaI66
aa(lp821
I1
a(lp822
F0.493976
aaI83
aa(lp823
I1
a(lp824
F0.22807
aaI57
aa(lp825
I1
a(lp826
F0.224138
aaI58
aaa(lp827
S'scaffold62223_cov138'
p828
aS'scaffold41553_cov82'
p829
aa(lp830
S'scaffold167537_cov112'
p831
aS'scaffold540_cov68'
p832
aa(lp833
S'scaffold1030_cov88'
p834
aS'scaffold20924_cov70'
p835
a(lp836
I1
a(lp837
F0.333333
aaI63
aaa(lp838
S'scaffold5060_cov136'
p839
aS'scaffold5059_cov70'
p840
a(lp841
I1
a(lp842
F0.0
aaI43
aaa(lp843
S'scaffold2398_cov98'
p844
aS'scaffold2617_cov76'
p845
a(lp846
I1
a(lp847
F0.230769
aaI26
aa(lp848
I1
a(lp849
F0.230769
aaI26
aa(lp850
I1
a(lp851
F0.458333
aaI72
aa(lp852
I1
a(lp853
F0.322034
aaI59
aa(lp854
I1
a(lp855
F0.451613
aaI62
aa(lp856
I1
a(lp857
F0.493506
aaI77
aa(lp858
I1
a(lp859
F0.243243
aaI74
aa(lp860
I1
a(lp861
F0.346939
aaI49
aa(lp862
I1
a(lp863
F0.235294
aaI51
aa(lp864
I1
a(lp865
F0.352113
aaI71
aaa(lp866
S'scaffold9303_cov137'
p867
aS'scaffold3018_cov62'
p868
aa(lp869
S'scaffold28224_cov147'
p870
aS'scaffold166774_cov71'
p871
aa(lp872
S'scaffold165413_cov124'
p873
aS'scaffold1323_cov67'
p874
aa(lp875
S'scaffold1637_cov151'
p876
aS'scaffold20670_cov68'
p877
aa(lp878
S'scaffold36067_cov121'
p879
aS'scaffold10421_cov69'
p880
aa(lp881
S'scaffold9037_cov132'
p882
aS'scaffold7705_cov77'
p883
aa(lp884
S'scaffold38008_cov141'
p885
aS'scaffold5960_cov65'
p886
aa(lp887
S'scaffold7174_cov138'
p888
aS'scaffold2501_cov70'
p889
aa(lp890
S'scaffold7264_cov122'
p891
aS'scaffold10275_cov68'
p892
aa(lp893
S'scaffold90706_cov103'
p894
aS'scaffold2061_cov67'
p895
a(lp896
I1
a(lp897
F0.217391
aaI46
aa(lp898
I1
a(lp899
F0.2
aaI50
aa(lp900
I1
a(lp901
F0.904
aaI375
aa(lp902
I1
a(lp903
F0.261538
aaI65
aaa(lp904
S'scaffold20641_cov90'
p905
aS'scaffold8011_cov68'
p906
aa(lp907
S'scaffold25662_cov161'
p908
aS'scaffold25660_cov79'
p909
aa(lp910
S'scaffold3559_cov143'
p911
aS'scaffold9683_cov69'
p912
a(lp913
I1
a(lp914
F0.428571
aaI7
aaa(lp915
S'scaffold25492_cov142'
p916
aS'scaffold24079_cov69'
p917
a(lp918
I1
a(lp919
F0.307692
aaI39
aa(lp920
I1
a(lp921
F0.35
aaI40
aa(lp922
I1
a(lp923
F0.388889
aaI36
aaa(lp924
S'scaffold167535_cov101'
p925
aS'scaffold18420_cov96'
p926
aa(lp927
S'scaffold51750_cov85'
p928
aS'scaffold39128_cov65'
p929
aa(lp930
S'scaffold9703_cov100'
p931
aS'scaffold166756_cov71'
p932
a(lp933
I1
a(lp934
F0.358209
aaI67
aaa(lp935
S'scaffold12601_cov106'
p936
aS'scaffold12765_cov63'
p937
a(lp938
I1
a(lp939
F0.285714
aaI49
aa(lp940
I1
a(lp941
F0.25
aaI48
aa(lp942
I1
a(lp943
F0.26087
aaI46
aaa(lp944
S'scaffold4941_cov130'
p945
aS'scaffold29738_cov68'
p946
aa(lp947
S'scaffold9324_cov148'
p948
aS'scaffold9325_cov63'
p949
aa(lp950
S'scaffold29312_cov132'
p951
aS'scaffold9996_cov69'
p952
aa(lp953
S'scaffold17051_cov101'
p954
aS'scaffold2939_cov64'
p955
aa(lp956
S'scaffold10858_cov149'
p957
aS'scaffold10857_cov70'
p958
a(lp959
I1
a(lp960
F0.376812
aaI69
aa(lp961
I1
a(lp962
F0.290323
aaI62
aaa(lp963
S'scaffold43497_cov152'
p964
aS'scaffold48022_cov63'
p965
aa(lp966
S'scaffold35435_cov126'
p967
aS'scaffold9757_cov95'
p968
a(lp969
I1
a(lp970
F0.369231
aaI65
aa(lp971
I1
a(lp972
F0.447368
aaI76
aa(lp973
I1
a(lp974
F0.430556
aaI72
aaa(lp975
S'scaffold6824_cov114'
p976
aS'scaffold542_cov70'
p977
a(lp978
I1
a(lp979
F0.214286
aaI42
aaa(lp980
S'scaffold10713_cov124'
p981
aS'scaffold4604_cov80'
p982
aa(lp983
S'scaffold21338_cov100'
p984
aS'scaffold8647_cov65'
p985
a(lp986
I1
a(lp987
F0.285714
aaI35
aaa(lp988
S'scaffold18416_cov135'
p989
aS'scaffold16862_cov66'
p990
aa(lp991
S'scaffold17874_cov144'
p992
aS'scaffold38164_cov70'
p993
aa(lp994
S'scaffold19924_cov91'
p995
aS'scaffold10385_cov64'
p996
aa(lp997
S'scaffold1491_cov109'
p998
aS'scaffold3256_cov68'
p999
a(lp1000
I1
a(lp1001
F0.370968
aaI62
aa(lp1002
I1
a(lp1003
F0.472973
aaI74
aa(lp1004
I1
a(lp1005
F0.3
aaI80
aaa(lp1006
S'scaffold167598_cov96'
p1007
aS'scaffold7183_cov82'
p1008
a(lp1009
I1
a(lp1010
F0.235294
aaI51
aaa(lp1011
S'scaffold3807_cov105'
p1012
aS'scaffold3967_cov66'
p1013
aa(lp1014
S'scaffold182819_cov255'
p1015
aS'scaffold2675_cov72'
p1016
aa(lp1017
S'scaffold1354_cov130'
p1018
aS'scaffold8335_cov68'
p1019
aa(lp1020
S'scaffold66380_cov110'
p1021
aS'scaffold15785_cov113'
p1022
aa(lp1023
S'scaffold77207_cov117'
p1024
aS'scaffold43353_cov68'
p1025
aa(lp1026
S'scaffold36663_cov134'
p1027
aS'scaffold75670_cov64'
p1028
aa(lp1029
S'scaffold8548_cov121'
p1030
aS'scaffold9073_cov65'
p1031
aa(lp1032
S'scaffold843_cov127'
p1033
aS'scaffold844_cov69'
p1034
aa(lp1035
S'scaffold6481_cov91'
p1036
aS'scaffold47796_cov64'
p1037
aa(lp1038
S'scaffold10670_cov88'
p1039
aS'scaffold7453_cov60'
p1040
a(lp1041
I1
a(lp1042
F0.304348
aaI46
aaa(lp1043
S'scaffold18912_cov140'
p1044
aS'scaffold18914_cov65'
p1045
aa(lp1046
S'scaffold3349_cov142'
p1047
aS'scaffold5670_cov74'
p1048
aa(lp1049
S'scaffold11081_cov88'
p1050
aS'scaffold26032_cov70'
p1051
a(lp1052
I1
a(lp1053
F0.240741
aaI54
aa(lp1054
I1
a(lp1055
F0.236364
aaI55
aa(lp1056
I1
a(lp1057
F0.240741
aaI54
aa(lp1058
I1
a(lp1059
F0.276923
aaI65
aa(lp1060
I1
a(lp1061
F0.322581
aaI62
aaa(lp1062
S'scaffold2048_cov125'
p1063
aS'scaffold7977_cov71'
p1064
aa(lp1065
S'scaffold11204_cov106'
p1066
aS'scaffold30140_cov63'
p1067
a(lp1068
I1
a(lp1069
F0.232143
aaI56
aaa(lp1070
S'scaffold167504_cov85'
p1071
aS'scaffold17931_cov63'
p1072
aa(lp1073
S'scaffold6426_cov139'
p1074
aS'scaffold6427_cov67'
p1075
aa(lp1076
S'scaffold165417_cov143'
p1077
aS'scaffold16672_cov63'
p1078
aa(lp1079
S'scaffold36663_cov134'
p1080
aS'scaffold30167_cov70'
p1081
a(lp1082
I1
a(lp1083
F0.253731
aaI67
aa(lp1084
I1
a(lp1085
F0.272727
aaI66
aa(lp1086
I1
a(lp1087
F0.489583
aaI96
aaa(lp1088
S'scaffold18584_cov139'
p1089
aS'scaffold15986_cov63'
p1090
aa(lp1091
S'scaffold73411_cov102'
p1092
aS'scaffold25947_cov73'
p1093
aa(lp1094
S'scaffold14567_cov126'
p1095
aS'scaffold42400_cov69'
p1096
aa(lp1097
S'scaffold18457_cov115'
p1098
aS'scaffold32162_cov89'
p1099
a(lp1100
I1
a(lp1101
F0.330097
aaI103
aa(lp1102
I1
a(lp1103
F0.319149
aaI94
aa(lp1104
I1
a(lp1105
F0.256098
aaI82
aa(lp1106
I1
a(lp1107
F0.301205
aaI83
aa(lp1108
I1
a(lp1109
F0.255319
aaI94
aa(lp1110
I1
a(lp1111
F0.288462
aaI104
aaa(lp1112
S'scaffold56505_cov129'
p1113
aS'scaffold60_cov119'
p1114
aa(lp1115
S'scaffold1978_cov92'
p1116
aS'scaffold2699_cov70'
p1117
a(lp1118
I1
a(lp1119
F0.265625
aaI64
aa(lp1120
I1
a(lp1121
F0.287879
aaI66
aa(lp1122
I1
a(lp1123
F0.363636
aaI44
aa(lp1124
I1
a(lp1125
F0.230769
aaI39
aaa(lp1126
S'scaffold43863_cov126'
p1127
aS'scaffold7672_cov74'
p1128
a(lp1129
I1
a(lp1130
F0.290323
aaI62
aa(lp1131
I1
a(lp1132
F0.426667
aaI75
aa(lp1133
I1
a(lp1134
F0.244444
aaI45
aa(lp1135
I1
a(lp1136
F0.438596
aaI57
aa(lp1137
I1
a(lp1138
F0.384615
aaI52
aa(lp1139
I1
a(lp1140
F0.25
aaI52
aa(lp1141
I1
a(lp1142
F0.22449
aaI49
aa(lp1143
I1
a(lp1144
F0.278689
aaI61
aa(lp1145
I1
a(lp1146
F0.274194
aaI62
aa(lp1147
I1
a(lp1148
F0.258065
aaI62
aa(lp1149
I1
a(lp1150
F0.0
aaI43
aa(lp1151
I1
a(lp1152
F0.421053
aaI57
aaa(lp1153
S'scaffold10581_cov98'
p1154
aS'scaffold17516_cov69'
p1155
a(lp1156
I1
a(lp1157
F0.449438
aaI89
aa(lp1158
I2
a(lp1159
F0.362319
aF0.202899
aaI69
aa(lp1160
I1
a(lp1161
F0.260274
aaI73
aa(lp1162
I1
a(lp1163
F0.287356
aaI87
aa(lp1164
I1
a(lp1165
F0.305882
aaI85
aa(lp1166
I1
a(lp1167
F0.375
aaI56
aa(lp1168
I1
a(lp1169
F0.389831
aaI59
aaa(lp1170
S'scaffold4107_cov90'
p1171
aS'scaffold6409_cov65'
p1172
aa(lp1173
S'scaffold165573_cov134'
p1174
aS'scaffold6928_cov65'
p1175
aa(lp1176
S'scaffold721_cov134'
p1177
aS'scaffold720_cov79'
p1178
aa(lp1179
S'scaffold9757_cov95'
p1180
aS'scaffold3630_cov66'
p1181
a(lp1182
I1
a(lp1183
F0.285714
aaI63
aaa(lp1184
S'scaffold18542_cov139'
p1185
aS'scaffold26015_cov66'
p1186
aa(lp1187
S'scaffold4321_cov104'
p1188
aS'scaffold9387_cov68'
p1189
aa(lp1190
S'scaffold167650_cov100'
p1191
aS'scaffold21768_cov66'
p1192
aa(lp1193
S'scaffold34203_cov139'
p1194
aS'scaffold18396_cov65'
p1195
aa(lp1196
S'scaffold3745_cov115'
p1197
aS'scaffold7430_cov66'
p1198
a(lp1199
I1
a(lp1200
F0.347826
aaI115
aa(lp1201
I1
a(lp1202
F0.407407
aaI54
aa(lp1203
I1
a(lp1204
F0.258065
aaI62
aa(lp1205
I1
a(lp1206
F0.45614
aaI57
aa(lp1207
I1
a(lp1208
F0.305085
aaI59
aaa(lp1209
S'scaffold181240_cov148'
p1210
aS'scaffold59620_cov74'
p1211
a(lp1212
I1
a(lp1213
F0.214286
aaI28
aaa(lp1214
S'scaffold27354_cov105'
p1215
aS'scaffold16165_cov73'
p1216
a(lp1217
I1
a(lp1218
F0.216216
aaI37
aa(lp1219
I1
a(lp1220
F0.204545
aaI44
aaa(lp1221
S'scaffold11499_cov143'
p1222
aS'scaffold19165_cov65'
p1223
aa(lp1224
S'scaffold166682_cov143'
p1225
aS'scaffold374_cov71'
p1226
a(lp1227
I1
a(lp1228
F0.423729
aaI59
aa(lp1229
I1
a(lp1230
F0.4
aaI65
aaa(lp1231
S'scaffold11274_cov111'
p1232
aS'scaffold2804_cov69'
p1233
a(lp1234
I1
a(lp1235
F0.238806
aaI67
aa(lp1236
I1
a(lp1237
F0.234375
aaI64
aa(lp1238
I1
a(lp1239
F0.206349
aaI63
aaa(lp1240
S'scaffold3566_cov79'
p1241
aS'scaffold4610_cov62'
p1242
aa(lp1243
S'scaffold12892_cov134'
p1244
aS'scaffold47938_cov75'
p1245
aa(lp1246
S'scaffold4939_cov152'
p1247
aS'scaffold4940_cov72'
p1248
aa(lp1249
S'scaffold166331_cov132'
p1250
aS'scaffold8565_cov73'
p1251
a(lp1252
I1
a(lp1253
F0.220339
aaI59
aa(lp1254
I1
a(lp1255
F0.292308
aaI65
aa(lp1256
I1
a(lp1257
F0.309859
aaI71
aa(lp1258
I1
a(lp1259
F0.257576
aaI66
aaa(lp1260
S'scaffold26431_cov130'
p1261
aS'scaffold15686_cov66'
p1262
aa(lp1263
S'scaffold9117_cov151'
p1264
aS'scaffold9115_cov70'
p1265
aa(lp1266
S'scaffold1006_cov111'
p1267
aS'scaffold1003_cov64'
p1268
aa(lp1269
S'scaffold5572_cov101'
p1270
aS'scaffold7298_cov66'
p1271
aa(lp1272
S'scaffold19598_cov123'
p1273
aS'scaffold12870_cov60'
p1274
aa(lp1275
S'scaffold25966_cov129'
p1276
aS'scaffold20513_cov68'
p1277
a(lp1278
I1
a(lp1279
F0.422222
aaI45
aa(lp1280
I1
a(lp1281
F0.293103
aaI58
aa(lp1282
I1
a(lp1283
F0.293103
aaI58
aaa(lp1284
S'scaffold6206_cov112'
p1285
aS'scaffold19927_cov67'
p1286
aa(lp1287
S'scaffold1808_cov87'
p1288
aS'scaffold18178_cov78'
p1289
aa(lp1290
S'scaffold4678_cov116'
p1291
aS'scaffold46295_cov125'
p1292
aa(lp1293
S'scaffold3133_cov141'
p1294
aS'scaffold3135_cov68'
p1295
a(lp1296
I1
a(lp1297
F0.219512
aaI41
aa(lp1298
I1
a(lp1299
F0.216667
aaI60
aaa(lp1300
S'scaffold182_cov83'
p1301
aS'scaffold16044_cov69'
p1302
aa(lp1303
S'scaffold20825_cov153'
p1304
aS'scaffold20824_cov72'
p1305
aa(lp1306
S'scaffold94664_cov148'
p1307
aS'scaffold11692_cov72'
p1308
aa(lp1309
S'scaffold15386_cov80'
p1310
aS'scaffold23731_cov68'
p1311
aa(lp1312
S'scaffold45520_cov151'
p1313
aS'scaffold45518_cov71'
p1314
aa(lp1315
S'scaffold1071_cov92'
p1316
aS'scaffold49421_cov62'
p1317
aa(lp1318
S'scaffold3432_cov123'
p1319
aS'scaffold3406_cov67'
p1320
a(lp1321
I1
a(lp1322
F0.244898
aaI49
aa(lp1323
I1
a(lp1324
F0.537634
aaI93
aa(lp1325
I1
a(lp1326
F0.279661
aaI118
aa(lp1327
I1
a(lp1328
F0.56
aaI50
aa(lp1329
I1
a(lp1330
F0.408163
aaI49
aa(lp1331
I1
a(lp1332
F0.210526
aaI57
aa(lp1333
I1
a(lp1334
F0.210526
aaI57
aa(lp1335
I1
a(lp1336
F0.0
aaI60
aa(lp1337
I1
a(lp1338
F0.222222
aaI36
aa(lp1339
I1
a(lp1340
F0.222222
aaI36
aa(lp1341
I1
a(lp1342
F0.540984
aaI61
aa(lp1343
I1
a(lp1344
F0.28
aaI50
aa(lp1345
I1
a(lp1346
F0.272727
aaI55
aa(lp1347
I1
a(lp1348
F0.315789
aaI57
aa(lp1349
I1
a(lp1350
F0.375
aaI40
aa(lp1351
I1
a(lp1352
F0.333333
aaI33
aa(lp1353
I1
a(lp1354
F0.222222
aaI72
aa(lp1355
I1
a(lp1356
F0.202532
aaI79
aaa(lp1357
S'scaffold12001_cov141'
p1358
aS'scaffold12003_cov68'
p1359
aa(lp1360
S'scaffold5456_cov152'
p1361
aS'scaffold67160_cov58'
p1362
aa(lp1363
S'scaffold166729_cov102'
p1364
aS'scaffold165425_cov72'
p1365
aa(lp1366
S'scaffold21534_cov145'
p1367
aS'scaffold21531_cov67'
p1368
aa(lp1369
S'scaffold9312_cov104'
p1370
aS'scaffold35511_cov69'
p1371
aa(lp1372
S'scaffold55111_cov144'
p1373
aS'scaffold55112_cov70'
p1374
aa(lp1375
S'scaffold25594_cov137'
p1376
aS'scaffold19109_cov84'
p1377
a(lp1378
I1
a(lp1379
F0.3125
aaI80
aa(lp1380
I1
a(lp1381
F0.244094
aaI127
aa(lp1382
I1
a(lp1383
F0.275591
aaI127
aaa(lp1384
S'scaffold33902_cov94'
p1385
aS'scaffold8504_cov71'
p1386
a(lp1387
I1
a(lp1388
F0.285714
aaI56
aaa(lp1389
S'scaffold27219_cov142'
p1390
aS'scaffold16554_cov65'
p1391
aa(lp1392
S'scaffold165434_cov141'
p1393
aS'scaffold29886_cov66'
p1394
a(lp1395
I1
a(lp1396
F0.40678
aaI59
aa(lp1397
I1
a(lp1398
F0.222222
aaI36
aaa(lp1399
S'scaffold1435_cov93'
p1400
aS'scaffold4122_cov62'
p1401
a(lp1402
I1
a(lp1403
F0.222222
aaI9
aa(lp1404
I1
a(lp1405
F0.360656
aaI61
aaa(lp1406
S'scaffold95123_cov91'
p1407
aS'scaffold2350_cov77'
p1408
a(lp1409
I1
a(lp1410
F0.229167
aaI48
aa(lp1411
I1
a(lp1412
F0.234043
aaI47
aa(lp1413
I1
a(lp1414
F0.2
aaI35
aa(lp1415
I1
a(lp1416
F0.208333
aaI48
aa(lp1417
I1
a(lp1418
F0.212766
aaI47
aa(lp1419
I1
a(lp1420
F0.219512
aaI41
aaa(lp1421
S'scaffold11842_cov94'
p1422
aS'scaffold158_cov68'
p1423
a(lp1424
I1
a(lp1425
F0.246154
aaI65
aaa(lp1426
S'scaffold34153_cov147'
p1427
aS'scaffold48213_cov76'
p1428
aa(lp1429
S'scaffold141950_cov79'
p1430
aS'scaffold9327_cov109'
p1431
aa(lp1432
S'scaffold7481_cov74'
p1433
aS'scaffold89446_cov79'
p1434
aa(lp1435
S'scaffold5399_cov135'
p1436
aS'scaffold14003_cov64'
p1437
aa(lp1438
S'scaffold19197_cov73'
p1439
aS'scaffold4030_cov67'
p1440
aa(lp1441
S'scaffold16608_cov151'
p1442
aS'scaffold117332_cov60'
p1443
aa(lp1444
S'scaffold165470_cov102'
p1445
aS'scaffold48928_cov92'
p1446
a(lp1447
I1
a(lp1448
F0.388889
aaI90
aa(lp1449
I1
a(lp1450
F0.378378
aaI74
aa(lp1451
I1
a(lp1452
F0.433735
aaI83
aa(lp1453
I1
a(lp1454
F0.428571
aaI77
aa(lp1455
I1
a(lp1456
F0.38961
aaI77
aa(lp1457
I1
a(lp1458
F0.328358
aaI67
aa(lp1459
I1
a(lp1460
F0.443038
aaI79
aa(lp1461
I1
a(lp1462
F0.378788
aaI66
aa(lp1463
I1
a(lp1464
F0.364865
aaI74
aaa(lp1465
S'scaffold5433_cov148'
p1466
aS'scaffold4791_cov68'
p1467
aa(lp1468
S'scaffold16606_cov107'
p1469
aS'scaffold42581_cov70'
p1470
a(lp1471
I1
a(lp1472
F0.237288
aaI59
aa(lp1473
I1
a(lp1474
F0.240741
aaI54
aa(lp1475
I1
a(lp1476
F0.241379
aaI58
aa(lp1477
I1
a(lp1478
F0.253731
aaI67
aaa(lp1479
S'scaffold2507_cov119'
p1480
aS'scaffold414_cov67'
p1481
a(lp1482
I1
a(lp1483
F0.259259
aaI54
aa(lp1484
I1
a(lp1485
F0.333333
aaI57
aaa(lp1486
S'scaffold6378_cov134'
p1487
aS'scaffold6379_cov64'
p1488
aa(lp1489
S'scaffold36738_cov76'
p1490
aS'scaffold6580_cov70'
p1491
aa(lp1492
S'scaffold27251_cov134'
p1493
aS'scaffold26715_cov65'
p1494
aa(lp1495
S'scaffold104_cov67'
p1496
aS'scaffold34705_cov67'
p1497
aa(lp1498
S'scaffold7224_cov118'
p1499
aS'scaffold775_cov72'
p1500
aa(lp1501
S'scaffold6055_cov140'
p1502
aS'scaffold30423_cov65'
p1503
aa(lp1504
S'scaffold13885_cov142'
p1505
aS'scaffold213265_cov125'
p1506
aa(lp1507
S'scaffold178103_cov209'
p1508
aS'scaffold16632_cov63'
p1509
a(lp1510
I1
a(lp1511
F0.530303
aaI66
aaa(lp1512
S'scaffold36163_cov117'
p1513
aS'scaffold6928_cov65'
p1514
a(lp1515
I1
a(lp1516
F0.301887
aaI53
aaa(lp1517
S'scaffold279_cov75'
p1518
aS'scaffold7438_cov111'
p1519
a(lp1520
I1
a(lp1521
F0.314286
aaI70
aa(lp1522
I1
a(lp1523
F0.338028
aaI71
aa(lp1524
I1
a(lp1525
F0.272727
aaI55
aaa(lp1526
S'scaffold167503_cov98'
p1527
aS'scaffold7473_cov63'
p1528
a(lp1529
I1
a(lp1530
F0.302521
aaI238
aa(lp1531
I1
a(lp1532
F0.335766
aaI137
aaa(lp1533
S'scaffold1316_cov119'
p1534
aS'scaffold5085_cov79'
p1535
a(lp1536
I1
a(lp1537
F0.0
aaI43
aa(lp1538
I1
a(lp1539
F0.0
aaI49
aa(lp1540
I1
a(lp1541
F0.449438
aaI89
aa(lp1542
I1
a(lp1543
F0.390244
aaI82
aa(lp1544
I1
a(lp1545
F0.448718
aaI78
aa(lp1546
I1
a(lp1547
F0.411765
aaI68
aa(lp1548
I1
a(lp1549
F0.402985
aaI67
aa(lp1550
I1
a(lp1551
F0.262295
aaI61
aa(lp1552
I1
a(lp1553
F0.348485
aaI66
aa(lp1554
I1
a(lp1555
F0.22
aaI50
aa(lp1556
I1
a(lp1557
F0.25
aaI52
aaa(lp1558
S'scaffold17086_cov103'
p1559
aS'scaffold17615_cov61'
p1560
aa(lp1561
S'scaffold14104_cov135'
p1562
aS'scaffold22906_cov63'
p1563
a(lp1564
I1
a(lp1565
F0.21519
aaI79
aa(lp1566
I1
a(lp1567
F0.227848
aaI79
aaa(lp1568
S'scaffold107606_cov134'
p1569
aS'scaffold107607_cov79'
p1570
aa(lp1571
S'scaffold164980_cov146'
p1572
aS'scaffold3955_cov67'
p1573
a(lp1574
I1
a(lp1575
F0.25
aaI56
aa(lp1576
I1
a(lp1577
F0.205128
aaI39
aa(lp1578
I1
a(lp1579
F0.372093
aaI43
aa(lp1580
I1
a(lp1581
F0.391304
aaI46
aaa(lp1582
S'scaffold5694_cov90'
p1583
aS'scaffold21004_cov60'
p1584
a(lp1585
I1
a(lp1586
F0.244898
aaI49
aa(lp1587
I1
a(lp1588
F0.204545
aaI44
aaa(lp1589
S'scaffold10298_cov88'
p1590
aS'scaffold12318_cov65'
p1591
aa(lp1592
S'scaffold8620_cov63'
p1593
aS'scaffold23855_cov65'
p1594
a(lp1595
I1
a(lp1596
F0.25
aaI48
aaa(lp1597
S'scaffold1518_cov144'
p1598
aS'scaffold7273_cov73'
p1599
aa(lp1600
S'scaffold3714_cov147'
p1601
aS'scaffold3718_cov71'
p1602
a(lp1603
I1
a(lp1604
F0.0
aaI58
aaa(lp1605
S'scaffold20332_cov97'
p1606
aS'scaffold7080_cov68'
p1607
aa(lp1608
S'scaffold49078_cov128'
p1609
aS'scaffold54587_cov60'
p1610
aa(lp1611
S'scaffold10475_cov143'
p1612
aS'scaffold10474_cov65'
p1613
aa(lp1614
S'scaffold6306_cov146'
p1615
aS'scaffold6305_cov69'
p1616
aa(lp1617
S'scaffold11499_cov143'
p1618
aS'scaffold11874_cov70'
p1619
a(lp1620
I1
a(lp1621
F0.0
aaI46
aaa(lp1622
S'scaffold34203_cov139'
p1623
aS'scaffold15986_cov63'
p1624
aa(lp1625
S'scaffold4589_cov98'
p1626
aS'scaffold4585_cov69'
p1627
aa(lp1628
S'scaffold2129_cov167'
p1629
aS'scaffold92330_cov67'
p1630
a(lp1631
I1
a(lp1632
F0.25
aaI48
aaa(lp1633
S'scaffold34203_cov139'
p1634
aS'scaffold4395_cov68'
p1635
aa(lp1636
S'scaffold5847_cov85'
p1637
aS'scaffold4052_cov74'
p1638
a(lp1639
I1
a(lp1640
F0.361702
aaI47
aaa(lp1641
S'scaffold11171_cov138'
p1642
aS'scaffold10574_cov127'
p1643
a(lp1644
I1
a(lp1645
F0.27907
aaI43
aa(lp1646
I1
a(lp1647
F0.25
aaI48
aa(lp1648
I1
a(lp1649
F0.258065
aaI62
aa(lp1650
I1
a(lp1651
F0.296875
aaI64
aaa(lp1652
S'scaffold5348_cov143'
p1653
aS'scaffold91295_cov60'
p1654
aa(lp1655
S'scaffold22816_cov146'
p1656
aS'scaffold22815_cov69'
p1657
aa(lp1658
S'scaffold122299_cov139'
p1659
aS'scaffold122298_cov65'
p1660
aa(lp1661
S'scaffold18351_cov137'
p1662
aS'scaffold16169_cov72'
p1663
aa(lp1664
S'scaffold15731_cov124'
p1665
aS'scaffold1701_cov70'
p1666
a(lp1667
I1
a(lp1668
F0.237288
aaI59
aa(lp1669
I1
a(lp1670
F0.25641
aaI39
aa(lp1671
I1
a(lp1672
F0.25
aaI36
aaa(lp1673
S'scaffold1170_cov146'
p1674
aS'scaffold69771_cov67'
p1675
aa(lp1676
S'scaffold3741_cov108'
p1677
aS'scaffold2061_cov67'
p1678
aa(lp1679
S'scaffold1461_cov134'
p1680
aS'scaffold13020_cov66'
p1681
aa(lp1682
S'scaffold16201_cov125'
p1683
aS'scaffold51827_cov73'
p1684
aa(lp1685
S'scaffold10337_cov80'
p1686
aS'scaffold21068_cov65'
p1687
aa(lp1688
S'scaffold6532_cov126'
p1689
aS'scaffold5058_cov63'
p1690
a(lp1691
I1
a(lp1692
F0.371795
aaI78
aaa(lp1693
S'scaffold38959_cov135'
p1694
aS'scaffold57178_cov79'
p1695
a(lp1696
I1
a(lp1697
F0.361702
aaI47
aa(lp1698
I1
a(lp1699
F0.276596
aaI47
aaa(lp1700
S'scaffold17601_cov135'
p1701
aS'scaffold1994_cov63'
p1702
a(lp1703
I1
a(lp1704
F0.254902
aaI51
aaa(lp1705
S'scaffold16294_cov110'
p1706
aS'scaffold7481_cov74'
p1707
a(lp1708
I1
a(lp1709
F0.327869
aaI61
aa(lp1710
I1
a(lp1711
F0.278689
aaI61
aa(lp1712
I1
a(lp1713
F0.293103
aaI58
aa(lp1714
I1
a(lp1715
F0.352113
aaI71
aa(lp1716
I1
a(lp1717
F0.305085
aaI59
aa(lp1718
I1
a(lp1719
F0.321429
aaI56
aa(lp1720
I1
a(lp1721
F0.314815
aaI54
aa(lp1722
I1
a(lp1723
F0.327273
aaI55
aa(lp1724
I1
a(lp1725
F0.333333
aaI60
aa(lp1726
I1
a(lp1727
F0.322581
aaI62
aa(lp1728
I1
a(lp1729
F0.366667
aaI60
aa(lp1730
I1
a(lp1731
F0.326923
aaI52
aa(lp1732
I1
a(lp1733
F0.357143
aaI56
aa(lp1734
I1
a(lp1735
F0.350877
aaI57
aa(lp1736
I1
a(lp1737
F0.333333
aaI48
aa(lp1738
I1
a(lp1739
F0.25
aaI44
aa(lp1740
I1
a(lp1741
F0.207547
aaI53
aa(lp1742
I1
a(lp1743
F0.208333
aaI48
aaa(lp1744
S'scaffold31627_cov123'
p1745
aS'scaffold1614_cov71'
p1746
aa(lp1747
S'scaffold5399_cov135'
p1748
aS'scaffold8409_cov62'
p1749
aa(lp1750
S'scaffold13624_cov94'
p1751
aS'scaffold72210_cov77'
p1752
aa(lp1753
S'scaffold19315_cov107'
p1754
aS'scaffold7113_cov70'
p1755
a(lp1756
I1
a(lp1757
F0.42623
aaI61
aaa(lp1758
S'scaffold165629_cov145'
p1759
aS'scaffold33634_cov72'
p1760
aa(lp1761
S'scaffold183201_cov134'
p1762
aS'scaffold6997_cov65'
p1763
aa(lp1764
S'scaffold22010_cov97'
p1765
aS'scaffold401_cov67'
p1766
aa(lp1767
S'scaffold17015_cov140'
p1768
aS'scaffold4528_cov69'
p1769
aa(lp1770
S'scaffold21453_cov86'
p1771
aS'scaffold4784_cov67'
p1772
aa(lp1773
S'scaffold13852_cov94'
p1774
aS'scaffold7585_cov68'
p1775
aa(lp1776
S'scaffold8101_cov85'
p1777
aS'scaffold11271_cov65'
p1778
a(lp1779
I1
a(lp1780
F0.244444
aaI45
aaa(lp1781
S'scaffold165420_cov139'
p1782
aS'scaffold27291_cov70'
p1783
aa(lp1784
S'scaffold9044_cov136'
p1785
aS'scaffold2501_cov70'
p1786
a(lp1787
I1
a(lp1788
F0.54902
aaI102
aa(lp1789
I1
a(lp1790
F0.210526
aaI57
aa(lp1791
I1
a(lp1792
F0.222222
aaI63
aa(lp1793
I1
a(lp1794
F0.514286
aaI70
aa(lp1795
I1
a(lp1796
F0.348485
aaI66
aa(lp1797
I1
a(lp1798
F0.313433
aaI67
aa(lp1799
I1
a(lp1800
F0.3
aaI60
aaa(lp1801
S'scaffold60916_cov101'
p1802
aS'scaffold2562_cov78'
p1803
aa(lp1804
S'scaffold4116_cov143'
p1805
aS'scaffold6097_cov70'
p1806
aa(lp1807
S'scaffold451_cov146'
p1808
aS'scaffold449_cov70'
p1809
aa(lp1810
S'scaffold167824_cov153'
p1811
aS'scaffold540_cov68'
p1812
aa(lp1813
S'scaffold182_cov83'
p1814
aS'scaffold3533_cov68'
p1815
a(lp1816
I1
a(lp1817
F0.368421
aaI57
aaa(lp1818
S'scaffold167494_cov111'
p1819
aS'scaffold12899_cov60'
p1820
aa(lp1821
S'scaffold3456_cov132'
p1822
aS'scaffold166714_cov62'
p1823
a(lp1824
I1
a(lp1825
F0.26087
aaI46
aaa(lp1826
S'scaffold37213_cov79'
p1827
aS'scaffold29941_cov91'
p1828
a(lp1829
I1
a(lp1830
F0.25
aaI28
aaa(lp1831
S'scaffold183613_cov153'
p1832
aS'scaffold5720_cov71'
p1833
aa(lp1834
S'scaffold7006_cov83'
p1835
aS'scaffold7005_cov65'
p1836
aa(lp1837
S'scaffold10462_cov135'
p1838
aS'scaffold10461_cov66'
p1839
aa(lp1840
S'scaffold5049_cov88'
p1841
aS'scaffold5046_cov63'
p1842
aa(lp1843
S'scaffold19586_cov139'
p1844
aS'scaffold30711_cov65'
p1845
aa(lp1846
S'scaffold24500_cov65'
p1847
aS'scaffold57197_cov90'
p1848
a(lp1849
I1
a(lp1850
F0.0
aaI39
aaasS'up'
p1851
(lp1852
(lp1853
g6
ag7
a(lp1854
I1
a(lp1855
F0.433735
aaI83
aa(lp1856
I1
a(lp1857
F0.27451
aaI51
aa(lp1858
I1
a(lp1859
F0.309091
aaI55
aa(lp1860
I1
a(lp1861
F0.348837
aaI43
aa(lp1862
I1
a(lp1863
F0.447368
aaI76
aa(lp1864
I1
a(lp1865
F0.359375
aaI64
aa(lp1866
I1
a(lp1867
F0.505747
aaI87
aa(lp1868
I1
a(lp1869
F0.315789
aaI57
aa(lp1870
I1
a(lp1871
F0.205128
aaI39
aa(lp1872
I1
a(lp1873
F0.27451
aaI51
aa(lp1874
I1
a(lp1875
F0.3
aaI50
aa(lp1876
I1
a(lp1877
F0.492308
aaI65
aa(lp1878
I1
a(lp1879
F0.339286
aaI56
aa(lp1880
I1
a(lp1881
F0.235294
aaI51
aaa(lp1882
g9
ag10
a(lp1883
I1
a(lp1884
F0.392157
aaI51
aa(lp1885
I1
a(lp1886
F0.224138
aaI58
aa(lp1887
I1
a(lp1888
F0.293333
aaI75
aaa(lp1889
g12
ag13
a(lp1890
I1
a(lp1891
F0.256098
aaI82
aaa(lp1892
g15
ag16
a(lp1893
I1
a(lp1894
F0.3125
aaI64
aa(lp1895
I1
a(lp1896
F0.2
aaI45
aaa(lp1897
g18
ag19
aa(lp1898
g51
ag52
a(lp1899
I1
a(lp1900
F0.485714
aaI70
aa(lp1901
I1
a(lp1902
F0.369681
aaI752
aa(lp1903
I1
a(lp1904
F0.45122
aaI82
aaa(lp1905
g54
ag55
a(lp1906
I1
a(lp1907
F0.25
aaI56
aa(lp1908
I1
a(lp1909
F0.285714
aaI63
aaa(lp1910
g57
ag58
aa(lp1911
g62
ag63
aa(lp1912
g65
ag66
a(lp1913
I1
a(lp1914
F0.452055
aaI73
aa(lp1915
I1
a(lp1916
F0.321839
aaI87
aa(lp1917
I1
a(lp1918
F0.432836
aaI67
aaa(lp1919
g68
ag69
a(lp1920
I1
a(lp1921
F0.394231
aaI104
aaa(lp1922
g71
ag72
aa(lp1923
g74
ag75
a(lp1924
I1
a(lp1925
F0.421687
aaI83
aa(lp1926
I1
a(lp1927
F0.269231
aaI78
aaa(lp1928
g79
ag80
a(lp1929
I1
a(lp1930
F0.4125
aaI80
aa(lp1931
I1
a(lp1932
F0.346939
aaI98
aa(lp1933
I1
a(lp1934
F0.505051
aaI99
aa(lp1935
I1
a(lp1936
F0.285714
aaI98
aa(lp1937
I1
a(lp1938
F0.3375
aaI80
aaa(lp1939
g164
ag165
a(lp1940
I1
a(lp1941
F0.214286
aaI42
aa(lp1942
I1
a(lp1943
F0.521127
aaI71
aa(lp1944
I1
a(lp1945
F0.333333
aaI54
aa(lp1946
I1
a(lp1947
F0.441558
aaI77
aaa(lp1948
g167
ag168
a(lp1949
I1
a(lp1950
F0.465116
aaI86
aa(lp1951
I1
a(lp1952
F0.419355
aaI62
aa(lp1953
I1
a(lp1954
F0.4
aaI60
aa(lp1955
I1
a(lp1956
F0.444444
aaI72
aa(lp1957
I1
a(lp1958
F0.326531
aaI98
aa(lp1959
I1
a(lp1960
F0.263158
aaI57
aa(lp1961
I1
a(lp1962
F0.367089
aaI79
aa(lp1963
I1
a(lp1964
F0.488095
aaI84
aa(lp1965
I1
a(lp1966
F0.392405
aaI79
aa(lp1967
I1
a(lp1968
F0.363636
aaI88
aa(lp1969
I1
a(lp1970
F0.233766
aaI77
aa(lp1971
I1
a(lp1972
F0.267442
aaI86
aa(lp1973
I1
a(lp1974
F0.258824
aaI85
aa(lp1975
I1
a(lp1976
F0.215385
aaI65
aaa(lp1977
g170
ag171
aa(lp1978
g177
ag178
a(lp1979
I1
a(lp1980
F0.361111
aaI72
aa(lp1981
I1
a(lp1982
F0.283019
aaI53
aa(lp1983
I1
a(lp1984
F0.350877
aaI57
aa(lp1985
I1
a(lp1986
F0.207547
aaI53
aa(lp1987
I1
a(lp1988
F0.230769
aaI65
aa(lp1989
I1
a(lp1990
F0.367647
aaI68
aa(lp1991
I1
a(lp1992
F0.3
aaI60
aa(lp1993
I1
a(lp1994
F0.295082
aaI61
aa(lp1995
I1
a(lp1996
F0.353846
aaI65
aa(lp1997
I1
a(lp1998
F0.338028
aaI71
aa(lp1999
I1
a(lp2000
F0.323944
aaI71
aa(lp2001
I1
a(lp2002
F0.352113
aaI71
aa(lp2003
I1
a(lp2004
F0.3125
aaI64
aa(lp2005
I1
a(lp2006
F0.391892
aaI74
aa(lp2007
I1
a(lp2008
F0.4
aaI75
aa(lp2009
I1
a(lp2010
F0.408451
aaI71
aa(lp2011
I1
a(lp2012
F0.403509
aaI57
aaa(lp2013
g180
ag181
aa(lp2014
g183
ag184
a(lp2015
I1
a(lp2016
F0.27907
aaI43
aaa(lp2017
g192
ag193
a(lp2018
I1
a(lp2019
F0.5
aaI26
aaa(lp2020
g195
ag196
aa(lp2021
g204
ag205
aa(lp2022
g207
ag208
aa(lp2023
g210
ag211
aa(lp2024
g213
ag214
aa(lp2025
g224
ag225
a(lp2026
I1
a(lp2027
F0.347222
aaI72
aa(lp2028
I1
a(lp2029
F0.293333
aaI75
aa(lp2030
I1
a(lp2031
F0.275362
aaI69
aa(lp2032
I1
a(lp2033
F0.352941
aaI68
aa(lp2034
I1
a(lp2035
F0.315068
aaI73
aa(lp2036
I1
a(lp2037
F0.310811
aaI74
aa(lp2038
I1
a(lp2039
F0.333333
aaI81
aa(lp2040
I1
a(lp2041
F0.350649
aaI77
aaa(lp2042
g229
ag230
aa(lp2043
g232
ag233
a(lp2044
I1
a(lp2045
F0.216216
aaI37
aa(lp2046
I1
a(lp2047
F0.205128
aaI39
aa(lp2048
I1
a(lp2049
F0.244444
aaI45
aa(lp2050
I1
a(lp2051
F0.351852
aaI54
aa(lp2052
I1
a(lp2053
F0.253731
aaI67
aaa(lp2054
g237
ag238
a(lp2055
I1
a(lp2056
F0.376812
aaI69
aa(lp2057
I1
a(lp2058
F0.412698
aaI63
aa(lp2059
I1
a(lp2060
F0.357143
aaI56
aa(lp2061
I1
a(lp2062
F0.328125
aaI64
aa(lp2063
I1
a(lp2064
F0.33871
aaI62
aa(lp2065
I1
a(lp2066
F0.425926
aaI54
aa(lp2067
I1
a(lp2068
F0.403846
aaI52
aa(lp2069
I1
a(lp2070
F0.354167
aaI48
aaa(lp2071
g240
ag241
a(lp2072
I1
a(lp2073
F0.277778
aaI72
aa(lp2074
I1
a(lp2075
F0.2
aaI50
aa(lp2076
I1
a(lp2077
F0.204082
aaI49
aa(lp2078
I1
a(lp2079
F0.469136
aaI81
aaa(lp2080
g243
ag244
aa(lp2081
g246
ag247
aa(lp2082
g255
ag256
aa(lp2083
g258
ag259
aa(lp2084
g261
ag262
aa(lp2085
g264
ag265
a(lp2086
I1
a(lp2087
F0.37931
aaI145
aaa(lp2088
g267
ag268
a(lp2089
I1
a(lp2090
F0.4
aaI50
aa(lp2091
I1
a(lp2092
F0.333333
aaI51
aa(lp2093
I1
a(lp2094
F0.290909
aaI55
aa(lp2095
I1
a(lp2096
F0.288462
aaI52
aa(lp2097
I1
a(lp2098
F0.215686
aaI51
aa(lp2099
I1
a(lp2100
F0.254237
aaI59
aa(lp2101
I1
a(lp2102
F0.288462
aaI52
aa(lp2103
I1
a(lp2104
F0.347826
aaI46
aa(lp2105
I1
a(lp2106
F0.365854
aaI41
aa(lp2107
I1
a(lp2108
F0.204545
aaI44
aaa(lp2109
g270
ag271
a(lp2110
I1
a(lp2111
F0.373494
aaI83
aa(lp2112
I1
a(lp2113
F0.39726
aaI73
aa(lp2114
I1
a(lp2115
F0.288136
aaI59
aaa(lp2116
g273
ag274
aa(lp2117
g276
ag277
a(lp2118
I1
a(lp2119
F0.45122
aaI82
aa(lp2120
I1
a(lp2121
F0.24
aaI50
aa(lp2122
I1
a(lp2123
F0.25
aaI48
aa(lp2124
I1
a(lp2125
F0.307692
aaI52
aa(lp2126
I1
a(lp2127
F0.211538
aaI52
aaa(lp2128
g279
ag280
aa(lp2129
g282
ag283
aa(lp2130
g285
ag286
aa(lp2131
g288
ag289
a(lp2132
I1
a(lp2133
F0.298246
aaI57
aa(lp2134
I1
a(lp2135
F0.352941
aaI68
aa(lp2136
I1
a(lp2137
F0.430556
aaI72
aa(lp2138
I1
a(lp2139
F0.412698
aaI63
aa(lp2140
I1
a(lp2141
F0.505882
aaI85
aaa(lp2142
g303
ag304
aa(lp2143
g306
ag307
a(lp2144
I1
a(lp2145
F0.311475
aaI61
aa(lp2146
I1
a(lp2147
F0.254237
aaI59
aa(lp2148
I1
a(lp2149
F0.225806
aaI62
aa(lp2150
I1
a(lp2151
F0.602273
aaI88
aaa(lp2152
g309
ag310
aa(lp2153
g312
ag313
a(lp2154
I1
a(lp2155
F0.463768
aaI69
aa(lp2156
I1
a(lp2157
F0.464286
aaI84
aaa(lp2158
g315
ag316
a(lp2159
I1
a(lp2160
F0.329114
aaI79
aa(lp2161
I1
a(lp2162
F0.234043
aaI47
aa(lp2163
I1
a(lp2164
F0.338462
aaI65
aa(lp2165
I1
a(lp2166
F0.222222
aaI54
aa(lp2167
I1
a(lp2168
F0.315789
aaI57
aa(lp2169
I1
a(lp2170
F0.307692
aaI65
aa(lp2171
I1
a(lp2172
F0.224138
aaI58
aaa(lp2173
g324
ag325
a(lp2174
I1
a(lp2175
F0.245614
aaI57
aa(lp2176
I1
a(lp2177
F0.275362
aaI69
aa(lp2178
I1
a(lp2179
F0.2
aaI110
aa(lp2180
I1
a(lp2181
F0.233645
aaI107
aa(lp2182
I1
a(lp2183
F0.430233
aaI86
aa(lp2184
I1
a(lp2185
F0.277778
aaI54
aaa(lp2186
g347
ag348
a(lp2187
I1
a(lp2188
F0.2
aaI45
aa(lp2189
I1
a(lp2190
F0.230769
aaI52
aa(lp2191
I1
a(lp2192
F0.291667
aaI72
aa(lp2193
I1
a(lp2194
F0.351852
aaI54
aa(lp2195
I1
a(lp2196
F0.35
aaI80
aa(lp2197
I1
a(lp2198
F0.20339
aaI59
aa(lp2199
I1
a(lp2200
F0.2
aaI60
aa(lp2201
I1
a(lp2202
F0.207547
aaI53
aaa(lp2203
g358
ag359
a(lp2204
I1
a(lp2205
F0.275862
aaI58
aaa(lp2206
g361
ag362
aa(lp2207
g364
ag365
aa(lp2208
g367
ag368
a(lp2209
I1
a(lp2210
F0.357143
aaI70
aa(lp2211
I1
a(lp2212
F0.357143
aaI56
aa(lp2213
I1
a(lp2214
F0.362069
aaI58
aa(lp2215
I1
a(lp2216
F0.424658
aaI73
aa(lp2217
I1
a(lp2218
F0.42623
aaI61
aa(lp2219
I1
a(lp2220
F0.415094
aaI53
aa(lp2221
I1
a(lp2222
F0.233333
aaI60
aa(lp2223
I1
a(lp2224
F0.385542
aaI83
aa(lp2225
I1
a(lp2226
F0.3125
aaI64
aaa(lp2227
g370
ag371
aa(lp2228
g373
ag374
aa(lp2229
g376
ag377
a(lp2230
I1
a(lp2231
F0.355556
aaI45
aa(lp2232
I1
a(lp2233
F0.340909
aaI44
aa(lp2234
I1
a(lp2235
F0.340426
aaI47
aa(lp2236
I1
a(lp2237
F0.272727
aaI44
aa(lp2238
I1
a(lp2239
F0.238095
aaI42
aa(lp2240
I1
a(lp2241
F0.254902
aaI51
aa(lp2242
I1
a(lp2243
F0.321429
aaI56
aa(lp2244
I1
a(lp2245
F0.333333
aaI60
aaa(lp2246
g379
ag380
aa(lp2247
g382
ag383
aa(lp2248
g385
ag386
aa(lp2249
g388
ag389
aa(lp2250
g391
ag392
a(lp2251
I1
a(lp2252
F0.492537
aaI67
aa(lp2253
I1
a(lp2254
F0.283784
aaI74
aa(lp2255
I1
a(lp2256
F0.253731
aaI67
aa(lp2257
I1
a(lp2258
F0.257143
aaI70
aa(lp2259
I1
a(lp2260
F0.230769
aaI52
aa(lp2261
I1
a(lp2262
F0.205128
aaI39
aa(lp2263
I1
a(lp2264
F0.309524
aaI42
aa(lp2265
I1
a(lp2266
F0.333333
aaI42
aa(lp2267
I1
a(lp2268
F0.346939
aaI49
aa(lp2269
I1
a(lp2270
F0.309091
aaI55
aa(lp2271
I1
a(lp2272
F0.267857
aaI56
aa(lp2273
I1
a(lp2274
F0.271186
aaI59
aa(lp2275
I1
a(lp2276
F0.267857
aaI56
aa(lp2277
I1
a(lp2278
F0.211538
aaI52
aa(lp2279
I1
a(lp2280
F0.486842
aaI76
aa(lp2281
I1
a(lp2282
F0.219512
aaI41
aa(lp2283
I1
a(lp2284
F0.228571
aaI35
aaa(lp2285
g394
ag395
aa(lp2286
g397
ag398
a(lp2287
I1
a(lp2288
F0.333333
aaI54
aa(lp2289
I1
a(lp2290
F0.283019
aaI53
aa(lp2291
I1
a(lp2292
F0.46875
aaI64
aa(lp2293
I1
a(lp2294
F0.5
aaI52
aa(lp2295
I1
a(lp2296
F0.360656
aaI61
aa(lp2297
I1
a(lp2298
F0.467391
aaI92
aa(lp2299
I1
a(lp2300
F0.426966
aaI89
aa(lp2301
I1
a(lp2302
F0.420455
aaI88
aa(lp2303
I1
a(lp2304
F0.390805
aaI87
aa(lp2305
I1
a(lp2306
F0.413793
aaI87
aa(lp2307
I1
a(lp2308
F0.423729
aaI59
aa(lp2309
I1
a(lp2310
F0.39726
aaI73
aa(lp2311
I1
a(lp2312
F0.44
aaI75
aa(lp2313
I1
a(lp2314
F0.435897
aaI78
aa(lp2315
I1
a(lp2316
F0.28125
aaI64
aa(lp2317
I1
a(lp2318
F0.322034
aaI59
aa(lp2319
I1
a(lp2320
F0.333333
aaI75
aa(lp2321
I1
a(lp2322
F0.25
aaI52
aa(lp2323
I1
a(lp2324
F0.282609
aaI46
aa(lp2325
I1
a(lp2326
F0.38
aaI50
aa(lp2327
I1
a(lp2328
F0.416667
aaI48
aa(lp2329
I1
a(lp2330
F0.425926
aaI54
aa(lp2331
I1
a(lp2332
F0.462963
aaI54
aa(lp2333
I1
a(lp2334
F0.358209
aaI67
aa(lp2335
I1
a(lp2336
F0.215686
aaI51
aa(lp2337
I1
a(lp2338
F0.22449
aaI49
aaa(lp2339
g404
ag405
aa(lp2340
g411
ag412
a(lp2341
I1
a(lp2342
F0.0
aaI45
aaa(lp2343
g414
ag415
a(lp2344
I1
a(lp2345
F0.245614
aaI57
aa(lp2346
I1
a(lp2347
F0.276316
aaI76
aaa(lp2348
g421
ag422
aa(lp2349
g424
ag425
aa(lp2350
g427
ag428
aa(lp2351
g430
ag431
aa(lp2352
g433
ag434
a(lp2353
I1
a(lp2354
F0.258065
aaI62
aa(lp2355
I1
a(lp2356
F0.301887
aaI53
aa(lp2357
I1
a(lp2358
F0.357143
aaI70
aa(lp2359
I1
a(lp2360
F0.369231
aaI65
aaa(lp2361
g460
ag461
aa(lp2362
g467
ag468
aa(lp2363
g470
ag471
a(lp2364
I1
a(lp2365
F0.513514
aaI74
aa(lp2366
I1
a(lp2367
F0.288462
aaI52
aa(lp2368
I1
a(lp2369
F0.509091
aaI55
aa(lp2370
I1
a(lp2371
F0.288136
aaI59
aa(lp2372
I1
a(lp2373
F0.349206
aaI63
aa(lp2374
I1
a(lp2375
F0.344828
aaI58
aaa(lp2376
g473
ag474
aa(lp2377
g476
ag477
aa(lp2378
g479
ag480
aa(lp2379
g484
ag485
a(lp2380
I1
a(lp2381
F0.354839
aaI62
aa(lp2382
I1
a(lp2383
F0.36
aaI75
aa(lp2384
I1
a(lp2385
F0.316456
aaI79
aaa(lp2386
g491
ag492
a(lp2387
I1
a(lp2388
F0.285714
aaI56
aa(lp2389
I1
a(lp2390
F0.269231
aaI52
aa(lp2391
I1
a(lp2392
F0.277778
aaI54
aa(lp2393
I1
a(lp2394
F0.204545
aaI44
aa(lp2395
I1
a(lp2396
F0.217391
aaI46
aa(lp2397
I1
a(lp2398
F0.289474
aaI76
aa(lp2399
I1
a(lp2400
F0.254902
aaI51
aaa(lp2401
g494
ag495
a(lp2402
I1
a(lp2403
F0.257576
aaI66
aa(lp2404
I1
a(lp2405
F0.450704
aaI71
aa(lp2406
I1
a(lp2407
F0.368421
aaI57
aa(lp2408
I1
a(lp2409
F0.245614
aaI57
aa(lp2410
I1
a(lp2411
F0.375
aaI72
aa(lp2412
I1
a(lp2413
F0.24359
aaI78
aa(lp2414
I1
a(lp2415
F0.245902
aaI61
aa(lp2416
I1
a(lp2417
F0.333333
aaI63
aa(lp2418
I1
a(lp2419
F0.333333
aaI63
aaa(lp2420
g499
ag500
aa(lp2421
g502
ag503
aa(lp2422
g505
ag506
a(lp2423
I1
a(lp2424
F0.375
aaI56
aa(lp2425
I1
a(lp2426
F0.209677
aaI62
aa(lp2427
I1
a(lp2428
F0.5
aaI94
aa(lp2429
I1
a(lp2430
F0.488889
aaI90
aa(lp2431
I1
a(lp2432
F0.367647
aaI68
aa(lp2433
I1
a(lp2434
F0.366197
aaI71
aa(lp2435
I1
a(lp2436
F0.413333
aaI75
aa(lp2437
I1
a(lp2438
F0.267857
aaI56
aa(lp2439
I1
a(lp2440
F0.333333
aaI81
aaa(lp2441
g508
ag509
aa(lp2442
g523
ag524
aa(lp2443
g530
ag531
aa(lp2444
g537
ag538
a(lp2445
I1
a(lp2446
F0.369565
aaI46
aa(lp2447
I1
a(lp2448
F0.423077
aaI52
aa(lp2449
I1
a(lp2450
F0.322034
aaI59
aa(lp2451
I1
a(lp2452
F0.321429
aaI56
aaa(lp2453
g540
ag541
a(lp2454
I1
a(lp2455
F0.351852
aaI54
aa(lp2456
I1
a(lp2457
F0.403509
aaI57
aa(lp2458
I1
a(lp2459
F0.361702
aaI47
aa(lp2460
I1
a(lp2461
F0.345455
aaI55
aa(lp2462
I1
a(lp2463
F0.419355
aaI62
aa(lp2464
I1
a(lp2465
F0.37931
aaI58
aa(lp2466
I1
a(lp2467
F0.285714
aaI49
aa(lp2468
I1
a(lp2469
F0.277778
aaI54
aa(lp2470
I1
a(lp2471
F0.298246
aaI57
aa(lp2472
I1
a(lp2473
F0.373333
aaI75
aa(lp2474
I1
a(lp2475
F0.445783
aaI83
aa(lp2476
I1
a(lp2477
F0.378378
aaI74
aa(lp2478
I1
a(lp2479
F0.418919
aaI74
aa(lp2480
I1
a(lp2481
F0.383562
aaI73
aa(lp2482
I1
a(lp2483
F0.358209
aaI67
aaa(lp2484
g543
ag544
a(lp2485
I1
a(lp2486
F0.231884
aaI69
aa(lp2487
I1
a(lp2488
F0.362069
aaI58
aa(lp2489
I1
a(lp2490
F0.351852
aaI54
aa(lp2491
I1
a(lp2492
F0.333333
aaI48
aa(lp2493
I1
a(lp2494
F0.412698
aaI63
aa(lp2495
I1
a(lp2496
F0.251613
aaI155
aa(lp2497
I1
a(lp2498
F0.227273
aaI44
aa(lp2499
I1
a(lp2500
F0.397436
aaI78
aa(lp2501
I1
a(lp2502
F0.410256
aaI78
aa(lp2503
I1
a(lp2504
F0.458333
aaI48
aa(lp2505
I1
a(lp2506
F0.4375
aaI48
aa(lp2507
I1
a(lp2508
F0.44898
aaI49
aa(lp2509
I1
a(lp2510
F0.511628
aaI86
aa(lp2511
I1
a(lp2512
F0.207547
aaI53
aa(lp2513
I1
a(lp2514
F0.277778
aaI54
aa(lp2515
I1
a(lp2516
F0.306452
aaI62
aa(lp2517
I1
a(lp2518
F0.298507
aaI67
aa(lp2519
I1
a(lp2520
F0.224138
aaI58
aa(lp2521
I1
a(lp2522
F0.235294
aaI51
aa(lp2523
I1
a(lp2524
F0.327586
aaI58
aa(lp2525
I1
a(lp2526
F0.397059
aaI68
aa(lp2527
I1
a(lp2528
F0.520548
aaI73
aa(lp2529
I1
a(lp2530
F0.43299
aaI97
aa(lp2531
I1
a(lp2532
F0.314815
aaI54
aa(lp2533
I1
a(lp2534
F0.307692
aaI65
aa(lp2535
I1
a(lp2536
F0.328125
aaI64
aaa(lp2537
g568
ag569
aa(lp2538
g571
ag572
a(lp2539
I1
a(lp2540
F0.23913
aaI46
aa(lp2541
I1
a(lp2542
F0.26087
aaI46
aa(lp2543
I1
a(lp2544
F0.410714
aaI56
aa(lp2545
I1
a(lp2546
F0.0
aaI1096
aaa(lp2547
g574
ag575
a(lp2548
I1
a(lp2549
F0.438596
aaI57
aa(lp2550
I1
a(lp2551
F0.297872
aaI47
aa(lp2552
I1
a(lp2553
F0.26087
aaI46
aa(lp2554
I1
a(lp2555
F0.26087
aaI46
aa(lp2556
I1
a(lp2557
F0.350877
aaI57
aa(lp2558
I1
a(lp2559
F0.362069
aaI58
aa(lp2560
I1
a(lp2561
F0.327586
aaI58
aa(lp2562
I1
a(lp2563
F0.316667
aaI60
aaa(lp2564
g577
ag578
aa(lp2565
g580
ag581
a(lp2566
I1
a(lp2567
F0.290323
aaI62
aa(lp2568
I1
a(lp2569
F0.447059
aaI85
aaa(lp2570
g593
ag594
aa(lp2571
g596
ag597
a(lp2572
I1
a(lp2573
F0.366667
aaI60
aa(lp2574
I1
a(lp2575
F0.387097
aaI62
aa(lp2576
I1
a(lp2577
F0.363636
aaI66
aa(lp2578
I1
a(lp2579
F0.359375
aaI64
aa(lp2580
I1
a(lp2581
F0.326531
aaI49
aa(lp2582
I1
a(lp2583
F0.282609
aaI46
aa(lp2584
I1
a(lp2585
F0.280702
aaI57
aa(lp2586
I1
a(lp2587
F0.305556
aaI72
aa(lp2588
I1
a(lp2589
F0.32
aaI75
aaa(lp2590
g605
ag606
a(lp2591
I1
a(lp2592
F0.263158
aaI57
aa(lp2593
I1
a(lp2594
F0.254237
aaI59
aa(lp2595
I1
a(lp2596
F0.280702
aaI57
aa(lp2597
I1
a(lp2598
F0.333333
aaI57
aa(lp2599
I1
a(lp2600
F0.288136
aaI59
aa(lp2601
I1
a(lp2602
F0.372881
aaI59
aa(lp2603
I1
a(lp2604
F0.478873
aaI71
aa(lp2605
I1
a(lp2606
F0.493151
aaI73
aa(lp2607
I1
a(lp2608
F0.415385
aaI65
aaa(lp2609
g608
ag609
aa(lp2610
g611
ag612
aa(lp2611
g614
ag615
a(lp2612
I1
a(lp2613
F0.45098
aaI51
aa(lp2614
I1
a(lp2615
F0.283582
aaI67
aa(lp2616
I1
a(lp2617
F0.298507
aaI67
aa(lp2618
I1
a(lp2619
F0.381579
aaI76
aa(lp2620
I1
a(lp2621
F0.425287
aaI87
aa(lp2622
I1
a(lp2623
F0.454545
aaI66
aa(lp2624
I1
a(lp2625
F0.306122
aaI49
aa(lp2626
I1
a(lp2627
F0.28
aaI50
aaa(lp2628
g617
ag618
a(lp2629
I1
a(lp2630
F0.230769
aaI65
aaa(lp2631
g620
ag621
aa(lp2632
g623
ag624
aa(lp2633
g626
ag627
aa(lp2634
g631
ag632
aa(lp2635
g634
ag635
aa(lp2636
g637
ag638
aa(lp2637
g642
ag643
aa(lp2638
g651
ag652
aa(lp2639
g654
ag655
aa(lp2640
g657
ag658
a(lp2641
I1
a(lp2642
F0.367647
aaI68
aaa(lp2643
g660
ag661
aa(lp2644
g663
ag664
a(lp2645
I1
a(lp2646
F0.28125
aaI64
aa(lp2647
I1
a(lp2648
F0.274194
aaI62
aa(lp2649
I1
a(lp2650
F0.306452
aaI62
aa(lp2651
I1
a(lp2652
F0.267857
aaI56
aa(lp2653
I1
a(lp2654
F0.343284
aaI67
aa(lp2655
I1
a(lp2656
F0.357143
aaI70
aa(lp2657
I1
a(lp2658
F0.356164
aaI73
aa(lp2659
I1
a(lp2660
F0.415385
aaI65
aa(lp2661
I1
a(lp2662
F0.390625
aaI64
aa(lp2663
I1
a(lp2664
F0.38
aaI50
aa(lp2665
I1
a(lp2666
F0.0
aaI50
aa(lp2667
I1
a(lp2668
F0.229167
aaI48
aaa(lp2669
g666
ag667
a(lp2670
I1
a(lp2671
F0.263158
aaI57
aa(lp2672
I1
a(lp2673
F0.367816
aaI87
aa(lp2674
I1
a(lp2675
F0.471264
aaI87
aa(lp2676
I1
a(lp2677
F0.349206
aaI63
aa(lp2678
I1
a(lp2679
F0.310345
aaI58
aa(lp2680
I1
a(lp2681
F0.316667
aaI60
aaa(lp2682
g671
ag672
aa(lp2683
g674
ag675
a(lp2684
I1
a(lp2685
F0.216667
aaI60
aa(lp2686
I1
a(lp2687
F0.306452
aaI62
aa(lp2688
I1
a(lp2689
F0.410959
aaI73
aa(lp2690
I1
a(lp2691
F0.212121
aaI66
aa(lp2692
I1
a(lp2693
F0.310811
aaI74
aa(lp2694
I1
a(lp2695
F0.237288
aaI59
aa(lp2696
I1
a(lp2697
F0.333333
aaI60
aa(lp2698
I1
a(lp2699
F0.310345
aaI58
aa(lp2700
I1
a(lp2701
F0.283951
aaI81
aa(lp2702
I1
a(lp2703
F0.238095
aaI84
aa(lp2704
I1
a(lp2705
F0.333333
aaI66
aa(lp2706
I1
a(lp2707
F0.333333
aaI57
aa(lp2708
I1
a(lp2709
F0.234043
aaI94
aa(lp2710
I1
a(lp2711
F0.242424
aaI66
aa(lp2712
I1
a(lp2713
F0.230769
aaI65
aa(lp2714
I1
a(lp2715
F0.21875
aaI64
aa(lp2716
I1
a(lp2717
F0.363636
aaI55
aa(lp2718
I1
a(lp2719
F0.3125
aaI48
aaa(lp2720
g681
ag682
a(lp2721
I1
a(lp2722
F0.227273
aaI66
aa(lp2723
I1
a(lp2724
F0.328125
aaI64
aa(lp2725
I1
a(lp2726
F0.492063
aaI63
aa(lp2727
I1
a(lp2728
F0.265625
aaI64
aa(lp2729
I1
a(lp2730
F0.318182
aaI66
aa(lp2731
I1
a(lp2732
F0.238095
aaI42
aaa(lp2733
g694
ag695
a(lp2734
I1
a(lp2735
F0.323944
aaI71
aa(lp2736
I1
a(lp2737
F0.373134
aaI67
aa(lp2738
I1
a(lp2739
F0.555556
aaI81
aa(lp2740
I1
a(lp2741
F0.272727
aaI77
aaa(lp2742
g697
ag698
a(lp2743
I1
a(lp2744
F0.227273
aaI66
aa(lp2745
I1
a(lp2746
F0.365079
aaI63
aaa(lp2747
g700
ag701
aa(lp2748
g703
ag704
aa(lp2749
g706
ag707
aa(lp2750
g709
ag710
aa(lp2751
g716
ag717
a(lp2752
I1
a(lp2753
F0.362319
aaI69
aaa(lp2754
g721
ag722
a(lp2755
I1
a(lp2756
F0.277778
aaI54
aa(lp2757
I1
a(lp2758
F0.48
aaI75
aa(lp2759
I1
a(lp2760
F0.293103
aaI58
aa(lp2761
I1
a(lp2762
F0.321429
aaI56
aa(lp2763
I1
a(lp2764
F0.207547
aaI53
aa(lp2765
I1
a(lp2766
F0.494253
aaI87
aaa(lp2767
g726
ag727
aa(lp2768
g735
ag736
aa(lp2769
g738
ag739
a(lp2770
I1
a(lp2771
F0.490909
aaI55
aa(lp2772
I1
a(lp2773
F0.47541
aaI61
aa(lp2774
I1
a(lp2775
F0.411765
aaI68
aa(lp2776
I1
a(lp2777
F0.214286
aaI42
aa(lp2778
I1
a(lp2779
F0.291667
aaI48
aa(lp2780
I1
a(lp2781
F0.3125
aaI48
aa(lp2782
I1
a(lp2783
F0.235294
aaI51
aa(lp2784
I1
a(lp2785
F0.255319
aaI47
aa(lp2786
I1
a(lp2787
F0.23913
aaI46
aa(lp2788
I1
a(lp2789
F0.346154
aaI52
aa(lp2790
I1
a(lp2791
F0.339623
aaI53
aa(lp2792
I1
a(lp2793
F0.386364
aaI44
aa(lp2794
I1
a(lp2795
F0.375
aaI48
aa(lp2796
I1
a(lp2797
F0.264151
aaI53
aa(lp2798
I1
a(lp2799
F0.327273
aaI55
aa(lp2800
I1
a(lp2801
F0.493827
aaI81
aa(lp2802
I1
a(lp2803
F0.373494
aaI83
aa(lp2804
I1
a(lp2805
F0.442857
aaI70
aaa(lp2806
g783
ag784
a(lp2807
I1
a(lp2808
F0.215686
aaI51
aa(lp2809
I1
a(lp2810
F0.234043
aaI47
aa(lp2811
I1
a(lp2812
F0.426667
aaI75
aa(lp2813
I1
a(lp2814
F0.242424
aaI66
aa(lp2815
I1
a(lp2816
F0.285714
aaI35
aa(lp2817
I1
a(lp2818
F0.280702
aaI57
aa(lp2819
I1
a(lp2820
F0.301887
aaI53
aaa(lp2821
g790
ag791
aa(lp2822
g793
ag794
a(lp2823
I1
a(lp2824
F0.447368
aaI38
aaa(lp2825
g796
ag797
aa(lp2826
g799
ag800
aa(lp2827
g802
ag803
aa(lp2828
g805
ag806
a(lp2829
I1
a(lp2830
F0.493671
aaI79
aa(lp2831
I1
a(lp2832
F0.377358
aaI106
aa(lp2833
I1
a(lp2834
F0.24
aaI50
aa(lp2835
I1
a(lp2836
F0.264151
aaI53
aa(lp2837
I1
a(lp2838
F0.476923
aaI65
aa(lp2839
I1
a(lp2840
F0.434211
aaI76
aa(lp2841
I1
a(lp2842
F0.441558
aaI77
aa(lp2843
I1
a(lp2844
F0.415385
aaI65
aa(lp2845
I1
a(lp2846
F0.521127
aaI71
aa(lp2847
I1
a(lp2848
F0.433735
aaI83
aa(lp2849
I1
a(lp2850
F0.435644
aaI101
aa(lp2851
I1
a(lp2852
F0.488636
aaI88
aa(lp2853
I1
a(lp2854
F0.428571
aaI84
aa(lp2855
I1
a(lp2856
F0.477612
aaI67
aa(lp2857
I1
a(lp2858
F0.229508
aaI61
aa(lp2859
I1
a(lp2860
F0.269231
aaI52
aa(lp2861
I1
a(lp2862
F0.469136
aaI81
aaa(lp2863
g828
ag829
aa(lp2864
g831
ag832
a(lp2865
I1
a(lp2866
F0.347222
aaI72
aa(lp2867
I1
a(lp2868
F0.492537
aaI67
aa(lp2869
I1
a(lp2870
F0.387755
aaI49
aa(lp2871
I1
a(lp2872
F0.234043
aaI47
aaa(lp2873
g834
ag835
a(lp2874
I1
a(lp2875
F0.354839
aaI62
aa(lp2876
I1
a(lp2877
F0.349206
aaI63
aaa(lp2878
g839
ag840
aa(lp2879
g844
ag845
a(lp2880
I1
a(lp2881
F0.302632
aaI76
aa(lp2882
I1
a(lp2883
F0.447059
aaI85
aa(lp2884
I1
a(lp2885
F0.433735
aaI83
aa(lp2886
I1
a(lp2887
F0.432099
aaI81
aa(lp2888
I1
a(lp2889
F0.254545
aaI55
aa(lp2890
I1
a(lp2891
F0.307692
aaI52
aa(lp2892
I1
a(lp2893
F0.345455
aaI55
aa(lp2894
I1
a(lp2895
F0.326531
aaI49
aa(lp2896
I1
a(lp2897
F0.344828
aaI58
aa(lp2898
I1
a(lp2899
F0.327869
aaI61
aa(lp2900
I1
a(lp2901
F0.316667
aaI60
aa(lp2902
I1
a(lp2903
F0.321429
aaI56
aa(lp2904
I1
a(lp2905
F0.333333
aaI66
aa(lp2906
I1
a(lp2907
F0.25
aaI60
aa(lp2908
I1
a(lp2909
F0.439024
aaI82
aa(lp2910
I1
a(lp2911
F0.38806
aaI67
aa(lp2912
I1
a(lp2913
F0.356164
aaI73
aa(lp2914
I1
a(lp2915
F0.383333
aaI60
aa(lp2916
I1
a(lp2917
F0.205882
aaI68
aa(lp2918
I1
a(lp2919
F0.239437
aaI71
aa(lp2920
I1
a(lp2921
F0.239437
aaI71
aa(lp2922
I1
a(lp2923
F0.296296
aaI81
aa(lp2924
I1
a(lp2925
F0.291139
aaI79
aa(lp2926
I1
a(lp2927
F0.302632
aaI76
aa(lp2928
I1
a(lp2929
F0.204545
aaI44
aa(lp2930
I1
a(lp2931
F0.214286
aaI42
aa(lp2932
I1
a(lp2933
F0.318841
aaI69
aa(lp2934
I1
a(lp2935
F0.217391
aaI46
aaa(lp2936
g867
ag868
aa(lp2937
g870
ag871
aa(lp2938
g873
ag874
aa(lp2939
g876
ag877
aa(lp2940
g879
ag880
aa(lp2941
g882
ag883
a(lp2942
I1
a(lp2943
F0.306452
aaI62
aa(lp2944
I1
a(lp2945
F0.283333
aaI60
aa(lp2946
I1
a(lp2947
F0.327586
aaI58
aa(lp2948
I1
a(lp2949
F0.268657
aaI67
aa(lp2950
I1
a(lp2951
F0.421053
aaI76
aaa(lp2952
g885
ag886
a(lp2953
I1
a(lp2954
F0.304348
aaI69
aa(lp2955
I1
a(lp2956
F0.36
aaI75
aa(lp2957
I1
a(lp2958
F0.41791
aaI67
aaa(lp2959
g888
ag889
aa(lp2960
g891
ag892
aa(lp2961
g894
ag895
a(lp2962
I1
a(lp2963
F0.348485
aaI66
aa(lp2964
I1
a(lp2965
F0.296296
aaI54
aa(lp2966
I1
a(lp2967
F0.216667
aaI60
aa(lp2968
I1
a(lp2969
F0.357143
aaI56
aa(lp2970
I1
a(lp2971
F0.363636
aaI55
aa(lp2972
I1
a(lp2973
F0.314815
aaI54
aa(lp2974
I1
a(lp2975
F0.444444
aaI81
aa(lp2976
I1
a(lp2977
F0.298246
aaI57
aa(lp2978
I1
a(lp2979
F0.262295
aaI61
aa(lp2980
I1
a(lp2981
F0.279412
aaI68
aa(lp2982
I1
a(lp2983
F0.279412
aaI68
aa(lp2984
I1
a(lp2985
F0.309859
aaI71
aa(lp2986
I1
a(lp2987
F0.30137
aaI73
aa(lp2988
I1
a(lp2989
F0.295775
aaI71
aa(lp2990
I1
a(lp2991
F0.343284
aaI67
aa(lp2992
I1
a(lp2993
F0.30303
aaI66
aa(lp2994
I1
a(lp2995
F0.258621
aaI58
aa(lp2996
I1
a(lp2997
F0.3875
aaI80
aa(lp2998
I1
a(lp2999
F0.4
aaI65
aa(lp3000
I1
a(lp3001
F0.352113
aaI71
aa(lp3002
I1
a(lp3003
F0.264151
aaI53
aa(lp3004
I1
a(lp3005
F0.210526
aaI38
aa(lp3006
I1
a(lp3007
F0.0
aaI4
aa(lp3008
I1
a(lp3009
F0.25
aaI60
aa(lp3010
I1
a(lp3011
F0.241379
aaI58
aaa(lp3012
g905
ag906
aa(lp3013
g908
ag909
aa(lp3014
g911
ag912
a(lp3015
I1
a(lp3016
F0.409639
aaI83
aa(lp3017
I1
a(lp3018
F0.363636
aaI77
aaa(lp3019
g916
ag917
aa(lp3020
g925
ag926
a(lp3021
I1
a(lp3022
F0.320755
aaI53
aa(lp3023
I1
a(lp3024
F0.269231
aaI52
aa(lp3025
I1
a(lp3026
F0.28
aaI50
aaa(lp3027
g928
ag929
aa(lp3028
g931
ag932
aa(lp3029
g936
ag937
a(lp3030
I1
a(lp3031
F0.241379
aaI58
aa(lp3032
I1
a(lp3033
F0.376812
aaI69
aa(lp3034
I1
a(lp3035
F0.606061
aaI66
aa(lp3036
I1
a(lp3037
F0.442857
aaI70
aa(lp3038
I1
a(lp3039
F0.230769
aaI52
aa(lp3040
I1
a(lp3041
F0.283333
aaI60
aa(lp3042
I1
a(lp3043
F0.215686
aaI51
aa(lp3044
I1
a(lp3045
F0.232143
aaI56
aaa(lp3046
g945
ag946
aa(lp3047
g948
ag949
aa(lp3048
g951
ag952
aa(lp3049
g954
ag955
a(lp3050
I1
a(lp3051
F0.347222
aaI72
aa(lp3052
I1
a(lp3053
F0.237288
aaI59
aa(lp3054
I1
a(lp3055
F0.306122
aaI49
aaa(lp3056
g957
ag958
aa(lp3057
g964
ag965
aa(lp3058
g967
ag968
aa(lp3059
g976
ag977
a(lp3060
I1
a(lp3061
F0.213115
aaI61
aa(lp3062
I1
a(lp3063
F0.423077
aaI52
aa(lp3064
I1
a(lp3065
F0.47619
aaI84
aa(lp3066
I1
a(lp3067
F0.467532
aaI77
aa(lp3068
I1
a(lp3069
F0.481481
aaI81
aa(lp3070
I1
a(lp3071
F0.267857
aaI56
aa(lp3072
I1
a(lp3073
F0.310345
aaI58
aa(lp3074
I1
a(lp3075
F0.328767
aaI73
aa(lp3076
I1
a(lp3077
F0.387097
aaI62
aa(lp3078
I1
a(lp3079
F0.5
aaI64
aaa(lp3080
g981
ag982
aa(lp3081
g984
ag985
a(lp3082
I1
a(lp3083
F0.318182
aaI44
aa(lp3084
I1
a(lp3085
F0.326087
aaI46
aa(lp3086
I1
a(lp3087
F0.347826
aaI46
aa(lp3088
I1
a(lp3089
F0.371429
aaI35
aa(lp3090
I1
a(lp3091
F0.416667
aaI60
aa(lp3092
I1
a(lp3093
F0.298507
aaI67
aa(lp3094
I1
a(lp3095
F0.287879
aaI66
aa(lp3096
I1
a(lp3097
F0.232558
aaI43
aa(lp3098
I1
a(lp3099
F0.212766
aaI47
aaa(lp3100
g989
ag990
a(lp3101
I1
a(lp3102
F0.540373
aaI161
aaa(lp3103
g992
ag993
aa(lp3104
g995
ag996
a(lp3105
I1
a(lp3106
F0.411765
aaI51
aa(lp3107
I1
a(lp3108
F0.258621
aaI58
aa(lp3109
I1
a(lp3110
F0.206897
aaI58
aa(lp3111
I1
a(lp3112
F0.47541
aaI61
aaa(lp3113
g998
ag999
a(lp3114
I1
a(lp3115
F0.409091
aaI66
aa(lp3116
I1
a(lp3117
F0.485714
aaI70
aa(lp3118
I1
a(lp3119
F0.45977
aaI87
aa(lp3120
I1
a(lp3121
F0.323529
aaI68
aa(lp3122
I1
a(lp3123
F0.306122
aaI49
aa(lp3124
I1
a(lp3125
F0.27451
aaI51
aa(lp3126
I1
a(lp3127
F0.444444
aaI81
aa(lp3128
I1
a(lp3129
F0.453333
aaI75
aa(lp3130
I1
a(lp3131
F0.435294
aaI85
aa(lp3132
I1
a(lp3133
F0.478873
aaI71
aa(lp3134
I1
a(lp3135
F0.360656
aaI61
aa(lp3136
I1
a(lp3137
F0.366667
aaI60
aa(lp3138
I1
a(lp3139
F0.333333
aaI48
aa(lp3140
I1
a(lp3141
F0.257143
aaI70
aa(lp3142
I1
a(lp3143
F0.340909
aaI88
aa(lp3144
I1
a(lp3145
F0.289157
aaI83
aa(lp3146
I1
a(lp3147
F0.357143
aaI70
aa(lp3148
I1
a(lp3149
F0.367647
aaI68
aa(lp3150
I1
a(lp3151
F0.202532
aaI79
aa(lp3152
I1
a(lp3153
F0.240964
aaI83
aa(lp3154
I1
a(lp3155
F0.268657
aaI67
aa(lp3156
I1
a(lp3157
F0.264706
aaI68
aa(lp3158
I1
a(lp3159
F0.4
aaI75
aa(lp3160
I1
a(lp3161
F0.444444
aaI63
aa(lp3162
I1
a(lp3163
F0.263158
aaI38
aa(lp3164
I1
a(lp3165
F0.296296
aaI54
aa(lp3166
I1
a(lp3167
F0.285714
aaI56
aa(lp3168
I1
a(lp3169
F0.290909
aaI55
aa(lp3170
I1
a(lp3171
F0.375
aaI64
aa(lp3172
I1
a(lp3173
F0.384615
aaI65
aa(lp3174
I1
a(lp3175
F0.338462
aaI65
aa(lp3176
I1
a(lp3177
F0.328125
aaI64
aa(lp3178
I1
a(lp3179
F0.30303
aaI66
aa(lp3180
I1
a(lp3181
F0.304348
aaI69
aa(lp3182
I1
a(lp3183
F0.4
aaI60
aa(lp3184
I1
a(lp3185
F0.301887
aaI53
aa(lp3186
I1
a(lp3187
F0.467532
aaI77
aaa(lp3188
g1007
ag1008
a(lp3189
I1
a(lp3190
F0.43662
aaI71
aa(lp3191
I1
a(lp3192
F0.341463
aaI82
aa(lp3193
I1
a(lp3194
F0.321429
aaI84
aa(lp3195
I1
a(lp3196
F0.294872
aaI78
aa(lp3197
I1
a(lp3198
F0.230769
aaI52
aa(lp3199
I1
a(lp3200
F0.277778
aaI54
aa(lp3201
I1
a(lp3202
F0.309091
aaI55
aa(lp3203
I1
a(lp3204
F0.322034
aaI59
aaa(lp3205
g1012
ag1013
aa(lp3206
g1015
ag1016
aa(lp3207
g1018
ag1019
a(lp3208
I1
a(lp3209
F0.455882
aaI68
aa(lp3210
I1
a(lp3211
F0.402597
aaI77
aa(lp3212
I1
a(lp3213
F0.492754
aaI69
aa(lp3214
I1
a(lp3215
F0.512821
aaI78
aa(lp3216
I1
a(lp3217
F0.22314
aaI121
aa(lp3218
I1
a(lp3219
F0.262712
aaI118
aa(lp3220
I1
a(lp3221
F0.488095
aaI84
aaa(lp3222
g1021
ag1022
aa(lp3223
g1024
ag1025
a(lp3224
I1
a(lp3225
F0.333333
aaI57
aaa(lp3226
g1027
ag1028
aa(lp3227
g1030
ag1031
a(lp3228
I1
a(lp3229
F0.365385
aaI52
aa(lp3230
I1
a(lp3231
F0.377358
aaI53
aa(lp3232
I1
a(lp3233
F0.363636
aaI44
aa(lp3234
I1
a(lp3235
F0.282609
aaI46
aa(lp3236
I1
a(lp3237
F0.327869
aaI61
aa(lp3238
I1
a(lp3239
F0.42029
aaI69
aa(lp3240
I1
a(lp3241
F0.22807
aaI57
aa(lp3242
I1
a(lp3243
F0.430769
aaI65
aa(lp3244
I1
a(lp3245
F0.20339
aaI59
aa(lp3246
I1
a(lp3247
F0.288136
aaI59
aa(lp3248
I1
a(lp3249
F0.294118
aaI51
aa(lp3250
I1
a(lp3251
F0.452055
aaI73
aaa(lp3252
g1033
ag1034
aa(lp3253
g1036
ag1037
a(lp3254
I1
a(lp3255
F0.234375
aaI64
aa(lp3256
I1
a(lp3257
F0.265625
aaI64
aa(lp3258
I1
a(lp3259
F0.288889
aaI45
aa(lp3260
I1
a(lp3261
F0.270833
aaI48
aa(lp3262
I1
a(lp3263
F0.236842
aaI38
aa(lp3264
I1
a(lp3265
F0.232877
aaI73
aa(lp3266
I1
a(lp3267
F0.212766
aaI47
aaa(lp3268
g1039
ag1040
aa(lp3269
g1044
ag1045
aa(lp3270
g1047
ag1048
a(lp3271
I1
a(lp3272
F0.302326
aaI86
aa(lp3273
I1
a(lp3274
F0.532258
aaI62
aaa(lp3275
g1050
ag1051
aa(lp3276
g1063
ag1064
aa(lp3277
g1066
ag1067
a(lp3278
I1
a(lp3279
F0.4
aaI15
aa(lp3280
I1
a(lp3281
F0.27451
aaI51
aa(lp3282
I1
a(lp3283
F0.318182
aaI44
aa(lp3284
I1
a(lp3285
F0.481928
aaI83
aaa(lp3286
g1071
ag1072
a(lp3287
I1
a(lp3288
F0.471264
aaI87
aa(lp3289
I1
a(lp3290
F0.449438
aaI89
aaa(lp3291
g1074
ag1075
a(lp3292
I1
a(lp3293
F0.281553
aaI103
aa(lp3294
I1
a(lp3295
F0.435484
aaI124
aa(lp3296
I1
a(lp3297
F0.418605
aaI129
aa(lp3298
I1
a(lp3299
F0.361111
aaI108
aa(lp3300
I1
a(lp3301
F0.345133
aaI113
aaa(lp3302
g1077
ag1078
aa(lp3303
g1080
ag1081
aa(lp3304
g1089
ag1090
aa(lp3305
g1092
ag1093
aa(lp3306
g1095
ag1096
a(lp3307
I1
a(lp3308
F0.493976
aaI83
aaa(lp3309
g1098
ag1099
aa(lp3310
g1113
ag1114
aa(lp3311
g1116
ag1117
a(lp3312
I1
a(lp3313
F0.306122
aaI49
aaa(lp3314
g1127
ag1128
aa(lp3315
g1154
ag1155
a(lp3316
I1
a(lp3317
F0.419355
aaI62
aa(lp3318
I1
a(lp3319
F0.463158
aaI95
aa(lp3320
I1
a(lp3321
F0.483146
aaI89
aa(lp3322
I1
a(lp3323
F0.421053
aaI57
aa(lp3324
I1
a(lp3325
F0.0
aaI46
aa(lp3326
I1
a(lp3327
F0.277778
aaI54
aa(lp3328
I1
a(lp3329
F0.488095
aaI168
aa(lp3330
I1
a(lp3331
F0.266667
aaI60
aa(lp3332
I1
a(lp3333
F0.233333
aaI60
aa(lp3334
I1
a(lp3335
F0.245614
aaI57
aa(lp3336
I1
a(lp3337
F0.222222
aaI54
aa(lp3338
I1
a(lp3339
F0.411765
aaI68
aa(lp3340
I1
a(lp3341
F0.303571
aaI56
aa(lp3342
I1
a(lp3343
F0.5
aaI76
aa(lp3344
I1
a(lp3345
F0.415385
aaI65
aa(lp3346
I1
a(lp3347
F0.403226
aaI62
aa(lp3348
I1
a(lp3349
F0.283333
aaI60
aa(lp3350
I1
a(lp3351
F0.615385
aaI78
aa(lp3352
I1
a(lp3353
F0.47619
aaI63
aaa(lp3354
g1171
ag1172
a(lp3355
I1
a(lp3356
F0.244898
aaI49
aa(lp3357
I1
a(lp3358
F0.28
aaI50
aa(lp3359
I1
a(lp3360
F0.426667
aaI75
aa(lp3361
I1
a(lp3362
F0.333333
aaI60
aa(lp3363
I1
a(lp3364
F0.358209
aaI67
aa(lp3365
I1
a(lp3366
F0.352113
aaI71
aa(lp3367
I1
a(lp3368
F0.290909
aaI55
aa(lp3369
I1
a(lp3370
F0.32
aaI50
aa(lp3371
I1
a(lp3372
F0.346939
aaI49
aa(lp3373
I1
a(lp3374
F0.347826
aaI46
aa(lp3375
I1
a(lp3376
F0.318182
aaI44
aaa(lp3377
g1174
ag1175
aa(lp3378
g1177
ag1178
a(lp3379
I1
a(lp3380
F0.392857
aaI56
aa(lp3381
I1
a(lp3382
F0.393293
aaI328
aa(lp3383
I1
a(lp3384
F0.333333
aaI66
aa(lp3385
I1
a(lp3386
F0.343284
aaI67
aa(lp3387
I1
a(lp3388
F0.3125
aaI64
aa(lp3389
I1
a(lp3390
F0.328571
aaI70
aa(lp3391
I1
a(lp3392
F0.328125
aaI64
aa(lp3393
I1
a(lp3394
F0.430233
aaI86
aa(lp3395
I1
a(lp3396
F0.371429
aaI70
aa(lp3397
I1
a(lp3398
F0.4
aaI60
aa(lp3399
I1
a(lp3400
F0.383333
aaI60
aaa(lp3401
g1180
ag1181
a(lp3402
I1
a(lp3403
F0.444444
aaI72
aa(lp3404
I1
a(lp3405
F0.359375
aaI64
aa(lp3406
I1
a(lp3407
F0.315789
aaI57
aa(lp3408
I1
a(lp3409
F0.315789
aaI57
aa(lp3410
I1
a(lp3411
F0.26
aaI50
aa(lp3412
I1
a(lp3413
F0.311111
aaI45
aa(lp3414
I1
a(lp3415
F0.268293
aaI41
aa(lp3416
I1
a(lp3417
F0.27907
aaI43
aa(lp3418
I1
a(lp3419
F0.244444
aaI45
aa(lp3420
I1
a(lp3421
F0.290323
aaI62
aa(lp3422
I1
a(lp3423
F0.430556
aaI72
aaa(lp3424
g1185
ag1186
aa(lp3425
g1188
ag1189
a(lp3426
I1
a(lp3427
F0.421875
aaI64
aa(lp3428
I1
a(lp3429
F0.217391
aaI46
aa(lp3430
I1
a(lp3431
F0.244898
aaI49
aa(lp3432
I1
a(lp3433
F0.245283
aaI53
aa(lp3434
I1
a(lp3435
F0.258065
aaI62
aa(lp3436
I1
a(lp3437
F0.261538
aaI65
aa(lp3438
I1
a(lp3439
F0.232143
aaI56
aa(lp3440
I1
a(lp3441
F0.235294
aaI51
aa(lp3442
I1
a(lp3443
F0.43662
aaI71
aaa(lp3444
g1191
ag1192
a(lp3445
I1
a(lp3446
F0.206897
aaI58
aa(lp3447
I1
a(lp3448
F0.274194
aaI62
aa(lp3449
I1
a(lp3450
F0.290909
aaI55
aa(lp3451
I1
a(lp3452
F0.296296
aaI54
aa(lp3453
I1
a(lp3454
F0.276596
aaI47
aa(lp3455
I1
a(lp3456
F0.389831
aaI59
aa(lp3457
I1
a(lp3458
F0.298246
aaI57
aa(lp3459
I1
a(lp3460
F0.288136
aaI59
aa(lp3461
I1
a(lp3462
F0.318841
aaI69
aa(lp3463
I1
a(lp3464
F0.209677
aaI62
aa(lp3465
I1
a(lp3466
F0.214286
aaI56
aa(lp3467
I1
a(lp3468
F0.22807
aaI57
aaa(lp3469
g1194
ag1195
aa(lp3470
g1197
ag1198
a(lp3471
I1
a(lp3472
F0.28125
aaI64
aaa(lp3473
g1210
ag1211
aa(lp3474
g1215
ag1216
a(lp3475
I1
a(lp3476
F0.25
aaI68
aa(lp3477
I1
a(lp3478
F0.25
aaI64
aa(lp3479
I1
a(lp3480
F0.241379
aaI58
aaa(lp3481
g1222
ag1223
aa(lp3482
g1225
ag1226
aa(lp3483
g1232
ag1233
a(lp3484
I1
a(lp3485
F0.467532
aaI77
aa(lp3486
I1
a(lp3487
F0.469136
aaI81
aa(lp3488
I1
a(lp3489
F0.540541
aaI74
aa(lp3490
I1
a(lp3491
F0.46988
aaI83
aa(lp3492
I1
a(lp3493
F0.2
aaI50
aa(lp3494
I1
a(lp3495
F0.225
aaI40
aa(lp3496
I1
a(lp3497
F0.333333
aaI42
aa(lp3498
I1
a(lp3499
F0.393939
aaI33
aa(lp3500
I1
a(lp3501
F0.394737
aaI38
aa(lp3502
I1
a(lp3503
F0.245283
aaI53
aa(lp3504
I1
a(lp3505
F0.222222
aaI54
aa(lp3506
I1
a(lp3507
F0.220339
aaI59
aaa(lp3508
g1241
ag1242
aa(lp3509
g1244
ag1245
a(lp3510
I1
a(lp3511
F0.380435
aaI92
aaa(lp3512
g1247
ag1248
aa(lp3513
g1250
ag1251
a(lp3514
I1
a(lp3515
F0.392405
aaI79
aa(lp3516
I1
a(lp3517
F0.441558
aaI77
aa(lp3518
I1
a(lp3519
F0.47561
aaI82
aa(lp3520
I1
a(lp3521
F0.513514
aaI74
aa(lp3522
I1
a(lp3523
F0.38961
aaI77
aa(lp3524
I1
a(lp3525
F0.354839
aaI93
aaa(lp3526
g1261
ag1262
aa(lp3527
g1264
ag1265
aa(lp3528
g1267
ag1268
a(lp3529
I1
a(lp3530
F0.325
aaI80
aa(lp3531
I1
a(lp3532
F0.325
aaI80
aa(lp3533
I1
a(lp3534
F0.272727
aaI55
aa(lp3535
I1
a(lp3536
F0.254902
aaI51
aa(lp3537
I1
a(lp3538
F0.321429
aaI56
aa(lp3539
I1
a(lp3540
F0.237288
aaI59
aa(lp3541
I1
a(lp3542
F0.245902
aaI61
aa(lp3543
I1
a(lp3544
F0.238095
aaI63
aa(lp3545
I1
a(lp3546
F0.206897
aaI58
aa(lp3547
I1
a(lp3548
F0.426471
aaI68
aa(lp3549
I1
a(lp3550
F0.426471
aaI68
aa(lp3551
I1
a(lp3552
F0.327586
aaI58
aa(lp3553
I1
a(lp3554
F0.327586
aaI58
aa(lp3555
I1
a(lp3556
F0.316667
aaI60
aa(lp3557
I1
a(lp3558
F0.316667
aaI60
aa(lp3559
I1
a(lp3560
F0.448276
aaI58
aa(lp3561
I1
a(lp3562
F0.493506
aaI77
aa(lp3563
I1
a(lp3564
F0.238806
aaI67
aa(lp3565
I1
a(lp3566
F0.25
aaI64
aa(lp3567
I1
a(lp3568
F0.245614
aaI57
aa(lp3569
I1
a(lp3570
F0.276923
aaI65
aa(lp3571
I1
a(lp3572
F0.315789
aaI57
aa(lp3573
I1
a(lp3574
F0.289474
aaI38
aa(lp3575
I1
a(lp3576
F0.285714
aaI35
aaa(lp3577
g1270
ag1271
a(lp3578
I1
a(lp3579
F0.404255
aaI47
aa(lp3580
I1
a(lp3581
F0.408163
aaI49
aaa(lp3582
g1273
ag1274
aa(lp3583
g1276
ag1277
a(lp3584
I1
a(lp3585
F0.37931
aaI58
aa(lp3586
I1
a(lp3587
F0.342857
aaI70
aa(lp3588
I1
a(lp3589
F0.362319
aaI69
aa(lp3590
I1
a(lp3591
F0.373134
aaI67
aa(lp3592
I1
a(lp3593
F0.363636
aaI66
aa(lp3594
I1
a(lp3595
F0.327869
aaI61
aa(lp3596
I1
a(lp3597
F0.375
aaI64
aa(lp3598
I1
a(lp3599
F0.370968
aaI62
aaa(lp3600
g1285
ag1286
a(lp3601
I1
a(lp3602
F0.221154
aaI104
aaa(lp3603
g1288
ag1289
aa(lp3604
g1291
ag1292
a(lp3605
I1
a(lp3606
F0.227273
aaI44
aa(lp3607
I1
a(lp3608
F0.237288
aaI59
aaa(lp3609
g1294
ag1295
a(lp3610
I1
a(lp3611
F0.218391
aaI87
aa(lp3612
I1
a(lp3613
F0.22093
aaI86
aa(lp3614
I1
a(lp3615
F0.2125
aaI80
aa(lp3616
I1
a(lp3617
F0.358333
aaI120
aa(lp3618
I1
a(lp3619
F0.294872
aaI78
aa(lp3620
I1
a(lp3621
F0.297619
aaI84
aaa(lp3622
g1301
ag1302
aa(lp3623
g1304
ag1305
aa(lp3624
g1307
ag1308
aa(lp3625
g1310
ag1311
aa(lp3626
g1313
ag1314
aa(lp3627
g1316
ag1317
aa(lp3628
g1319
ag1320
aa(lp3629
g1358
ag1359
aa(lp3630
g1361
ag1362
a(lp3631
I1
a(lp3632
F0.414634
aaI82
aaa(lp3633
g1364
ag1365
a(lp3634
I1
a(lp3635
F0.423077
aaI78
aa(lp3636
I1
a(lp3637
F0.41791
aaI67
aa(lp3638
I1
a(lp3639
F0.441176
aaI68
aa(lp3640
I1
a(lp3641
F0.461538
aaI65
aa(lp3642
I1
a(lp3643
F0.234694
aaI98
aaa(lp3644
g1367
ag1368
aa(lp3645
g1370
ag1371
a(lp3646
I1
a(lp3647
F0.349398
aaI83
aa(lp3648
I1
a(lp3649
F0.219858
aaI141
aaa(lp3650
g1373
ag1374
aa(lp3651
g1376
ag1377
aa(lp3652
g1385
ag1386
aa(lp3653
g1390
ag1391
aa(lp3654
g1393
ag1394
aa(lp3655
g1400
ag1401
a(lp3656
I1
a(lp3657
F0.203704
aaI54
aaa(lp3658
g1407
ag1408
aa(lp3659
g1422
ag1423
a(lp3660
I1
a(lp3661
F0.206897
aaI58
aa(lp3662
I1
a(lp3663
F0.280702
aaI57
aa(lp3664
I1
a(lp3665
F0.296875
aaI64
aa(lp3666
I1
a(lp3667
F0.2
aaI55
aa(lp3668
I1
a(lp3669
F0.2
aaI60
aa(lp3670
I1
a(lp3671
F0.220588
aaI68
aa(lp3672
I1
a(lp3673
F0.217391
aaI69
aa(lp3674
I1
a(lp3675
F0.239437
aaI71
aa(lp3676
I1
a(lp3677
F0.229508
aaI61
aa(lp3678
I1
a(lp3679
F0.372881
aaI59
aaa(lp3680
g1427
ag1428
aa(lp3681
g1430
ag1431
aa(lp3682
g1433
ag1434
a(lp3683
I1
a(lp3684
F0.273973
aaI73
aa(lp3685
I1
a(lp3686
F0.205128
aaI39
aa(lp3687
I1
a(lp3688
F0.340909
aaI44
aa(lp3689
I1
a(lp3690
F0.483871
aaI62
aa(lp3691
I1
a(lp3692
F0.5
aaI62
aa(lp3693
I1
a(lp3694
F0.371429
aaI70
aa(lp3695
I1
a(lp3696
F0.414286
aaI70
aa(lp3697
I1
a(lp3698
F0.453488
aaI86
aaa(lp3699
g1436
ag1437
aa(lp3700
g1439
ag1440
a(lp3701
I1
a(lp3702
F0.318182
aaI66
aa(lp3703
I1
a(lp3704
F0.355932
aaI59
aa(lp3705
I1
a(lp3706
F0.362069
aaI58
aa(lp3707
I1
a(lp3708
F0.381818
aaI55
aa(lp3709
I1
a(lp3710
F0.297872
aaI47
aa(lp3711
I1
a(lp3712
F0.384615
aaI52
aa(lp3713
I1
a(lp3714
F0.375
aaI56
aa(lp3715
I1
a(lp3716
F0.216216
aaI37
aa(lp3717
I1
a(lp3718
F0.294118
aaI51
aa(lp3719
I1
a(lp3720
F0.270833
aaI48
aa(lp3721
I1
a(lp3722
F0.265306
aaI49
aa(lp3723
I1
a(lp3724
F0.276596
aaI47
aaa(lp3725
g1442
ag1443
aa(lp3726
g1445
ag1446
a(lp3727
I1
a(lp3728
F0.2
aaI65
aaa(lp3729
g1466
ag1467
a(lp3730
I1
a(lp3731
F0.202128
aaI94
aaa(lp3732
g1469
ag1470
a(lp3733
I1
a(lp3734
F0.387755
aaI49
aa(lp3735
I1
a(lp3736
F0.372549
aaI51
aa(lp3737
I1
a(lp3738
F0.428571
aaI70
aa(lp3739
I1
a(lp3740
F0.302632
aaI76
aa(lp3741
I1
a(lp3742
F0.410959
aaI73
aa(lp3743
I1
a(lp3744
F0.346154
aaI26
aa(lp3745
I1
a(lp3746
F0.235294
aaI34
aa(lp3747
I1
a(lp3748
F0.466667
aaI60
aa(lp3749
I1
a(lp3750
F0.267857
aaI56
aa(lp3751
I1
a(lp3752
F0.265306
aaI49
aa(lp3753
I1
a(lp3754
F0.363636
aaI44
aa(lp3755
I1
a(lp3756
F0.404762
aaI42
aa(lp3757
I1
a(lp3758
F0.408163
aaI49
aa(lp3759
I1
a(lp3760
F0.415094
aaI53
aa(lp3761
I1
a(lp3762
F0.313725
aaI51
aa(lp3763
I1
a(lp3764
F0.288462
aaI52
aa(lp3765
I1
a(lp3766
F0.265306
aaI49
aa(lp3767
I1
a(lp3768
F0.26
aaI50
aa(lp3769
I1
a(lp3770
F0.306122
aaI49
aa(lp3771
I1
a(lp3772
F0.320755
aaI53
aaa(lp3773
g1480
ag1481
a(lp3774
I1
a(lp3775
F0.433735
aaI83
aa(lp3776
I1
a(lp3777
F0.222222
aaI54
aa(lp3778
I1
a(lp3779
F0.232143
aaI56
aa(lp3780
I1
a(lp3781
F0.243902
aaI123
aa(lp3782
I1
a(lp3783
F0.310811
aaI74
aa(lp3784
I1
a(lp3785
F0.381579
aaI76
aa(lp3786
I1
a(lp3787
F0.245902
aaI61
aa(lp3788
I1
a(lp3789
F0.209302
aaI43
aa(lp3790
I1
a(lp3791
F0.229508
aaI61
aa(lp3792
I1
a(lp3793
F0.342105
aaI76
aa(lp3794
I1
a(lp3795
F0.319149
aaI47
aa(lp3796
I1
a(lp3797
F0.325581
aaI43
aa(lp3798
I1
a(lp3799
F0.234043
aaI47
aa(lp3800
I1
a(lp3801
F0.20339
aaI59
aa(lp3802
I1
a(lp3803
F0.266667
aaI60
aaa(lp3804
g1487
ag1488
a(lp3805
I1
a(lp3806
F0.269231
aaI26
aaa(lp3807
g1490
ag1491
aa(lp3808
g1493
ag1494
aa(lp3809
g1496
ag1497
aa(lp3810
g1499
ag1500
a(lp3811
I1
a(lp3812
F0.254545
aaI55
aaa(lp3813
g1502
ag1503
a(lp3814
I1
a(lp3815
F0.4
aaI90
aa(lp3816
I1
a(lp3817
F0.570681
aaI191
aaa(lp3818
g1505
ag1506
aa(lp3819
g1508
ag1509
aa(lp3820
g1513
ag1514
a(lp3821
I1
a(lp3822
F0.290909
aaI55
aa(lp3823
I1
a(lp3824
F0.298246
aaI57
aa(lp3825
I1
a(lp3826
F0.274194
aaI62
aa(lp3827
I1
a(lp3828
F0.274194
aaI62
aa(lp3829
I1
a(lp3830
F0.362319
aaI69
aa(lp3831
I1
a(lp3832
F0.350649
aaI77
aa(lp3833
I1
a(lp3834
F0.368421
aaI76
aa(lp3835
I1
a(lp3836
F0.431373
aaI51
aa(lp3837
I1
a(lp3838
F0.2
aaI65
aaa(lp3839
g1518
ag1519
a(lp3840
I1
a(lp3841
F0.238806
aaI67
aa(lp3842
I1
a(lp3843
F0.254545
aaI55
aaa(lp3844
g1527
ag1528
a(lp3845
I1
a(lp3846
F0.241379
aaI58
aa(lp3847
I1
a(lp3848
F0.24
aaI50
aaa(lp3849
g1534
ag1535
a(lp3850
I1
a(lp3851
F0.296296
aaI54
aa(lp3852
I1
a(lp3853
F0.338983
aaI59
aa(lp3854
I1
a(lp3855
F0.283333
aaI60
aa(lp3856
I1
a(lp3857
F0.382353
aaI68
aa(lp3858
I1
a(lp3859
F0.385542
aaI83
aa(lp3860
I1
a(lp3861
F0.395062
aaI81
aa(lp3862
I1
a(lp3863
F0.428571
aaI84
aa(lp3864
I1
a(lp3865
F0.397059
aaI68
aa(lp3866
I1
a(lp3867
F0.397436
aaI78
aa(lp3868
I1
a(lp3869
F0.333333
aaI51
aa(lp3870
I1
a(lp3871
F0.317073
aaI41
aa(lp3872
I1
a(lp3873
F0.375
aaI64
aa(lp3874
I1
a(lp3875
F0.344828
aaI58
aa(lp3876
I1
a(lp3877
F0.436782
aaI87
aa(lp3878
I1
a(lp3879
F0.43956
aaI91
aa(lp3880
I1
a(lp3881
F0.436782
aaI87
aa(lp3882
I1
a(lp3883
F0.453488
aaI86
aaa(lp3884
g1559
ag1560
a(lp3885
I1
a(lp3886
F0.506024
aaI83
aa(lp3887
I1
a(lp3888
F0.275862
aaI58
aa(lp3889
I1
a(lp3890
F0.2
aaI60
aa(lp3891
I1
a(lp3892
F0.206897
aaI58
aaa(lp3893
g1562
ag1563
aa(lp3894
g1569
ag1570
aa(lp3895
g1572
ag1573
a(lp3896
I1
a(lp3897
F0.407407
aaI81
aaa(lp3898
g1583
ag1584
a(lp3899
I1
a(lp3900
F0.33871
aaI62
aa(lp3901
I1
a(lp3902
F0.385714
aaI70
aa(lp3903
I1
a(lp3904
F0.304348
aaI46
aa(lp3905
I1
a(lp3906
F0.327273
aaI55
aa(lp3907
I1
a(lp3908
F0.359375
aaI64
aa(lp3909
I1
a(lp3910
F0.245902
aaI61
aa(lp3911
I1
a(lp3912
F0.258621
aaI58
aa(lp3913
I1
a(lp3914
F0.28169
aaI71
aa(lp3915
I1
a(lp3916
F0.215686
aaI51
aa(lp3917
I1
a(lp3918
F0.40678
aaI59
aa(lp3919
I1
a(lp3920
F0.208333
aaI48
aa(lp3921
I1
a(lp3922
F0.292683
aaI41
aa(lp3923
I1
a(lp3924
F0.218182
aaI55
aa(lp3925
I1
a(lp3926
F0.415385
aaI65
aa(lp3927
I1
a(lp3928
F0.277778
aaI36
aa(lp3929
I1
a(lp3930
F0.325
aaI40
aa(lp3931
I1
a(lp3932
F0.255814
aaI43
aa(lp3933
I1
a(lp3934
F0.23913
aaI46
aa(lp3935
I1
a(lp3936
F0.255319
aaI47
aaa(lp3937
g1590
ag1591
aa(lp3938
g1593
ag1594
aa(lp3939
g1598
ag1599
aa(lp3940
g1601
ag1602
aa(lp3941
g1606
ag1607
aa(lp3942
g1609
ag1610
aa(lp3943
g1612
ag1613
aa(lp3944
g1615
ag1616
a(lp3945
I1
a(lp3946
F0.0
aaI5
aa(lp3947
I1
a(lp3948
F0.8
aaI5
aaa(lp3949
g1618
ag1619
a(lp3950
I1
a(lp3951
F0.392157
aaI51
aa(lp3952
I1
a(lp3953
F0.403226
aaI62
aa(lp3954
I1
a(lp3955
F0.479452
aaI73
aa(lp3956
I1
a(lp3957
F0.486842
aaI76
aa(lp3958
I1
a(lp3959
F0.546667
aaI75
aaa(lp3960
g1623
ag1624
aa(lp3961
g1626
ag1627
aa(lp3962
g1629
ag1630
a(lp3963
I1
a(lp3964
F0.47561
aaI82
aa(lp3965
I1
a(lp3966
F0.408602
aaI93
aa(lp3967
I1
a(lp3968
F0.421569
aaI102
aaa(lp3969
g1634
ag1635
aa(lp3970
g1637
ag1638
aa(lp3971
g1642
ag1643
aa(lp3972
g1653
ag1654
aa(lp3973
g1656
ag1657
aa(lp3974
g1659
ag1660
aa(lp3975
g1662
ag1663
aa(lp3976
g1665
ag1666
a(lp3977
I1
a(lp3978
F0.505495
aaI91
aa(lp3979
I1
a(lp3980
F0.307692
aaI65
aa(lp3981
I1
a(lp3982
F0.30303
aaI66
aa(lp3983
I1
a(lp3984
F0.342105
aaI76
aa(lp3985
I1
a(lp3986
F0.261538
aaI65
aa(lp3987
I1
a(lp3988
F0.265625
aaI64
aa(lp3989
I1
a(lp3990
F0.33871
aaI62
aa(lp3991
I1
a(lp3992
F0.471429
aaI70
aa(lp3993
I1
a(lp3994
F0.204082
aaI49
aa(lp3995
I1
a(lp3996
F0.327869
aaI61
aa(lp3997
I1
a(lp3998
F0.333333
aaI66
aa(lp3999
I1
a(lp4000
F0.293103
aaI58
aa(lp4001
I1
a(lp4002
F0.272727
aaI55
aa(lp4003
I1
a(lp4004
F0.236364
aaI55
aa(lp4005
I1
a(lp4006
F0.230769
aaI52
aa(lp4007
I1
a(lp4008
F0.287671
aaI73
aa(lp4009
I1
a(lp4010
F0.253968
aaI63
aaa(lp4011
g1674
ag1675
aa(lp4012
g1677
ag1678
aa(lp4013
g1680
ag1681
a(lp4014
I1
a(lp4015
F0.25
aaI48
aa(lp4016
I1
a(lp4017
F0.265306
aaI49
aaa(lp4018
g1683
ag1684
aa(lp4019
g1686
ag1687
aa(lp4020
g1689
ag1690
aa(lp4021
g1694
ag1695
a(lp4022
I1
a(lp4023
F0.365672
aaI134
aaa(lp4024
g1701
ag1702
a(lp4025
I1
a(lp4026
F0.478261
aaI92
aa(lp4027
I1
a(lp4028
F0.538462
aaI91
aa(lp4029
I1
a(lp4030
F0.438356
aaI73
aaa(lp4031
g1706
ag1707
a(lp4032
I1
a(lp4033
F0.213333
aaI75
aa(lp4034
I1
a(lp4035
F0.440476
aaI84
aa(lp4036
I1
a(lp4037
F0.352941
aaI51
aa(lp4038
I1
a(lp4039
F0.472222
aaI72
aa(lp4040
I1
a(lp4041
F0.480519
aaI77
aa(lp4042
I1
a(lp4043
F0.48
aaI75
aa(lp4044
I1
a(lp4045
F0.515152
aaI66
aa(lp4046
I1
a(lp4047
F0.523077
aaI65
aa(lp4048
I1
a(lp4049
F0.491803
aaI61
aa(lp4050
I1
a(lp4051
F0.235294
aaI51
aa(lp4052
I1
a(lp4053
F0.258621
aaI58
aa(lp4054
I1
a(lp4055
F0.245614
aaI57
aa(lp4056
I1
a(lp4057
F0.222222
aaI54
aa(lp4058
I1
a(lp4059
F0.275862
aaI58
aa(lp4060
I1
a(lp4061
F0.288136
aaI59
aa(lp4062
I1
a(lp4063
F0.275862
aaI58
aa(lp4064
I1
a(lp4065
F0.278689
aaI61
aa(lp4066
I1
a(lp4067
F0.274194
aaI62
aa(lp4068
I1
a(lp4069
F0.272727
aaI66
aa(lp4070
I1
a(lp4071
F0.277778
aaI72
aa(lp4072
I1
a(lp4073
F0.307692
aaI39
aa(lp4074
I1
a(lp4075
F0.35
aaI40
aa(lp4076
I1
a(lp4077
F0.355556
aaI45
aa(lp4078
I1
a(lp4079
F0.218182
aaI55
aa(lp4080
I1
a(lp4081
F0.226415
aaI53
aa(lp4082
I1
a(lp4083
F0.313725
aaI51
aa(lp4084
I1
a(lp4085
F0.514706
aaI68
aa(lp4086
I1
a(lp4087
F0.356164
aaI73
aa(lp4088
I1
a(lp4089
F0.328358
aaI67
aa(lp4090
I1
a(lp4091
F0.205128
aaI39
aa(lp4092
I1
a(lp4093
F0.679012
aaI162
aa(lp4094
I1
a(lp4095
F0.710145
aaI138
aa(lp4096
I1
a(lp4097
F0.272727
aaI55
aa(lp4098
I1
a(lp4099
F0.259259
aaI54
aa(lp4100
I1
a(lp4101
F0.263158
aaI57
aa(lp4102
I1
a(lp4103
F0.245902
aaI61
aa(lp4104
I1
a(lp4105
F0.3
aaI60
aa(lp4106
I1
a(lp4107
F0.367347
aaI49
aa(lp4108
I1
a(lp4109
F0.348837
aaI43
aa(lp4110
I1
a(lp4111
F0.306452
aaI62
aa(lp4112
I1
a(lp4113
F0.212963
aaI108
aaa(lp4114
g1745
ag1746
a(lp4115
I1
a(lp4116
F0.26087
aaI46
aa(lp4117
I1
a(lp4118
F0.2
aaI45
aaa(lp4119
g1748
ag1749
a(lp4120
I1
a(lp4121
F0.435484
aaI62
aa(lp4122
I1
a(lp4123
F0.491228
aaI57
aa(lp4124
I1
a(lp4125
F0.413793
aaI58
aa(lp4126
I1
a(lp4127
F0.415385
aaI65
aa(lp4128
I1
a(lp4129
F0.411765
aaI68
aa(lp4130
I1
a(lp4131
F0.305556
aaI72
aa(lp4132
I1
a(lp4133
F0.328571
aaI70
aa(lp4134
I1
a(lp4135
F0.230769
aaI39
aa(lp4136
I1
a(lp4137
F0.219512
aaI41
aa(lp4138
I1
a(lp4139
F0.238095
aaI42
aa(lp4140
I1
a(lp4141
F0.206897
aaI58
aa(lp4142
I1
a(lp4143
F0.382353
aaI68
aa(lp4144
I1
a(lp4145
F0.222222
aaI54
aaa(lp4146
g1751
ag1752
aa(lp4147
g1754
ag1755
a(lp4148
I1
a(lp4149
F0.386364
aaI44
aa(lp4150
I1
a(lp4151
F0.425532
aaI47
aa(lp4152
I1
a(lp4153
F0.304348
aaI46
aa(lp4154
I1
a(lp4155
F0.390625
aaI64
aa(lp4156
I1
a(lp4157
F0.230769
aaI52
aa(lp4158
I1
a(lp4159
F0.22449
aaI49
aa(lp4160
I1
a(lp4161
F0.475
aaI80
aa(lp4162
I1
a(lp4163
F0.26087
aaI46
aa(lp4164
I1
a(lp4165
F0.244898
aaI49
aa(lp4166
I1
a(lp4167
F0.24
aaI50
aa(lp4168
I1
a(lp4169
F0.210526
aaI38
aaa(lp4170
g1759
ag1760
aa(lp4171
g1762
ag1763
a(lp4172
I1
a(lp4173
F0.244444
aaI45
aa(lp4174
I1
a(lp4175
F0.244444
aaI45
aa(lp4176
I1
a(lp4177
F0.244444
aaI45
aa(lp4178
I1
a(lp4179
F0.209677
aaI62
aa(lp4180
I1
a(lp4181
F0.211268
aaI71
aaa(lp4182
g1765
ag1766
a(lp4183
I1
a(lp4184
F0.444444
aaI72
aa(lp4185
I1
a(lp4186
F0.295082
aaI61
aa(lp4187
I1
a(lp4188
F0.323529
aaI68
aa(lp4189
I1
a(lp4190
F0.283582
aaI67
aa(lp4191
I1
a(lp4192
F0.279412
aaI68
aa(lp4193
I1
a(lp4194
F0.283582
aaI67
aa(lp4195
I1
a(lp4196
F0.338235
aaI68
aa(lp4197
I1
a(lp4198
F0.347826
aaI69
aa(lp4199
I1
a(lp4200
F0.333333
aaI72
aa(lp4201
I1
a(lp4202
F0.338235
aaI68
aaa(lp4203
g1768
ag1769
aa(lp4204
g1771
ag1772
a(lp4205
I1
a(lp4206
F0.423529
aaI85
aa(lp4207
I1
a(lp4208
F0.307692
aaI65
aaa(lp4209
g1774
ag1775
a(lp4210
I1
a(lp4211
F0.2
aaI45
aa(lp4212
I1
a(lp4213
F0.214286
aaI42
aaa(lp4214
g1777
ag1778
aa(lp4215
g1782
ag1783
aa(lp4216
g1785
ag1786
a(lp4217
I1
a(lp4218
F0.367647
aaI68
aa(lp4219
I1
a(lp4220
F0.402597
aaI77
aa(lp4221
I1
a(lp4222
F0.241935
aaI62
aaa(lp4223
g1802
ag1803
aa(lp4224
g1805
ag1806
aa(lp4225
g1808
ag1809
aa(lp4226
g1811
ag1812
aa(lp4227
g1814
ag1815
aa(lp4228
g1819
ag1820
a(lp4229
I1
a(lp4230
F0.485294
aaI68
aa(lp4231
I1
a(lp4232
F0.305556
aaI72
aa(lp4233
I1
a(lp4234
F0.206349
aaI63
aa(lp4235
I1
a(lp4236
F0.307692
aaI65
aa(lp4237
I1
a(lp4238
F0.306452
aaI62
aa(lp4239
I1
a(lp4240
F0.359375
aaI64
aa(lp4241
I1
a(lp4242
F0.442623
aaI61
aa(lp4243
I1
a(lp4244
F0.433735
aaI83
aaa(lp4245
g1822
ag1823
aa(lp4246
g1827
ag1828
a(lp4247
I1
a(lp4248
F0.25
aaI36
aaa(lp4249
g1832
ag1833
aa(lp4250
g1835
ag1836
a(lp4251
I1
a(lp4252
F0.242424
aaI33
aa(lp4253
I1
a(lp4254
F0.45
aaI80
aa(lp4255
I1
a(lp4256
F0.429412
aaI170
aaa(lp4257
g1838
ag1839
aa(lp4258
g1841
ag1842
a(lp4259
I1
a(lp4260
F0.38
aaI50
aa(lp4261
I1
a(lp4262
F0.297872
aaI47
aa(lp4263
I1
a(lp4264
F0.36
aaI50
aa(lp4265
I1
a(lp4266
F0.314815
aaI54
aaa(lp4267
g1844
ag1845
aa(lp4268
g1847
ag1848
aassS'diploids'
p4269
(dp4270
g3
(lp4271
(lp4272
S'scaffold20004_cov62'
p4273
aS'scaffold4610_cov62'
p4274
a(lp4275
I1
a(lp4276
F0.208333
aaI48
aa(lp4277
I1
a(lp4278
F0.395833
aaI48
aa(lp4279
I1
a(lp4280
F0.255319
aaI47
aa(lp4281
I1
a(lp4282
F0.27907
aaI43
aa(lp4283
I1
a(lp4284
F0.3
aaI50
aa(lp4285
I1
a(lp4286
F0.32
aaI50
aa(lp4287
I1
a(lp4288
F0.333333
aaI54
aa(lp4289
I1
a(lp4290
F0.23913
aaI46
aa(lp4291
I1
a(lp4292
F0.261905
aaI42
aa(lp4293
I1
a(lp4294
F0.4
aaI45
aa(lp4295
I1
a(lp4296
F0.28
aaI50
aa(lp4297
I1
a(lp4298
F0.471545
aaI123
aa(lp4299
I1
a(lp4300
F0.567568
aaI111
aa(lp4301
I1
a(lp4302
F0.526316
aaI114
aa(lp4303
I1
a(lp4304
F0.508333
aaI120
aaa(lp4305
S'scaffold19614_cov87'
p4306
aS'scaffold74444_cov64'
p4307
aa(lp4308
S'scaffold2677_cov108'
p4309
aS'scaffold6974_cov73'
p4310
a(lp4311
I1
a(lp4312
F0.0
aaI40
aa(lp4313
I1
a(lp4314
F0.0
aaI59
aa(lp4315
I1
a(lp4316
F0.211538
aaI52
aaa(lp4317
S'scaffold33112_cov67'
p4318
aS'scaffold33753_cov69'
p4319
aa(lp4320
S'scaffold11821_cov67'
p4321
aS'scaffold16084_cov74'
p4322
a(lp4323
I1
a(lp4324
F0.244444
aaI45
aa(lp4325
I1
a(lp4326
F0.384615
aaI52
aa(lp4327
I1
a(lp4328
F0.441176
aaI68
aaa(lp4329
S'scaffold53892_cov107'
p4330
aS'scaffold57838_cov69'
p4331
aa(lp4332
S'scaffold26582_cov78'
p4333
aS'scaffold5481_cov69'
p4334
a(lp4335
I1
a(lp4336
F0.287879
aaI66
aa(lp4337
I1
a(lp4338
F0.587302
aaI63
aaa(lp4339
S'scaffold6054_cov102'
p4340
aS'scaffold661_cov69'
p4341
aa(lp4342
S'scaffold16609_cov69'
p4343
aS'scaffold52798_cov134'
p4344
aa(lp4345
S'scaffold23999_cov72'
p4346
aS'scaffold3701_cov67'
p4347
aa(lp4348
S'scaffold15237_cov73'
p4349
aS'scaffold24301_cov102'
p4350
a(lp4351
I1
a(lp4352
F0.219178
aaI73
aa(lp4353
I1
a(lp4354
F0.434783
aaI69
aa(lp4355
I1
a(lp4356
F0.0
aaI30
aa(lp4357
I1
a(lp4358
F0.290323
aaI31
aaa(lp4359
S'scaffold12706_cov81'
p4360
aS'scaffold16044_cov69'
p4361
a(lp4362
I1
a(lp4363
F0.222222
aaI63
aa(lp4364
I1
a(lp4365
F0.218182
aaI55
aaa(lp4366
S'scaffold15975_cov67'
p4367
aS'scaffold4413_cov63'
p4368
aa(lp4369
S'scaffold1143_cov170'
p4370
aS'scaffold1145_cov65'
p4371
aa(lp4372
S'scaffold25513_cov91'
p4373
aS'scaffold92575_cov70'
p4374
aa(lp4375
S'scaffold1143_cov170'
p4376
aS'scaffold185565_cov204'
p4377
aa(lp4378
S'scaffold1125_cov68'
p4379
aS'scaffold14267_cov83'
p4380
a(lp4381
I1
a(lp4382
F0.333333
aaI51
aa(lp4383
I1
a(lp4384
F0.302326
aaI43
aa(lp4385
I1
a(lp4386
F0.4
aaI60
aa(lp4387
I1
a(lp4388
F0.357143
aaI56
aa(lp4389
I1
a(lp4390
F0.2
aaI55
aa(lp4391
I1
a(lp4392
F0.2
aaI50
aa(lp4393
I1
a(lp4394
F0.372881
aaI177
aa(lp4395
I1
a(lp4396
F0.245033
aaI151
aaa(lp4397
S'scaffold117137_cov65'
p4398
aS'scaffold17627_cov105'
p4399
aa(lp4400
S'scaffold18411_cov77'
p4401
aS'scaffold3448_cov89'
p4402
a(lp4403
I1
a(lp4404
F0.385542
aaI83
aa(lp4405
I1
a(lp4406
F0.337209
aaI86
aaa(lp4407
S'scaffold12557_cov77'
p4408
aS'scaffold167464_cov86'
p4409
a(lp4410
I1
a(lp4411
F0.283019
aaI53
aa(lp4412
I1
a(lp4413
F0.4
aaI55
aa(lp4414
I1
a(lp4415
F0.265306
aaI49
aa(lp4416
I1
a(lp4417
F0.241379
aaI58
aaa(lp4418
S'scaffold1929_cov135'
p4419
aS'scaffold9933_cov110'
p4420
a(lp4421
I1
a(lp4422
F0.480392
aaI102
aaa(lp4423
S'scaffold3002_cov145'
p4424
aS'scaffold32103_cov132'
p4425
aa(lp4426
S'scaffold12335_cov66'
p4427
aS'scaffold8993_cov67'
p4428
aa(lp4429
S'scaffold10215_cov75'
p4430
aS'scaffold16998_cov67'
p4431
aa(lp4432
S'scaffold14572_cov90'
p4433
aS'scaffold4478_cov68'
p4434
a(lp4435
I1
a(lp4436
F0.214286
aaI42
aa(lp4437
I1
a(lp4438
F0.209302
aaI43
aa(lp4439
I1
a(lp4440
F0.238806
aaI67
aaa(lp4441
S'scaffold6524_cov65'
p4442
aS'scaffold6704_cov127'
p4443
a(lp4444
I1
a(lp4445
F0.333333
aaI69
aa(lp4446
I1
a(lp4447
F0.282609
aaI46
aa(lp4448
I1
a(lp4449
F0.215686
aaI51
aa(lp4450
I1
a(lp4451
F0.208333
aaI48
aa(lp4452
I1
a(lp4453
F0.293103
aaI58
aaa(lp4454
S'scaffold11928_cov70'
p4455
aS'scaffold46909_cov63'
p4456
aa(lp4457
S'scaffold4585_cov69'
p4458
aS'scaffold6268_cov78'
p4459
a(lp4460
I1
a(lp4461
F0.27451
aaI51
aaa(lp4462
S'scaffold1497_cov69'
p4463
aS'scaffold167515_cov69'
p4464
aa(lp4465
S'scaffold5775_cov75'
p4466
aS'scaffold73058_cov93'
p4467
a(lp4468
I1
a(lp4469
F0.216667
aaI60
aa(lp4470
I1
a(lp4471
F0.4
aaI55
aa(lp4472
I1
a(lp4473
F0.403509
aaI57
aa(lp4474
I1
a(lp4475
F0.355932
aaI59
aa(lp4476
I1
a(lp4477
F0.309091
aaI55
aa(lp4478
I1
a(lp4479
F0.412698
aaI63
aa(lp4480
I1
a(lp4481
F0.309091
aaI55
aa(lp4482
I1
a(lp4483
F0.446429
aaI56
aaa(lp4484
S'scaffold13862_cov109'
p4485
aS'scaffold8878_cov69'
p4486
aa(lp4487
S'scaffold14578_cov124'
p4488
aS'scaffold14579_cov112'
p4489
a(lp4490
I1
a(lp4491
F0.214286
aaI98
aaa(lp4492
S'scaffold14527_cov64'
p4493
aS'scaffold1873_cov63'
p4494
aa(lp4495
S'scaffold166809_cov123'
p4496
aS'scaffold57805_cov71'
p4497
aa(lp4498
S'scaffold195195_cov811'
p4499
aS'scaffold5496_cov92'
p4500
aa(lp4501
S'scaffold10491_cov66'
p4502
aS'scaffold12903_cov71'
p4503
a(lp4504
I1
a(lp4505
F0.226804
aaI97
aa(lp4506
I1
a(lp4507
F0.305556
aaI108
aaa(lp4508
S'scaffold35689_cov78'
p4509
aS'scaffold63014_cov63'
p4510
aa(lp4511
S'scaffold5995_cov84'
p4512
aS'scaffold6502_cov73'
p4513
aa(lp4514
S'scaffold1760_cov96'
p4515
aS'scaffold1762_cov75'
p4516
a(lp4517
I1
a(lp4518
F0.301887
aaI53
aa(lp4519
I1
a(lp4520
F0.383562
aaI73
aaa(lp4521
S'scaffold114629_cov63'
p4522
aS'scaffold15395_cov68'
p4523
aa(lp4524
S'scaffold21352_cov62'
p4525
aS'scaffold78461_cov65'
p4526
aa(lp4527
S'scaffold22791_cov67'
p4528
aS'scaffold22793_cov63'
p4529
aa(lp4530
S'scaffold7098_cov89'
p4531
aS'scaffold8421_cov73'
p4532
a(lp4533
I1
a(lp4534
F0.450704
aaI71
aa(lp4535
I1
a(lp4536
F0.460526
aaI76
aa(lp4537
I1
a(lp4538
F0.204545
aaI44
aa(lp4539
I1
a(lp4540
F0.234043
aaI47
aaa(lp4541
S'scaffold1865_cov101'
p4542
aS'scaffold58306_cov63'
p4543
aa(lp4544
S'scaffold2767_cov75'
p4545
aS'scaffold9955_cov79'
p4546
aa(lp4547
S'scaffold4604_cov80'
p4548
aS'scaffold4605_cov69'
p4549
aa(lp4550
S'scaffold476_cov90'
p4551
aS'scaffold8782_cov64'
p4552
aa(lp4553
S'scaffold5694_cov90'
p4554
aS'scaffold6452_cov96'
p4555
a(lp4556
I1
a(lp4557
F0.459016
aaI61
aa(lp4558
I1
a(lp4559
F0.288462
aaI52
aa(lp4560
I1
a(lp4561
F0.490909
aaI55
aa(lp4562
I1
a(lp4563
F0.442308
aaI52
aa(lp4564
I1
a(lp4565
F0.436364
aaI55
aa(lp4566
I1
a(lp4567
F0.430769
aaI65
aa(lp4568
I1
a(lp4569
F0.409836
aaI61
aa(lp4570
I1
a(lp4571
F0.362069
aaI58
aa(lp4572
I1
a(lp4573
F0.426471
aaI68
aa(lp4574
I1
a(lp4575
F0.238095
aaI42
aa(lp4576
I1
a(lp4577
F0.397436
aaI78
aa(lp4578
I1
a(lp4579
F0.333333
aaI60
aa(lp4580
I1
a(lp4581
F0.322034
aaI59
aag3901
a(lp4582
I1
a(lp4583
F0.4
aaI65
aa(lp4584
I1
a(lp4585
F0.40678
aaI59
aa(lp4586
I1
a(lp4587
F0.393443
aaI61
aa(lp4588
I1
a(lp4589
F0.25641
aaI39
aa(lp4590
I1
a(lp4591
F0.207547
aaI53
aa(lp4592
I1
a(lp4593
F0.241379
aaI58
aa(lp4594
I1
a(lp4595
F0.23913
aaI46
aa(lp4596
I1
a(lp4597
F0.257143
aaI35
aa(lp4598
I1
a(lp4599
F0.285714
aaI35
aa(lp4600
I1
a(lp4601
F0.352941
aaI51
aa(lp4602
I1
a(lp4603
F0.396226
aaI53
aa(lp4604
I1
a(lp4605
F0.4
aaI55
aa(lp4606
I1
a(lp4607
F0.4
aaI55
aaasg1851
(lp4608
(lp4609
g4273
ag4274
a(lp4610
I1
a(lp4611
F0.403226
aaI62
aa(lp4612
I1
a(lp4613
F0.238095
aaI42
aa(lp4614
I1
a(lp4615
F0.265306
aaI49
aa(lp4616
I1
a(lp4617
F0.235294
aaI51
aa(lp4618
I1
a(lp4619
F0.359375
aaI64
aaa(lp4620
g4306
ag4307
aa(lp4621
g4309
ag4310
a(lp4622
I1
a(lp4623
F0.229167
aaI48
aa(lp4624
I1
a(lp4625
F0.229167
aaI48
aa(lp4626
I1
a(lp4627
F0.5
aaI92
aa(lp4628
I1
a(lp4629
F0.309091
aaI55
aaa(lp4630
g4318
ag4319
a(lp4631
I1
a(lp4632
F0.308511
aaI94
aa(lp4633
I1
a(lp4634
F0.363636
aaI99
aaa(lp4635
g4321
ag4322
aa(lp4636
g4330
ag4331
aa(lp4637
g4333
ag4334
aa(lp4638
g4340
ag4341
a(lp4639
I1
a(lp4640
F0.384615
aaI65
aa(lp4641
I1
a(lp4642
F0.362319
aaI69
aaa(lp4643
g4343
ag4344
aa(lp4644
g4346
ag4347
aa(lp4645
g4349
ag4350
aa(lp4646
g4360
ag4361
a(lp4647
I1
a(lp4648
F0.306122
aaI49
aaa(lp4649
g4367
ag4368
aa(lp4650
g4370
ag4371
aa(lp4651
g4373
ag4374
aa(lp4652
g4376
ag4377
aa(lp4653
g4379
ag4380
a(lp4654
I1
a(lp4655
F0.235294
aaI34
aa(lp4656
I1
a(lp4657
F0.2
aaI40
aa(lp4658
I1
a(lp4659
F0.36
aaI50
aa(lp4660
I1
a(lp4661
F0.3125
aaI48
aa(lp4662
I1
a(lp4663
F0.362319
aaI69
aa(lp4664
I1
a(lp4665
F0.333333
aaI69
aa(lp4666
I1
a(lp4667
F0.298507
aaI67
aa(lp4668
I1
a(lp4669
F0.344828
aaI58
aaa(lp4670
g4398
ag4399
aa(lp4671
g4401
ag4402
a(lp4672
I1
a(lp4673
F0.225806
aaI62
aa(lp4674
I1
a(lp4675
F0.392857
aaI56
aa(lp4676
I1
a(lp4677
F0.37037
aaI54
aaa(lp4678
g4408
ag4409
aa(lp4679
g4419
ag4420
a(lp4680
I1
a(lp4681
F0.368421
aaI57
aaa(lp4682
g4424
ag4425
aa(lp4683
g4427
ag4428
a(lp4684
I1
a(lp4685
F0.288136
aaI59
aaa(lp4686
g4430
ag4431
aa(lp4687
g4433
ag4434
a(lp4688
I1
a(lp4689
F0.25
aaI44
aa(lp4690
I1
a(lp4691
F0.25
aaI48
aaa(lp4692
g4442
ag4443
a(lp4693
I1
a(lp4694
F0.4375
aaI64
aa(lp4695
I1
a(lp4696
F0.366667
aaI60
aa(lp4697
I1
a(lp4698
F0.385965
aaI57
aa(lp4699
I1
a(lp4700
F0.365385
aaI52
aa(lp4701
I1
a(lp4702
F0.222222
aaI36
aa(lp4703
I1
a(lp4704
F0.423529
aaI85
aa(lp4705
I1
a(lp4706
F0.228571
aaI70
aa(lp4707
I1
a(lp4708
F0.208955
aaI67
aa(lp4709
I1
a(lp4710
F0.276596
aaI47
aaa(lp4711
g4455
ag4456
aa(lp4712
g4458
ag4459
aa(lp4713
g4463
ag4464
aa(lp4714
g4466
ag4467
a(lp4715
I1
a(lp4716
F0.290323
aaI62
aa(lp4717
I1
a(lp4718
F0.33871
aaI62
aa(lp4719
I1
a(lp4720
F0.319444
aaI72
aa(lp4721
I1
a(lp4722
F0.516667
aaI60
aa(lp4723
I1
a(lp4724
F0.403846
aaI52
aa(lp4725
I1
a(lp4726
F0.396226
aaI53
aa(lp4727
I1
a(lp4728
F0.396552
aaI58
aa(lp4729
I1
a(lp4730
F0.327273
aaI55
aaa(lp4731
g4485
ag4486
a(lp4732
I1
a(lp4733
F0.445946
aaI74
aa(lp4734
I1
a(lp4735
F0.424242
aaI66
aa(lp4736
I1
a(lp4737
F0.372881
aaI59
aa(lp4738
I1
a(lp4739
F0.295082
aaI61
aaa(lp4740
g4488
ag4489
a(lp4741
I1
a(lp4742
F0.391304
aaI92
aaa(lp4743
g4493
ag4494
a(lp4744
I1
a(lp4745
F0.441176
aaI68
aaa(lp4746
g4496
ag4497
aa(lp4747
g4499
ag4500
aa(lp4748
g4502
ag4503
a(lp4749
I1
a(lp4750
F0.244444
aaI45
aaa(lp4751
g4509
ag4510
aa(lp4752
g4512
ag4513
a(lp4753
I1
a(lp4754
F0.470588
aaI85
aa(lp4755
I1
a(lp4756
F0.323529
aaI68
aa(lp4757
I1
a(lp4758
F0.4375
aaI64
aaa(lp4759
g4515
ag4516
a(lp4760
I1
a(lp4761
F0.242857
aaI70
aa(lp4762
I1
a(lp4763
F0.318841
aaI69
aa(lp4764
I1
a(lp4765
F0.211538
aaI52
aa(lp4766
I1
a(lp4767
F0.333333
aaI66
aa(lp4768
I1
a(lp4769
F0.241379
aaI58
aaa(lp4770
g4522
ag4523
a(lp4771
I1
a(lp4772
F0.238095
aaI42
aaa(lp4773
g4525
ag4526
aa(lp4774
g4528
ag4529
a(lp4775
I1
a(lp4776
F0.52381
aaI84
aa(lp4777
I1
a(lp4778
F0.325581
aaI86
aaa(lp4779
g4531
ag4532
a(lp4780
I1
a(lp4781
F0.266667
aaI60
aaa(lp4782
g4542
ag4543
a(lp4783
I1
a(lp4784
F0.22
aaI50
aa(lp4785
I1
a(lp4786
F0.34
aaI50
aa(lp4787
I1
a(lp4788
F0.326087
aaI46
aaa(lp4789
g4545
ag4546
aa(lp4790
g4548
ag4549
aa(lp4791
g4551
ag4552
aa(lp4792
g4554
ag4555
a(lp4793
I1
a(lp4794
F0.22
aaI50
aa(lp4795
I1
a(lp4796
F0.3
aaI70
aa(lp4797
I1
a(lp4798
F0.446281
aaI121
aa(lp4799
I1
a(lp4800
F0.267717
aaI127
aa(lp4801
I1
a(lp4802
F0.237288
aaI118
aaass.