(dp0
S'triploids'
p1
(dp2
S'down'
p3
(lp4
(lp5
S'scaffold4386_cov298'
p6
aS'scaffold2688_cov189'
p7
aa(lp8
S'scaffold5383_cov228'
p9
aS'scaffold6260_cov182'
p10
a(lp11
I1
a(lp12
F0.3125
aaI16
aa(lp13
I1
a(lp14
F0.242424
aaI33
aa(lp15
I1
a(lp16
F0.323529
aaI34
aaa(lp17
S'scaffold34997_cov218'
p18
aS'scaffold126_cov233'
p19
aa(lp20
S'scaffold3363_cov220'
p21
aS'scaffold4931_cov207'
p22
a(lp23
I1
a(lp24
F0.540541
aaI37
aaa(lp25
S'scaffold5757_cov278'
p26
aS'scaffold35469_cov250'
p27
a(lp28
I1
a(lp29
F0.322581
aaI31
aa(lp30
I1
a(lp31
F0.324324
aaI37
aa(lp32
I1
a(lp33
F0.351351
aaI37
aa(lp34
I1
a(lp35
F0.230769
aaI26
aa(lp36
I1
a(lp37
F0.365854
aaI41
aaa(lp38
S'scaffold520_cov225'
p39
aS'scaffold11220_cov221'
p40
a(lp41
I1
a(lp42
F0.25
aaI32
aa(lp43
I1
a(lp44
F0.266667
aaI30
aa(lp45
I1
a(lp46
F0.241379
aaI29
aa(lp47
I1
a(lp48
F0.233333
aaI30
aa(lp49
I1
a(lp50
F0.227273
aaI22
aa(lp51
I1
a(lp52
F0.52
aaI25
aa(lp53
I1
a(lp54
F0.464286
aaI28
aa(lp55
I1
a(lp56
F0.454545
aaI33
aaa(lp57
S'scaffold8181_cov267'
p58
aS'scaffold4564_cov155'
p59
aa(lp60
S'scaffold6784_cov373'
p61
aS'scaffold34876_cov153'
p62
a(lp63
I1
a(lp64
F0.333333
aaI36
aa(lp65
I1
a(lp66
F0.342105
aaI38
aa(lp67
I1
a(lp68
F0.275
aaI40
aa(lp69
I1
a(lp70
F0.538462
aaI39
aa(lp71
I1
a(lp72
F0.3125
aaI32
aa(lp73
I1
a(lp74
F0.529412
aaI34
aa(lp75
I1
a(lp76
F0.558824
aaI34
aa(lp77
I1
a(lp78
F0.26087
aaI23
aa(lp79
I1
a(lp80
F0.333333
aaI21
aa(lp81
I1
a(lp82
F0.205882
aaI34
aa(lp83
I1
a(lp84
F0.216216
aaI37
aaa(lp85
S'scaffold8707_cov275'
p86
aS'scaffold1032_cov163'
p87
a(lp88
I1
a(lp89
F0.205882
aaI34
aa(lp90
I1
a(lp91
F0.47619
aaI42
aa(lp92
I1
a(lp93
F0.45
aaI40
aa(lp94
I1
a(lp95
F0.452381
aaI42
aa(lp96
I1
a(lp97
F0.317073
aaI41
aa(lp98
I1
a(lp99
F0.361111
aaI36
aa(lp100
I1
a(lp101
F0.424242
aaI33
aa(lp102
I1
a(lp103
F0.394737
aaI38
aa(lp104
I1
a(lp105
F0.363636
aaI44
aaa(lp106
S'scaffold987_cov149'
p107
aS'scaffold4886_cov351'
p108
aa(lp109
S'scaffold5780_cov292'
p110
aS'scaffold421_cov166'
p111
a(lp112
I1
a(lp113
F0.25
aaI20
aa(lp114
I1
a(lp115
F0.294118
aaI17
aa(lp116
I1
a(lp117
F0.294118
aaI17
aa(lp118
I1
a(lp119
F0.368421
aaI38
aa(lp120
I1
a(lp121
F0.206897
aaI29
aa(lp122
I1
a(lp123
F0.28
aaI25
aa(lp124
I1
a(lp125
F0.2
aaI25
aa(lp126
I1
a(lp127
F0.222222
aaI27
aaa(lp128
S'scaffold78_cov298'
p129
aS'scaffold3994_cov307'
p130
aa(lp131
S'scaffold14087_cov206'
p132
aS'scaffold4385_cov239'
p133
a(lp134
I1
a(lp135
F0.365854
aaI41
aa(lp136
I1
a(lp137
F0.348837
aaI43
aaa(lp138
S'scaffold18648_cov147'
p139
aS'scaffold4480_cov293'
p140
a(lp141
I1
a(lp142
F0.0
aaI7
aa(lp143
I1
a(lp144
F0.0
aaI7
aa(lp145
I1
a(lp146
F0.0
aaI12
aa(lp147
I1
a(lp148
F0.0
aaI11
aa(lp149
I1
a(lp150
F0.0
aaI11
aa(lp151
I1
a(lp152
F0.0
aaI10
aa(lp153
I1
a(lp154
F0.0
aaI2
aa(lp155
I1
a(lp156
F0.380952
aaI21
aa(lp157
I1
a(lp158
F0.0
aaI14
aa(lp159
I1
a(lp160
F0.0
aaI15
aa(lp161
I1
a(lp162
F0.333333
aaI15
aa(lp163
I1
a(lp164
F0.0
aaI12
aa(lp165
I1
a(lp166
F0.0
aaI13
aa(lp167
I1
a(lp168
F0.0
aaI13
aa(lp169
I1
a(lp170
F0.0
aaI4
aa(lp171
I1
a(lp172
F0.0
aaI3
aa(lp173
I1
a(lp174
F0.0
aaI12
aaa(lp175
S'scaffold2503_cov151'
p176
aS'scaffold3984_cov353'
p177
aa(lp178
S'scaffold8360_cov206'
p179
aS'scaffold499_cov259'
p180
a(lp181
I1
a(lp182
F0.225806
aaI31
aa(lp183
I1
a(lp184
F0.375
aaI32
aa(lp185
I1
a(lp186
F0.217391
aaI23
aa(lp187
I1
a(lp188
F0.285714
aaI28
aa(lp189
I1
a(lp190
F0.282051
aaI39
aa(lp191
I1
a(lp192
F0.285714
aaI28
aaa(lp193
S'scaffold3693_cov252'
p194
aS'scaffold35708_cov182'
p195
aa(lp196
S'scaffold35009_cov245'
p197
aS'scaffold91_cov238'
p198
a(lp199
I1
a(lp200
F0.2
aaI30
aa(lp201
I1
a(lp202
F0.35
aaI40
aa(lp203
I1
a(lp204
F0.425926
aaI54
aa(lp205
I1
a(lp206
F0.35
aaI40
aa(lp207
I1
a(lp208
F0.538462
aaI52
aa(lp209
I1
a(lp210
F0.304348
aaI23
aa(lp211
I1
a(lp212
F0.392857
aaI28
aa(lp213
I1
a(lp214
F0.272727
aaI22
aa(lp215
I1
a(lp216
F0.25
aaI20
aaa(lp217
S'scaffold10091_cov218'
p218
aS'scaffold8128_cov148'
p219
aa(lp220
S'scaffold40391_cov315'
p221
aS'scaffold10294_cov190'
p222
aa(lp223
S'scaffold52810_cov589'
p224
aS'scaffold2099_cov316'
p225
aa(lp226
S'scaffold6504_cov303'
p227
aS'scaffold13906_cov172'
p228
aa(lp229
S'scaffold275_cov215'
p230
aS'scaffold387_cov149'
p231
aa(lp232
S'scaffold1607_cov239'
p233
aS'scaffold35912_cov193'
p234
a(lp235
I1
a(lp236
F0.2
aaI30
aa(lp237
I1
a(lp238
F0.347826
aaI23
aa(lp239
I1
a(lp240
F0.210526
aaI19
aa(lp241
I1
a(lp242
F0.3
aaI20
aaa(lp243
S'scaffold3960_cov215'
p244
aS'scaffold3895_cov206'
p245
a(lp246
I1
a(lp247
F0.2
aaI30
aa(lp248
I1
a(lp249
F0.464286
aaI28
aa(lp250
I1
a(lp251
F0.272727
aaI22
aa(lp252
I1
a(lp253
F0.272727
aaI22
aa(lp254
I1
a(lp255
F0.391304
aaI23
aa(lp256
I1
a(lp257
F0.333333
aaI27
aa(lp258
I1
a(lp259
F0.314286
aaI35
aa(lp260
I1
a(lp261
F0.342857
aaI35
aa(lp262
I1
a(lp263
F0.277778
aaI36
aa(lp264
I1
a(lp265
F0.285714
aaI35
aa(lp266
I1
a(lp267
F0.2
aaI35
aaa(lp268
S'scaffold2468_cov231'
p269
aS'scaffold4243_cov244'
p270
aa(lp271
S'scaffold2338_cov238'
p272
aS'scaffold2516_cov204'
p273
a(lp274
I1
a(lp275
F0.2
aaI45
aa(lp276
I1
a(lp277
F0.25641
aaI39
aa(lp278
I1
a(lp279
F0.206897
aaI29
aa(lp280
I1
a(lp281
F0.444444
aaI36
aa(lp282
I1
a(lp283
F0.322581
aaI31
aa(lp284
I1
a(lp285
F0.472222
aaI36
aa(lp286
I1
a(lp287
F0.0
aaI18
aa(lp288
I1
a(lp289
F0.36
aaI25
aa(lp290
I1
a(lp291
F0.225806
aaI31
aaa(lp292
S'scaffold6588_cov297'
p293
aS'scaffold3089_cov153'
p294
a(lp295
I1
a(lp296
F0.555556
aaI36
aa(lp297
I1
a(lp298
F0.212121
aaI33
aa(lp299
I1
a(lp300
F0.230769
aaI26
aa(lp301
I1
a(lp302
F0.238095
aaI21
aaa(lp303
S'scaffold11638_cov181'
p304
aS'scaffold11037_cov149'
p305
aa(lp306
S'scaffold3738_cov179'
p307
aS'scaffold5697_cov266'
p308
a(lp309
I1
a(lp310
F0.0
aaI2
aa(lp311
I1
a(lp312
F0.0
aaI4
aa(lp313
I1
a(lp314
F0.285714
aaI7
aa(lp315
I1
a(lp316
F0.285714
aaI7
aa(lp317
I1
a(lp318
F0.0
aaI9
aa(lp319
I1
a(lp320
F0.0
aaI6
aa(lp321
I1
a(lp322
F0.0
aaI5
aaa(lp323
S'scaffold12689_cov256'
p324
aS'scaffold7460_cov152'
p325
aa(lp326
S'scaffold3666_cov227'
p327
aS'scaffold2175_cov210'
p328
aa(lp329
S'scaffold4560_cov350'
p330
aS'scaffold2640_cov197'
p331
a(lp332
I1
a(lp333
F0.242424
aaI33
aa(lp334
I1
a(lp335
F0.25
aaI32
aa(lp336
I1
a(lp337
F0.225806
aaI31
aaa(lp338
S'scaffold34901_cov222'
p339
aS'scaffold14139_cov184'
p340
a(lp341
I1
a(lp342
F0.30303
aaI33
aa(lp343
I1
a(lp344
F0.30303
aaI33
aa(lp345
I1
a(lp346
F0.6
aaI55
aa(lp347
I1
a(lp348
F0.266667
aaI30
aa(lp349
I1
a(lp350
F0.266667
aaI30
aa(lp351
I1
a(lp352
F0.230769
aaI26
aaa(lp353
S'scaffold35491_cov284'
p354
aS'scaffold6922_cov210'
p355
a(lp356
I1
a(lp357
F0.454545
aaI33
aa(lp358
I1
a(lp359
F0.382353
aaI34
aa(lp360
I1
a(lp361
F0.37037
aaI27
aa(lp362
I1
a(lp363
F0.361111
aaI36
aa(lp364
I1
a(lp365
F0.509804
aaI51
aa(lp366
I1
a(lp367
F0.315789
aaI38
aa(lp368
I1
a(lp369
F0.285714
aaI42
aa(lp370
I1
a(lp371
F0.295455
aaI44
aa(lp372
I1
a(lp373
F0.268293
aaI41
aa(lp374
I1
a(lp375
F0.275
aaI40
aa(lp376
I1
a(lp377
F0.418605
aaI43
aa(lp378
I1
a(lp379
F0.390244
aaI41
aa(lp380
I1
a(lp381
F0.428571
aaI35
aa(lp382
I1
a(lp383
F0.515152
aaI33
aaa(lp384
S'scaffold5724_cov219'
p385
aS'scaffold8613_cov250'
p386
a(lp387
I1
a(lp388
F0.375
aaI32
aa(lp389
I1
a(lp390
F0.4
aaI30
aa(lp391
I1
a(lp392
F0.448276
aaI29
aa(lp393
I1
a(lp394
F0.342857
aaI35
aa(lp395
I1
a(lp396
F0.636364
aaI33
aa(lp397
I1
a(lp398
F0.235294
aaI34
aa(lp399
I1
a(lp400
F0.333333
aaI24
aa(lp401
I1
a(lp402
F0.235294
aaI17
aa(lp403
I1
a(lp404
F0.545455
aaI44
aa(lp405
I1
a(lp406
F0.583333
aaI36
aa(lp407
I1
a(lp408
F0.30303
aaI33
aa(lp409
I1
a(lp410
F0.282051
aaI39
aa(lp411
I1
a(lp412
F0.392857
aaI28
aa(lp413
I1
a(lp414
F0.34375
aaI32
aa(lp415
I1
a(lp416
F0.441176
aaI34
aa(lp417
I1
a(lp418
F0.428571
aaI28
aa(lp419
I1
a(lp420
F0.478261
aaI23
aa(lp421
I1
a(lp422
F0.423077
aaI26
aa(lp423
I1
a(lp424
F0.24
aaI25
aa(lp425
I1
a(lp426
F0.269231
aaI26
aa(lp427
I1
a(lp428
F0.26087
aaI23
aa(lp429
I1
a(lp430
F0.3
aaI40
aa(lp431
I1
a(lp432
F0.425532
aaI47
aa(lp433
I1
a(lp434
F0.422222
aaI45
aa(lp435
I1
a(lp436
F0.4
aaI40
aa(lp437
I1
a(lp438
F0.282609
aaI46
aa(lp439
I1
a(lp440
F0.346939
aaI49
aa(lp441
I1
a(lp442
F0.346939
aaI49
aa(lp443
I1
a(lp444
F0.333333
aaI36
aaa(lp445
S'scaffold6223_cov242'
p446
aS'scaffold1876_cov202'
p447
aa(lp448
S'scaffold14855_cov234'
p449
aS'scaffold34047_cov174'
p450
a(lp451
I1
a(lp452
F0.258065
aaI31
aaa(lp453
S'scaffold2702_cov266'
p454
aS'scaffold432_cov233'
p455
a(lp456
I1
a(lp457
F0.285714
aaI21
aa(lp458
I1
a(lp459
F0.30303
aaI33
aa(lp460
I1
a(lp461
F0.425532
aaI47
aa(lp462
I1
a(lp463
F0.409091
aaI44
aa(lp464
I1
a(lp465
F0.410256
aaI39
aa(lp466
I1
a(lp467
F0.428571
aaI28
aa(lp468
I1
a(lp469
F0.410256
aaI39
aa(lp470
I1
a(lp471
F0.315789
aaI19
aaa(lp472
S'scaffold11028_cov263'
p473
aS'scaffold3310_cov167'
p474
a(lp475
I1
a(lp476
F0.32
aaI25
aa(lp477
I1
a(lp478
F0.333333
aaI27
aaa(lp479
S'scaffold5897_cov436'
p480
aS'scaffold343_cov157'
p481
aa(lp482
S'scaffold6105_cov252'
p483
aS'scaffold6855_cov172'
p484
a(lp485
I1
a(lp486
F0.395349
aaI43
aa(lp487
I1
a(lp488
F0.326087
aaI46
aa(lp489
I1
a(lp490
F0.285714
aaI28
aaa(lp491
S'scaffold1228_cov289'
p492
aS'scaffold10188_cov228'
p493
aa(lp494
S'scaffold2751_cov176'
p495
aS'scaffold636_cov192'
p496
a(lp497
I1
a(lp498
F0.241379
aaI29
aa(lp499
I1
a(lp500
F0.25
aaI32
aa(lp501
I1
a(lp502
F0.264706
aaI34
aa(lp503
I1
a(lp504
F0.272727
aaI22
aa(lp505
I1
a(lp506
F0.285714
aaI21
aaa(lp507
S'scaffold1228_cov289'
p508
aS'scaffold18802_cov239'
p509
aa(lp510
S'scaffold34878_cov239'
p511
aS'scaffold6446_cov191'
p512
aa(lp513
S'scaffold6205_cov227'
p514
aS'scaffold858_cov242'
p515
a(lp516
I1
a(lp517
F0.439024
aaI41
aa(lp518
I1
a(lp519
F0.390244
aaI41
aa(lp520
I1
a(lp521
F0.470588
aaI34
aa(lp522
I1
a(lp523
F0.290323
aaI31
aaa(lp524
S'scaffold34894_cov238'
p525
aS'scaffold424_cov173'
p526
a(lp527
I1
a(lp528
F0.3
aaI30
aa(lp529
I1
a(lp530
F0.277778
aaI36
aa(lp531
I1
a(lp532
F0.214286
aaI28
aaa(lp533
S'scaffold13730_cov260'
p534
aS'scaffold53022_cov294'
p535
a(lp536
I1
a(lp537
F0.377778
aaI45
aa(lp538
I1
a(lp539
F0.377778
aaI45
aaa(lp540
S'scaffold3883_cov286'
p541
aS'scaffold2531_cov161'
p542
aa(lp543
S'scaffold13299_cov272'
p544
aS'scaffold13790_cov193'
p545
a(lp546
I1
a(lp547
F0.487805
aaI41
aa(lp548
I1
a(lp549
F0.28125
aaI32
aa(lp550
I1
a(lp551
F0.321429
aaI28
aaa(lp552
S'scaffold2120_cov226'
p553
aS'scaffold5979_cov159'
p554
aa(lp555
S'scaffold30587_cov247'
p556
aS'scaffold1792_cov186'
p557
a(lp558
I1
a(lp559
F0.517241
aaI29
aa(lp560
I1
a(lp561
F0.551724
aaI29
aa(lp562
I1
a(lp563
F0.517241
aaI29
aaa(lp564
S'scaffold3511_cov209'
p565
aS'scaffold383_cov198'
p566
a(lp567
I1
a(lp568
F0.333333
aaI18
aa(lp569
I1
a(lp570
F0.375
aaI32
aa(lp571
I1
a(lp572
F0.333333
aaI27
aa(lp573
I1
a(lp574
F0.241379
aaI29
aa(lp575
I1
a(lp576
F0.333333
aaI39
aa(lp577
I1
a(lp578
F0.227273
aaI22
aaa(lp579
S'scaffold34100_cov244'
p580
aS'scaffold1747_cov293'
p581
a(lp582
I1
a(lp583
F0.228571
aaI35
aa(lp584
I1
a(lp585
F0.5
aaI52
aa(lp586
I1
a(lp587
F0.333333
aaI24
aa(lp588
I1
a(lp589
F0.310345
aaI29
aa(lp590
I1
a(lp591
F0.2
aaI25
aa(lp592
I1
a(lp593
F0.472222
aaI36
aa(lp594
I1
a(lp595
F0.275862
aaI29
aaa(lp596
S'scaffold1599_cov246'
p597
aS'scaffold34016_cov157'
p598
aa(lp599
S'scaffold4404_cov204'
p600
aS'scaffold53165_cov284'
p601
aa(lp602
S'scaffold16908_cov201'
p603
aS'scaffold4051_cov206'
p604
a(lp605
I1
a(lp606
F0.277778
aaI18
aa(lp607
I1
a(lp608
F0.363636
aaI33
aa(lp609
I1
a(lp610
F0.230769
aaI26
aa(lp611
I1
a(lp612
F0.230769
aaI26
aaa(lp613
S'scaffold27882_cov209'
p614
aS'scaffold36175_cov226'
p615
aa(lp616
S'scaffold15598_cov210'
p617
aS'scaffold5017_cov219'
p618
a(lp619
I1
a(lp620
F0.395833
aaI48
aa(lp621
I1
a(lp622
F0.333333
aaI27
aa(lp623
I1
a(lp624
F0.386364
aaI44
aa(lp625
I1
a(lp626
F0.3
aaI20
aa(lp627
I1
a(lp628
F0.28
aaI25
aa(lp629
I1
a(lp630
F0.333333
aaI39
aa(lp631
I1
a(lp632
F0.325581
aaI43
aa(lp633
I1
a(lp634
F0.55102
aaI49
aa(lp635
I1
a(lp636
F0.357143
aaI42
aa(lp637
I1
a(lp638
F0.378378
aaI37
aa(lp639
I1
a(lp640
F0.368421
aaI38
aa(lp641
I1
a(lp642
F0.333333
aaI39
aa(lp643
I1
a(lp644
F0.371429
aaI35
aa(lp645
I1
a(lp646
F0.323529
aaI34
aaa(lp647
S'scaffold2656_cov192'
p648
aS'scaffold28966_cov241'
p649
a(lp650
I1
a(lp651
F0.578947
aaI38
aa(lp652
I1
a(lp653
F0.341463
aaI41
aa(lp654
I1
a(lp655
F0.589474
aaI95
aa(lp656
I1
a(lp657
F0.422222
aaI45
aa(lp658
I1
a(lp659
F0.448276
aaI29
aa(lp660
I1
a(lp661
F0.347826
aaI46
aa(lp662
I1
a(lp663
F0.352941
aaI51
aaa(lp664
S'scaffold11791_cov336'
p665
aS'scaffold3120_cov189'
p666
a(lp667
I1
a(lp668
F0.368421
aaI19
aa(lp669
I1
a(lp670
F0.368421
aaI19
aa(lp671
I1
a(lp672
F0.25
aaI12
aaa(lp673
S'scaffold1893_cov262'
p674
aS'scaffold35334_cov163'
p675
aa(lp676
S'scaffold2157_cov220'
p677
aS'scaffold5589_cov166'
p678
aa(lp679
S'scaffold7588_cov337'
p680
aS'scaffold9757_cov155'
p681
aa(lp682
S'scaffold3083_cov378'
p683
aS'scaffold34652_cov210'
p684
aa(lp685
S'scaffold1203_cov294'
p686
aS'scaffold1019_cov183'
p687
aa(lp688
S'scaffold1045_cov153'
p689
aS'scaffold4758_cov346'
p690
aa(lp691
S'scaffold355_cov233'
p692
aS'scaffold5164_cov209'
p693
a(lp694
I1
a(lp695
F0.25
aaI28
aa(lp696
I1
a(lp697
F0.242424
aaI33
aa(lp698
I1
a(lp699
F0.206897
aaI29
aa(lp700
I1
a(lp701
F0.411765
aaI34
aa(lp702
I1
a(lp703
F0.37037
aaI27
aa(lp704
I1
a(lp705
F0.225806
aaI31
aa(lp706
I1
a(lp707
F0.457143
aaI35
aa(lp708
I1
a(lp709
F0.236842
aaI38
aa(lp710
I1
a(lp711
F0.543478
aaI46
aaa(lp712
S'scaffold10417_cov197'
p713
aS'scaffold4396_cov166'
p714
aa(lp715
S'scaffold3883_cov286'
p716
aS'scaffold12108_cov159'
p717
aa(lp718
S'scaffold24073_cov287'
p719
aS'scaffold36462_cov152'
p720
aa(lp721
S'scaffold5051_cov291'
p722
aS'scaffold1404_cov156'
p723
aa(lp724
S'scaffold3476_cov276'
p725
aS'scaffold3249_cov179'
p726
a(lp727
I1
a(lp728
F0.511111
aaI45
aa(lp729
I1
a(lp730
F0.2
aaI30
aa(lp731
I1
a(lp732
F0.484848
aaI33
aaa(lp733
S'scaffold299_cov290'
p734
aS'scaffold4971_cov235'
p735
aa(lp736
S'scaffold34756_cov262'
p737
aS'scaffold23838_cov109'
p738
aa(lp739
S'scaffold276_cov267'
p740
aS'scaffold6071_cov156'
p741
aa(lp742
S'scaffold38974_cov463'
p743
aS'scaffold343_cov157'
p744
aa(lp745
S'scaffold14255_cov253'
p746
aS'scaffold2270_cov160'
p747
a(lp748
I1
a(lp749
F0.2
aaI25
aa(lp750
I1
a(lp751
F0.558824
aaI34
aa(lp752
I1
a(lp753
F0.307692
aaI26
aaa(lp754
S'scaffold4704_cov190'
p755
aS'scaffold2105_cov193'
p756
a(lp757
I1
a(lp758
F0.354839
aaI31
aa(lp759
I1
a(lp760
F0.25
aaI28
aa(lp761
I1
a(lp762
F0.225806
aaI31
aaa(lp763
S'scaffold43247_cov305'
p764
aS'scaffold34240_cov291'
p765
aa(lp766
S'scaffold6415_cov250'
p767
aS'scaffold6724_cov185'
p768
aa(lp769
S'scaffold34969_cov237'
p770
aS'scaffold5373_cov204'
p771
a(lp772
I1
a(lp773
F0.296296
aaI27
aa(lp774
I1
a(lp775
F0.394737
aaI38
aa(lp776
I1
a(lp777
F0.529412
aaI51
aa(lp778
I1
a(lp779
F0.289474
aaI38
aa(lp780
I1
a(lp781
F0.222222
aaI36
aa(lp782
I1
a(lp783
F0.3
aaI30
aa(lp784
I1
a(lp785
F0.24
aaI25
aa(lp786
I1
a(lp787
F0.444444
aaI27
aa(lp788
I1
a(lp789
F0.282051
aaI39
aa(lp790
I1
a(lp791
F0.482759
aaI58
aaa(lp792
S'scaffold22860_cov185'
p793
aS'scaffold6721_cov174'
p794
a(lp795
I1
a(lp796
F0.228571
aaI35
aa(lp797
I1
a(lp798
F0.375
aaI32
aa(lp799
I1
a(lp800
F0.242424
aaI33
aa(lp801
I1
a(lp802
F0.25
aaI32
aaa(lp803
S'scaffold1871_cov212'
p804
aS'scaffold3028_cov204'
p805
a(lp806
I1
a(lp807
F0.238095
aaI42
aa(lp808
I1
a(lp809
F0.285714
aaI28
aa(lp810
I1
a(lp811
F0.307692
aaI26
aa(lp812
I1
a(lp813
F0.409091
aaI22
aa(lp814
I1
a(lp815
F0.478261
aaI23
aa(lp816
I1
a(lp817
F0.407407
aaI27
aa(lp818
I1
a(lp819
F0.333333
aaI27
aa(lp820
I1
a(lp821
F0.333333
aaI27
aa(lp822
I1
a(lp823
F0.37931
aaI29
aa(lp824
I1
a(lp825
F0.310345
aaI29
aa(lp826
I1
a(lp827
F0.366667
aaI30
aa(lp828
I1
a(lp829
F0.3
aaI30
aa(lp830
I1
a(lp831
F0.208333
aaI24
aa(lp832
I1
a(lp833
F0.266667
aaI30
aa(lp834
I1
a(lp835
F0.275862
aaI29
aaa(lp836
S'scaffold9334_cov225'
p837
aS'scaffold4813_cov177'
p838
a(lp839
I1
a(lp840
F0.346154
aaI26
aa(lp841
I1
a(lp842
F0.342857
aaI35
aa(lp843
I1
a(lp844
F0.25
aaI40
aaa(lp845
S'scaffold625_cov187'
p846
aS'scaffold8957_cov170'
p847
a(lp848
I1
a(lp849
F0.365854
aaI41
aa(lp850
I1
a(lp851
F0.205882
aaI34
aa(lp852
I1
a(lp853
F0.2
aaI30
aa(lp854
I1
a(lp855
F0.217391
aaI23
aa(lp856
I1
a(lp857
F0.2
aaI20
aa(lp858
I1
a(lp859
F0.333333
aaI42
aa(lp860
I1
a(lp861
F0.325581
aaI43
aa(lp862
I1
a(lp863
F0.534483
aaI58
aa(lp864
I1
a(lp865
F0.323529
aaI34
aa(lp866
I1
a(lp867
F0.3125
aaI32
aa(lp868
I1
a(lp869
F0.30303
aaI33
aa(lp870
I1
a(lp871
F0.25
aaI32
aa(lp872
I1
a(lp873
F0.321429
aaI28
aa(lp874
I1
a(lp875
F0.296296
aaI27
aa(lp876
I1
a(lp877
F0.307692
aaI26
aa(lp878
I1
a(lp879
F0.222222
aaI27
aa(lp880
I1
a(lp881
F0.2
aaI30
aa(lp882
I1
a(lp883
F0.206897
aaI29
aaa(lp884
S'scaffold622_cov424'
p885
aS'scaffold1302_cov140'
p886
aa(lp887
S'scaffold3060_cov247'
p888
aS'scaffold3487_cov182'
p889
aa(lp890
S'scaffold13299_cov272'
p891
aS'scaffold10369_cov160'
p892
a(lp893
I1
a(lp894
F0.4375
aaI16
aa(lp895
I1
a(lp896
F0.272727
aaI22
aa(lp897
I1
a(lp898
F0.304348
aaI23
aa(lp899
I1
a(lp900
F0.35
aaI20
aa(lp901
I1
a(lp902
F0.294118
aaI17
aaa(lp903
S'scaffold5358_cov160'
p904
aS'scaffold1828_cov217'
p905
a(lp906
I1
a(lp907
F0.0
aaI13
aa(lp908
I1
a(lp909
F0.333333
aaI12
aa(lp910
I1
a(lp911
F0.0
aaI7
aa(lp912
I1
a(lp913
F0.0
aaI8
aa(lp914
I1
a(lp915
F0.0
aaI11
aa(lp916
I1
a(lp917
F0.0
aaI67
aa(lp918
I1
a(lp919
F0.0
aaI6
aa(lp920
I1
a(lp921
F0.0
aaI6
aa(lp922
I1
a(lp923
F0.0
aaI6
aa(lp924
I1
a(lp925
F0.0
aaI4
aa(lp926
I1
a(lp927
F0.0
aaI18
aa(lp928
I1
a(lp929
F0.0
aaI4
aa(lp930
I1
a(lp931
F0.0
aaI12
aaa(lp932
S'scaffold36286_cov261'
p933
aS'scaffold8587_cov157'
p934
aa(lp935
S'scaffold5178_cov237'
p936
aS'scaffold6699_cov179'
p937
aa(lp938
S'scaffold5073_cov227'
p939
aS'scaffold3911_cov285'
p940
a(lp941
I1
a(lp942
F0.0
aaI2
aa(lp943
I2
a(lp944
F0.5
aF0.5
aaI16
aa(lp945
I1
a(lp946
F0.0
aaI2
aaa(lp947
S'scaffold6166_cov218'
p948
aS'scaffold34141_cov184'
p949
a(lp950
I1
a(lp951
F0.206897
aaI29
aa(lp952
I1
a(lp953
F0.26087
aaI23
aa(lp954
I1
a(lp955
F0.452381
aaI42
aaa(lp956
S'scaffold3082_cov287'
p957
aS'scaffold2983_cov165'
p958
a(lp959
I1
a(lp960
F0.54902
aaI51
aa(lp961
I1
a(lp962
F0.357143
aaI28
aaa(lp963
S'scaffold47198_cov463'
p964
aS'scaffold34572_cov182'
p965
a(lp966
I1
a(lp967
F0.527273
aaI55
aaa(lp968
S'scaffold2985_cov221'
p969
aS'scaffold103_cov152'
p970
a(lp971
I1
a(lp972
F0.0
aaI29
aa(lp973
I1
a(lp974
F0.285714
aaI28
aa(lp975
I1
a(lp976
F0.3
aaI10
aaa(lp977
S'scaffold12226_cov185'
p978
aS'scaffold12793_cov183'
p979
aa(lp980
S'scaffold1234_cov222'
p981
aS'scaffold34763_cov140'
p982
aa(lp983
S'scaffold3901_cov329'
p984
aS'scaffold14736_cov203'
p985
aa(lp986
S'scaffold1488_cov177'
p987
aS'scaffold7765_cov174'
p988
a(lp989
I1
a(lp990
F0.214286
aaI28
aa(lp991
I1
a(lp992
F0.217391
aaI23
aa(lp993
I1
a(lp994
F0.304348
aaI23
aa(lp995
I1
a(lp996
F0.333333
aaI24
aaa(lp997
S'scaffold34579_cov226'
p998
aS'scaffold34935_cov228'
p999
a(lp1000
I1
a(lp1001
F0.218182
aaI55
aaa(lp1002
S'scaffold21112_cov305'
p1003
aS'scaffold22738_cov154'
p1004
aa(lp1005
S'scaffold34946_cov233'
p1006
aS'scaffold2695_cov200'
p1007
a(lp1008
I1
a(lp1009
F0.512195
aaI41
aa(lp1010
I1
a(lp1011
F0.5
aaI38
aa(lp1012
I1
a(lp1013
F0.36
aaI25
aa(lp1014
I1
a(lp1015
F0.444444
aaI36
aa(lp1016
I1
a(lp1017
F0.411765
aaI34
aa(lp1018
I1
a(lp1019
F0.605263
aaI38
aa(lp1020
I1
a(lp1021
F0.488372
aaI43
aa(lp1022
I1
a(lp1023
F0.324324
aaI37
aa(lp1024
I1
a(lp1025
F0.333333
aaI30
aa(lp1026
I1
a(lp1027
F0.4
aaI60
aa(lp1028
I1
a(lp1029
F0.344828
aaI58
aa(lp1030
I1
a(lp1031
F0.377358
aaI53
aa(lp1032
I1
a(lp1033
F0.392857
aaI28
aa(lp1034
I1
a(lp1035
F0.444444
aaI36
aa(lp1036
I1
a(lp1037
F0.204545
aaI44
aa(lp1038
I1
a(lp1039
F0.323529
aaI34
aa(lp1040
I1
a(lp1041
F0.277778
aaI18
aa(lp1042
I1
a(lp1043
F0.347826
aaI23
aaa(lp1044
S'scaffold4226_cov183'
p1045
aS'scaffold4227_cov149'
p1046
aa(lp1047
S'scaffold417_cov219'
p1048
aS'scaffold7776_cov261'
p1049
a(lp1050
I1
a(lp1051
F0.25
aaI16
aa(lp1052
I1
a(lp1053
F0.3
aaI30
aa(lp1054
I1
a(lp1055
F0.24
aaI25
aa(lp1056
I1
a(lp1057
F0.227273
aaI22
aa(lp1058
I1
a(lp1059
F0.208333
aaI24
aa(lp1060
I1
a(lp1061
F0.208333
aaI24
aa(lp1062
I1
a(lp1063
F0.333333
aaI36
aa(lp1064
I1
a(lp1065
F0.444444
aaI18
aa(lp1066
I1
a(lp1067
F0.368421
aaI19
aa(lp1068
I1
a(lp1069
F0.461538
aaI26
aa(lp1070
I1
a(lp1071
F0.254902
aaI51
aa(lp1072
I1
a(lp1073
F0.306122
aaI49
aa(lp1074
I1
a(lp1075
F0.28125
aaI32
aa(lp1076
I1
a(lp1077
F0.243243
aaI37
aa(lp1078
I1
a(lp1079
F0.363636
aaI33
aaa(lp1080
S'scaffold35170_cov289'
p1081
aS'scaffold34652_cov210'
p1082
a(lp1083
I1
a(lp1084
F0.0
aaI17
aa(lp1085
I1
a(lp1086
F0.0
aaI24
aa(lp1087
I1
a(lp1088
F0.0
aaI16
aa(lp1089
I1
a(lp1090
F0.0
aaI11
aa(lp1091
I1
a(lp1092
F0.0
aaI19
aa(lp1093
I1
a(lp1094
F0.0
aaI22
aa(lp1095
I1
a(lp1096
F0.0
aaI12
aa(lp1097
I1
a(lp1098
F0.0
aaI21
aa(lp1099
I1
a(lp1100
F0.0
aaI13
aa(lp1101
I1
a(lp1102
F0.0
aaI13
aa(lp1103
I1
a(lp1104
F0.0
aaI17
aa(lp1105
I1
a(lp1106
F0.0
aaI17
aa(lp1107
I1
a(lp1108
F0.0
aaI20
aa(lp1109
I1
a(lp1110
F0.0
aaI15
aa(lp1111
I1
a(lp1112
F0.0
aaI15
aa(lp1113
I1
a(lp1114
F0.0
aaI17
aa(lp1115
I1
a(lp1116
F0.0
aaI19
aa(lp1117
I1
a(lp1118
F0.0
aaI6
aa(lp1119
I1
a(lp1120
F0.0
aaI19
aa(lp1121
I1
a(lp1122
F0.0
aaI16
aa(lp1123
I1
a(lp1124
F0.818182
aaI11
aa(lp1125
I1
a(lp1126
F0.0
aaI18
aa(lp1127
I1
a(lp1128
F0.347826
aaI23
aa(lp1129
I1
a(lp1130
F0.0
aaI20
aa(lp1131
I1
a(lp1132
F0.0
aaI19
aaa(lp1133
S'scaffold65_cov217'
p1134
aS'scaffold15270_cov133'
p1135
aa(lp1136
S'scaffold35361_cov259'
p1137
aS'scaffold2334_cov190'
p1138
aa(lp1139
S'scaffold34904_cov288'
p1140
aS'scaffold5809_cov177'
p1141
a(lp1142
I1
a(lp1143
F0.24
aaI25
aa(lp1144
I1
a(lp1145
F0.307692
aaI26
aaa(lp1146
S'scaffold5287_cov211'
p1147
aS'scaffold6822_cov208'
p1148
a(lp1149
I1
a(lp1150
F0.405405
aaI37
aaa(lp1151
S'scaffold21569_cov380'
p1152
aS'scaffold20237_cov146'
p1153
aa(lp1154
S'scaffold13538_cov239'
p1155
aS'scaffold5402_cov179'
p1156
a(lp1157
I1
a(lp1158
F0.321429
aaI28
aaa(lp1159
S'scaffold6948_cov274'
p1160
aS'scaffold6699_cov179'
p1161
a(lp1162
I1
a(lp1163
F0.25
aaI28
aa(lp1164
I1
a(lp1165
F0.227273
aaI22
aaa(lp1166
S'scaffold5796_cov292'
p1167
aS'scaffold2082_cov195'
p1168
a(lp1169
I1
a(lp1170
F0.380952
aaI21
aa(lp1171
I1
a(lp1172
F0.347826
aaI23
aa(lp1173
I1
a(lp1174
F0.391304
aaI23
aa(lp1175
I1
a(lp1176
F0.375
aaI24
aa(lp1177
I1
a(lp1178
F0.277778
aaI18
aa(lp1179
I1
a(lp1180
F0.222222
aaI18
aa(lp1181
I1
a(lp1182
F0.210526
aaI19
aa(lp1183
I1
a(lp1184
F0.233333
aaI30
aa(lp1185
I1
a(lp1186
F0.257143
aaI35
aa(lp1187
I1
a(lp1188
F0.242424
aaI33
aa(lp1189
I1
a(lp1190
F0.25
aaI24
aa(lp1191
I1
a(lp1192
F0.241379
aaI29
aa(lp1193
I1
a(lp1194
F0.466667
aaI45
aa(lp1195
I1
a(lp1196
F0.5
aaI40
aa(lp1197
I1
a(lp1198
F0.5
aaI44
aa(lp1199
I1
a(lp1200
F0.542373
aaI59
aa(lp1201
I1
a(lp1202
F0.543478
aaI46
aa(lp1203
I1
a(lp1204
F0.333333
aaI48
aa(lp1205
I1
a(lp1206
F0.384615
aaI52
aa(lp1207
I1
a(lp1208
F0.346939
aaI49
aaa(lp1209
S'scaffold5059_cov217'
p1210
aS'scaffold7462_cov213'
p1211
aa(lp1212
S'scaffold6808_cov251'
p1213
aS'scaffold5535_cov217'
p1214
aa(lp1215
S'scaffold13539_cov223'
p1216
aS'scaffold2054_cov174'
p1217
aa(lp1218
S'scaffold14835_cov172'
p1219
aS'scaffold3075_cov156'
p1220
aa(lp1221
S'scaffold34923_cov148'
p1222
aS'scaffold1507_cov164'
p1223
aa(lp1224
S'scaffold3989_cov265'
p1225
aS'scaffold13021_cov287'
p1226
aa(lp1227
S'scaffold25113_cov199'
p1228
aS'scaffold6911_cov202'
p1229
aa(lp1230
S'scaffold14550_cov277'
p1231
aS'scaffold1760_cov210'
p1232
aa(lp1233
S'scaffold40132_cov484'
p1234
aS'scaffold7849_cov260'
p1235
a(lp1236
I1
a(lp1237
F0.444444
aaI27
aaa(lp1238
S'scaffold2759_cov181'
p1239
aS'scaffold8772_cov153'
p1240
aa(lp1241
S'scaffold19757_cov388'
p1242
aS'scaffold1999_cov166'
p1243
a(lp1244
I1
a(lp1245
F0.403846
aaI52
aa(lp1246
I1
a(lp1247
F0.638889
aaI36
aa(lp1248
I1
a(lp1249
F0.433962
aaI53
aa(lp1250
I1
a(lp1251
F0.344828
aaI29
aa(lp1252
I1
a(lp1253
F0.357143
aaI28
aa(lp1254
I1
a(lp1255
F0.424242
aaI33
aaa(lp1256
S'scaffold3845_cov316'
p1257
aS'scaffold3342_cov163'
p1258
aa(lp1259
S'scaffold3674_cov258'
p1260
aS'scaffold12700_cov150'
p1261
aa(lp1262
S'scaffold2311_cov232'
p1263
aS'scaffold34052_cov286'
p1264
a(lp1265
I1
a(lp1266
F0.0
aaI21
aaa(lp1267
S'scaffold9452_cov208'
p1268
aS'scaffold4391_cov207'
p1269
a(lp1270
I1
a(lp1271
F0.227273
aaI22
aa(lp1272
I1
a(lp1273
F0.435897
aaI39
aa(lp1274
I1
a(lp1275
F0.230769
aaI26
aa(lp1276
I1
a(lp1277
F0.511111
aaI45
aa(lp1278
I1
a(lp1279
F0.235294
aaI34
aa(lp1280
I1
a(lp1281
F0.228571
aaI35
aaa(lp1282
S'scaffold13470_cov212'
p1283
aS'scaffold10396_cov149'
p1284
aa(lp1285
S'scaffold7198_cov282'
p1286
aS'scaffold3310_cov167'
p1287
a(lp1288
I1
a(lp1289
F0.0
aaI25
aa(lp1290
I1
a(lp1291
F0.414634
aaI41
aa(lp1292
I1
a(lp1293
F0.235294
aaI17
aa(lp1294
I1
a(lp1295
F0.277778
aaI18
aa(lp1296
I1
a(lp1297
F0.285714
aaI28
aa(lp1298
I1
a(lp1299
F0.32
aaI25
aa(lp1300
I1
a(lp1301
F0.347826
aaI23
aa(lp1302
I1
a(lp1303
F0.333333
aaI24
aa(lp1304
I1
a(lp1305
F0.230769
aaI26
aa(lp1306
I1
a(lp1307
F0.357143
aaI42
aa(lp1308
I1
a(lp1309
F0.333333
aaI45
aa(lp1310
I1
a(lp1311
F0.227273
aaI44
aa(lp1312
I1
a(lp1313
F0.275
aaI40
aa(lp1314
I1
a(lp1315
F0.2
aaI40
aaa(lp1316
S'scaffold3158_cov165'
p1317
aS'scaffold29092_cov411'
p1318
aa(lp1319
S'scaffold23025_cov260'
p1320
aS'scaffold2260_cov157'
p1321
aa(lp1322
S'scaffold9518_cov247'
p1323
aS'scaffold1141_cov217'
p1324
a(lp1325
I1
a(lp1326
F0.25
aaI24
aa(lp1327
I1
a(lp1328
F0.257143
aaI35
aa(lp1329
I1
a(lp1330
F0.27027
aaI37
aa(lp1331
I1
a(lp1332
F0.357143
aaI42
aa(lp1333
I1
a(lp1334
F0.414634
aaI41
aa(lp1335
I1
a(lp1336
F0.285714
aaI28
aa(lp1337
I1
a(lp1338
F0.367347
aaI49
aaa(lp1339
S'scaffold11665_cov274'
p1340
aS'scaffold4220_cov209'
p1341
a(lp1342
I1
a(lp1343
F0.28
aaI25
aa(lp1344
I1
a(lp1345
F0.25
aaI20
aa(lp1346
I1
a(lp1347
F0.25
aaI20
aa(lp1348
I1
a(lp1349
F0.2
aaI35
aa(lp1350
I1
a(lp1351
F0.258065
aaI31
aa(lp1352
I1
a(lp1353
F0.25
aaI32
aa(lp1354
I1
a(lp1355
F0.363636
aaI55
aaa(lp1356
S'scaffold50233_cov936'
p1357
aS'scaffold4673_cov163'
p1358
aa(lp1359
S'scaffold11990_cov204'
p1360
aS'scaffold15595_cov207'
p1361
aa(lp1362
S'scaffold52004_cov305'
p1363
aS'scaffold11324_cov225'
p1364
a(lp1365
I1
a(lp1366
F0.310345
aaI29
aa(lp1367
I1
a(lp1368
F0.296296
aaI27
aaa(lp1369
S'scaffold11923_cov205'
p1370
aS'scaffold34893_cov219'
p1371
a(lp1372
I1
a(lp1373
F0.333333
aaI6
aaa(lp1374
S'scaffold9550_cov156'
p1375
aS'scaffold3486_cov238'
p1376
aa(lp1377
S'scaffold7307_cov224'
p1378
aS'scaffold13758_cov189'
p1379
a(lp1380
I1
a(lp1381
F0.361111
aaI36
aa(lp1382
I1
a(lp1383
F0.30303
aaI33
aa(lp1384
I1
a(lp1385
F0.347826
aaI23
aa(lp1386
I1
a(lp1387
F0.4
aaI20
aa(lp1388
I1
a(lp1389
F0.0
aaI77
aaa(lp1390
S'scaffold21751_cov240'
p1391
aS'scaffold11481_cov169'
p1392
a(lp1393
I1
a(lp1394
F0.275862
aaI29
aa(lp1395
I1
a(lp1396
F0.333333
aaI21
aa(lp1397
I1
a(lp1398
F0.36
aaI25
aa(lp1399
I1
a(lp1400
F0.375
aaI24
aa(lp1401
I1
a(lp1402
F0.24
aaI25
aa(lp1403
I1
a(lp1404
F0.241379
aaI29
aa(lp1405
I1
a(lp1406
F0.208333
aaI24
aa(lp1407
I1
a(lp1408
F0.230769
aaI26
aa(lp1409
I1
a(lp1410
F0.314286
aaI35
aa(lp1411
I1
a(lp1412
F0.3125
aaI32
aa(lp1413
I1
a(lp1414
F0.36
aaI25
aa(lp1415
I1
a(lp1416
F0.347826
aaI23
aa(lp1417
I1
a(lp1418
F0.318182
aaI22
aa(lp1419
I1
a(lp1420
F0.347826
aaI23
aa(lp1421
I1
a(lp1422
F0.272727
aaI22
aa(lp1423
I1
a(lp1424
F0.32
aaI25
aa(lp1425
I1
a(lp1426
F0.5
aaI30
aa(lp1427
I1
a(lp1428
F0.36
aaI25
aa(lp1429
I1
a(lp1430
F0.344828
aaI29
aa(lp1431
I1
a(lp1432
F0.321429
aaI28
aa(lp1433
I1
a(lp1434
F0.333333
aaI27
aa(lp1435
I1
a(lp1436
F0.448276
aaI29
aa(lp1437
I1
a(lp1438
F0.333333
aaI33
aa(lp1439
I1
a(lp1440
F0.206897
aaI29
aa(lp1441
I1
a(lp1442
F0.206897
aaI29
aa(lp1443
I1
a(lp1444
F0.304348
aaI23
aa(lp1445
I1
a(lp1446
F0.25
aaI20
aa(lp1447
I1
a(lp1448
F0.210526
aaI19
aa(lp1449
I1
a(lp1450
F0.222222
aaI18
aa(lp1451
I1
a(lp1452
F0.2
aaI15
aa(lp1453
I1
a(lp1454
F0.37037
aaI27
aa(lp1455
I1
a(lp1456
F0.488889
aaI45
aa(lp1457
I1
a(lp1458
F0.463415
aaI41
aa(lp1459
I1
a(lp1460
F0.333333
aaI24
aaa(lp1461
S'scaffold2251_cov300'
p1462
aS'scaffold5494_cov202'
p1463
a(lp1464
I1
a(lp1465
F0.490196
aaI51
aa(lp1466
I1
a(lp1467
F0.241379
aaI29
aa(lp1468
I1
a(lp1469
F0.216216
aaI37
aa(lp1470
I1
a(lp1471
F0.25
aaI32
aa(lp1472
I1
a(lp1473
F0.222222
aaI36
aa(lp1474
I1
a(lp1475
F0.272727
aaI33
aa(lp1476
I1
a(lp1477
F0.580645
aaI31
aa(lp1478
I1
a(lp1479
F0.5625
aaI32
aaa(lp1480
S'scaffold10174_cov324'
p1481
aS'scaffold10173_cov150'
p1482
aa(lp1483
S'scaffold13712_cov247'
p1484
aS'scaffold3898_cov165'
p1485
a(lp1486
I1
a(lp1487
F0.25
aaI20
aa(lp1488
I1
a(lp1489
F0.238095
aaI21
aa(lp1490
I1
a(lp1491
F0.2
aaI20
aa(lp1492
I1
a(lp1493
F0.266667
aaI30
aaa(lp1494
S'scaffold3444_cov244'
p1495
aS'scaffold2301_cov209'
p1496
a(lp1497
I1
a(lp1498
F0.428571
aaI21
aa(lp1499
I1
a(lp1500
F0.333333
aaI36
aa(lp1501
I1
a(lp1502
F0.30303
aaI33
aa(lp1503
I1
a(lp1504
F0.3125
aaI32
aa(lp1505
I1
a(lp1506
F0.266667
aaI30
aa(lp1507
I1
a(lp1508
F0.294118
aaI51
aa(lp1509
I1
a(lp1510
F0.325581
aaI43
aa(lp1511
I1
a(lp1512
F0.258065
aaI31
aaa(lp1513
S'scaffold1073_cov267'
p1514
aS'scaffold11614_cov255'
p1515
a(lp1516
I1
a(lp1517
F0.264706
aaI34
aa(lp1518
I1
a(lp1519
F0.258065
aaI31
aa(lp1520
I1
a(lp1521
F0.275862
aaI29
aa(lp1522
I1
a(lp1523
F0.290323
aaI31
aa(lp1524
I1
a(lp1525
F0.272727
aaI33
aa(lp1526
I1
a(lp1527
F0.290323
aaI31
aa(lp1528
I1
a(lp1529
F0.266667
aaI30
aa(lp1530
I1
a(lp1531
F0.567568
aaI37
aa(lp1532
I1
a(lp1533
F0.538462
aaI26
aa(lp1534
I1
a(lp1535
F0.230769
aaI13
aa(lp1536
I1
a(lp1537
F0.244444
aaI45
aa(lp1538
I1
a(lp1539
F0.45
aaI60
aaa(lp1540
S'scaffold205_cov231'
p1541
aS'scaffold1655_cov200'
p1542
a(lp1543
I1
a(lp1544
F0.228571
aaI35
aa(lp1545
I1
a(lp1546
F0.269231
aaI26
aaa(lp1547
S'scaffold743_cov228'
p1548
aS'scaffold1746_cov212'
p1549
a(lp1550
I1
a(lp1551
F0.2
aaI20
aa(lp1552
I1
a(lp1553
F0.264706
aaI34
aa(lp1554
I1
a(lp1555
F0.323529
aaI34
aa(lp1556
I1
a(lp1557
F0.266667
aaI30
aa(lp1558
I1
a(lp1559
F0.21875
aaI32
aa(lp1560
I1
a(lp1561
F0.233333
aaI30
aa(lp1562
I1
a(lp1563
F0.2
aaI30
aa(lp1564
I1
a(lp1565
F0.230769
aaI26
aa(lp1566
I1
a(lp1567
F0.214286
aaI28
aa(lp1568
I1
a(lp1569
F0.222222
aaI27
aa(lp1570
I1
a(lp1571
F0.222222
aaI18
aa(lp1572
I1
a(lp1573
F0.217391
aaI23
aa(lp1574
I1
a(lp1575
F0.416667
aaI24
aa(lp1576
I1
a(lp1577
F0.241379
aaI29
aa(lp1578
I1
a(lp1579
F0.241379
aaI29
aa(lp1580
I1
a(lp1581
F0.25
aaI28
aa(lp1582
I1
a(lp1583
F0.266667
aaI45
aa(lp1584
I1
a(lp1585
F0.23913
aaI46
aa(lp1586
I1
a(lp1587
F0.234043
aaI47
aa(lp1588
I1
a(lp1589
F0.255814
aaI43
aa(lp1590
I1
a(lp1591
F0.28
aaI25
aa(lp1592
I1
a(lp1593
F0.291667
aaI24
aa(lp1594
I1
a(lp1595
F0.269231
aaI26
aa(lp1596
I1
a(lp1597
F0.25
aaI28
aa(lp1598
I1
a(lp1599
F0.25
aaI28
aa(lp1600
I1
a(lp1601
F0.304348
aaI23
aa(lp1602
I1
a(lp1603
F0.408163
aaI49
aa(lp1604
I1
a(lp1605
F0.234043
aaI47
aa(lp1606
I1
a(lp1607
F0.434783
aaI46
aa(lp1608
I1
a(lp1609
F0.65625
aaI128
aa(lp1610
I1
a(lp1611
F0.238636
aaI88
aaa(lp1612
S'scaffold4466_cov187'
p1613
aS'scaffold2115_cov223'
p1614
a(lp1615
I1
a(lp1616
F0.258065
aaI31
aa(lp1617
I1
a(lp1618
F0.354839
aaI31
aa(lp1619
I1
a(lp1620
F0.347826
aaI23
aaa(lp1621
S'scaffold2376_cov165'
p1622
aS'scaffold12547_cov300'
p1623
aa(lp1624
S'scaffold34780_cov223'
p1625
aS'scaffold2666_cov188'
p1626
aa(lp1627
S'scaffold7855_cov227'
p1628
aS'scaffold642_cov217'
p1629
a(lp1630
I1
a(lp1631
F0.346154
aaI26
aa(lp1632
I1
a(lp1633
F0.488372
aaI43
aa(lp1634
I1
a(lp1635
F0.2
aaI20
aa(lp1636
I1
a(lp1637
F0.25
aaI28
aa(lp1638
I1
a(lp1639
F0.56
aaI25
aa(lp1640
I1
a(lp1641
F0.531915
aaI47
aa(lp1642
I1
a(lp1643
F0.322581
aaI31
aa(lp1644
I1
a(lp1645
F0.375
aaI24
aa(lp1646
I1
a(lp1647
F0.35
aaI20
aa(lp1648
I1
a(lp1649
F0.411765
aaI17
aa(lp1650
I1
a(lp1651
F0.565217
aaI23
aa(lp1652
I1
a(lp1653
F0.25
aaI12
aaa(lp1654
S'scaffold2395_cov243'
p1655
aS'scaffold3285_cov233'
p1656
a(lp1657
I1
a(lp1658
F0.238095
aaI42
aa(lp1659
I1
a(lp1660
F0.257143
aaI35
aa(lp1661
I1
a(lp1662
F0.477273
aaI44
aa(lp1663
I1
a(lp1664
F0.210526
aaI19
aa(lp1665
I1
a(lp1666
F0.357143
aaI28
aa(lp1667
I1
a(lp1668
F0.321429
aaI28
aa(lp1669
I1
a(lp1670
F0.5
aaI44
aaa(lp1671
S'scaffold6112_cov148'
p1672
aS'scaffold19797_cov164'
p1673
aa(lp1674
S'scaffold534_cov297'
p1675
aS'scaffold532_cov244'
p1676
aa(lp1677
S'scaffold7912_cov254'
p1678
aS'scaffold22036_cov148'
p1679
aa(lp1680
S'scaffold5249_cov206'
p1681
aS'scaffold4631_cov169'
p1682
a(lp1683
I1
a(lp1684
F0.481481
aaI27
aa(lp1685
I1
a(lp1686
F0.291667
aaI24
aa(lp1687
I1
a(lp1688
F0.304348
aaI23
aa(lp1689
I1
a(lp1690
F0.586957
aaI46
aa(lp1691
I1
a(lp1692
F0.54902
aaI51
aa(lp1693
I1
a(lp1694
F0.461538
aaI52
aa(lp1695
I1
a(lp1696
F0.206897
aaI29
aa(lp1697
I1
a(lp1698
F0.216216
aaI37
aa(lp1699
I1
a(lp1700
F0.2
aaI30
aa(lp1701
I1
a(lp1702
F0.48
aaI50
aa(lp1703
I1
a(lp1704
F0.441176
aaI34
aa(lp1705
I1
a(lp1706
F0.483871
aaI31
aa(lp1707
I1
a(lp1708
F0.384615
aaI26
aaa(lp1709
S'scaffold40802_cov284'
p1710
aS'scaffold30714_cov262'
p1711
aa(lp1712
S'scaffold3410_cov258'
p1713
aS'scaffold11329_cov238'
p1714
a(lp1715
I1
a(lp1716
F0.393939
aaI33
aa(lp1717
I1
a(lp1718
F0.307692
aaI26
aa(lp1719
I1
a(lp1720
F0.475
aaI40
aa(lp1721
I1
a(lp1722
F0.536585
aaI41
aa(lp1723
I1
a(lp1724
F0.465116
aaI43
aa(lp1725
I1
a(lp1726
F0.517241
aaI29
aa(lp1727
I1
a(lp1728
F0.517241
aaI29
aa(lp1729
I1
a(lp1730
F0.52
aaI25
aa(lp1731
I1
a(lp1732
F0.5
aaI34
aa(lp1733
I1
a(lp1734
F0.428571
aaI28
aa(lp1735
I1
a(lp1736
F0.428571
aaI28
aa(lp1737
I1
a(lp1738
F0.375
aaI24
aa(lp1739
I1
a(lp1740
F0.434783
aaI23
aa(lp1741
I1
a(lp1742
F0.40625
aaI32
aa(lp1743
I1
a(lp1744
F0.363636
aaI33
aa(lp1745
I1
a(lp1746
F0.375
aaI32
aa(lp1747
I1
a(lp1748
F0.439024
aaI41
aaa(lp1749
S'scaffold6504_cov303'
p1750
aS'scaffold32879_cov158'
p1751
aa(lp1752
S'scaffold1636_cov295'
p1753
aS'scaffold1637_cov206'
p1754
a(lp1755
I1
a(lp1756
F0.368421
aaI38
aa(lp1757
I1
a(lp1758
F0.333333
aaI27
aa(lp1759
I1
a(lp1760
F0.28
aaI25
aa(lp1761
I1
a(lp1762
F0.26087
aaI23
aa(lp1763
I1
a(lp1764
F0.272727
aaI22
aa(lp1765
I1
a(lp1766
F0.291667
aaI24
aa(lp1767
I1
a(lp1768
F0.2
aaI10
aa(lp1769
I1
a(lp1770
F0.263158
aaI38
aa(lp1771
I1
a(lp1772
F0.205882
aaI34
aa(lp1773
I1
a(lp1774
F0.242424
aaI33
aa(lp1775
I1
a(lp1776
F0.277778
aaI18
aa(lp1777
I1
a(lp1778
F0.277778
aaI18
aaa(lp1779
S'scaffold17188_cov256'
p1780
aS'scaffold6575_cov192'
p1781
a(lp1782
I1
a(lp1783
F0.363636
aaI22
aa(lp1784
I1
a(lp1785
F0.484848
aaI33
aa(lp1786
I1
a(lp1787
F0.466667
aaI30
aa(lp1788
I1
a(lp1789
F0.317073
aaI41
aa(lp1790
I1
a(lp1791
F0.309524
aaI42
aa(lp1792
I1
a(lp1793
F0.25
aaI32
aa(lp1794
I1
a(lp1795
F0.206897
aaI29
aa(lp1796
I1
a(lp1797
F0.241379
aaI29
aa(lp1798
I1
a(lp1799
F0.0
aaI27
aa(lp1800
I1
a(lp1801
F0.214286
aaI28
aa(lp1802
I1
a(lp1803
F0.2
aaI30
aa(lp1804
I1
a(lp1805
F0.25
aaI32
aa(lp1806
I1
a(lp1807
F0.266667
aaI30
aa(lp1808
I1
a(lp1809
F0.322581
aaI31
aa(lp1810
I1
a(lp1811
F0.214286
aaI28
aa(lp1812
I1
a(lp1813
F0.230769
aaI26
aaa(lp1814
S'scaffold13565_cov263'
p1815
aS'scaffold25159_cov143'
p1816
aa(lp1817
S'scaffold1134_cov233'
p1818
aS'scaffold9743_cov237'
p1819
aa(lp1820
S'scaffold2939_cov159'
p1821
aS'scaffold22748_cov150'
p1822
aa(lp1823
S'scaffold16898_cov268'
p1824
aS'scaffold42181_cov294'
p1825
aa(lp1826
S'scaffold19777_cov232'
p1827
aS'scaffold4838_cov202'
p1828
aa(lp1829
S'scaffold21079_cov185'
p1830
aS'scaffold34580_cov232'
p1831
aa(lp1832
S'scaffold11307_cov229'
p1833
aS'scaffold6551_cov161'
p1834
a(lp1835
I1
a(lp1836
F0.3
aaI20
aaa(lp1837
S'scaffold34240_cov291'
p1838
aS'scaffold6227_cov210'
p1839
a(lp1840
I1
a(lp1841
F0.514286
aaI35
aa(lp1842
I1
a(lp1843
F0.40625
aaI32
aaa(lp1844
S'scaffold1520_cov232'
p1845
aS'scaffold5829_cov226'
p1846
a(lp1847
I1
a(lp1848
F0.333333
aaI39
aa(lp1849
I1
a(lp1850
F0.358974
aaI39
aa(lp1851
I1
a(lp1852
F0.425
aaI40
aaa(lp1853
S'scaffold7998_cov239'
p1854
aS'scaffold34786_cov228'
p1855
a(lp1856
I1
a(lp1857
F0.568182
aaI44
aa(lp1858
I1
a(lp1859
F0.285714
aaI49
aa(lp1860
I1
a(lp1861
F0.269231
aaI26
aa(lp1862
I1
a(lp1863
F0.2
aaI25
aa(lp1864
I1
a(lp1865
F0.371429
aaI35
aa(lp1866
I1
a(lp1867
F0.413043
aaI46
aa(lp1868
I1
a(lp1869
F0.411765
aaI34
aa(lp1870
I1
a(lp1871
F0.3125
aaI32
aa(lp1872
I1
a(lp1873
F0.285714
aaI35
aa(lp1874
I1
a(lp1875
F0.228571
aaI35
aa(lp1876
I1
a(lp1877
F0.243243
aaI37
aa(lp1878
I1
a(lp1879
F0.294118
aaI34
aa(lp1880
I1
a(lp1881
F0.307692
aaI26
aaa(lp1882
S'scaffold2764_cov248'
p1883
aS'scaffold35902_cov179'
p1884
a(lp1885
I1
a(lp1886
F0.4
aaI25
aa(lp1887
I1
a(lp1888
F0.241379
aaI29
aa(lp1889
I1
a(lp1890
F0.366667
aaI30
aa(lp1891
I1
a(lp1892
F0.272727
aaI33
aaa(lp1893
S'scaffold5560_cov257'
p1894
aS'scaffold8732_cov275'
p1895
a(lp1896
I1
a(lp1897
F0.659574
aaI47
aa(lp1898
I1
a(lp1899
F0.488372
aaI43
aa(lp1900
I1
a(lp1901
F0.461538
aaI39
aaa(lp1902
S'scaffold2730_cov266'
p1903
aS'scaffold3415_cov306'
p1904
a(lp1905
I1
a(lp1906
F0.323529
aaI34
aa(lp1907
I1
a(lp1908
F0.354839
aaI31
aa(lp1909
I1
a(lp1910
F0.322581
aaI31
aa(lp1911
I1
a(lp1912
F0.296296
aaI27
aa(lp1913
I1
a(lp1914
F0.24
aaI25
aa(lp1915
I1
a(lp1916
F0.242424
aaI33
aa(lp1917
I1
a(lp1918
F0.264706
aaI34
aa(lp1919
I1
a(lp1920
F0.27027
aaI37
aa(lp1921
I1
a(lp1922
F0.342857
aaI35
aa(lp1923
I1
a(lp1924
F0.447368
aaI38
aa(lp1925
I1
a(lp1926
F0.390244
aaI41
aa(lp1927
I1
a(lp1928
F0.512195
aaI41
aa(lp1929
I1
a(lp1930
F0.475
aaI40
aa(lp1931
I1
a(lp1932
F0.243243
aaI37
aa(lp1933
I1
a(lp1934
F0.25
aaI36
aa(lp1935
I1
a(lp1936
F0.289474
aaI38
aa(lp1937
I1
a(lp1938
F0.457143
aaI35
aa(lp1939
I1
a(lp1940
F0.222222
aaI27
aa(lp1941
I1
a(lp1942
F0.452381
aaI42
aaa(lp1943
S'scaffold5533_cov227'
p1944
aS'scaffold10988_cov149'
p1945
aa(lp1946
S'scaffold34993_cov283'
p1947
aS'scaffold2688_cov189'
p1948
a(lp1949
I1
a(lp1950
F0.0
aaI20
aa(lp1951
I1
a(lp1952
F0.264706
aaI34
aa(lp1953
I1
a(lp1954
F0.235294
aaI34
aaa(lp1955
S'scaffold2015_cov427'
p1956
aS'scaffold843_cov157'
p1957
aa(lp1958
S'scaffold16937_cov241'
p1959
aS'scaffold1798_cov239'
p1960
aa(lp1961
S'scaffold2018_cov229'
p1962
aS'scaffold3622_cov247'
p1963
a(lp1964
I1
a(lp1965
F0.462963
aaI54
aa(lp1966
I1
a(lp1967
F0.310345
aaI29
aa(lp1968
I1
a(lp1969
F0.52381
aaI42
aa(lp1970
I1
a(lp1971
F0.564103
aaI39
aa(lp1972
I1
a(lp1973
F0.552632
aaI38
aaa(lp1974
S'scaffold48640_cov294'
p1975
aS'scaffold10308_cov219'
p1976
aa(lp1977
S'scaffold3282_cov224'
p1978
aS'scaffold35925_cov172'
p1979
a(lp1980
I1
a(lp1981
F0.2
aaI30
aa(lp1982
I1
a(lp1983
F0.206897
aaI29
aa(lp1984
I1
a(lp1985
F0.36
aaI25
aa(lp1986
I1
a(lp1987
F0.387097
aaI31
aa(lp1988
I1
a(lp1989
F0.363636
aaI33
aa(lp1990
I1
a(lp1991
F0.257143
aaI35
aa(lp1992
I1
a(lp1993
F0.4
aaI30
aa(lp1994
I1
a(lp1995
F0.535714
aaI28
aa(lp1996
I1
a(lp1997
F0.444444
aaI27
aa(lp1998
I1
a(lp1999
F0.461538
aaI26
aa(lp2000
I1
a(lp2001
F0.28
aaI25
aa(lp2002
I1
a(lp2003
F0.25
aaI60
aa(lp2004
I1
a(lp2005
F0.354839
aaI31
aaa(lp2006
S'scaffold5495_cov293'
p2007
aS'scaffold42388_cov305'
p2008
aa(lp2009
S'scaffold2836_cov225'
p2010
aS'scaffold4074_cov180'
p2011
a(lp2012
I1
a(lp2013
F0.36
aaI25
aa(lp2014
I1
a(lp2015
F0.333333
aaI36
aa(lp2016
I1
a(lp2017
F0.3
aaI30
aa(lp2018
I1
a(lp2019
F0.275862
aaI29
aa(lp2020
I1
a(lp2021
F0.230769
aaI26
aa(lp2022
I1
a(lp2023
F0.28
aaI25
aa(lp2024
I1
a(lp2025
F0.392857
aaI28
aa(lp2026
I1
a(lp2027
F0.259259
aaI27
aa(lp2028
I1
a(lp2029
F0.269231
aaI26
aa(lp2030
I1
a(lp2031
F0.333333
aaI24
aa(lp2032
I1
a(lp2033
F0.384615
aaI26
aa(lp2034
I1
a(lp2035
F0.277778
aaI18
aa(lp2036
I1
a(lp2037
F0.333333
aaI6
aa(lp2038
I1
a(lp2039
F0.0
aaI8
aa(lp2040
I1
a(lp2041
F0.3
aaI10
aa(lp2042
I1
a(lp2043
F0.307692
aaI13
aaa(lp2044
S'scaffold8201_cov210'
p2045
aS'scaffold487_cov180'
p2046
a(lp2047
I1
a(lp2048
F0.25641
aaI39
aa(lp2049
I1
a(lp2050
F0.228571
aaI35
aa(lp2051
I1
a(lp2052
F0.259259
aaI27
aaa(lp2053
S'scaffold8280_cov208'
p2054
aS'scaffold18434_cov227'
p2055
a(lp2056
I1
a(lp2057
F0.859375
aaI128
aaa(lp2058
S'scaffold8291_cov270'
p2059
aS'scaffold6880_cov163'
p2060
aa(lp2061
S'scaffold5242_cov262'
p2062
aS'scaffold35822_cov215'
p2063
a(lp2064
I1
a(lp2065
F0.459459
aaI37
aa(lp2066
I1
a(lp2067
F0.369565
aaI46
aa(lp2068
I1
a(lp2069
F0.2
aaI35
aa(lp2070
I1
a(lp2071
F0.2
aaI35
aa(lp2072
I1
a(lp2073
F0.27027
aaI37
aa(lp2074
I1
a(lp2075
F0.225806
aaI31
aa(lp2076
I1
a(lp2077
F0.428571
aaI63
aaa(lp2078
S'scaffold979_cov154'
p2079
aS'scaffold978_cov183'
p2080
a(lp2081
I1
a(lp2082
F0.0
aaI20
aaa(lp2083
S'scaffold34455_cov418'
p2084
aS'scaffold34968_cov196'
p2085
a(lp2086
I1
a(lp2087
F0.264706
aaI34
aa(lp2088
I1
a(lp2089
F0.382979
aaI47
aa(lp2090
I1
a(lp2091
F0.288462
aaI104
aa(lp2092
I1
a(lp2093
F0.207547
aaI53
aaa(lp2094
S'scaffold7259_cov286'
p2095
aS'scaffold1969_cov172'
p2096
a(lp2097
I1
a(lp2098
F0.0
aaI3
aa(lp2099
I1
a(lp2100
F0.0
aaI4
aa(lp2101
I1
a(lp2102
F0.0
aaI14
aa(lp2103
I1
a(lp2104
F0.272727
aaI33
aaa(lp2105
S'scaffold585_cov234'
p2106
aS'scaffold44578_cov315'
p2107
aa(lp2108
S'scaffold16517_cov275'
p2109
aS'scaffold1106_cov224'
p2110
a(lp2111
I1
a(lp2112
F0.428571
aaI28
aa(lp2113
I1
a(lp2114
F0.37037
aaI27
aa(lp2115
I1
a(lp2116
F0.291667
aaI24
aa(lp2117
I1
a(lp2118
F0.6
aaI15
aa(lp2119
I1
a(lp2120
F0.266667
aaI30
aa(lp2121
I1
a(lp2122
F0.26087
aaI23
aa(lp2123
I1
a(lp2124
F0.25
aaI16
aa(lp2125
I1
a(lp2126
F0.25
aaI24
aa(lp2127
I1
a(lp2128
F0.214286
aaI28
aa(lp2129
I1
a(lp2130
F0.214286
aaI28
aa(lp2131
I1
a(lp2132
F0.225806
aaI31
aa(lp2133
I1
a(lp2134
F0.65
aaI20
aa(lp2135
I1
a(lp2136
F0.222222
aaI9
aa(lp2137
I1
a(lp2138
F0.481481
aaI54
aa(lp2139
I1
a(lp2140
F0.413793
aaI29
aa(lp2141
I1
a(lp2142
F0.263158
aaI38
aa(lp2143
I1
a(lp2144
F0.230769
aaI26
aaa(lp2145
S'scaffold6196_cov437'
p2146
aS'scaffold343_cov157'
p2147
a(lp2148
I1
a(lp2149
F0.622222
aaI45
aa(lp2150
I1
a(lp2151
F0.541667
aaI24
aa(lp2152
I1
a(lp2153
F0.366667
aaI30
aa(lp2154
I1
a(lp2155
F0.375
aaI32
aa(lp2156
I1
a(lp2157
F0.619718
aaI71
aa(lp2158
I1
a(lp2159
F0.25
aaI28
aa(lp2160
I1
a(lp2161
F0.230769
aaI26
aa(lp2162
I1
a(lp2163
F0.24
aaI25
aa(lp2164
I1
a(lp2165
F0.541667
aaI48
aa(lp2166
I1
a(lp2167
F0.25
aaI28
aa(lp2168
I1
a(lp2169
F0.384615
aaI26
aa(lp2170
I1
a(lp2171
F0.205882
aaI34
aa(lp2172
I1
a(lp2173
F0.674603
aaI126
aa(lp2174
I1
a(lp2175
F0.294118
aaI34
aaa(lp2176
S'scaffold1559_cov231'
p2177
aS'scaffold204_cov205'
p2178
a(lp2179
I1
a(lp2180
F0.414634
aaI41
aa(lp2181
I1
a(lp2182
F0.44898
aaI49
aa(lp2183
I1
a(lp2184
F0.222222
aaI18
aa(lp2185
I1
a(lp2186
F0.5
aaI4
aaa(lp2187
S'scaffold33716_cov277'
p2188
aS'scaffold58_cov215'
p2189
a(lp2190
I1
a(lp2191
F0.439024
aaI41
aa(lp2192
I1
a(lp2193
F0.333333
aaI27
aa(lp2194
I1
a(lp2195
F0.333333
aaI27
aa(lp2196
I1
a(lp2197
F0.416667
aaI36
aaa(lp2198
S'scaffold7038_cov214'
p2199
aS'scaffold3562_cov182'
p2200
a(lp2201
I1
a(lp2202
F0.290323
aaI31
aaa(lp2203
S'scaffold6911_cov202'
p2204
aS'scaffold4867_cov158'
p2205
aa(lp2206
S'scaffold4451_cov223'
p2207
aS'scaffold53889_cov315'
p2208
aa(lp2209
S'scaffold36011_cov302'
p2210
aS'scaffold40654_cov315'
p2211
aa(lp2212
S'scaffold9574_cov228'
p2213
aS'scaffold2246_cov240'
p2214
a(lp2215
I1
a(lp2216
F0.3
aaI60
aa(lp2217
I1
a(lp2218
F0.30303
aaI33
aa(lp2219
I1
a(lp2220
F0.333333
aaI24
aa(lp2221
I1
a(lp2222
F0.243243
aaI37
aa(lp2223
I1
a(lp2224
F0.243243
aaI37
aa(lp2225
I1
a(lp2226
F0.236842
aaI38
aa(lp2227
I1
a(lp2228
F0.243902
aaI41
aa(lp2229
I1
a(lp2230
F0.512821
aaI39
aa(lp2231
I1
a(lp2232
F0.525
aaI40
aa(lp2233
I1
a(lp2234
F0.290909
aaI55
aa(lp2235
I1
a(lp2236
F0.596154
aaI52
aa(lp2237
I1
a(lp2238
F0.412698
aaI63
aa(lp2239
I1
a(lp2240
F0.2
aaI25
aa(lp2241
I1
a(lp2242
F0.428571
aaI56
aa(lp2243
I1
a(lp2244
F0.307692
aaI39
aa(lp2245
I1
a(lp2246
F0.315789
aaI38
aa(lp2247
I1
a(lp2248
F0.404762
aaI42
aa(lp2249
I1
a(lp2250
F0.62
aaI50
aaa(lp2251
S'scaffold3194_cov316'
p2252
aS'scaffold12171_cov160'
p2253
aa(lp2254
S'scaffold2328_cov197'
p2255
aS'scaffold8399_cov190'
p2256
aa(lp2257
S'scaffold5502_cov291'
p2258
aS'scaffold7790_cov228'
p2259
a(lp2260
I1
a(lp2261
F0.447368
aaI38
aa(lp2262
I1
a(lp2263
F0.0
aaI25
aa(lp2264
I1
a(lp2265
F0.208333
aaI24
aa(lp2266
I1
a(lp2267
F0.2
aaI25
aa(lp2268
I1
a(lp2269
F0.266667
aaI30
aa(lp2270
I1
a(lp2271
F0.411765
aaI17
aa(lp2272
I1
a(lp2273
F0.411765
aaI17
aa(lp2274
I1
a(lp2275
F0.28125
aaI32
aa(lp2276
I1
a(lp2277
F0.5
aaI30
aa(lp2278
I1
a(lp2279
F0.452381
aaI42
aa(lp2280
I1
a(lp2281
F0.55814
aaI43
aaa(lp2282
S'scaffold7912_cov254'
p2283
aS'scaffold38603_cov305'
p2284
aa(lp2285
S'scaffold30714_cov262'
p2286
aS'scaffold3621_cov266'
p2287
aa(lp2288
S'scaffold1041_cov212'
p2289
aS'scaffold6560_cov168'
p2290
a(lp2291
I1
a(lp2292
F0.322581
aaI31
aa(lp2293
I1
a(lp2294
F0.269231
aaI26
aaa(lp2295
S'scaffold25510_cov231'
p2296
aS'scaffold8365_cov240'
p2297
a(lp2298
I1
a(lp2299
F0.2
aaI25
aa(lp2300
I1
a(lp2301
F0.241379
aaI29
aa(lp2302
I1
a(lp2303
F0.241379
aaI29
aaa(lp2304
S'scaffold34854_cov183'
p2305
aS'scaffold10029_cov156'
p2306
a(lp2307
I1
a(lp2308
F0.522222
aaI90
aa(lp2309
I1
a(lp2310
F0.225806
aaI31
aa(lp2311
I1
a(lp2312
F0.395349
aaI43
aa(lp2313
I1
a(lp2314
F0.227273
aaI22
aaa(lp2315
S'scaffold28262_cov431'
p2316
aS'scaffold343_cov157'
p2317
aa(lp2318
S'scaffold4790_cov191'
p2319
aS'scaffold33895_cov180'
p2320
a(lp2321
I1
a(lp2322
F0.25
aaI24
aaa(lp2323
S'scaffold3824_cov240'
p2324
aS'scaffold5144_cov205'
p2325
aa(lp2326
S'scaffold8081_cov244'
p2327
aS'scaffold34811_cov176'
p2328
a(lp2329
I1
a(lp2330
F0.422222
aaI45
aa(lp2331
I1
a(lp2332
F0.208333
aaI24
aa(lp2333
I1
a(lp2334
F0.2
aaI30
aa(lp2335
I1
a(lp2336
F0.2
aaI30
aa(lp2337
I1
a(lp2338
F0.228571
aaI35
aa(lp2339
I1
a(lp2340
F0.581395
aaI43
aa(lp2341
I1
a(lp2342
F0.520833
aaI48
aa(lp2343
I1
a(lp2344
F0.46
aaI50
aa(lp2345
I1
a(lp2346
F0.431818
aaI44
aaa(lp2347
S'scaffold10_cov225'
p2348
aS'scaffold2901_cov252'
p2349
a(lp2350
I1
a(lp2351
F0.236842
aaI38
aa(lp2352
I1
a(lp2353
F0.456522
aaI46
aa(lp2354
I1
a(lp2355
F0.324324
aaI37
aaa(lp2356
S'scaffold3590_cov237'
p2357
aS'scaffold34183_cov209'
p2358
a(lp2359
I1
a(lp2360
F0.310345
aaI29
aa(lp2361
I1
a(lp2362
F0.0
aaI25
aaa(lp2363
S'scaffold6964_cov214'
p2364
aS'scaffold1655_cov200'
p2365
a(lp2366
I1
a(lp2367
F0.414634
aaI41
aaa(lp2368
S'scaffold6177_cov155'
p2369
aS'scaffold33647_cov137'
p2370
aa(lp2371
S'scaffold41363_cov389'
p2372
aS'scaffold3342_cov163'
p2373
aa(lp2374
S'scaffold5058_cov197'
p2375
aS'scaffold4464_cov185'
p2376
a(lp2377
I1
a(lp2378
F0.486486
aaI37
aa(lp2379
I1
a(lp2380
F0.235294
aaI34
aa(lp2381
I1
a(lp2382
F0.259259
aaI27
aa(lp2383
I1
a(lp2384
F0.263158
aaI19
aa(lp2385
I1
a(lp2386
F0.222222
aaI18
aaa(lp2387
S'scaffold35824_cov247'
p2388
aS'scaffold3010_cov208'
p2389
a(lp2390
I1
a(lp2391
F0.545455
aaI44
aa(lp2392
I1
a(lp2393
F0.465116
aaI43
aa(lp2394
I1
a(lp2395
F0.47619
aaI42
aa(lp2396
I1
a(lp2397
F0.44
aaI25
aa(lp2398
I1
a(lp2399
F0.44
aaI25
aa(lp2400
I1
a(lp2401
F0.416667
aaI24
aa(lp2402
I1
a(lp2403
F0.392857
aaI28
aa(lp2404
I1
a(lp2405
F0.518519
aaI27
aa(lp2406
I1
a(lp2407
F0.344828
aaI29
aa(lp2408
I1
a(lp2409
F0.37931
aaI29
aa(lp2410
I1
a(lp2411
F0.366667
aaI30
aa(lp2412
I1
a(lp2413
F0.304348
aaI23
aa(lp2414
I1
a(lp2415
F0.375
aaI24
aa(lp2416
I1
a(lp2417
F0.296296
aaI27
aa(lp2418
I1
a(lp2419
F0.3
aaI30
aa(lp2420
I1
a(lp2421
F0.241379
aaI29
aa(lp2422
I1
a(lp2423
F0.357143
aaI28
aa(lp2424
I1
a(lp2425
F0.210526
aaI38
aa(lp2426
I1
a(lp2427
F0.210526
aaI38
aa(lp2428
I1
a(lp2429
F0.225806
aaI31
aa(lp2430
I1
a(lp2431
F0.368421
aaI38
aa(lp2432
I1
a(lp2433
F0.431818
aaI44
aa(lp2434
I1
a(lp2435
F0.25
aaI32
aa(lp2436
I1
a(lp2437
F0.258065
aaI31
aa(lp2438
I1
a(lp2439
F0.37037
aaI27
aa(lp2440
I1
a(lp2441
F0.4
aaI30
aa(lp2442
I1
a(lp2443
F0.448276
aaI29
aaa(lp2444
S'scaffold3485_cov257'
p2445
aS'scaffold5461_cov213'
p2446
a(lp2447
I1
a(lp2448
F0.266667
aaI30
aa(lp2449
I1
a(lp2450
F0.230769
aaI26
aa(lp2451
I1
a(lp2452
F0.285714
aaI28
aa(lp2453
I1
a(lp2454
F0.377358
aaI53
aa(lp2455
I1
a(lp2456
F0.25
aaI20
aa(lp2457
I1
a(lp2458
F0.25
aaI20
aa(lp2459
I1
a(lp2460
F0.263158
aaI19
aa(lp2461
I1
a(lp2462
F0.485714
aaI35
aa(lp2463
I1
a(lp2464
F0.487179
aaI39
aa(lp2465
I1
a(lp2466
F0.4
aaI40
aa(lp2467
I1
a(lp2468
F0.5
aaI34
aa(lp2469
I1
a(lp2470
F0.428571
aaI28
aa(lp2471
I1
a(lp2472
F0.411765
aaI34
aa(lp2473
I1
a(lp2474
F0.307692
aaI39
aa(lp2475
I1
a(lp2476
F0.216216
aaI37
aa(lp2477
I1
a(lp2478
F0.225
aaI40
aa(lp2479
I1
a(lp2480
F0.243243
aaI37
aa(lp2481
I1
a(lp2482
F0.340909
aaI44
aa(lp2483
I1
a(lp2484
F0.589744
aaI39
aa(lp2485
I1
a(lp2486
F0.205128
aaI39
aa(lp2487
I1
a(lp2488
F0.296296
aaI27
aa(lp2489
I1
a(lp2490
F0.3
aaI30
aa(lp2491
I1
a(lp2492
F0.310345
aaI29
aaa(lp2493
S'scaffold5523_cov227'
p2494
aS'scaffold3428_cov197'
p2495
aa(lp2496
S'scaffold11878_cov196'
p2497
aS'scaffold1436_cov280'
p2498
aa(lp2499
S'scaffold4654_cov204'
p2500
aS'scaffold6978_cov264'
p2501
a(lp2502
I1
a(lp2503
F0.0
aaI8
aa(lp2504
I1
a(lp2505
F0.0
aaI7
aa(lp2506
I1
a(lp2507
F0.0
aaI9
aaa(lp2508
S'scaffold16909_cov171'
p2509
aS'scaffold10939_cov235'
p2510
aa(lp2511
S'scaffold34992_cov298'
p2512
aS'scaffold428_cov197'
p2513
a(lp2514
I1
a(lp2515
F0.333333
aaI36
aa(lp2516
I1
a(lp2517
F0.272727
aaI22
aa(lp2518
I1
a(lp2519
F0.272727
aaI22
aa(lp2520
I1
a(lp2521
F0.28
aaI25
aa(lp2522
I1
a(lp2523
F0.5
aaI46
aa(lp2524
I1
a(lp2525
F0.555556
aaI36
aa(lp2526
I1
a(lp2527
F0.461538
aaI26
aaa(lp2528
S'scaffold5271_cov299'
p2529
aS'scaffold5221_cov193'
p2530
aa(lp2531
S'scaffold5976_cov266'
p2532
aS'scaffold3325_cov214'
p2533
a(lp2534
I1
a(lp2535
F0.358974
aaI39
aa(lp2536
I1
a(lp2537
F0.310345
aaI29
aa(lp2538
I1
a(lp2539
F0.366667
aaI30
aa(lp2540
I1
a(lp2541
F0.45
aaI40
aa(lp2542
I1
a(lp2543
F0.444444
aaI36
aa(lp2544
I1
a(lp2545
F0.378378
aaI37
aa(lp2546
I1
a(lp2547
F0.272727
aaI33
aa(lp2548
I1
a(lp2549
F0.275862
aaI29
aa(lp2550
I1
a(lp2551
F0.3
aaI30
aa(lp2552
I1
a(lp2553
F0.2
aaI25
aaa(lp2554
S'scaffold13364_cov176'
p2555
aS'scaffold13641_cov196'
p2556
a(lp2557
I1
a(lp2558
F0.40625
aaI32
aaa(lp2559
S'scaffold854_cov247'
p2560
aS'scaffold9044_cov264'
p2561
a(lp2562
I1
a(lp2563
F0.315789
aaI38
aa(lp2564
I1
a(lp2565
F0.210526
aaI38
aa(lp2566
I1
a(lp2567
F0.0
aaI6
aa(lp2568
I1
a(lp2569
F0.484848
aaI33
aa(lp2570
I1
a(lp2571
F0.473684
aaI38
aa(lp2572
I1
a(lp2573
F0.538462
aaI39
aa(lp2574
I1
a(lp2575
F0.555556
aaI45
aaa(lp2576
S'scaffold34868_cov282'
p2577
aS'scaffold8469_cov191'
p2578
aa(lp2579
S'scaffold29217_cov317'
p2580
aS'scaffold1412_cov235'
p2581
a(lp2582
I1
a(lp2583
F0.317073
aaI41
aa(lp2584
I1
a(lp2585
F0.3
aaI40
aa(lp2586
I1
a(lp2587
F0.315789
aaI38
aa(lp2588
I1
a(lp2589
F0.305556
aaI36
aa(lp2590
I1
a(lp2591
F0.444444
aaI36
aa(lp2592
I1
a(lp2593
F0.371429
aaI35
aa(lp2594
I1
a(lp2595
F0.342857
aaI35
aaa(lp2596
S'scaffold8573_cov422'
p2597
aS'scaffold5917_cov146'
p2598
aa(lp2599
S'scaffold3680_cov185'
p2600
aS'scaffold10673_cov201'
p2601
a(lp2602
I1
a(lp2603
F0.371429
aaI35
aa(lp2604
I1
a(lp2605
F0.222222
aaI36
aa(lp2606
I1
a(lp2607
F0.28
aaI25
aa(lp2608
I1
a(lp2609
F0.375
aaI32
aa(lp2610
I1
a(lp2611
F0.227273
aaI22
aa(lp2612
I1
a(lp2613
F0.212121
aaI33
aa(lp2614
I1
a(lp2615
F0.294118
aaI34
aa(lp2616
I1
a(lp2617
F0.447368
aaI38
aaa(lp2618
S'scaffold5708_cov422'
p2619
aS'scaffold5917_cov146'
p2620
aa(lp2621
S'scaffold869_cov236'
p2622
aS'scaffold35051_cov180'
p2623
a(lp2624
I1
a(lp2625
F0.21875
aaI32
aa(lp2626
I1
a(lp2627
F0.0
aaI20
aaa(lp2628
S'scaffold5700_cov293'
p2629
aS'scaffold5813_cov245'
p2630
aa(lp2631
S'scaffold9482_cov230'
p2632
aS'scaffold4573_cov200'
p2633
a(lp2634
I1
a(lp2635
F0.0
aaI3
aa(lp2636
I1
a(lp2637
F0.0
aaI19
aa(lp2638
I1
a(lp2639
F0.0
aaI14
aa(lp2640
I1
a(lp2641
F0.0
aaI22
aaa(lp2642
S'scaffold36090_cov308'
p2643
aS'scaffold4008_cov147'
p2644
a(lp2645
I1
a(lp2646
F0.266667
aaI15
aa(lp2647
I1
a(lp2648
F0.4
aaI45
aaa(lp2649
S'scaffold10547_cov289'
p2650
aS'scaffold11428_cov295'
p2651
a(lp2652
I1
a(lp2653
F0.675676
aaI37
aaa(lp2654
S'scaffold38236_cov294'
p2655
aS'scaffold12700_cov150'
p2656
aa(lp2657
S'scaffold10361_cov204'
p2658
aS'scaffold11037_cov149'
p2659
aa(lp2660
S'scaffold22541_cov161'
p2661
aS'scaffold6820_cov173'
p2662
aa(lp2663
S'scaffold1081_cov253'
p2664
aS'scaffold1083_cov222'
p2665
a(lp2666
I1
a(lp2667
F0.4
aaI25
aa(lp2668
I1
a(lp2669
F0.363636
aaI22
aa(lp2670
I1
a(lp2671
F0.387097
aaI31
aa(lp2672
I1
a(lp2673
F0.441176
aaI34
aa(lp2674
I1
a(lp2675
F0.518519
aaI27
aa(lp2676
I1
a(lp2677
F0.444444
aaI36
aa(lp2678
I1
a(lp2679
F0.307692
aaI39
aa(lp2680
I1
a(lp2681
F0.268293
aaI41
aa(lp2682
I1
a(lp2683
F0.393939
aaI33
aa(lp2684
I1
a(lp2685
F0.259259
aaI27
aa(lp2686
I1
a(lp2687
F0.457143
aaI35
aa(lp2688
I1
a(lp2689
F0.206897
aaI29
aa(lp2690
I1
a(lp2691
F0.604651
aaI43
aaa(lp2692
S'scaffold1911_cov231'
p2693
aS'scaffold2955_cov235'
p2694
a(lp2695
I1
a(lp2696
F0.285714
aaI21
aa(lp2697
I1
a(lp2698
F0.24
aaI25
aa(lp2699
I1
a(lp2700
F0.44
aaI25
aa(lp2701
I1
a(lp2702
F0.233333
aaI30
aa(lp2703
I1
a(lp2704
F0.25
aaI28
aa(lp2705
I1
a(lp2706
F0.405405
aaI37
aa(lp2707
I1
a(lp2708
F0.310345
aaI29
aa(lp2709
I1
a(lp2710
F0.441176
aaI34
aa(lp2711
I1
a(lp2712
F0.365854
aaI41
aa(lp2713
I1
a(lp2714
F0.333333
aaI39
aaa(lp2715
S'scaffold709_cov247'
p2716
aS'scaffold5394_cov155'
p2717
aa(lp2718
S'scaffold4184_cov249'
p2719
aS'scaffold2531_cov161'
p2720
aa(lp2721
S'scaffold2596_cov234'
p2722
aS'scaffold1898_cov190'
p2723
a(lp2724
I1
a(lp2725
F0.26
aaI50
aa(lp2726
I1
a(lp2727
F0.333333
aaI30
aa(lp2728
I1
a(lp2729
F0.24
aaI25
aa(lp2730
I1
a(lp2731
F0.214286
aaI28
aa(lp2732
I1
a(lp2733
F0.269231
aaI26
aa(lp2734
I1
a(lp2735
F0.24
aaI25
aa(lp2736
I1
a(lp2737
F0.222222
aaI27
aa(lp2738
I1
a(lp2739
F0.34375
aaI32
aa(lp2740
I1
a(lp2741
F0.243243
aaI37
aa(lp2742
I1
a(lp2743
F0.236842
aaI38
aa(lp2744
I1
a(lp2745
F0.230769
aaI39
aa(lp2746
I1
a(lp2747
F0.212121
aaI33
aa(lp2748
I1
a(lp2749
F0.212121
aaI33
aaa(lp2750
S'scaffold6422_cov190'
p2751
aS'scaffold14276_cov161'
p2752
aa(lp2753
S'scaffold9505_cov197'
p2754
aS'scaffold3671_cov181'
p2755
a(lp2756
I1
a(lp2757
F0.702128
aaI94
aaa(lp2758
S'scaffold6461_cov208'
p2759
aS'scaffold10232_cov153'
p2760
a(lp2761
I1
a(lp2762
F0.0
aaI18
aa(lp2763
I1
a(lp2764
F0.217391
aaI23
aa(lp2765
I1
a(lp2766
F0.228571
aaI35
aa(lp2767
I1
a(lp2768
F0.586957
aaI46
aa(lp2769
I1
a(lp2770
F0.425532
aaI47
aa(lp2771
I1
a(lp2772
F0.25
aaI24
aa(lp2773
I1
a(lp2774
F0.357143
aaI28
aa(lp2775
I1
a(lp2776
F0.264706
aaI34
aa(lp2777
I1
a(lp2778
F0.323529
aaI34
aa(lp2779
I1
a(lp2780
F0.3
aaI30
aa(lp2781
I1
a(lp2782
F0.272727
aaI33
aa(lp2783
I1
a(lp2784
F0.558824
aaI34
aa(lp2785
I1
a(lp2786
F0.617647
aaI34
aa(lp2787
I1
a(lp2788
F0.458333
aaI24
aaa(lp2789
S'scaffold3709_cov220'
p2790
aS'scaffold9550_cov156'
p2791
aa(lp2792
S'scaffold1435_cov176'
p2793
aS'scaffold7695_cov182'
p2794
a(lp2795
I1
a(lp2796
F0.259259
aaI27
aaa(lp2797
S'scaffold20444_cov436'
p2798
aS'scaffold13149_cov173'
p2799
a(lp2800
I1
a(lp2801
F0.305556
aaI36
aa(lp2802
I1
a(lp2803
F0.324324
aaI37
aa(lp2804
I1
a(lp2805
F0.27027
aaI37
aa(lp2806
I1
a(lp2807
F0.25
aaI48
aa(lp2808
I1
a(lp2809
F0.232558
aaI43
aa(lp2810
I1
a(lp2811
F0.2
aaI40
aaa(lp2812
S'scaffold9528_cov287'
p2813
aS'scaffold13440_cov161'
p2814
aa(lp2815
S'scaffold3054_cov300'
p2816
aS'scaffold9545_cov229'
p2817
aa(lp2818
S'scaffold7135_cov385'
p2819
aS'scaffold2547_cov148'
p2820
a(lp2821
I1
a(lp2822
F0.210526
aaI19
aa(lp2823
I1
a(lp2824
F0.424242
aaI33
aaa(lp2825
S'scaffold15331_cov173'
p2826
aS'scaffold4093_cov203'
p2827
a(lp2828
I1
a(lp2829
F0.346154
aaI26
aa(lp2830
I1
a(lp2831
F0.25
aaI24
aa(lp2832
I1
a(lp2833
F0.259259
aaI27
aa(lp2834
I1
a(lp2835
F0.233333
aaI30
aa(lp2836
I1
a(lp2837
F0.208333
aaI24
aa(lp2838
I1
a(lp2839
F0.314286
aaI35
aa(lp2840
I1
a(lp2841
F0.230769
aaI26
aa(lp2842
I1
a(lp2843
F0.404762
aaI42
aa(lp2844
I1
a(lp2845
F0.392857
aaI28
aa(lp2846
I1
a(lp2847
F0.375
aaI24
aa(lp2848
I1
a(lp2849
F0.409091
aaI22
aa(lp2850
I1
a(lp2851
F0.366667
aaI30
aa(lp2852
I1
a(lp2853
F0.717949
aaI39
aa(lp2854
I1
a(lp2855
F0.222222
aaI27
aa(lp2856
I1
a(lp2857
F0.210526
aaI19
aaa(lp2858
S'scaffold3646_cov176'
p2859
aS'scaffold1795_cov197'
p2860
a(lp2861
I1
a(lp2862
F0.217391
aaI23
aa(lp2863
I1
a(lp2864
F0.36
aaI25
aa(lp2865
I1
a(lp2866
F0.206897
aaI29
aa(lp2867
I1
a(lp2868
F0.214286
aaI28
aa(lp2869
I1
a(lp2870
F0.214286
aaI28
aa(lp2871
I1
a(lp2872
F0.216216
aaI37
aa(lp2873
I1
a(lp2874
F0.205882
aaI34
aa(lp2875
I1
a(lp2876
F0.384615
aaI26
aa(lp2877
I1
a(lp2878
F0.214286
aaI28
aa(lp2879
I1
a(lp2880
F0.2625
aaI80
aaa(lp2881
S'scaffold4879_cov249'
p2882
aS'scaffold916_cov197'
p2883
a(lp2884
I1
a(lp2885
F0.333333
aaI24
aa(lp2886
I1
a(lp2887
F0.318182
aaI22
aa(lp2888
I1
a(lp2889
F0.25
aaI20
aaa(lp2890
S'scaffold441_cov213'
p2891
aS'scaffold3541_cov180'
p2892
aa(lp2893
S'scaffold6945_cov182'
p2894
aS'scaffold3075_cov156'
p2895
a(lp2896
I1
a(lp2897
F0.233333
aaI30
aaa(lp2898
S'scaffold3188_cov246'
p2899
aS'scaffold19598_cov155'
p2900
aa(lp2901
S'scaffold2691_cov437'
p2902
aS'scaffold843_cov157'
p2903
aa(lp2904
S'scaffold31451_cov239'
p2905
aS'scaffold644_cov199'
p2906
a(lp2907
I1
a(lp2908
F0.282051
aaI39
aa(lp2909
I1
a(lp2910
F0.458333
aaI24
aaa(lp2911
S'scaffold3062_cov254'
p2912
aS'scaffold34957_cov248'
p2913
a(lp2914
I1
a(lp2915
F0.2
aaI25
aa(lp2916
I1
a(lp2917
F0.0
aaI28
aa(lp2918
I1
a(lp2919
F0.512821
aaI39
aaa(lp2920
S'scaffold18214_cov222'
p2921
aS'scaffold3250_cov209'
p2922
a(lp2923
I1
a(lp2924
F0.314286
aaI35
aa(lp2925
I1
a(lp2926
F0.30303
aaI33
aa(lp2927
I1
a(lp2928
F0.382353
aaI34
aaa(lp2929
S'scaffold11228_cov232'
p2930
aS'scaffold14602_cov161'
p2931
a(lp2932
I1
a(lp2933
F0.28
aaI25
aa(lp2934
I1
a(lp2935
F0.2
aaI30
aaa(lp2936
S'scaffold36852_cov305'
p2937
aS'scaffold4188_cov191'
p2938
aa(lp2939
S'scaffold663_cov256'
p2940
aS'scaffold29908_cov147'
p2941
aa(lp2942
S'scaffold1561_cov271'
p2943
aS'scaffold1811_cov234'
p2944
a(lp2945
I1
a(lp2946
F0.21875
aaI32
aa(lp2947
I1
a(lp2948
F0.2
aaI30
aa(lp2949
I1
a(lp2950
F0.333333
aaI24
aa(lp2951
I1
a(lp2952
F0.243902
aaI41
aa(lp2953
I1
a(lp2954
F0.230769
aaI39
aa(lp2955
I1
a(lp2956
F0.235294
aaI34
aa(lp2957
I1
a(lp2958
F0.235294
aaI34
aa(lp2959
I1
a(lp2960
F0.24
aaI25
aa(lp2961
I1
a(lp2962
F0.25
aaI24
aa(lp2963
I1
a(lp2964
F0.333333
aaI18
aa(lp2965
I1
a(lp2966
F0.4
aaI15
aa(lp2967
I1
a(lp2968
F0.53125
aaI32
aa(lp2969
I1
a(lp2970
F0.3
aaI20
aa(lp2971
I1
a(lp2972
F0.272727
aaI22
aa(lp2973
I1
a(lp2974
F0.28
aaI25
aa(lp2975
I1
a(lp2976
F0.21875
aaI32
aa(lp2977
I1
a(lp2978
F0.230769
aaI26
aa(lp2979
I1
a(lp2980
F0.230769
aaI26
aa(lp2981
I1
a(lp2982
F0.233333
aaI30
aa(lp2983
I1
a(lp2984
F0.233333
aaI30
aa(lp2985
I1
a(lp2986
F0.266667
aaI30
aa(lp2987
I1
a(lp2988
F0.25
aaI24
aa(lp2989
I1
a(lp2990
F0.321429
aaI28
aa(lp2991
I1
a(lp2992
F0.322581
aaI31
aa(lp2993
I1
a(lp2994
F0.285714
aaI28
aaa(lp2995
S'scaffold279_cov300'
p2996
aS'scaffold888_cov152'
p2997
a(lp2998
I1
a(lp2999
F0.375
aaI32
aa(lp3000
I1
a(lp3001
F0.28
aaI25
aaa(lp3002
S'scaffold35026_cov310'
p3003
aS'scaffold288_cov182'
p3004
a(lp3005
I1
a(lp3006
F0.210526
aaI38
aa(lp3007
I1
a(lp3008
F0.214286
aaI28
aa(lp3009
I1
a(lp3010
F0.241379
aaI29
aa(lp3011
I1
a(lp3012
F0.2
aaI30
aa(lp3013
I1
a(lp3014
F0.25
aaI24
aa(lp3015
I1
a(lp3016
F0.483516
aaI91
aa(lp3017
I1
a(lp3018
F0.2
aaI15
aa(lp3019
I1
a(lp3020
F0.259259
aaI27
aa(lp3021
I1
a(lp3022
F0.322581
aaI31
aa(lp3023
I1
a(lp3024
F0.2
aaI30
aa(lp3025
I1
a(lp3026
F0.210526
aaI19
aaa(lp3027
S'scaffold47223_cov305'
p3028
aS'scaffold428_cov197'
p3029
aa(lp3030
S'scaffold3367_cov255'
p3031
aS'scaffold3227_cov180'
p3032
a(lp3033
I1
a(lp3034
F0.418605
aaI43
aa(lp3035
I1
a(lp3036
F0.230769
aaI39
aa(lp3037
I1
a(lp3038
F0.25641
aaI39
aaa(lp3039
S'scaffold4452_cov272'
p3040
aS'scaffold7051_cov276'
p3041
a(lp3042
I1
a(lp3043
F0.423077
aaI52
aaa(lp3044
S'scaffold1226_cov199'
p3045
aS'scaffold3246_cov212'
p3046
a(lp3047
I1
a(lp3048
F0.285714
aaI14
aa(lp3049
I1
a(lp3050
F0.210526
aaI19
aa(lp3051
I1
a(lp3052
F0.25
aaI28
aa(lp3053
I1
a(lp3054
F0.333333
aaI33
aa(lp3055
I1
a(lp3056
F0.2
aaI20
aa(lp3057
I1
a(lp3058
F0.346154
aaI26
aaa(lp3059
S'scaffold17142_cov215'
p3060
aS'scaffold35222_cov195'
p3061
a(lp3062
I1
a(lp3063
F0.25
aaI12
aa(lp3064
I1
a(lp3065
F0.388889
aaI18
aa(lp3066
I1
a(lp3067
F0.382353
aaI34
aa(lp3068
I1
a(lp3069
F0.27027
aaI37
aa(lp3070
I1
a(lp3071
F0.482759
aaI29
aaa(lp3072
S'scaffold35800_cov215'
p3073
aS'scaffold7468_cov213'
p3074
a(lp3075
I1
a(lp3076
F0.307692
aaI26
aa(lp3077
I1
a(lp3078
F0.321429
aaI28
aa(lp3079
I1
a(lp3080
F0.263158
aaI19
aa(lp3081
I1
a(lp3082
F0.243243
aaI37
aa(lp3083
I1
a(lp3084
F0.387097
aaI31
aa(lp3085
I1
a(lp3086
F0.438596
aaI57
aa(lp3087
I1
a(lp3088
F0.204545
aaI44
aa(lp3089
I1
a(lp3090
F0.204545
aaI44
aa(lp3091
I1
a(lp3092
F0.217391
aaI23
aa(lp3093
I1
a(lp3094
F0.205882
aaI34
aa(lp3095
I1
a(lp3096
F0.317073
aaI41
aa(lp3097
I1
a(lp3098
F0.295455
aaI44
aa(lp3099
I1
a(lp3100
F0.296296
aaI27
aa(lp3101
I1
a(lp3102
F0.322581
aaI31
aa(lp3103
I1
a(lp3104
F0.241379
aaI29
aa(lp3105
I1
a(lp3106
F0.214286
aaI28
aa(lp3107
I1
a(lp3108
F0.214286
aaI28
aa(lp3109
I1
a(lp3110
F0.214286
aaI28
aa(lp3111
I1
a(lp3112
F0.214286
aaI28
aa(lp3113
I1
a(lp3114
F0.325
aaI40
aa(lp3115
I1
a(lp3116
F0.241379
aaI29
aa(lp3117
I1
a(lp3118
F0.290323
aaI31
aa(lp3119
I1
a(lp3120
F0.291667
aaI24
aa(lp3121
I1
a(lp3122
F0.214286
aaI28
aaa(lp3123
S'scaffold33985_cov263'
p3124
aS'scaffold383_cov198'
p3125
a(lp3126
I1
a(lp3127
F0.222222
aaI27
aa(lp3128
I1
a(lp3129
F0.275862
aaI29
aa(lp3130
I1
a(lp3131
F0.394737
aaI38
aa(lp3132
I1
a(lp3133
F0.310345
aaI29
aa(lp3134
I1
a(lp3135
F0.323529
aaI34
aa(lp3136
I1
a(lp3137
F0.333333
aaI36
aa(lp3138
I1
a(lp3139
F0.30303
aaI33
aa(lp3140
I1
a(lp3141
F0.266667
aaI30
aa(lp3142
I1
a(lp3143
F0.342105
aaI38
aa(lp3144
I1
a(lp3145
F0.333333
aaI42
aa(lp3146
I1
a(lp3147
F0.419355
aaI31
aa(lp3148
I1
a(lp3149
F0.488889
aaI45
aa(lp3150
I1
a(lp3151
F0.444444
aaI27
aa(lp3152
I1
a(lp3153
F0.208333
aaI24
aa(lp3154
I1
a(lp3155
F0.230769
aaI26
aa(lp3156
I1
a(lp3157
F0.230769
aaI26
aa(lp3158
I1
a(lp3159
F0.384615
aaI26
aa(lp3160
I1
a(lp3161
F0.304348
aaI23
aa(lp3162
I1
a(lp3163
F0.235294
aaI34
aa(lp3164
I1
a(lp3165
F0.333333
aaI30
aa(lp3166
I1
a(lp3167
F0.55
aaI40
aa(lp3168
I1
a(lp3169
F0.307692
aaI26
aa(lp3170
I1
a(lp3171
F0.0
aaI30
aa(lp3172
I1
a(lp3173
F0.24
aaI25
aa(lp3174
I1
a(lp3175
F0.272727
aaI22
aa(lp3176
I1
a(lp3177
F0.291667
aaI24
aa(lp3178
I1
a(lp3179
F0.307692
aaI26
aa(lp3180
I1
a(lp3181
F0.241379
aaI29
aa(lp3182
I1
a(lp3183
F0.25
aaI32
aa(lp3184
I1
a(lp3185
F0.257143
aaI35
aa(lp3186
I1
a(lp3187
F0.0
aaI30
aa(lp3188
I1
a(lp3189
F0.242424
aaI33
aa(lp3190
I1
a(lp3191
F0.272727
aaI22
aa(lp3192
I1
a(lp3193
F0.272727
aaI22
aa(lp3194
I1
a(lp3195
F0.375
aaI32
aaa(lp3196
S'scaffold10520_cov256'
p3197
aS'scaffold4734_cov186'
p3198
a(lp3199
I1
a(lp3200
F0.466667
aaI30
aa(lp3201
I1
a(lp3202
F0.454545
aaI44
aa(lp3203
I1
a(lp3204
F0.510204
aaI49
aa(lp3205
I1
a(lp3206
F0.0
aaI30
aaa(lp3207
S'scaffold1343_cov240'
p3208
aS'scaffold219_cov217'
p3209
a(lp3210
I1
a(lp3211
F0.594595
aaI37
aa(lp3212
I1
a(lp3213
F0.564103
aaI39
aa(lp3214
I1
a(lp3215
F0.538462
aaI39
aa(lp3216
I1
a(lp3217
F0.285714
aaI14
aa(lp3218
I1
a(lp3219
F0.294118
aaI17
aa(lp3220
I1
a(lp3221
F0.25
aaI20
aa(lp3222
I1
a(lp3223
F0.222222
aaI36
aa(lp3224
I1
a(lp3225
F0.241379
aaI29
aa(lp3226
I1
a(lp3227
F0.289474
aaI38
aa(lp3228
I1
a(lp3229
F0.285714
aaI21
aa(lp3230
I1
a(lp3231
F0.285714
aaI21
aa(lp3232
I1
a(lp3233
F0.227273
aaI22
aa(lp3234
I1
a(lp3235
F0.558824
aaI34
aa(lp3236
I1
a(lp3237
F0.416667
aaI24
aa(lp3238
I1
a(lp3239
F0.461538
aaI39
aa(lp3240
I1
a(lp3241
F0.432432
aaI37
aa(lp3242
I1
a(lp3243
F0.304348
aaI69
aa(lp3244
I1
a(lp3245
F0.4375
aaI48
aa(lp3246
I1
a(lp3247
F0.0
aaI260
aa(lp3248
I1
a(lp3249
F0.227273
aaI44
aaa(lp3250
S'scaffold1045_cov153'
p3251
aS'scaffold12570_cov377'
p3252
aa(lp3253
S'scaffold4548_cov238'
p3254
aS'scaffold8091_cov211'
p3255
a(lp3256
I1
a(lp3257
F0.40625
aaI32
aa(lp3258
I1
a(lp3259
F0.419355
aaI31
aa(lp3260
I1
a(lp3261
F0.405405
aaI37
aa(lp3262
I1
a(lp3263
F0.2
aaI25
aaa(lp3264
S'scaffold902_cov223'
p3265
aS'scaffold6221_cov149'
p3266
aa(lp3267
S'scaffold36279_cov207'
p3268
aS'scaffold12881_cov242'
p3269
aa(lp3270
S'scaffold12136_cov215'
p3271
aS'scaffold5344_cov146'
p3272
a(lp3273
I1
a(lp3274
F0.238095
aaI21
aa(lp3275
I1
a(lp3276
F0.26087
aaI23
aa(lp3277
I1
a(lp3278
F0.580645
aaI31
aa(lp3279
I1
a(lp3280
F0.5
aaI28
aa(lp3281
I1
a(lp3282
F0.529412
aaI34
aaa(lp3283
S'scaffold7758_cov177'
p3284
aS'scaffold34054_cov214'
p3285
a(lp3286
I1
a(lp3287
F0.27907
aaI43
aa(lp3288
I1
a(lp3289
F0.263158
aaI38
aa(lp3290
I1
a(lp3291
F0.27027
aaI37
aa(lp3292
I1
a(lp3293
F0.268293
aaI41
aa(lp3294
I1
a(lp3295
F0.243902
aaI41
aaa(lp3296
S'scaffold2323_cov224'
p3297
aS'scaffold11669_cov179'
p3298
a(lp3299
I1
a(lp3300
F0.310345
aaI29
aa(lp3301
I1
a(lp3302
F0.333333
aaI33
aa(lp3303
I1
a(lp3304
F0.266667
aaI30
aa(lp3305
I1
a(lp3306
F0.266667
aaI30
aa(lp3307
I1
a(lp3308
F0.275862
aaI29
aa(lp3309
I1
a(lp3310
F0.222222
aaI18
aaa(lp3311
S'scaffold7526_cov240'
p3312
aS'scaffold8195_cov213'
p3313
a(lp3314
I1
a(lp3315
F0.3125
aaI48
aa(lp3316
I1
a(lp3317
F0.375
aaI40
aa(lp3318
I1
a(lp3319
F0.405405
aaI37
aa(lp3320
I1
a(lp3321
F0.222222
aaI18
aa(lp3322
I1
a(lp3323
F0.25
aaI36
aa(lp3324
I1
a(lp3325
F0.333333
aaI42
aa(lp3326
I1
a(lp3327
F0.487179
aaI39
aa(lp3328
I1
a(lp3329
F0.5
aaI50
aa(lp3330
I1
a(lp3331
F0.214286
aaI14
aa(lp3332
I1
a(lp3333
F0.2
aaI15
aa(lp3334
I1
a(lp3335
F0.230769
aaI13
aa(lp3336
I1
a(lp3337
F0.214286
aaI14
aaa(lp3338
S'scaffold5645_cov270'
p3339
aS'scaffold8590_cov218'
p3340
aa(lp3341
S'scaffold34809_cov225'
p3342
aS'scaffold34892_cov211'
p3343
aa(lp3344
S'scaffold50320_cov305'
p3345
aS'scaffold1792_cov186'
p3346
aa(lp3347
S'scaffold6871_cov206'
p3348
aS'scaffold10121_cov202'
p3349
aa(lp3350
S'scaffold9918_cov286'
p3351
aS'scaffold3310_cov167'
p3352
a(lp3353
I1
a(lp3354
F0.0
aaI6
aa(lp3355
I1
a(lp3356
F0.275362
aaI69
aaa(lp3357
S'scaffold18738_cov241'
p3358
aS'scaffold2942_cov228'
p3359
aa(lp3360
S'scaffold10654_cov169'
p3361
aS'scaffold5155_cov170'
p3362
a(lp3363
I1
a(lp3364
F0.259259
aaI27
aa(lp3365
I1
a(lp3366
F0.263158
aaI19
aa(lp3367
I1
a(lp3368
F0.37931
aaI29
aa(lp3369
I1
a(lp3370
F0.222222
aaI27
aa(lp3371
I1
a(lp3372
F0.214286
aaI28
aa(lp3373
I1
a(lp3374
F0.304348
aaI23
aaa(lp3375
S'scaffold16272_cov418'
p3376
aS'scaffold343_cov157'
p3377
aasS'up'
p3378
(lp3379
(lp3380
g6
ag7
aa(lp3381
g9
ag10
a(lp3382
I1
a(lp3383
F0.488889
aaI45
aa(lp3384
I1
a(lp3385
F0.304348
aaI23
aa(lp3386
I1
a(lp3387
F0.291667
aaI24
aa(lp3388
I1
a(lp3389
F0.227273
aaI22
aa(lp3390
I1
a(lp3391
F0.24
aaI25
aa(lp3392
I1
a(lp3393
F0.28125
aaI32
aa(lp3394
I1
a(lp3395
F0.384615
aaI39
aa(lp3396
I1
a(lp3397
F0.323529
aaI34
aa(lp3398
I1
a(lp3399
F0.28125
aaI32
aa(lp3400
I1
a(lp3401
F0.466667
aaI45
aa(lp3402
I1
a(lp3403
F0.227273
aaI44
aa(lp3404
I1
a(lp3405
F0.266667
aaI45
aa(lp3406
I1
a(lp3407
F0.210526
aaI19
aa(lp3408
I1
a(lp3409
F0.238095
aaI21
aa(lp3410
I1
a(lp3411
F0.4
aaI15
aa(lp3412
I1
a(lp3413
F0.333333
aaI21
aa(lp3414
I1
a(lp3415
F0.375
aaI32
aa(lp3416
I1
a(lp3417
F0.314286
aaI35
aaa(lp3418
g18
ag19
a(lp3419
I1
a(lp3420
F0.5
aaI38
aa(lp3421
I1
a(lp3422
F0.387097
aaI31
aa(lp3423
I1
a(lp3424
F0.333333
aaI24
aaa(lp3425
g21
ag22
a(lp3426
I1
a(lp3427
F0.241379
aaI29
aa(lp3428
I1
a(lp3429
F0.214286
aaI28
aa(lp3430
I1
a(lp3431
F0.2
aaI30
aaa(lp3432
g26
ag27
a(lp3433
I1
a(lp3434
F0.591837
aaI49
aa(lp3435
I1
a(lp3436
F0.352941
aaI34
aaa(lp3437
g39
ag40
a(lp3438
I1
a(lp3439
F0.333333
aaI33
aa(lp3440
I1
a(lp3441
F0.289474
aaI38
aa(lp3442
I1
a(lp3443
F0.421053
aaI38
aaa(lp3444
g58
ag59
aa(lp3445
g61
ag62
aa(lp3446
g86
ag87
a(lp3447
I1
a(lp3448
F0.4
aaI35
aa(lp3449
I1
a(lp3450
F0.574468
aaI47
aa(lp3451
I1
a(lp3452
F0.4375
aaI48
aa(lp3453
I1
a(lp3454
F0.257143
aaI35
aa(lp3455
I1
a(lp3456
F0.263158
aaI38
aa(lp3457
I1
a(lp3458
F0.258065
aaI31
aa(lp3459
I1
a(lp3460
F0.233333
aaI30
aa(lp3461
I1
a(lp3462
F0.363636
aaI33
aa(lp3463
I1
a(lp3464
F0.421053
aaI38
aa(lp3465
I1
a(lp3466
F0.428571
aaI35
aa(lp3467
I1
a(lp3468
F0.3
aaI30
aa(lp3469
I1
a(lp3470
F0.522727
aaI44
aa(lp3471
I1
a(lp3472
F0.362069
aaI58
aaa(lp3473
g107
ag108
aa(lp3474
g110
ag111
aa(lp3475
g129
ag130
aa(lp3476
g132
ag133
aa(lp3477
g139
ag140
aa(lp3478
g176
ag177
a(lp3479
I1
a(lp3480
F0.285714
aaI28
aa(lp3481
I1
a(lp3482
F0.259259
aaI27
aa(lp3483
I1
a(lp3484
F0.275862
aaI29
aa(lp3485
I1
a(lp3486
F0.2
aaI25
aaa(lp3487
g179
ag180
aa(lp3488
g194
ag195
aa(lp3489
g197
ag198
a(lp3490
I1
a(lp3491
F0.431818
aaI44
aa(lp3492
I1
a(lp3493
F0.323529
aaI34
aa(lp3494
I1
a(lp3495
F0.327586
aaI58
aa(lp3496
I1
a(lp3497
F0.310345
aaI58
aa(lp3498
I1
a(lp3499
F0.542857
aaI35
aa(lp3500
I1
a(lp3501
F0.472222
aaI36
aa(lp3502
I1
a(lp3503
F0.289474
aaI38
aa(lp3504
I1
a(lp3505
F0.238095
aaI21
aaa(lp3506
g218
ag219
a(lp3507
I1
a(lp3508
F0.52
aaI25
aaa(lp3509
g221
ag222
aa(lp3510
g224
ag225
aa(lp3511
g227
ag228
aa(lp3512
g230
ag231
a(lp3513
I1
a(lp3514
F0.4
aaI35
aa(lp3515
I1
a(lp3516
F0.363636
aaI33
aa(lp3517
I1
a(lp3518
F0.307692
aaI26
aa(lp3519
I1
a(lp3520
F0.333333
aaI24
aa(lp3521
I1
a(lp3522
F0.333333
aaI21
aa(lp3523
I1
a(lp3524
F0.235294
aaI17
aa(lp3525
I1
a(lp3526
F0.25
aaI24
aa(lp3527
I1
a(lp3528
F0.296296
aaI27
aa(lp3529
I1
a(lp3530
F0.322581
aaI31
aa(lp3531
I1
a(lp3532
F0.385965
aaI57
aa(lp3533
I1
a(lp3534
F0.44186
aaI43
aa(lp3535
I1
a(lp3536
F0.410256
aaI39
aa(lp3537
I1
a(lp3538
F0.488889
aaI45
aa(lp3539
I1
a(lp3540
F0.617647
aaI34
aa(lp3541
I1
a(lp3542
F0.214286
aaI28
aa(lp3543
I1
a(lp3544
F0.6
aaI40
aa(lp3545
I1
a(lp3546
F0.560976
aaI41
aa(lp3547
I1
a(lp3548
F0.307692
aaI26
aa(lp3549
I1
a(lp3550
F0.25
aaI28
aa(lp3551
I1
a(lp3552
F0.272727
aaI11
aaa(lp3553
g233
ag234
a(lp3554
I1
a(lp3555
F0.392157
aaI51
aa(lp3556
I1
a(lp3557
F0.35
aaI40
aa(lp3558
I1
a(lp3559
F0.382353
aaI34
aa(lp3560
I1
a(lp3561
F0.40625
aaI32
aa(lp3562
I1
a(lp3563
F0.3
aaI20
aa(lp3564
I1
a(lp3565
F0.25
aaI16
aa(lp3566
I1
a(lp3567
F0.4
aaI30
aa(lp3568
I1
a(lp3569
F0.212121
aaI33
aa(lp3570
I1
a(lp3571
F0.257143
aaI35
aa(lp3572
I1
a(lp3573
F0.333333
aaI36
aa(lp3574
I1
a(lp3575
F0.333333
aaI36
aa(lp3576
I1
a(lp3577
F0.315789
aaI38
aa(lp3578
I1
a(lp3579
F0.297297
aaI37
aa(lp3580
I1
a(lp3581
F0.266667
aaI30
aa(lp3582
I1
a(lp3583
F0.230769
aaI26
aa(lp3584
I1
a(lp3585
F0.285714
aaI21
aa(lp3586
I1
a(lp3587
F0.304348
aaI23
aa(lp3588
I1
a(lp3589
F0.291667
aaI24
aa(lp3590
I1
a(lp3591
F0.233333
aaI30
aa(lp3592
I1
a(lp3593
F0.242424
aaI33
aa(lp3594
I1
a(lp3595
F0.333333
aaI30
aa(lp3596
I1
a(lp3597
F0.243243
aaI37
aaa(lp3598
g244
ag245
a(lp3599
I1
a(lp3600
F0.3
aaI30
aa(lp3601
I1
a(lp3602
F0.285714
aaI28
aa(lp3603
I1
a(lp3604
F0.25
aaI28
aa(lp3605
I1
a(lp3606
F0.25
aaI24
aa(lp3607
I1
a(lp3608
F0.346154
aaI26
aa(lp3609
I1
a(lp3610
F0.46875
aaI32
aa(lp3611
I1
a(lp3612
F0.30303
aaI33
aa(lp3613
I1
a(lp3614
F0.305556
aaI36
aa(lp3615
I1
a(lp3616
F0.333333
aaI36
aa(lp3617
I1
a(lp3618
F0.363636
aaI44
aaa(lp3619
g269
ag270
a(lp3620
I1
a(lp3621
F0.25
aaI24
aaa(lp3622
g272
ag273
a(lp3623
I1
a(lp3624
F0.206897
aaI29
aa(lp3625
I1
a(lp3626
F0.269231
aaI26
aa(lp3627
I1
a(lp3628
F0.42
aaI50
aa(lp3629
I1
a(lp3630
F0.567568
aaI37
aa(lp3631
I1
a(lp3632
F0.531915
aaI47
aa(lp3633
I1
a(lp3634
F0.434783
aaI46
aa(lp3635
I1
a(lp3636
F0.354839
aaI31
aa(lp3637
I1
a(lp3638
F0.378378
aaI37
aa(lp3639
I1
a(lp3640
F0.46875
aaI32
aa(lp3641
I1
a(lp3642
F0.588235
aaI34
aa(lp3643
I1
a(lp3644
F0.25
aaI32
aa(lp3645
I1
a(lp3646
F0.2
aaI35
aa(lp3647
I1
a(lp3648
F0.354839
aaI31
aa(lp3649
I1
a(lp3650
F0.342105
aaI38
aa(lp3651
I1
a(lp3652
F0.27027
aaI37
aa(lp3653
I1
a(lp3654
F0.27027
aaI37
aa(lp3655
I1
a(lp3656
F0.261905
aaI42
aa(lp3657
I1
a(lp3658
F0.25
aaI24
aa(lp3659
I1
a(lp3660
F0.258065
aaI31
aa(lp3661
I1
a(lp3662
F0.222222
aaI36
aa(lp3663
I1
a(lp3664
F0.4
aaI25
aa(lp3665
I1
a(lp3666
F0.4
aaI30
aa(lp3667
I1
a(lp3668
F0.333333
aaI33
aa(lp3669
I1
a(lp3670
F0.27907
aaI43
aa(lp3671
I1
a(lp3672
F0.288889
aaI45
aa(lp3673
I1
a(lp3674
F0.541667
aaI48
aa(lp3675
I1
a(lp3676
F0.241379
aaI29
aaa(lp3677
g293
ag294
aa(lp3678
g304
ag305
aa(lp3679
g307
ag308
a(lp3680
I1
a(lp3681
F0.481481
aaI27
aa(lp3682
I1
a(lp3683
F0.321429
aaI28
aa(lp3684
I1
a(lp3685
F0.347826
aaI23
aa(lp3686
I1
a(lp3687
F0.36
aaI25
aa(lp3688
I1
a(lp3689
F0.4
aaI30
aa(lp3690
I1
a(lp3691
F0.413793
aaI29
aa(lp3692
I1
a(lp3693
F0.459459
aaI37
aa(lp3694
I1
a(lp3695
F0.439024
aaI41
aa(lp3696
I1
a(lp3697
F0.414634
aaI41
aa(lp3698
I1
a(lp3699
F0.358974
aaI39
aa(lp3700
I1
a(lp3701
F0.387097
aaI31
aa(lp3702
I1
a(lp3703
F0.482759
aaI29
aa(lp3704
I1
a(lp3705
F0.354839
aaI31
aa(lp3706
I1
a(lp3707
F0.392857
aaI28
aa(lp3708
I1
a(lp3709
F0.411765
aaI17
aa(lp3710
I1
a(lp3711
F0.54
aaI50
aa(lp3712
I1
a(lp3713
F0.5
aaI48
aa(lp3714
I1
a(lp3715
F0.327869
aaI61
aa(lp3716
I1
a(lp3717
F0.411765
aaI34
aa(lp3718
I1
a(lp3719
F0.463415
aaI41
aa(lp3720
I1
a(lp3721
F0.52381
aaI42
aa(lp3722
I1
a(lp3723
F0.511111
aaI45
aa(lp3724
I1
a(lp3725
F0.465116
aaI43
aa(lp3726
I1
a(lp3727
F0.5625
aaI48
aa(lp3728
I1
a(lp3729
F0.217391
aaI23
aa(lp3730
I1
a(lp3731
F0.365385
aaI52
aa(lp3732
I1
a(lp3733
F0.363636
aaI44
aa(lp3734
I1
a(lp3735
F0.372093
aaI43
aa(lp3736
I1
a(lp3737
F0.275
aaI40
aa(lp3738
I1
a(lp3739
F0.219178
aaI73
aa(lp3740
I1
a(lp3741
F0.2
aaI55
aa(lp3742
I1
a(lp3743
F0.208333
aaI48
aaa(lp3744
g324
ag325
aa(lp3745
g327
ag328
aa(lp3746
g330
ag331
aa(lp3747
g339
ag340
a(lp3748
I1
a(lp3749
F0.2
aaI25
aa(lp3750
I1
a(lp3751
F0.30303
aaI33
aa(lp3752
I1
a(lp3753
F0.454545
aaI33
aa(lp3754
I1
a(lp3755
F0.388889
aaI18
aa(lp3756
I1
a(lp3757
F0.233333
aaI30
aa(lp3758
I1
a(lp3759
F0.416667
aaI36
aa(lp3760
I1
a(lp3761
F0.52
aaI25
aa(lp3762
I1
a(lp3763
F0.533333
aaI30
aa(lp3764
I1
a(lp3765
F0.37931
aaI29
aa(lp3766
I1
a(lp3767
F0.321429
aaI28
aa(lp3768
I1
a(lp3769
F0.333333
aaI27
aa(lp3770
I1
a(lp3771
F0.321429
aaI28
aa(lp3772
I1
a(lp3773
F0.375
aaI24
aaa(lp3774
g354
ag355
aa(lp3775
g385
ag386
a(lp3776
I1
a(lp3777
F0.321429
aaI28
aa(lp3778
I1
a(lp3779
F0.26087
aaI23
aa(lp3780
I1
a(lp3781
F0.24
aaI25
aa(lp3782
I1
a(lp3783
F0.217391
aaI23
aa(lp3784
I1
a(lp3785
F0.333333
aaI30
aa(lp3786
I1
a(lp3787
F0.333333
aaI27
aa(lp3788
I1
a(lp3789
F0.481481
aaI27
aa(lp3790
I1
a(lp3791
F0.326087
aaI46
aa(lp3792
I1
a(lp3793
F0.310345
aaI29
aa(lp3794
I1
a(lp3795
F0.333333
aaI33
aa(lp3796
I1
a(lp3797
F0.310345
aaI29
aa(lp3798
I1
a(lp3799
F0.225806
aaI31
aa(lp3800
I1
a(lp3801
F0.448276
aaI58
aaa(lp3802
g446
ag447
a(lp3803
I1
a(lp3804
F0.588235
aaI34
aa(lp3805
I1
a(lp3806
F0.289474
aaI38
aa(lp3807
I1
a(lp3808
F0.391304
aaI46
aaa(lp3809
g449
ag450
a(lp3810
I1
a(lp3811
F0.4
aaI35
aa(lp3812
I1
a(lp3813
F0.333333
aaI36
aa(lp3814
I1
a(lp3815
F0.305556
aaI36
aa(lp3816
I1
a(lp3817
F0.444444
aaI45
aaa(lp3818
g454
ag455
a(lp3819
I1
a(lp3820
F0.473684
aaI38
aaa(lp3821
g473
ag474
aa(lp3822
g480
ag481
aa(lp3823
g483
ag484
a(lp3824
I1
a(lp3825
F0.622222
aaI45
aa(lp3826
I1
a(lp3827
F0.58
aaI50
aa(lp3828
I1
a(lp3829
F0.5625
aaI32
aaa(lp3830
g492
ag493
aa(lp3831
g495
ag496
a(lp3832
I1
a(lp3833
F0.266667
aaI30
aaa(lp3834
g508
ag509
aa(lp3835
g511
ag512
a(lp3836
I1
a(lp3837
F0.0
aaI35
aaa(lp3838
g514
ag515
a(lp3839
I1
a(lp3840
F0.45
aaI40
aaa(lp3841
g525
ag526
a(lp3842
I1
a(lp3843
F0.53125
aaI32
aa(lp3844
I1
a(lp3845
F0.471698
aaI53
aa(lp3846
I1
a(lp3847
F0.295455
aaI44
aa(lp3848
I1
a(lp3849
F0.285714
aaI42
aa(lp3850
I1
a(lp3851
F0.372093
aaI43
aa(lp3852
I1
a(lp3853
F0.7
aaI50
aa(lp3854
I1
a(lp3855
F0.481481
aaI54
aa(lp3856
I1
a(lp3857
F0.206897
aaI58
aa(lp3858
I1
a(lp3859
F0.568182
aaI44
aaa(lp3860
g534
ag535
aa(lp3861
g541
ag542
aa(lp3862
g544
ag545
a(lp3863
I1
a(lp3864
F0.272727
aaI44
aa(lp3865
I1
a(lp3866
F0.263158
aaI38
aa(lp3867
I1
a(lp3868
F0.357143
aaI28
aa(lp3869
I1
a(lp3870
F0.259259
aaI27
aa(lp3871
I1
a(lp3872
F0.431818
aaI44
aa(lp3873
I1
a(lp3874
F0.236842
aaI38
aa(lp3875
I1
a(lp3876
F0.210526
aaI19
aa(lp3877
I1
a(lp3878
F0.210526
aaI19
aa(lp3879
I1
a(lp3880
F0.2
aaI20
aa(lp3881
I1
a(lp3882
F0.344828
aaI29
aa(lp3883
I1
a(lp3884
F0.433333
aaI30
aa(lp3885
I1
a(lp3886
F0.5
aaI26
aaa(lp3887
g553
ag554
aa(lp3888
g556
ag557
aa(lp3889
g565
ag566
a(lp3890
I1
a(lp3891
F0.548387
aaI31
aa(lp3892
I1
a(lp3893
F0.46875
aaI32
aa(lp3894
I1
a(lp3895
F0.307692
aaI39
aa(lp3896
I1
a(lp3897
F0.243243
aaI37
aa(lp3898
I1
a(lp3899
F0.25
aaI36
aa(lp3900
I1
a(lp3901
F0.264706
aaI34
aa(lp3902
I1
a(lp3903
F0.243243
aaI37
aa(lp3904
I1
a(lp3905
F0.384615
aaI39
aa(lp3906
I1
a(lp3907
F0.314286
aaI35
aa(lp3908
I1
a(lp3909
F0.407407
aaI27
aa(lp3910
I1
a(lp3911
F0.307692
aaI26
aa(lp3912
I1
a(lp3913
F0.266667
aaI30
aa(lp3914
I1
a(lp3915
F0.547619
aaI42
aa(lp3916
I1
a(lp3917
F0.5625
aaI32
aa(lp3918
I1
a(lp3919
F0.277778
aaI18
aa(lp3920
I1
a(lp3921
F0.269231
aaI26
aaa(lp3922
g580
ag581
a(lp3923
I1
a(lp3924
F0.391304
aaI46
aa(lp3925
I1
a(lp3926
F0.384615
aaI39
aa(lp3927
I1
a(lp3928
F0.409091
aaI44
aa(lp3929
I1
a(lp3930
F0.510204
aaI49
aaa(lp3931
g597
ag598
a(lp3932
I1
a(lp3933
F0.324324
aaI37
aa(lp3934
I1
a(lp3935
F0.321429
aaI28
aa(lp3936
I1
a(lp3937
F0.307692
aaI26
aa(lp3938
I1
a(lp3939
F0.222222
aaI27
aa(lp3940
I1
a(lp3941
F0.333333
aaI27
aa(lp3942
I1
a(lp3943
F0.307692
aaI26
aa(lp3944
I1
a(lp3945
F0.25
aaI32
aa(lp3946
I1
a(lp3947
F0.452381
aaI42
aa(lp3948
I1
a(lp3949
F0.361111
aaI36
aa(lp3950
I1
a(lp3951
F0.317073
aaI41
aa(lp3952
I1
a(lp3953
F0.538462
aaI26
aa(lp3954
I1
a(lp3955
F0.609756
aaI41
aa(lp3956
I1
a(lp3957
F0.441176
aaI34
aa(lp3958
I1
a(lp3959
F0.457143
aaI35
aa(lp3960
I1
a(lp3961
F0.228571
aaI35
aa(lp3962
I1
a(lp3963
F0.388889
aaI18
aa(lp3964
I1
a(lp3965
F0.315789
aaI19
aa(lp3966
I1
a(lp3967
F0.258065
aaI31
aa(lp3968
I1
a(lp3969
F0.483871
aaI31
aa(lp3970
I1
a(lp3971
F0.395349
aaI43
aa(lp3972
I1
a(lp3973
F0.478261
aaI23
aa(lp3974
I1
a(lp3975
F0.238095
aaI21
aaa(lp3976
g600
ag601
aa(lp3977
g603
ag604
aa(lp3978
g614
ag615
aa(lp3979
g617
ag618
a(lp3980
I1
a(lp3981
F0.2
aaI25
aa(lp3982
I1
a(lp3983
F0.227273
aaI22
aa(lp3984
I1
a(lp3985
F0.285714
aaI21
aa(lp3986
I1
a(lp3987
F0.0
aaI19
aa(lp3988
I1
a(lp3989
F0.222222
aaI18
aa(lp3990
I1
a(lp3991
F0.3
aaI20
aa(lp3992
I1
a(lp3993
F0.227273
aaI22
aaa(lp3994
g648
ag649
a(lp3995
I1
a(lp3996
F0.723684
aaI76
aa(lp3997
I1
a(lp3998
F0.2
aaI30
aa(lp3999
I1
a(lp4000
F0.3
aaI30
aa(lp4001
I1
a(lp4002
F0.230769
aaI26
aa(lp4003
I1
a(lp4004
F0.233333
aaI30
aa(lp4005
I1
a(lp4006
F0.222222
aaI27
aa(lp4007
I1
a(lp4008
F0.206897
aaI29
aa(lp4009
I1
a(lp4010
F0.269231
aaI26
aaa(lp4011
g665
ag666
a(lp4012
I1
a(lp4013
F0.285714
aaI42
aa(lp4014
I1
a(lp4015
F0.258065
aaI62
aa(lp4016
I1
a(lp4017
F0.387097
aaI62
aaa(lp4018
g674
ag675
a(lp4019
I1
a(lp4020
F0.393939
aaI33
aa(lp4021
I1
a(lp4022
F0.428571
aaI35
aaa(lp4023
g677
ag678
a(lp4024
I1
a(lp4025
F0.448276
aaI29
aa(lp4026
I1
a(lp4027
F0.363636
aaI33
aa(lp4028
I1
a(lp4029
F0.222222
aaI27
aa(lp4030
I1
a(lp4031
F0.272727
aaI33
aa(lp4032
I1
a(lp4033
F0.25
aaI20
aaa(lp4034
g680
ag681
aa(lp4035
g683
ag684
aa(lp4036
g686
ag687
aa(lp4037
g689
ag690
aa(lp4038
g692
ag693
a(lp4039
I1
a(lp4040
F0.266667
aaI15
aa(lp4041
I1
a(lp4042
F0.272727
aaI11
aa(lp4043
I1
a(lp4044
F0.313725
aaI51
aa(lp4045
I1
a(lp4046
F0.320755
aaI53
aa(lp4047
I1
a(lp4048
F0.333333
aaI48
aa(lp4049
I1
a(lp4050
F0.333333
aaI45
aa(lp4051
I1
a(lp4052
F0.285714
aaI35
aaa(lp4053
g713
ag714
a(lp4054
I1
a(lp4055
F0.277778
aaI36
aa(lp4056
I1
a(lp4057
F0.5
aaI40
aa(lp4058
I1
a(lp4059
F0.435897
aaI39
aa(lp4060
I1
a(lp4061
F0.393939
aaI33
aa(lp4062
I1
a(lp4063
F0.382353
aaI34
aa(lp4064
I1
a(lp4065
F0.371429
aaI35
aa(lp4066
I1
a(lp4067
F0.378378
aaI37
aa(lp4068
I1
a(lp4069
F0.305556
aaI36
aaa(lp4070
g716
ag717
a(lp4071
I1
a(lp4072
F0.322581
aaI31
aa(lp4073
I1
a(lp4074
F0.487179
aaI39
aa(lp4075
I1
a(lp4076
F0.6
aaI35
aa(lp4077
I1
a(lp4078
F0.463415
aaI41
aa(lp4079
I1
a(lp4080
F0.461538
aaI52
aaa(lp4081
g719
ag720
aa(lp4082
g722
ag723
aa(lp4083
g725
ag726
a(lp4084
I1
a(lp4085
F0.454545
aaI44
aa(lp4086
I1
a(lp4087
F0.477273
aaI44
aa(lp4088
I1
a(lp4089
F0.424242
aaI33
aa(lp4090
I1
a(lp4091
F0.447368
aaI38
aa(lp4092
I1
a(lp4093
F0.447368
aaI38
aa(lp4094
I1
a(lp4095
F0.454545
aaI33
aa(lp4096
I1
a(lp4097
F0.419355
aaI31
aaa(lp4098
g734
ag735
aa(lp4099
g737
ag738
aa(lp4100
g740
ag741
a(lp4101
I1
a(lp4102
F0.434783
aaI46
aa(lp4103
I1
a(lp4104
F0.45098
aaI51
aa(lp4105
I1
a(lp4106
F0.478261
aaI46
aaa(lp4107
g743
ag744
aa(lp4108
g746
ag747
aa(lp4109
g755
ag756
aa(lp4110
g764
ag765
aa(lp4111
g767
ag768
a(lp4112
I1
a(lp4113
F0.380952
aaI42
aa(lp4114
I1
a(lp4115
F0.487179
aaI39
aa(lp4116
I1
a(lp4117
F0.5
aaI54
aa(lp4118
I1
a(lp4119
F0.5
aaI48
aa(lp4120
I1
a(lp4121
F0.5
aaI50
aa(lp4122
I1
a(lp4123
F0.428571
aaI35
aa(lp4124
I1
a(lp4125
F0.545455
aaI44
aa(lp4126
I1
a(lp4127
F0.34375
aaI32
aa(lp4128
I1
a(lp4129
F0.310345
aaI29
aa(lp4130
I1
a(lp4131
F0.393939
aaI33
aa(lp4132
I1
a(lp4133
F0.34375
aaI32
aa(lp4134
I1
a(lp4135
F0.411765
aaI34
aa(lp4136
I1
a(lp4137
F0.21875
aaI32
aaa(lp4138
g770
ag771
a(lp4139
I1
a(lp4140
F0.521739
aaI46
aa(lp4141
I1
a(lp4142
F0.588235
aaI34
aa(lp4143
I1
a(lp4144
F0.228571
aaI35
aa(lp4145
I1
a(lp4146
F0.322581
aaI31
aa(lp4147
I1
a(lp4148
F0.2
aaI50
aa(lp4149
I1
a(lp4150
F0.346154
aaI52
aa(lp4151
I1
a(lp4152
F0.396226
aaI53
aaa(lp4153
g793
ag794
a(lp4154
I1
a(lp4155
F0.266667
aaI45
aa(lp4156
I1
a(lp4157
F0.25
aaI24
aa(lp4158
I1
a(lp4159
F0.371429
aaI35
aaa(lp4160
g804
ag805
a(lp4161
I1
a(lp4162
F0.258065
aaI31
aa(lp4163
I1
a(lp4164
F0.266667
aaI30
aa(lp4165
I1
a(lp4166
F0.25
aaI32
aa(lp4167
I1
a(lp4168
F0.290323
aaI31
aa(lp4169
I1
a(lp4170
F0.25
aaI24
aa(lp4171
I1
a(lp4172
F0.285714
aaI35
aa(lp4173
I1
a(lp4174
F0.307692
aaI13
aa(lp4175
I1
a(lp4176
F0.259259
aaI27
aa(lp4177
I1
a(lp4178
F0.28
aaI25
aa(lp4179
I1
a(lp4180
F0.463415
aaI41
aa(lp4181
I1
a(lp4182
F0.275862
aaI29
aa(lp4183
I1
a(lp4184
F0.457143
aaI35
aa(lp4185
I1
a(lp4186
F0.333333
aaI15
aa(lp4187
I1
a(lp4188
F0.315789
aaI19
aa(lp4189
I1
a(lp4190
F0.34375
aaI32
aa(lp4191
I1
a(lp4192
F0.28
aaI25
aa(lp4193
I1
a(lp4194
F0.304348
aaI23
aa(lp4195
I1
a(lp4196
F0.333333
aaI24
aa(lp4197
I1
a(lp4198
F0.428571
aaI28
aa(lp4199
I1
a(lp4200
F0.571429
aaI28
aa(lp4201
I1
a(lp4202
F0.481481
aaI27
aa(lp4203
I1
a(lp4204
F0.4
aaI25
aa(lp4205
I1
a(lp4206
F0.25
aaI24
aa(lp4207
I1
a(lp4208
F0.2
aaI25
aa(lp4209
I1
a(lp4210
F0.488372
aaI43
aa(lp4211
I1
a(lp4212
F0.208333
aaI24
aa(lp4213
I1
a(lp4214
F0.361111
aaI36
aa(lp4215
I1
a(lp4216
F0.454545
aaI44
aa(lp4217
I1
a(lp4218
F0.488889
aaI45
aa(lp4219
I1
a(lp4220
F0.212121
aaI33
aa(lp4221
I1
a(lp4222
F0.571429
aaI28
aa(lp4223
I1
a(lp4224
F0.259259
aaI27
aa(lp4225
I1
a(lp4226
F0.514286
aaI35
aa(lp4227
I1
a(lp4228
F0.423077
aaI26
aa(lp4229
I1
a(lp4230
F0.5
aaI26
aa(lp4231
I1
a(lp4232
F0.27027
aaI37
aa(lp4233
I1
a(lp4234
F0.368421
aaI38
aa(lp4235
I1
a(lp4236
F0.325
aaI40
aa(lp4237
I1
a(lp4238
F0.25
aaI40
aaa(lp4239
g837
ag838
a(lp4240
I1
a(lp4241
F0.325581
aaI43
aa(lp4242
I1
a(lp4243
F0.28125
aaI32
aa(lp4244
I1
a(lp4245
F0.475
aaI40
aa(lp4246
I1
a(lp4247
F0.47619
aaI42
aa(lp4248
I1
a(lp4249
F0.378378
aaI37
aa(lp4250
I1
a(lp4251
F0.416667
aaI24
aa(lp4252
I1
a(lp4253
F0.5
aaI20
aa(lp4254
I1
a(lp4255
F0.4
aaI40
aa(lp4256
I1
a(lp4257
F0.22
aaI50
aa(lp4258
I1
a(lp4259
F0.211538
aaI52
aa(lp4260
I1
a(lp4261
F0.323529
aaI34
aa(lp4262
I1
a(lp4263
F0.375
aaI32
aa(lp4264
I1
a(lp4265
F0.461538
aaI39
aaa(lp4266
g846
ag847
a(lp4267
I1
a(lp4268
F0.230769
aaI26
aa(lp4269
I1
a(lp4270
F0.290323
aaI62
aa(lp4271
I1
a(lp4272
F0.4
aaI35
aa(lp4273
I1
a(lp4274
F0.482759
aaI29
aa(lp4275
I1
a(lp4276
F0.291667
aaI24
aa(lp4277
I1
a(lp4278
F0.25
aaI36
aa(lp4279
I1
a(lp4280
F0.222222
aaI36
aaa(lp4281
g885
ag886
aa(lp4282
g888
ag889
a(lp4283
I1
a(lp4284
F0.555556
aaI36
aa(lp4285
I1
a(lp4286
F0.516129
aaI31
aa(lp4287
I1
a(lp4288
F0.517241
aaI29
aa(lp4289
I1
a(lp4290
F0.565217
aaI46
aa(lp4291
I1
a(lp4292
F0.25
aaI32
aa(lp4293
I1
a(lp4294
F0.243902
aaI41
aa(lp4295
I1
a(lp4296
F0.333333
aaI51
aaa(lp4297
g891
ag892
a(lp4298
I1
a(lp4299
F0.290323
aaI31
aaa(lp4300
g904
ag905
a(lp4301
I1
a(lp4302
F0.230769
aaI26
aa(lp4303
I1
a(lp4304
F0.368421
aaI38
aa(lp4305
I1
a(lp4306
F0.394737
aaI38
aa(lp4307
I1
a(lp4308
F0.222222
aaI36
aa(lp4309
I1
a(lp4310
F0.2
aaI40
aa(lp4311
I1
a(lp4312
F0.2
aaI40
aa(lp4313
I1
a(lp4314
F0.206897
aaI29
aa(lp4315
I1
a(lp4316
F0.208333
aaI24
aa(lp4317
I1
a(lp4318
F0.206897
aaI29
aa(lp4319
I1
a(lp4320
F0.552632
aaI38
aa(lp4321
I1
a(lp4322
F0.567568
aaI37
aa(lp4323
I1
a(lp4324
F0.380952
aaI42
aa(lp4325
I1
a(lp4326
F0.482759
aaI29
aa(lp4327
I1
a(lp4328
F0.458333
aaI24
aa(lp4329
I1
a(lp4330
F0.3
aaI30
aa(lp4331
I1
a(lp4332
F0.275862
aaI29
aa(lp4333
I1
a(lp4334
F0.310345
aaI29
aa(lp4335
I1
a(lp4336
F0.333333
aaI21
aaa(lp4337
g933
ag934
a(lp4338
I1
a(lp4339
F0.482143
aaI56
aa(lp4340
I1
a(lp4341
F0.418182
aaI55
aaa(lp4342
g936
ag937
aa(lp4343
g939
ag940
a(lp4344
I1
a(lp4345
F0.240385
aaI104
aa(lp4346
I1
a(lp4347
F0.542857
aaI105
aa(lp4348
I1
a(lp4349
F0.583333
aaI48
aa(lp4350
I1
a(lp4351
F0.346939
aaI49
aa(lp4352
I1
a(lp4353
F0.333333
aaI48
aa(lp4354
I1
a(lp4355
F0.37037
aaI54
aa(lp4356
I1
a(lp4357
F0.232558
aaI43
aa(lp4358
I1
a(lp4359
F0.232558
aaI43
aa(lp4360
I1
a(lp4361
F0.2
aaI25
aa(lp4362
I1
a(lp4363
F0.2
aaI25
aa(lp4364
I1
a(lp4365
F0.222222
aaI36
aa(lp4366
I1
a(lp4367
F0.217391
aaI23
aa(lp4368
I1
a(lp4369
F0.347826
aaI23
aa(lp4370
I1
a(lp4371
F0.32
aaI25
aa(lp4372
I1
a(lp4373
F0.272727
aaI22
aa(lp4374
I1
a(lp4375
F0.258065
aaI31
aa(lp4376
I1
a(lp4377
F0.285714
aaI35
aaa(lp4378
g948
ag949
a(lp4379
I1
a(lp4380
F0.5
aaI38
aa(lp4381
I1
a(lp4382
F0.344828
aaI29
aa(lp4383
I1
a(lp4384
F0.26087
aaI23
aa(lp4385
I1
a(lp4386
F0.28
aaI25
aa(lp4387
I1
a(lp4388
F0.4
aaI35
aa(lp4389
I1
a(lp4390
F0.388889
aaI36
aa(lp4391
I1
a(lp4392
F0.227273
aaI22
aa(lp4393
I1
a(lp4394
F0.222222
aaI18
aa(lp4395
I1
a(lp4396
F0.2
aaI20
aa(lp4397
I1
a(lp4398
F0.304348
aaI23
aa(lp4399
I1
a(lp4400
F0.272727
aaI22
aa(lp4401
I1
a(lp4402
F0.272727
aaI22
aa(lp4403
I1
a(lp4404
F0.448276
aaI29
aaa(lp4405
g957
ag958
aa(lp4406
g964
ag965
aa(lp4407
g969
ag970
aa(lp4408
g978
ag979
aa(lp4409
g981
ag982
a(lp4410
I1
a(lp4411
F0.4
aaI25
aa(lp4412
I1
a(lp4413
F0.446809
aaI47
aa(lp4414
I1
a(lp4415
F0.466667
aaI45
aa(lp4416
I1
a(lp4417
F0.457143
aaI35
aa(lp4418
I1
a(lp4419
F0.34375
aaI32
aa(lp4420
I1
a(lp4421
F0.296296
aaI27
aaa(lp4422
g984
ag985
aa(lp4423
g987
ag988
a(lp4424
I1
a(lp4425
F0.428571
aaI28
aa(lp4426
I1
a(lp4427
F0.307692
aaI26
aa(lp4428
I1
a(lp4429
F0.333333
aaI24
aa(lp4430
I1
a(lp4431
F0.307692
aaI26
aa(lp4432
I1
a(lp4433
F0.275862
aaI29
aa(lp4434
I1
a(lp4435
F0.34375
aaI32
aa(lp4436
I1
a(lp4437
F0.28
aaI25
aa(lp4438
I1
a(lp4439
F0.32
aaI25
aaa(lp4440
g998
ag999
a(lp4441
I1
a(lp4442
F0.418605
aaI43
aa(lp4443
I1
a(lp4444
F0.441176
aaI34
aa(lp4445
I1
a(lp4446
F0.549296
aaI71
aa(lp4447
I1
a(lp4448
F0.763889
aaI72
aaa(lp4449
g1003
ag1004
aa(lp4450
g1006
ag1007
a(lp4451
I1
a(lp4452
F0.30303
aaI33
aa(lp4453
I1
a(lp4454
F0.352941
aaI51
aa(lp4455
I1
a(lp4456
F0.407407
aaI54
aaa(lp4457
g1045
ag1046
a(lp4458
I1
a(lp4459
F0.235294
aaI34
aa(lp4460
I1
a(lp4461
F0.235294
aaI34
aa(lp4462
I1
a(lp4463
F0.315789
aaI38
aa(lp4464
I1
a(lp4465
F0.225806
aaI31
aaa(lp4466
g1048
ag1049
a(lp4467
I1
a(lp4468
F0.5
aaI48
aa(lp4469
I1
a(lp4470
F0.387755
aaI49
aa(lp4471
I1
a(lp4472
F0.627119
aaI59
aa(lp4473
I1
a(lp4474
F0.784615
aaI65
aa(lp4475
I1
a(lp4476
F0.555556
aaI36
aa(lp4477
I1
a(lp4478
F0.515152
aaI33
aa(lp4479
I1
a(lp4480
F0.52381
aaI42
aa(lp4481
I1
a(lp4482
F0.28125
aaI32
aa(lp4483
I1
a(lp4484
F0.294118
aaI34
aa(lp4485
I1
a(lp4486
F0.277778
aaI36
aa(lp4487
I1
a(lp4488
F0.292683
aaI41
aa(lp4489
I1
a(lp4490
F0.5
aaI48
aa(lp4491
I1
a(lp4492
F0.344828
aaI29
aa(lp4493
I1
a(lp4494
F0.32
aaI25
aa(lp4495
I1
a(lp4496
F0.304348
aaI23
aa(lp4497
I1
a(lp4498
F0.291667
aaI24
aa(lp4499
I1
a(lp4500
F0.346154
aaI26
aa(lp4501
I1
a(lp4502
F0.290323
aaI31
aa(lp4503
I1
a(lp4504
F0.3
aaI30
aa(lp4505
I1
a(lp4506
F0.363636
aaI33
aa(lp4507
I1
a(lp4508
F0.348837
aaI43
aa(lp4509
I1
a(lp4510
F0.310345
aaI29
aa(lp4511
I1
a(lp4512
F0.367347
aaI49
aa(lp4513
I1
a(lp4514
F0.322581
aaI31
aa(lp4515
I1
a(lp4516
F0.257143
aaI35
aa(lp4517
I1
a(lp4518
F0.241379
aaI29
aa(lp4519
I1
a(lp4520
F0.354839
aaI31
aa(lp4521
I1
a(lp4522
F0.588235
aaI68
aa(lp4523
I1
a(lp4524
F0.530612
aaI49
aa(lp4525
I1
a(lp4526
F0.55102
aaI49
aa(lp4527
I1
a(lp4528
F0.530612
aaI49
aa(lp4529
I1
a(lp4530
F0.413793
aaI29
aaa(lp4531
g1081
ag1082
a(lp4532
I1
a(lp4533
F0.333333
aaI6
aa(lp4534
I1
a(lp4535
F0.333333
aaI57
aa(lp4536
I1
a(lp4537
F0.658768
aaI211
aaa(lp4538
g1134
ag1135
a(lp4539
I1
a(lp4540
F0.25
aaI32
aaa(lp4541
g1137
ag1138
aa(lp4542
g1140
ag1141
aa(lp4543
g1147
ag1148
aa(lp4544
g1152
ag1153
aa(lp4545
g1155
ag1156
a(lp4546
I1
a(lp4547
F0.30303
aaI33
aa(lp4548
I1
a(lp4549
F0.342857
aaI35
aa(lp4550
I1
a(lp4551
F0.392857
aaI28
aa(lp4552
I1
a(lp4553
F0.413793
aaI29
aa(lp4554
I1
a(lp4555
F0.307692
aaI39
aaa(lp4556
g1160
ag1161
a(lp4557
I1
a(lp4558
F0.508772
aaI57
aaa(lp4559
g1167
ag1168
a(lp4560
I1
a(lp4561
F0.22
aaI50
aa(lp4562
I1
a(lp4563
F0.25
aaI68
aaa(lp4564
g1210
ag1211
a(lp4565
I1
a(lp4566
F0.227273
aaI22
aa(lp4567
I1
a(lp4568
F0.4
aaI30
aa(lp4569
I1
a(lp4570
F0.4375
aaI32
aa(lp4571
I1
a(lp4572
F0.586207
aaI29
aa(lp4573
I1
a(lp4574
F0.575758
aaI33
aa(lp4575
I1
a(lp4576
F0.4
aaI25
aa(lp4577
I1
a(lp4578
F0.285714
aaI21
aa(lp4579
I1
a(lp4580
F0.28
aaI25
aa(lp4581
I1
a(lp4582
F0.285714
aaI28
aa(lp4583
I1
a(lp4584
F0.446429
aaI56
aa(lp4585
I1
a(lp4586
F0.266667
aaI30
aa(lp4587
I1
a(lp4588
F0.230769
aaI26
aa(lp4589
I1
a(lp4590
F0.222222
aaI27
aa(lp4591
I1
a(lp4592
F0.259259
aaI27
aa(lp4593
I1
a(lp4594
F0.24
aaI25
aa(lp4595
I1
a(lp4596
F0.354839
aaI31
aa(lp4597
I1
a(lp4598
F0.333333
aaI30
aa(lp4599
I1
a(lp4600
F0.363636
aaI33
aa(lp4601
I1
a(lp4602
F0.382353
aaI34
aaa(lp4603
g1213
ag1214
aa(lp4604
g1216
ag1217
a(lp4605
I1
a(lp4606
F0.2
aaI35
aa(lp4607
I1
a(lp4608
F0.28125
aaI32
aa(lp4609
I1
a(lp4610
F0.28125
aaI32
aa(lp4611
I1
a(lp4612
F0.5
aaI36
aaa(lp4613
g1219
ag1220
a(lp4614
I1
a(lp4615
F0.614286
aaI70
aaa(lp4616
g1222
ag1223
aa(lp4617
g1225
ag1226
a(lp4618
I1
a(lp4619
F0.282051
aaI39
aa(lp4620
I1
a(lp4621
F0.609756
aaI41
aa(lp4622
I1
a(lp4623
F0.459459
aaI37
aa(lp4624
I1
a(lp4625
F0.428571
aaI42
aaa(lp4626
g1228
ag1229
aa(lp4627
g1231
ag1232
aa(lp4628
g1234
ag1235
aa(lp4629
g1239
ag1240
aa(lp4630
g1242
ag1243
aa(lp4631
g1257
ag1258
aa(lp4632
g1260
ag1261
a(lp4633
I1
a(lp4634
F0.488889
aaI45
aa(lp4635
I1
a(lp4636
F0.5
aaI34
aa(lp4637
I1
a(lp4638
F0.285714
aaI28
aa(lp4639
I1
a(lp4640
F0.25
aaI28
aaa(lp4641
g1263
ag1264
a(lp4642
I1
a(lp4643
F0.28
aaI75
aa(lp4644
I1
a(lp4645
F0.25
aaI72
aa(lp4646
I1
a(lp4647
F0.703704
aaI81
aaa(lp4648
g1268
ag1269
aa(lp4649
g1283
ag1284
a(lp4650
I1
a(lp4651
F0.358974
aaI39
aa(lp4652
I1
a(lp4653
F0.214286
aaI28
aa(lp4654
I1
a(lp4655
F0.214286
aaI28
aa(lp4656
I1
a(lp4657
F0.357143
aaI28
aa(lp4658
I1
a(lp4659
F0.285714
aaI35
aa(lp4660
I1
a(lp4661
F0.302326
aaI43
aa(lp4662
I1
a(lp4663
F0.38806
aaI67
aa(lp4664
I1
a(lp4665
F0.523077
aaI65
aa(lp4666
I1
a(lp4667
F0.311475
aaI61
aa(lp4668
I1
a(lp4669
F0.574468
aaI47
aaa(lp4670
g1286
ag1287
aa(lp4671
g1317
ag1318
aa(lp4672
g1320
ag1321
aa(lp4673
g1323
ag1324
aa(lp4674
g1340
ag1341
aa(lp4675
g1357
ag1358
aa(lp4676
g1360
ag1361
a(lp4677
I1
a(lp4678
F0.431818
aaI44
aa(lp4679
I1
a(lp4680
F0.464286
aaI56
aa(lp4681
I1
a(lp4682
F0.25
aaI36
aaa(lp4683
g1363
ag1364
aa(lp4684
g1370
ag1371
a(lp4685
I1
a(lp4686
F0.483871
aaI31
aa(lp4687
I1
a(lp4688
F0.24
aaI25
aa(lp4689
I1
a(lp4690
F0.40625
aaI32
aa(lp4691
I1
a(lp4692
F0.482759
aaI29
aa(lp4693
I1
a(lp4694
F0.394737
aaI38
aa(lp4695
I1
a(lp4696
F0.46875
aaI32
aa(lp4697
I1
a(lp4698
F0.384615
aaI26
aa(lp4699
I1
a(lp4700
F0.459459
aaI37
aa(lp4701
I1
a(lp4702
F0.24
aaI25
aa(lp4703
I1
a(lp4704
F0.490909
aaI55
aa(lp4705
I1
a(lp4706
F0.59375
aaI32
aa(lp4707
I1
a(lp4708
F0.344828
aaI29
aa(lp4709
I1
a(lp4710
F0.27027
aaI37
aa(lp4711
I1
a(lp4712
F0.277778
aaI36
aa(lp4713
I1
a(lp4714
F0.2
aaI35
aa(lp4715
I1
a(lp4716
F0.326923
aaI52
aaa(lp4717
g1375
ag1376
aa(lp4718
g1378
ag1379
a(lp4719
I1
a(lp4720
F0.2
aaI30
aa(lp4721
I1
a(lp4722
F0.25
aaI32
aa(lp4723
I1
a(lp4724
F0.290323
aaI31
aa(lp4725
I1
a(lp4726
F0.206897
aaI29
aa(lp4727
I1
a(lp4728
F0.222222
aaI27
aa(lp4729
I1
a(lp4730
F0.238095
aaI21
aa(lp4731
I1
a(lp4732
F0.238095
aaI21
aa(lp4733
I1
a(lp4734
F0.25
aaI20
aa(lp4735
I1
a(lp4736
F0.486486
aaI37
aa(lp4737
I1
a(lp4738
F0.264706
aaI34
aa(lp4739
I1
a(lp4740
F0.424242
aaI33
aa(lp4741
I1
a(lp4742
F0.424242
aaI33
aa(lp4743
I1
a(lp4744
F0.372093
aaI43
aa(lp4745
I1
a(lp4746
F0.390244
aaI41
aa(lp4747
I1
a(lp4748
F0.405405
aaI37
aa(lp4749
I1
a(lp4750
F0.366667
aaI30
aa(lp4751
I1
a(lp4752
F0.538462
aaI52
aa(lp4753
I1
a(lp4754
F0.44898
aaI49
aa(lp4755
I1
a(lp4756
F0.361111
aaI36
aa(lp4757
I1
a(lp4758
F0.394737
aaI38
aaa(lp4759
g1391
ag1392
a(lp4760
I1
a(lp4761
F0.28125
aaI32
aa(lp4762
I1
a(lp4763
F0.235294
aaI34
aa(lp4764
I1
a(lp4765
F0.518519
aaI27
aa(lp4766
I1
a(lp4767
F0.481481
aaI27
aa(lp4768
I1
a(lp4769
F0.533333
aaI30
aa(lp4770
I1
a(lp4771
F0.533333
aaI30
aa(lp4772
I1
a(lp4773
F0.516129
aaI31
aa(lp4774
I1
a(lp4775
F0.483871
aaI31
aa(lp4776
I1
a(lp4777
F0.5
aaI30
aa(lp4778
I1
a(lp4779
F0.466667
aaI30
aa(lp4780
I1
a(lp4781
F0.538462
aaI26
aa(lp4782
I1
a(lp4783
F0.451613
aaI31
aa(lp4784
I1
a(lp4785
F0.44
aaI25
aa(lp4786
I1
a(lp4787
F0.291667
aaI24
aa(lp4788
I1
a(lp4789
F0.227273
aaI22
aa(lp4790
I1
a(lp4791
F0.227273
aaI22
aa(lp4792
I1
a(lp4793
F0.25
aaI24
aa(lp4794
I1
a(lp4795
F0.291667
aaI24
aa(lp4796
I1
a(lp4797
F0.333333
aaI24
aa(lp4798
I1
a(lp4799
F0.347826
aaI23
aa(lp4800
I1
a(lp4801
F0.32
aaI25
aa(lp4802
I1
a(lp4803
F0.304348
aaI23
aa(lp4804
I1
a(lp4805
F0.210526
aaI19
aa(lp4806
I1
a(lp4807
F0.269231
aaI26
aa(lp4808
I1
a(lp4809
F0.2
aaI15
aa(lp4810
I1
a(lp4811
F0.269231
aaI26
aa(lp4812
I1
a(lp4813
F0.285714
aaI28
aa(lp4814
I1
a(lp4815
F0.344828
aaI29
aa(lp4816
I1
a(lp4817
F0.366667
aaI30
aa(lp4818
I1
a(lp4819
F0.3
aaI30
aa(lp4820
I1
a(lp4821
F0.28125
aaI32
aa(lp4822
I1
a(lp4823
F0.314286
aaI35
aa(lp4824
I1
a(lp4825
F0.2
aaI20
aa(lp4826
I1
a(lp4827
F0.25
aaI24
aa(lp4828
I1
a(lp4829
F0.291667
aaI24
aa(lp4830
I1
a(lp4831
F0.25
aaI28
aa(lp4832
I1
a(lp4833
F0.3
aaI30
aa(lp4834
I1
a(lp4835
F0.419355
aaI31
aa(lp4836
I1
a(lp4837
F0.444444
aaI36
aa(lp4838
I1
a(lp4839
F0.428571
aaI35
aa(lp4840
I1
a(lp4841
F0.441176
aaI34
aa(lp4842
I1
a(lp4843
F0.424242
aaI33
aa(lp4844
I1
a(lp4845
F0.424242
aaI33
aa(lp4846
I1
a(lp4847
F0.4
aaI30
aa(lp4848
I1
a(lp4849
F0.285714
aaI28
aa(lp4850
I1
a(lp4851
F0.259259
aaI27
aa(lp4852
I1
a(lp4853
F0.333333
aaI36
aa(lp4854
I1
a(lp4855
F0.352941
aaI34
aa(lp4856
I1
a(lp4857
F0.310345
aaI29
aa(lp4858
I1
a(lp4859
F0.333333
aaI30
aa(lp4860
I1
a(lp4861
F0.392857
aaI28
aa(lp4862
I1
a(lp4863
F0.428571
aaI28
aa(lp4864
I1
a(lp4865
F0.375
aaI32
aa(lp4866
I1
a(lp4867
F0.217391
aaI23
aa(lp4868
I1
a(lp4869
F0.227273
aaI22
aa(lp4870
I1
a(lp4871
F0.25
aaI28
aa(lp4872
I1
a(lp4873
F0.28
aaI25
aa(lp4874
I1
a(lp4875
F0.34375
aaI32
aa(lp4876
I1
a(lp4877
F0.34375
aaI32
aa(lp4878
I1
a(lp4879
F0.25
aaI28
aa(lp4880
I1
a(lp4881
F0.2
aaI25
aaa(lp4882
g1462
ag1463
a(lp4883
I1
a(lp4884
F0.0
aaI11
aa(lp4885
I1
a(lp4886
F0.483871
aaI31
aa(lp4887
I1
a(lp4888
F0.25
aaI40
aa(lp4889
I1
a(lp4890
F0.470588
aaI34
aa(lp4891
I1
a(lp4892
F0.327273
aaI55
aa(lp4893
I1
a(lp4894
F0.545455
aaI33
aa(lp4895
I1
a(lp4896
F0.592593
aaI27
aa(lp4897
I1
a(lp4898
F0.444444
aaI36
aa(lp4899
I1
a(lp4900
F0.5
aaI40
aa(lp4901
I1
a(lp4902
F0.304348
aaI23
aa(lp4903
I1
a(lp4904
F0.346154
aaI26
aa(lp4905
I1
a(lp4906
F0.333333
aaI24
aa(lp4907
I1
a(lp4908
F0.466667
aaI30
aa(lp4909
I1
a(lp4910
F0.4
aaI40
aa(lp4911
I1
a(lp4912
F0.461538
aaI39
aa(lp4913
I1
a(lp4914
F0.568182
aaI44
aa(lp4915
I1
a(lp4916
F0.405405
aaI37
aa(lp4917
I1
a(lp4918
F0.377358
aaI53
aaa(lp4919
g1481
ag1482
aa(lp4920
g1484
ag1485
a(lp4921
I1
a(lp4922
F0.26087
aaI23
aa(lp4923
I1
a(lp4924
F0.538462
aaI26
aa(lp4925
I1
a(lp4926
F0.428571
aaI28
aa(lp4927
I1
a(lp4928
F0.516129
aaI31
aa(lp4929
I1
a(lp4930
F0.421053
aaI19
aa(lp4931
I1
a(lp4932
F0.361111
aaI36
aa(lp4933
I1
a(lp4934
F0.405405
aaI37
aa(lp4935
I1
a(lp4936
F0.416667
aaI36
aa(lp4937
I1
a(lp4938
F0.235294
aaI34
aa(lp4939
I1
a(lp4940
F0.275862
aaI29
aa(lp4941
I1
a(lp4942
F0.363636
aaI22
aa(lp4943
I1
a(lp4944
F0.4
aaI30
aaa(lp4945
g1495
ag1496
a(lp4946
I1
a(lp4947
F0.4
aaI30
aa(lp4948
I1
a(lp4949
F0.416667
aaI36
aa(lp4950
I1
a(lp4951
F0.310345
aaI29
aa(lp4952
I1
a(lp4953
F0.540541
aaI37
aa(lp4954
I1
a(lp4955
F0.463415
aaI41
aa(lp4956
I1
a(lp4957
F0.5
aaI32
aa(lp4958
I1
a(lp4959
F0.264706
aaI34
aaa(lp4960
g1514
ag1515
a(lp4961
I1
a(lp4962
F0.431818
aaI44
aa(lp4963
I1
a(lp4964
F0.344828
aaI29
aa(lp4965
I1
a(lp4966
F0.378378
aaI74
aa(lp4967
I1
a(lp4968
F0.333333
aaI45
aa(lp4969
I1
a(lp4970
F0.27907
aaI43
aa(lp4971
I1
a(lp4972
F0.410714
aaI56
aa(lp4973
I1
a(lp4974
F0.333333
aaI60
aa(lp4975
I1
a(lp4976
F0.555556
aaI54
aa(lp4977
I1
a(lp4978
F0.368421
aaI38
aaa(lp4979
g1541
ag1542
a(lp4980
I1
a(lp4981
F0.425
aaI40
aa(lp4982
I1
a(lp4983
F0.292683
aaI41
aa(lp4984
I1
a(lp4985
F0.324324
aaI37
aa(lp4986
I1
a(lp4987
F0.378378
aaI37
aa(lp4988
I1
a(lp4989
F0.384615
aaI39
aaa(lp4990
g1548
ag1549
a(lp4991
I1
a(lp4992
F0.52381
aaI42
aa(lp4993
I1
a(lp4994
F0.468085
aaI47
aa(lp4995
I1
a(lp4996
F0.457143
aaI35
aa(lp4997
I1
a(lp4998
F0.472222
aaI36
aa(lp4999
I1
a(lp5000
F0.333333
aaI30
aa(lp5001
I1
a(lp5002
F0.26087
aaI23
aa(lp5003
I1
a(lp5004
F0.217391
aaI23
aa(lp5005
I1
a(lp5006
F0.542857
aaI35
aa(lp5007
I1
a(lp5008
F0.34375
aaI32
aa(lp5009
I1
a(lp5010
F0.241379
aaI29
aa(lp5011
I1
a(lp5012
F0.435897
aaI39
aa(lp5013
I1
a(lp5014
F0.461538
aaI39
aa(lp5015
I1
a(lp5016
F0.393939
aaI33
aa(lp5017
I1
a(lp5018
F0.259259
aaI27
aa(lp5019
I1
a(lp5020
F0.210526
aaI19
aa(lp5021
I1
a(lp5022
F0.208333
aaI24
aa(lp5023
I1
a(lp5024
F0.217391
aaI23
aa(lp5025
I1
a(lp5026
F0.419355
aaI31
aa(lp5027
I1
a(lp5028
F0.342857
aaI35
aa(lp5029
I1
a(lp5030
F0.285714
aaI42
aa(lp5031
I1
a(lp5032
F0.268293
aaI41
aa(lp5033
I1
a(lp5034
F0.282051
aaI39
aa(lp5035
I1
a(lp5036
F0.27027
aaI37
aa(lp5037
I1
a(lp5038
F0.44186
aaI43
aa(lp5039
I1
a(lp5040
F0.428571
aaI49
aa(lp5041
I1
a(lp5042
F0.4375
aaI48
aa(lp5043
I1
a(lp5044
F0.472222
aaI36
aa(lp5045
I1
a(lp5046
F0.548387
aaI31
aa(lp5047
I1
a(lp5048
F0.571429
aaI28
aa(lp5049
I1
a(lp5050
F0.5
aaI30
aa(lp5051
I1
a(lp5052
F0.5
aaI30
aa(lp5053
I1
a(lp5054
F0.515152
aaI33
aa(lp5055
I1
a(lp5056
F0.387097
aaI31
aa(lp5057
I1
a(lp5058
F0.333333
aaI39
aa(lp5059
I1
a(lp5060
F0.297297
aaI37
aa(lp5061
I1
a(lp5062
F0.323529
aaI34
aa(lp5063
I1
a(lp5064
F0.37931
aaI29
aa(lp5065
I1
a(lp5066
F0.36
aaI25
aa(lp5067
I1
a(lp5068
F0.375
aaI40
aa(lp5069
I1
a(lp5070
F0.272727
aaI22
aaa(lp5071
g1613
ag1614
aa(lp5072
g1622
ag1623
a(lp5073
I1
a(lp5074
F0.217391
aaI69
aa(lp5075
I1
a(lp5076
F0.533333
aaI45
aa(lp5077
I1
a(lp5078
F0.5
aaI52
aa(lp5079
I1
a(lp5080
F0.434783
aaI46
aa(lp5081
I1
a(lp5082
F0.213115
aaI61
aa(lp5083
I1
a(lp5084
F0.326923
aaI52
aa(lp5085
I1
a(lp5086
F0.333333
aaI54
aa(lp5087
I1
a(lp5088
F0.410256
aaI39
aa(lp5089
I1
a(lp5090
F0.428571
aaI42
aa(lp5091
I1
a(lp5092
F0.555556
aaI45
aa(lp5093
I1
a(lp5094
F0.2
aaI60
aaa(lp5095
g1625
ag1626
a(lp5096
I1
a(lp5097
F0.444444
aaI36
aa(lp5098
I1
a(lp5099
F0.259259
aaI27
aa(lp5100
I1
a(lp5101
F0.25
aaI40
aa(lp5102
I1
a(lp5103
F0.519231
aaI52
aaa(lp5104
g1628
ag1629
a(lp5105
I1
a(lp5106
F0.636364
aaI22
aa(lp5107
I1
a(lp5108
F0.530612
aaI49
aa(lp5109
I1
a(lp5110
F0.315789
aaI38
aa(lp5111
I1
a(lp5112
F0.435897
aaI39
aa(lp5113
I1
a(lp5114
F0.32
aaI25
aa(lp5115
I1
a(lp5116
F0.346154
aaI26
aa(lp5117
I1
a(lp5118
F0.416667
aaI24
aa(lp5119
I1
a(lp5120
F0.423077
aaI26
aa(lp5121
I1
a(lp5122
F0.48
aaI25
aa(lp5123
I1
a(lp5124
F0.672131
aaI61
aa(lp5125
I1
a(lp5126
F0.241379
aaI29
aaa(lp5127
g1655
ag1656
a(lp5128
I1
a(lp5129
F0.521739
aaI46
aa(lp5130
I1
a(lp5131
F0.333333
aaI30
aa(lp5132
I1
a(lp5133
F0.371429
aaI35
aa(lp5134
I1
a(lp5135
F0.588235
aaI34
aa(lp5136
I1
a(lp5137
F0.26087
aaI23
aa(lp5138
I1
a(lp5139
F0.291667
aaI24
aa(lp5140
I1
a(lp5141
F0.233333
aaI30
aa(lp5142
I1
a(lp5143
F0.388889
aaI36
aa(lp5144
I1
a(lp5145
F0.289474
aaI38
aa(lp5146
I1
a(lp5147
F0.206897
aaI29
aa(lp5148
I1
a(lp5149
F0.214286
aaI28
aa(lp5150
I1
a(lp5151
F0.206897
aaI29
aa(lp5152
I1
a(lp5153
F0.428571
aaI42
aa(lp5154
I1
a(lp5155
F0.451613
aaI31
aa(lp5156
I1
a(lp5157
F0.411765
aaI34
aaa(lp5158
g1672
ag1673
aa(lp5159
g1675
ag1676
aa(lp5160
g1678
ag1679
aa(lp5161
g1681
ag1682
a(lp5162
I1
a(lp5163
F0.564103
aaI39
aa(lp5164
I1
a(lp5165
F0.25
aaI48
aa(lp5166
I1
a(lp5167
F0.333333
aaI45
aa(lp5168
I1
a(lp5169
F0.454545
aaI33
aa(lp5170
I1
a(lp5171
F0.552632
aaI38
aa(lp5172
I1
a(lp5173
F0.358974
aaI39
aa(lp5174
I1
a(lp5175
F0.642857
aaI28
aa(lp5176
I1
a(lp5177
F0.25
aaI28
aa(lp5178
I1
a(lp5179
F0.347826
aaI23
aa(lp5180
I1
a(lp5181
F0.368421
aaI19
aa(lp5182
I1
a(lp5183
F0.259259
aaI27
aa(lp5184
I1
a(lp5185
F0.3125
aaI32
aa(lp5186
I1
a(lp5187
F0.3
aaI30
aa(lp5188
I1
a(lp5189
F0.296296
aaI27
aaa(lp5190
g1710
ag1711
aa(lp5191
g1713
ag1714
a(lp5192
I1
a(lp5193
F0.212121
aaI33
aa(lp5194
I1
a(lp5195
F0.325581
aaI43
aa(lp5196
I1
a(lp5197
F0.366667
aaI30
aa(lp5198
I1
a(lp5199
F0.324324
aaI37
aa(lp5200
I1
a(lp5201
F0.243243
aaI37
aa(lp5202
I1
a(lp5203
F0.386364
aaI44
aa(lp5204
I1
a(lp5205
F0.465116
aaI43
aa(lp5206
I1
a(lp5207
F0.447368
aaI38
aa(lp5208
I1
a(lp5209
F0.214286
aaI42
aa(lp5210
I1
a(lp5211
F0.5
aaI42
aa(lp5212
I1
a(lp5213
F0.388889
aaI36
aa(lp5214
I1
a(lp5215
F0.361111
aaI36
aa(lp5216
I1
a(lp5217
F0.361111
aaI36
aa(lp5218
I1
a(lp5219
F0.487805
aaI41
aa(lp5220
I1
a(lp5221
F0.44
aaI50
aa(lp5222
I1
a(lp5223
F0.264706
aaI34
aaa(lp5224
g1750
ag1751
aa(lp5225
g1753
ag1754
aa(lp5226
g1780
ag1781
a(lp5227
I1
a(lp5228
F0.409091
aaI44
aa(lp5229
I1
a(lp5230
F0.208333
aaI24
aa(lp5231
I1
a(lp5232
F0.324324
aaI37
aa(lp5233
I1
a(lp5234
F0.212121
aaI33
aa(lp5235
I1
a(lp5236
F0.27027
aaI37
aa(lp5237
I1
a(lp5238
F0.341463
aaI41
aa(lp5239
I1
a(lp5240
F0.368421
aaI38
aa(lp5241
I1
a(lp5242
F0.382353
aaI34
aa(lp5243
I1
a(lp5244
F0.342105
aaI38
aa(lp5245
I1
a(lp5246
F0.473684
aaI19
aa(lp5247
I1
a(lp5248
F0.346154
aaI26
aa(lp5249
I1
a(lp5250
F0.310345
aaI29
aa(lp5251
I1
a(lp5252
F0.407407
aaI27
aa(lp5253
I1
a(lp5254
F0.258065
aaI31
aa(lp5255
I1
a(lp5256
F0.222222
aaI27
aa(lp5257
I1
a(lp5258
F0.225806
aaI31
aa(lp5259
I1
a(lp5260
F0.206897
aaI29
aa(lp5261
I1
a(lp5262
F0.361702
aaI47
aa(lp5263
I1
a(lp5264
F0.3
aaI40
aa(lp5265
I1
a(lp5266
F0.342105
aaI38
aa(lp5267
I1
a(lp5268
F0.365854
aaI41
aa(lp5269
I1
a(lp5270
F0.346154
aaI26
aa(lp5271
I1
a(lp5272
F0.428571
aaI35
aa(lp5273
I1
a(lp5274
F0.388889
aaI36
aa(lp5275
I1
a(lp5276
F0.571429
aaI35
aaa(lp5277
g1815
ag1816
a(lp5278
I1
a(lp5279
F0.424242
aaI33
aa(lp5280
I1
a(lp5281
F0.268293
aaI41
aaa(lp5282
g1818
ag1819
a(lp5283
I1
a(lp5284
F0.565217
aaI46
aa(lp5285
I1
a(lp5286
F0.434783
aaI46
aa(lp5287
I1
a(lp5288
F0.409091
aaI44
aa(lp5289
I1
a(lp5290
F0.468085
aaI47
aa(lp5291
I1
a(lp5292
F0.521739
aaI46
aa(lp5293
I1
a(lp5294
F0.333333
aaI30
aa(lp5295
I1
a(lp5296
F0.461538
aaI26
aa(lp5297
I1
a(lp5298
F0.342857
aaI35
aa(lp5299
I1
a(lp5300
F0.518519
aaI27
aa(lp5301
I1
a(lp5302
F0.5
aaI32
aa(lp5303
I1
a(lp5304
F0.363636
aaI33
aa(lp5305
I1
a(lp5306
F0.351351
aaI37
aa(lp5307
I1
a(lp5308
F0.382979
aaI47
aa(lp5309
I1
a(lp5310
F0.470588
aaI34
aa(lp5311
I1
a(lp5312
F0.4
aaI30
aa(lp5313
I1
a(lp5314
F0.393939
aaI33
aa(lp5315
I1
a(lp5316
F0.424242
aaI33
aa(lp5317
I1
a(lp5318
F0.34375
aaI32
aa(lp5319
I1
a(lp5320
F0.354839
aaI31
aaa(lp5321
g1821
ag1822
aa(lp5322
g1824
ag1825
aa(lp5323
g1827
ag1828
aa(lp5324
g1830
ag1831
aa(lp5325
g1833
ag1834
a(lp5326
I1
a(lp5327
F0.264706
aaI34
aa(lp5328
I1
a(lp5329
F0.25
aaI44
aaa(lp5330
g1838
ag1839
a(lp5331
I1
a(lp5332
F0.489796
aaI49
aaa(lp5333
g1845
ag1846
a(lp5334
I1
a(lp5335
F0.557692
aaI52
aa(lp5336
I1
a(lp5337
F0.489362
aaI47
aa(lp5338
I1
a(lp5339
F0.25
aaI24
aa(lp5340
I1
a(lp5341
F0.352941
aaI34
aa(lp5342
I1
a(lp5343
F0.411765
aaI51
aaa(lp5344
g1854
ag1855
a(lp5345
I1
a(lp5346
F0.282609
aaI46
aa(lp5347
I1
a(lp5348
F0.395349
aaI43
aa(lp5349
I1
a(lp5350
F0.392857
aaI28
aa(lp5351
I1
a(lp5352
F0.275862
aaI29
aa(lp5353
I1
a(lp5354
F0.5
aaI36
aa(lp5355
I1
a(lp5356
F0.589744
aaI39
aa(lp5357
I1
a(lp5358
F0.459459
aaI37
aa(lp5359
I1
a(lp5360
F0.421053
aaI38
aa(lp5361
I1
a(lp5362
F0.341463
aaI41
aa(lp5363
I1
a(lp5364
F0.3125
aaI48
aa(lp5365
I1
a(lp5366
F0.323529
aaI34
aa(lp5367
I1
a(lp5368
F0.25
aaI28
aa(lp5369
I1
a(lp5370
F0.235294
aaI34
aa(lp5371
I1
a(lp5372
F0.228571
aaI35
aaa(lp5373
g1883
ag1884
a(lp5374
I1
a(lp5375
F0.414634
aaI41
aa(lp5376
I1
a(lp5377
F0.32
aaI25
aa(lp5378
I1
a(lp5379
F0.32
aaI25
aa(lp5380
I1
a(lp5381
F0.277778
aaI36
aa(lp5382
I1
a(lp5383
F0.35
aaI20
aa(lp5384
I1
a(lp5385
F0.4
aaI20
aa(lp5386
I1
a(lp5387
F0.5
aaI44
aa(lp5388
I1
a(lp5389
F0.3
aaI40
aa(lp5390
I1
a(lp5391
F0.520833
aaI48
aa(lp5392
I1
a(lp5393
F0.419355
aaI31
aa(lp5394
I1
a(lp5395
F0.324324
aaI37
aa(lp5396
I1
a(lp5397
F0.333333
aaI36
aaa(lp5398
g1894
ag1895
a(lp5399
I1
a(lp5400
F0.391304
aaI46
aa(lp5401
I1
a(lp5402
F0.463415
aaI41
aa(lp5403
I1
a(lp5404
F0.414634
aaI41
aa(lp5405
I1
a(lp5406
F0.28125
aaI64
aa(lp5407
I1
a(lp5408
F0.296296
aaI27
aa(lp5409
I1
a(lp5410
F0.333333
aaI30
aa(lp5411
I1
a(lp5412
F0.628571
aaI35
aa(lp5413
I1
a(lp5414
F0.6875
aaI32
aa(lp5415
I1
a(lp5416
F0.428571
aaI42
aa(lp5417
I1
a(lp5418
F0.472222
aaI36
aa(lp5419
I1
a(lp5420
F0.589744
aaI39
aa(lp5421
I1
a(lp5422
F0.333333
aaI15
aa(lp5423
I1
a(lp5424
F0.695652
aaI46
aaa(lp5425
g1903
ag1904
a(lp5426
I1
a(lp5427
F0.21875
aaI32
aa(lp5428
I1
a(lp5429
F0.291667
aaI24
aa(lp5430
I1
a(lp5431
F0.291667
aaI24
aa(lp5432
I1
a(lp5433
F0.291667
aaI24
aa(lp5434
I1
a(lp5435
F0.322581
aaI31
aa(lp5436
I1
a(lp5437
F0.25641
aaI39
aa(lp5438
I1
a(lp5439
F0.263158
aaI38
aa(lp5440
I1
a(lp5441
F0.444444
aaI36
aaa(lp5442
g1944
ag1945
a(lp5443
I1
a(lp5444
F0.384615
aaI13
aa(lp5445
I1
a(lp5446
F0.368421
aaI19
aa(lp5447
I1
a(lp5448
F0.418605
aaI43
aa(lp5449
I1
a(lp5450
F0.421053
aaI38
aa(lp5451
I1
a(lp5452
F0.465116
aaI43
aa(lp5453
I1
a(lp5454
F0.486486
aaI37
aa(lp5455
I1
a(lp5456
F0.214286
aaI28
aa(lp5457
I1
a(lp5458
F0.2
aaI30
aa(lp5459
I1
a(lp5460
F0.424242
aaI33
aa(lp5461
I1
a(lp5462
F0.208333
aaI24
aa(lp5463
I1
a(lp5464
F0.2
aaI35
aa(lp5465
I1
a(lp5466
F0.25
aaI32
aa(lp5467
I1
a(lp5468
F0.25
aaI32
aa(lp5469
I1
a(lp5470
F0.3
aaI20
aaa(lp5471
g1947
ag1948
a(lp5472
I1
a(lp5473
F0.647059
aaI17
aaa(lp5474
g1956
ag1957
aa(lp5475
g1959
ag1960
aa(lp5476
g1962
ag1963
aa(lp5477
g1975
ag1976
aa(lp5478
g1978
ag1979
a(lp5479
I1
a(lp5480
F0.277778
aaI36
aa(lp5481
I1
a(lp5482
F0.428571
aaI42
aa(lp5483
I1
a(lp5484
F0.358974
aaI39
aa(lp5485
I1
a(lp5486
F0.375
aaI24
aa(lp5487
I1
a(lp5488
F0.347826
aaI23
aa(lp5489
I1
a(lp5490
F0.333333
aaI39
aa(lp5491
I1
a(lp5492
F0.384615
aaI39
aa(lp5493
I1
a(lp5494
F0.219512
aaI41
aa(lp5495
I1
a(lp5496
F0.290323
aaI31
aa(lp5497
I1
a(lp5498
F0.514286
aaI35
aa(lp5499
I1
a(lp5500
F0.259259
aaI27
aa(lp5501
I1
a(lp5502
F0.214286
aaI28
aa(lp5503
I1
a(lp5504
F0.206897
aaI29
aa(lp5505
I1
a(lp5506
F0.222222
aaI27
aa(lp5507
I1
a(lp5508
F0.52381
aaI42
aa(lp5509
I1
a(lp5510
F0.310345
aaI29
aa(lp5511
I1
a(lp5512
F0.333333
aaI30
aa(lp5513
I1
a(lp5514
F0.5
aaI34
aaa(lp5515
g2007
ag2008
aa(lp5516
g2010
ag2011
aa(lp5517
g2045
ag2046
aa(lp5518
g2054
ag2055
a(lp5519
I1
a(lp5520
F0.27907
aaI43
aaa(lp5521
g2059
ag2060
a(lp5522
I1
a(lp5523
F0.34375
aaI32
aa(lp5524
I1
a(lp5525
F0.34375
aaI32
aa(lp5526
I1
a(lp5527
F0.3
aaI30
aa(lp5528
I1
a(lp5529
F0.222222
aaI27
aa(lp5530
I1
a(lp5531
F0.214286
aaI28
aaa(lp5532
g2062
ag2063
a(lp5533
I1
a(lp5534
F0.233333
aaI30
aa(lp5535
I1
a(lp5536
F0.277778
aaI18
aa(lp5537
I1
a(lp5538
F0.205882
aaI34
aa(lp5539
I1
a(lp5540
F0.323529
aaI34
aa(lp5541
I1
a(lp5542
F0.333333
aaI30
aa(lp5543
I1
a(lp5544
F0.421053
aaI38
aa(lp5545
I1
a(lp5546
F0.346154
aaI26
aa(lp5547
I1
a(lp5548
F0.490566
aaI53
aa(lp5549
I1
a(lp5550
F0.272727
aaI33
aa(lp5551
I1
a(lp5552
F0.264706
aaI34
aa(lp5553
I1
a(lp5554
F0.321429
aaI28
aa(lp5555
I1
a(lp5556
F0.333333
aaI33
aa(lp5557
I1
a(lp5558
F0.272727
aaI33
aa(lp5559
I1
a(lp5560
F0.289474
aaI38
aa(lp5561
I1
a(lp5562
F0.297297
aaI37
aa(lp5563
I1
a(lp5564
F0.314286
aaI35
aa(lp5565
I1
a(lp5566
F0.44186
aaI43
aa(lp5567
I1
a(lp5568
F0.258065
aaI31
aa(lp5569
I1
a(lp5570
F0.2
aaI40
aa(lp5571
I1
a(lp5572
F0.243243
aaI37
aa(lp5573
I1
a(lp5574
F0.322581
aaI31
aa(lp5575
I1
a(lp5576
F0.3125
aaI32
aa(lp5577
I1
a(lp5578
F0.37931
aaI29
aa(lp5579
I1
a(lp5580
F0.25
aaI20
aa(lp5581
I1
a(lp5582
F0.222222
aaI27
aa(lp5583
I1
a(lp5584
F0.3
aaI20
aa(lp5585
I1
a(lp5586
F0.358974
aaI39
aa(lp5587
I1
a(lp5588
F0.378378
aaI37
aa(lp5589
I1
a(lp5590
F0.258065
aaI31
aa(lp5591
I1
a(lp5592
F0.357143
aaI42
aa(lp5593
I1
a(lp5594
F0.64
aaI25
aa(lp5595
I1
a(lp5596
F0.576923
aaI26
aa(lp5597
I1
a(lp5598
F0.444444
aaI36
aa(lp5599
I1
a(lp5600
F0.435897
aaI39
aa(lp5601
I1
a(lp5602
F0.525424
aaI59
aa(lp5603
I1
a(lp5604
F0.558824
aaI34
aaa(lp5605
g2079
ag2080
aa(lp5606
g2084
ag2085
a(lp5607
I1
a(lp5608
F0.333333
aaI54
aa(lp5609
I1
a(lp5610
F0.34375
aaI64
aaa(lp5611
g2095
ag2096
a(lp5612
I1
a(lp5613
F0.0
aaI69
aaa(lp5614
g2106
ag2107
aa(lp5615
g2109
ag2110
aa(lp5616
g2146
ag2147
aa(lp5617
g2177
ag2178
a(lp5618
I1
a(lp5619
F0.268293
aaI41
aa(lp5620
I1
a(lp5621
F0.415094
aaI53
aa(lp5622
I1
a(lp5623
F0.378378
aaI37
aa(lp5624
I1
a(lp5625
F0.307692
aaI26
aa(lp5626
I1
a(lp5627
F0.342857
aaI35
aa(lp5628
I1
a(lp5629
F0.452381
aaI42
aa(lp5630
I1
a(lp5631
F0.5
aaI46
aa(lp5632
I1
a(lp5633
F0.413793
aaI29
aa(lp5634
I1
a(lp5635
F0.294118
aaI17
aa(lp5636
I1
a(lp5637
F0.543478
aaI46
aa(lp5638
I1
a(lp5639
F0.596154
aaI52
aa(lp5640
I1
a(lp5641
F0.208333
aaI24
aa(lp5642
I1
a(lp5643
F0.25
aaI24
aa(lp5644
I1
a(lp5645
F0.25641
aaI39
aa(lp5646
I1
a(lp5647
F0.333333
aaI39
aa(lp5648
I1
a(lp5649
F0.307692
aaI26
aa(lp5650
I1
a(lp5651
F0.375
aaI24
aa(lp5652
I1
a(lp5653
F0.392857
aaI28
aa(lp5654
I1
a(lp5655
F0.317073
aaI41
aa(lp5656
I1
a(lp5657
F0.405405
aaI37
aa(lp5658
I1
a(lp5659
F0.275
aaI40
aa(lp5660
I1
a(lp5661
F0.285714
aaI35
aa(lp5662
I1
a(lp5663
F0.30303
aaI33
aa(lp5664
I1
a(lp5665
F0.382353
aaI34
aa(lp5666
I1
a(lp5667
F0.4375
aaI16
aa(lp5668
I1
a(lp5669
F0.214286
aaI14
aa(lp5670
I1
a(lp5671
F0.2
aaI15
aa(lp5672
I1
a(lp5673
F0.333333
aaI6
aaa(lp5674
g2188
ag2189
aa(lp5675
g2199
ag2200
a(lp5676
I1
a(lp5677
F0.259259
aaI27
aa(lp5678
I1
a(lp5679
F0.325
aaI40
aa(lp5680
I1
a(lp5681
F0.387097
aaI31
aa(lp5682
I1
a(lp5683
F0.25
aaI32
aa(lp5684
I1
a(lp5685
F0.416667
aaI36
aa(lp5686
I1
a(lp5687
F0.375
aaI24
aa(lp5688
I1
a(lp5689
F0.206897
aaI29
aaa(lp5690
g2204
ag2205
a(lp5691
I1
a(lp5692
F0.352941
aaI34
aa(lp5693
I1
a(lp5694
F0.46875
aaI32
aa(lp5695
I1
a(lp5696
F0.242424
aaI33
aa(lp5697
I1
a(lp5698
F0.235294
aaI34
aa(lp5699
I1
a(lp5700
F0.210526
aaI38
aaa(lp5701
g2207
ag2208
aa(lp5702
g2210
ag2211
aa(lp5703
g2213
ag2214
aa(lp5704
g2252
ag2253
aa(lp5705
g2255
ag2256
a(lp5706
I1
a(lp5707
F0.333333
aaI15
aa(lp5708
I1
a(lp5709
F0.3125
aaI16
aa(lp5710
I1
a(lp5711
F0.35
aaI20
aa(lp5712
I1
a(lp5713
F0.285714
aaI21
aa(lp5714
I1
a(lp5715
F0.285714
aaI21
aa(lp5716
I1
a(lp5717
F0.318182
aaI22
aa(lp5718
I1
a(lp5719
F0.304348
aaI23
aa(lp5720
I1
a(lp5721
F0.28125
aaI32
aa(lp5722
I1
a(lp5723
F0.757576
aaI33
aaa(lp5724
g2258
ag2259
aa(lp5725
g2283
ag2284
a(lp5726
I1
a(lp5727
F0.428571
aaI49
aa(lp5728
I1
a(lp5729
F0.282051
aaI39
aa(lp5730
I1
a(lp5731
F0.387097
aaI31
aaa(lp5732
g2286
ag2287
aa(lp5733
g2289
ag2290
aa(lp5734
g2296
ag2297
aa(lp5735
g2305
ag2306
aa(lp5736
g2316
ag2317
aa(lp5737
g2319
ag2320
a(lp5738
I1
a(lp5739
F0.235294
aaI153
aa(lp5740
I1
a(lp5741
F0.255814
aaI43
aa(lp5742
I1
a(lp5743
F0.5
aaI26
aa(lp5744
I1
a(lp5745
F0.272727
aaI33
aaa(lp5746
g2324
ag2325
a(lp5747
I1
a(lp5748
F0.35
aaI40
aa(lp5749
I1
a(lp5750
F0.454545
aaI44
aa(lp5751
I1
a(lp5752
F0.432432
aaI37
aa(lp5753
I1
a(lp5754
F0.416667
aaI36
aa(lp5755
I1
a(lp5756
F0.46875
aaI32
aa(lp5757
I1
a(lp5758
F0.48
aaI25
aa(lp5759
I1
a(lp5760
F0.631579
aaI38
aa(lp5761
I1
a(lp5762
F0.634146
aaI41
aa(lp5763
I1
a(lp5764
F0.25
aaI32
aa(lp5765
I1
a(lp5766
F0.371429
aaI35
aa(lp5767
I1
a(lp5768
F0.341463
aaI41
aa(lp5769
I1
a(lp5770
F0.208333
aaI24
aa(lp5771
I1
a(lp5772
F0.24
aaI25
aa(lp5773
I1
a(lp5774
F0.26087
aaI23
aa(lp5775
I1
a(lp5776
F0.366667
aaI30
aa(lp5777
I1
a(lp5778
F0.354839
aaI31
aa(lp5779
I1
a(lp5780
F0.366667
aaI30
aa(lp5781
I1
a(lp5782
F0.419355
aaI31
aa(lp5783
I1
a(lp5784
F0.387097
aaI31
aa(lp5785
I1
a(lp5786
F0.418605
aaI43
aa(lp5787
I1
a(lp5788
F0.475
aaI40
aa(lp5789
I1
a(lp5790
F0.321429
aaI28
aaa(lp5791
g2327
ag2328
a(lp5792
I1
a(lp5793
F0.222222
aaI18
aaa(lp5794
g2348
ag2349
a(lp5795
I1
a(lp5796
F0.5
aaI32
aa(lp5797
I1
a(lp5798
F0.204082
aaI49
aa(lp5799
I1
a(lp5800
F0.304348
aaI23
aa(lp5801
I1
a(lp5802
F0.35
aaI20
aa(lp5803
I1
a(lp5804
F0.234043
aaI47
aa(lp5805
I1
a(lp5806
F0.23913
aaI46
aa(lp5807
I1
a(lp5808
F0.25641
aaI39
aa(lp5809
I1
a(lp5810
F0.230769
aaI39
aaa(lp5811
g2357
ag2358
a(lp5812
I1
a(lp5813
F0.454545
aaI11
aa(lp5814
I1
a(lp5815
F0.28
aaI25
aa(lp5816
I1
a(lp5817
F0.482759
aaI29
aa(lp5818
I1
a(lp5819
F0.36
aaI25
aa(lp5820
I1
a(lp5821
F0.34375
aaI32
aa(lp5822
I1
a(lp5823
F0.363636
aaI33
aa(lp5824
I1
a(lp5825
F0.375
aaI32
aa(lp5826
I1
a(lp5827
F0.387097
aaI31
aa(lp5828
I1
a(lp5829
F0.354839
aaI31
aa(lp5830
I1
a(lp5831
F0.34375
aaI32
aa(lp5832
I1
a(lp5833
F0.323529
aaI34
aa(lp5834
I1
a(lp5835
F0.314815
aaI54
aa(lp5836
I1
a(lp5837
F0.310345
aaI29
aa(lp5838
I1
a(lp5839
F0.54902
aaI51
aaa(lp5840
g2364
ag2365
a(lp5841
I1
a(lp5842
F0.473684
aaI38
aa(lp5843
I1
a(lp5844
F0.465116
aaI43
aa(lp5845
I1
a(lp5846
F0.47619
aaI42
aa(lp5847
I1
a(lp5848
F0.515152
aaI33
aa(lp5849
I1
a(lp5850
F0.222222
aaI27
aa(lp5851
I1
a(lp5852
F0.269231
aaI26
aa(lp5853
I1
a(lp5854
F0.28
aaI25
aa(lp5855
I1
a(lp5856
F0.0
aaI22
aa(lp5857
I1
a(lp5858
F0.217391
aaI23
aa(lp5859
I1
a(lp5860
F0.296296
aaI27
aa(lp5861
I1
a(lp5862
F0.259259
aaI27
aa(lp5863
I1
a(lp5864
F0.225806
aaI31
aa(lp5865
I1
a(lp5866
F0.411765
aaI34
aa(lp5867
I1
a(lp5868
F0.477273
aaI44
aa(lp5869
I1
a(lp5870
F0.441176
aaI34
aaa(lp5871
g2369
ag2370
a(lp5872
I1
a(lp5873
F0.545455
aaI33
aaa(lp5874
g2372
ag2373
aa(lp5875
g2375
ag2376
a(lp5876
I1
a(lp5877
F0.352941
aaI34
aaa(lp5878
g2388
ag2389
aa(lp5879
g2445
ag2446
a(lp5880
I1
a(lp5881
F0.259259
aaI27
aa(lp5882
I1
a(lp5883
F0.230769
aaI26
aa(lp5884
I1
a(lp5885
F0.208333
aaI24
aa(lp5886
I1
a(lp5887
F0.363636
aaI33
aa(lp5888
I1
a(lp5889
F0.241379
aaI29
aa(lp5890
I1
a(lp5891
F0.25
aaI28
aa(lp5892
I1
a(lp5893
F0.55
aaI40
aa(lp5894
I1
a(lp5895
F0.333333
aaI36
aa(lp5896
I1
a(lp5897
F0.323529
aaI34
aa(lp5898
I1
a(lp5899
F0.297297
aaI37
aa(lp5900
I1
a(lp5901
F0.317073
aaI41
aa(lp5902
I1
a(lp5903
F0.458333
aaI24
aa(lp5904
I1
a(lp5905
F0.416667
aaI24
aa(lp5906
I1
a(lp5907
F0.393939
aaI33
aa(lp5908
I1
a(lp5909
F0.433333
aaI30
aa(lp5910
I1
a(lp5911
F0.484848
aaI33
aa(lp5912
I1
a(lp5913
F0.483871
aaI31
aa(lp5914
I1
a(lp5915
F0.4
aaI30
aa(lp5916
I1
a(lp5917
F0.4
aaI35
aa(lp5918
I1
a(lp5919
F0.380952
aaI42
aa(lp5920
I1
a(lp5921
F0.3
aaI30
aa(lp5922
I1
a(lp5923
F0.290323
aaI62
aa(lp5924
I1
a(lp5925
F0.283333
aaI60
aa(lp5926
I1
a(lp5927
F0.342466
aaI73
aa(lp5928
I1
a(lp5929
F0.206897
aaI29
aa(lp5930
I1
a(lp5931
F0.354839
aaI31
aa(lp5932
I1
a(lp5933
F0.2
aaI25
aa(lp5934
I1
a(lp5935
F0.241379
aaI29
aa(lp5936
I1
a(lp5937
F0.225806
aaI31
aa(lp5938
I1
a(lp5939
F0.233333
aaI30
aa(lp5940
I1
a(lp5941
F0.2
aaI35
aa(lp5942
I1
a(lp5943
F0.361702
aaI47
aa(lp5944
I1
a(lp5945
F0.333333
aaI39
aa(lp5946
I1
a(lp5947
F0.243243
aaI37
aa(lp5948
I1
a(lp5949
F0.342857
aaI35
aa(lp5950
I1
a(lp5951
F0.295455
aaI44
aa(lp5952
I1
a(lp5953
F0.209302
aaI43
aa(lp5954
I1
a(lp5955
F0.225806
aaI31
aa(lp5956
I1
a(lp5957
F0.322581
aaI31
aa(lp5958
I1
a(lp5959
F0.219512
aaI41
aaa(lp5960
g2494
ag2495
a(lp5961
I1
a(lp5962
F0.315789
aaI38
aa(lp5963
I1
a(lp5964
F0.25
aaI40
aa(lp5965
I1
a(lp5966
F0.277778
aaI36
aa(lp5967
I1
a(lp5968
F0.236842
aaI38
aa(lp5969
I1
a(lp5970
F0.34375
aaI32
aa(lp5971
I1
a(lp5972
F0.384615
aaI26
aa(lp5973
I1
a(lp5974
F0.333333
aaI27
aa(lp5975
I1
a(lp5976
F0.28
aaI25
aa(lp5977
I1
a(lp5978
F0.46
aaI50
aa(lp5979
I1
a(lp5980
F0.555556
aaI36
aa(lp5981
I1
a(lp5982
F0.568627
aaI51
aa(lp5983
I1
a(lp5984
F0.567568
aaI37
aa(lp5985
I1
a(lp5986
F0.454545
aaI33
aa(lp5987
I1
a(lp5988
F0.534884
aaI43
aa(lp5989
I1
a(lp5990
F0.425926
aaI54
aa(lp5991
I1
a(lp5992
F0.413793
aaI58
aa(lp5993
I1
a(lp5994
F0.395833
aaI48
aa(lp5995
I1
a(lp5996
F0.395349
aaI43
aa(lp5997
I1
a(lp5998
F0.461538
aaI39
aa(lp5999
I1
a(lp6000
F0.346154
aaI26
aa(lp6001
I1
a(lp6002
F0.535714
aaI28
aa(lp6003
I1
a(lp6004
F0.545455
aaI22
aa(lp6005
I1
a(lp6006
F0.566667
aaI30
aa(lp6007
I1
a(lp6008
F0.35
aaI20
aa(lp6009
I1
a(lp6010
F0.424242
aaI33
aa(lp6011
I1
a(lp6012
F0.264706
aaI34
aa(lp6013
I1
a(lp6014
F0.0
aaI34
aa(lp6015
I1
a(lp6016
F0.263158
aaI38
aa(lp6017
I1
a(lp6018
F0.28125
aaI32
aa(lp6019
I1
a(lp6020
F0.285714
aaI28
aa(lp6021
I1
a(lp6022
F0.285714
aaI28
aa(lp6023
I1
a(lp6024
F0.233333
aaI30
aa(lp6025
I1
a(lp6026
F0.241379
aaI29
aa(lp6027
I1
a(lp6028
F0.321429
aaI28
aa(lp6029
I1
a(lp6030
F0.285714
aaI28
aa(lp6031
I1
a(lp6032
F0.259259
aaI27
aa(lp6033
I1
a(lp6034
F0.241379
aaI29
aa(lp6035
I1
a(lp6036
F0.230769
aaI13
aaa(lp6037
g2497
ag2498
a(lp6038
I1
a(lp6039
F0.413043
aaI46
aa(lp6040
I1
a(lp6041
F0.466667
aaI45
aa(lp6042
I1
a(lp6043
F0.410256
aaI39
aa(lp6044
I1
a(lp6045
F0.466667
aaI45
aa(lp6046
I1
a(lp6047
F0.454545
aaI33
aa(lp6048
I1
a(lp6049
F0.282051
aaI39
aaa(lp6050
g2500
ag2501
a(lp6051
I1
a(lp6052
F0.225806
aaI31
aa(lp6053
I1
a(lp6054
F0.222222
aaI27
aa(lp6055
I1
a(lp6056
F0.214286
aaI28
aa(lp6057
I1
a(lp6058
F0.28125
aaI32
aa(lp6059
I1
a(lp6060
F0.285714
aaI28
aa(lp6061
I1
a(lp6062
F0.285714
aaI28
aa(lp6063
I1
a(lp6064
F0.285714
aaI35
aa(lp6065
I1
a(lp6066
F0.242424
aaI33
aa(lp6067
I1
a(lp6068
F0.2
aaI30
aa(lp6069
I1
a(lp6070
F0.466667
aaI45
aa(lp6071
I1
a(lp6072
F0.563636
aaI55
aa(lp6073
I1
a(lp6074
F0.461538
aaI39
aa(lp6075
I1
a(lp6076
F0.25
aaI24
aa(lp6077
I1
a(lp6078
F0.516129
aaI31
aa(lp6079
I1
a(lp6080
F0.5
aaI28
aa(lp6081
I1
a(lp6082
F0.482759
aaI29
aaa(lp6083
g2509
ag2510
aa(lp6084
g2512
ag2513
a(lp6085
I1
a(lp6086
F0.481481
aaI54
aa(lp6087
I1
a(lp6088
F0.461538
aaI52
aaa(lp6089
g2529
ag2530
aa(lp6090
g2532
ag2533
a(lp6091
I1
a(lp6092
F0.5
aaI44
aa(lp6093
I1
a(lp6094
F0.571429
aaI35
aa(lp6095
I1
a(lp6096
F0.421053
aaI57
aa(lp6097
I1
a(lp6098
F0.230769
aaI39
aa(lp6099
I1
a(lp6100
F0.228571
aaI35
aa(lp6101
I1
a(lp6102
F0.461538
aaI52
aaa(lp6103
g2555
ag2556
a(lp6104
I1
a(lp6105
F0.212121
aaI33
aa(lp6106
I1
a(lp6107
F0.307692
aaI26
aa(lp6108
I1
a(lp6109
F0.318182
aaI22
aa(lp6110
I1
a(lp6111
F0.5
aaI32
aa(lp6112
I1
a(lp6113
F0.405405
aaI37
aaa(lp6114
g2560
ag2561
a(lp6115
I1
a(lp6116
F0.435897
aaI39
aa(lp6117
I1
a(lp6118
F0.294118
aaI34
aa(lp6119
I1
a(lp6120
F0.322581
aaI31
aa(lp6121
I1
a(lp6122
F0.266667
aaI30
aa(lp6123
I1
a(lp6124
F0.241379
aaI29
aa(lp6125
I1
a(lp6126
F0.2
aaI25
aa(lp6127
I1
a(lp6128
F0.268293
aaI41
aa(lp6129
I1
a(lp6130
F0.23913
aaI46
aa(lp6131
I1
a(lp6132
F0.2
aaI40
aa(lp6133
I1
a(lp6134
F0.236842
aaI38
aa(lp6135
I1
a(lp6136
F0.272727
aaI33
aa(lp6137
I1
a(lp6138
F0.241379
aaI29
aaa(lp6139
g2577
ag2578
aa(lp6140
g2580
ag2581
aa(lp6141
g2597
ag2598
a(lp6142
I1
a(lp6143
F0.254237
aaI59
aa(lp6144
I1
a(lp6145
F0.338983
aaI59
aaa(lp6146
g2600
ag2601
a(lp6147
I1
a(lp6148
F0.424242
aaI33
aa(lp6149
I1
a(lp6150
F0.485714
aaI35
aa(lp6151
I1
a(lp6152
F0.266667
aaI30
aa(lp6153
I1
a(lp6154
F0.28125
aaI32
aa(lp6155
I1
a(lp6156
F0.346154
aaI26
aaa(lp6157
g2619
ag2620
a(lp6158
I1
a(lp6159
F0.803279
aaI61
aaa(lp6160
g2622
ag2623
aa(lp6161
g2629
ag2630
aa(lp6162
g2632
ag2633
a(lp6163
I1
a(lp6164
F0.419355
aaI31
aa(lp6165
I1
a(lp6166
F0.380952
aaI21
aa(lp6167
I1
a(lp6168
F0.28
aaI25
aa(lp6169
I1
a(lp6170
F0.363636
aaI33
aa(lp6171
I1
a(lp6172
F0.259259
aaI27
aa(lp6173
I1
a(lp6174
F0.285714
aaI28
aa(lp6175
I1
a(lp6176
F0.290323
aaI31
aa(lp6177
I1
a(lp6178
F0.333333
aaI30
aa(lp6179
I1
a(lp6180
F0.458333
aaI24
aa(lp6181
I1
a(lp6182
F0.363636
aaI22
aa(lp6183
I1
a(lp6184
F0.291667
aaI24
aa(lp6185
I1
a(lp6186
F0.241379
aaI29
aaa(lp6187
g2643
ag2644
a(lp6188
I1
a(lp6189
F0.0
aaI26
aa(lp6190
I1
a(lp6191
F0.0
aaI20
aa(lp6192
I1
a(lp6193
F0.0
aaI3
aa(lp6194
I1
a(lp6195
F0.0
aaI9
aa(lp6196
I1
a(lp6197
F0.0
aaI10
aa(lp6198
I1
a(lp6199
F0.0
aaI12
aa(lp6200
I1
a(lp6201
F0.0
aaI12
aa(lp6202
I1
a(lp6203
F0.0
aaI12
aa(lp6204
I1
a(lp6205
F0.0
aaI20
aa(lp6206
I1
a(lp6207
F0.0
aaI25
aa(lp6208
I1
a(lp6209
F0.0
aaI25
aa(lp6210
I1
a(lp6211
F0.0
aaI23
aa(lp6212
I1
a(lp6213
F0.0
aaI22
aa(lp6214
I1
a(lp6215
F0.0
aaI26
aa(lp6216
I1
a(lp6217
F0.0
aaI17
aa(lp6218
I1
a(lp6219
F0.0
aaI39
aa(lp6220
I1
a(lp6221
F0.692308
aaI52
aaa(lp6222
g2650
ag2651
a(lp6223
I1
a(lp6224
F0.365854
aaI41
aa(lp6225
I1
a(lp6226
F0.46
aaI50
aa(lp6227
I1
a(lp6228
F0.446809
aaI47
aa(lp6229
I1
a(lp6230
F0.489362
aaI47
aa(lp6231
I1
a(lp6232
F0.375
aaI24
aa(lp6233
I1
a(lp6234
F0.548387
aaI31
aa(lp6235
I1
a(lp6236
F0.311111
aaI45
aa(lp6237
I1
a(lp6238
F0.436364
aaI55
aa(lp6239
I1
a(lp6240
F0.428571
aaI42
aa(lp6241
I1
a(lp6242
F0.357143
aaI42
aaa(lp6243
g2655
ag2656
aa(lp6244
g2658
ag2659
a(lp6245
I1
a(lp6246
F0.325
aaI40
aa(lp6247
I1
a(lp6248
F0.380952
aaI21
aa(lp6249
I1
a(lp6250
F0.35
aaI20
aaa(lp6251
g2661
ag2662
a(lp6252
I1
a(lp6253
F0.481481
aaI27
aa(lp6254
I1
a(lp6255
F0.433333
aaI30
aa(lp6256
I1
a(lp6257
F0.454545
aaI22
aa(lp6258
I1
a(lp6259
F0.4375
aaI16
aaa(lp6260
g2664
ag2665
aa(lp6261
g2693
ag2694
aa(lp6262
g2716
ag2717
a(lp6263
I1
a(lp6264
F0.454545
aaI44
aa(lp6265
I1
a(lp6266
F0.454545
aaI33
aa(lp6267
I1
a(lp6268
F0.5
aaI32
aaa(lp6269
g2719
ag2720
aa(lp6270
g2722
ag2723
aa(lp6271
g2751
ag2752
a(lp6272
I1
a(lp6273
F0.325581
aaI43
aa(lp6274
I1
a(lp6275
F0.437956
aaI411
aaa(lp6276
g2754
ag2755
aa(lp6277
g2759
ag2760
a(lp6278
I1
a(lp6279
F0.441176
aaI34
aa(lp6280
I1
a(lp6281
F0.375
aaI40
aa(lp6282
I1
a(lp6283
F0.346154
aaI26
aa(lp6284
I1
a(lp6285
F0.333333
aaI27
aa(lp6286
I1
a(lp6287
F0.333333
aaI27
aa(lp6288
I1
a(lp6289
F0.310345
aaI29
aa(lp6290
I1
a(lp6291
F0.307692
aaI13
aa(lp6292
I1
a(lp6293
F0.444444
aaI27
aaa(lp6294
g2790
ag2791
aa(lp6295
g2793
ag2794
a(lp6296
I1
a(lp6297
F0.304348
aaI23
aa(lp6298
I1
a(lp6299
F0.375
aaI32
aa(lp6300
I1
a(lp6301
F0.388889
aaI36
aa(lp6302
I1
a(lp6303
F0.371429
aaI35
aa(lp6304
I1
a(lp6305
F0.363636
aaI33
aaa(lp6306
g2798
ag2799
aa(lp6307
g2813
ag2814
a(lp6308
I1
a(lp6309
F0.0
aaI28
aa(lp6310
I1
a(lp6311
F0.0
aaI24
aa(lp6312
I1
a(lp6313
F0.0
aaI17
aa(lp6314
I1
a(lp6315
F0.0
aaI19
aa(lp6316
I1
a(lp6317
F0.0
aaI23
aa(lp6318
I1
a(lp6319
F0.0
aaI5
aaa(lp6320
g2816
ag2817
a(lp6321
I1
a(lp6322
F0.25
aaI56
aa(lp6323
I1
a(lp6324
F0.201005
aaI199
aaa(lp6325
g2819
ag2820
aa(lp6326
g2826
ag2827
aa(lp6327
g2859
ag2860
aa(lp6328
g2882
ag2883
a(lp6329
I1
a(lp6330
F0.325581
aaI43
aa(lp6331
I1
a(lp6332
F0.414634
aaI41
aaa(lp6333
g2891
ag2892
aa(lp6334
g2894
ag2895
a(lp6335
I1
a(lp6336
F0.333333
aaI21
aa(lp6337
I1
a(lp6338
F0.3125
aaI32
aaa(lp6339
g2899
ag2900
aa(lp6340
g2902
ag2903
aa(lp6341
g2905
ag2906
a(lp6342
I1
a(lp6343
F0.526316
aaI38
aaa(lp6344
g2912
ag2913
a(lp6345
I1
a(lp6346
F0.2
aaI30
aaa(lp6347
g2921
ag2922
aa(lp6348
g2930
ag2931
a(lp6349
I1
a(lp6350
F0.25
aaI36
aa(lp6351
I1
a(lp6352
F0.289474
aaI38
aa(lp6353
I1
a(lp6354
F0.409091
aaI22
aa(lp6355
I1
a(lp6356
F0.40625
aaI32
aa(lp6357
I1
a(lp6358
F0.290323
aaI31
aa(lp6359
I1
a(lp6360
F0.333333
aaI51
aa(lp6361
I1
a(lp6362
F0.40625
aaI32
aa(lp6363
I1
a(lp6364
F0.405405
aaI37
aa(lp6365
I1
a(lp6366
F0.361111
aaI36
aa(lp6367
I1
a(lp6368
F0.277778
aaI36
aa(lp6369
I1
a(lp6370
F0.261905
aaI42
aa(lp6371
I1
a(lp6372
F0.243902
aaI41
aa(lp6373
I1
a(lp6374
F0.243243
aaI37
aa(lp6375
I1
a(lp6376
F0.321429
aaI28
aa(lp6377
I1
a(lp6378
F0.296296
aaI27
aaa(lp6379
g2937
ag2938
aa(lp6380
g2940
ag2941
a(lp6381
I1
a(lp6382
F0.488372
aaI43
aa(lp6383
I1
a(lp6384
F0.404762
aaI42
aa(lp6385
I1
a(lp6386
F0.510638
aaI47
aa(lp6387
I1
a(lp6388
F0.54717
aaI53
aa(lp6389
I1
a(lp6390
F0.44898
aaI49
aaa(lp6391
g2943
ag2944
a(lp6392
I1
a(lp6393
F0.4
aaI35
aa(lp6394
I1
a(lp6395
F0.45614
aaI57
aa(lp6396
I1
a(lp6397
F0.5
aaI44
aa(lp6398
I1
a(lp6399
F0.525
aaI40
aa(lp6400
I1
a(lp6401
F0.404762
aaI42
aa(lp6402
I1
a(lp6403
F0.463415
aaI41
aa(lp6404
I1
a(lp6405
F0.4375
aaI48
aa(lp6406
I1
a(lp6407
F0.380952
aaI42
aa(lp6408
I1
a(lp6409
F0.272727
aaI55
aa(lp6410
I1
a(lp6411
F0.5
aaI48
aa(lp6412
I1
a(lp6413
F0.451613
aaI31
aa(lp6414
I1
a(lp6415
F0.454545
aaI33
aa(lp6416
I1
a(lp6417
F0.357143
aaI42
aa(lp6418
I1
a(lp6419
F0.488889
aaI45
aa(lp6420
I1
a(lp6421
F0.55
aaI40
aa(lp6422
I1
a(lp6423
F0.47619
aaI42
aa(lp6424
I1
a(lp6425
F0.36
aaI25
aa(lp6426
I1
a(lp6427
F0.522727
aaI44
aa(lp6428
I1
a(lp6429
F0.466667
aaI30
aa(lp6430
I1
a(lp6431
F0.375
aaI40
aa(lp6432
I1
a(lp6433
F0.378378
aaI37
aa(lp6434
I1
a(lp6435
F0.473684
aaI38
aa(lp6436
I1
a(lp6437
F0.542857
aaI35
aa(lp6438
I1
a(lp6439
F0.487179
aaI39
aa(lp6440
I1
a(lp6441
F0.340909
aaI44
aa(lp6442
I1
a(lp6443
F0.545455
aaI44
aaa(lp6444
g2996
ag2997
a(lp6445
I1
a(lp6446
F0.243902
aaI41
aa(lp6447
I1
a(lp6448
F0.407407
aaI54
aa(lp6449
I1
a(lp6450
F0.354839
aaI31
aa(lp6451
I1
a(lp6452
F0.357143
aaI42
aa(lp6453
I1
a(lp6454
F0.346939
aaI49
aa(lp6455
I1
a(lp6456
F0.333333
aaI30
aa(lp6457
I1
a(lp6458
F0.394737
aaI38
aa(lp6459
I1
a(lp6460
F0.384615
aaI26
aa(lp6461
I1
a(lp6462
F0.264706
aaI34
aa(lp6463
I1
a(lp6464
F0.432432
aaI37
aa(lp6465
I1
a(lp6466
F0.459459
aaI37
aa(lp6467
I1
a(lp6468
F0.405405
aaI37
aa(lp6469
I1
a(lp6470
F0.469388
aaI49
aa(lp6471
I1
a(lp6472
F0.2
aaI30
aa(lp6473
I1
a(lp6474
F0.242424
aaI33
aa(lp6475
I1
a(lp6476
F0.294118
aaI34
aa(lp6477
I1
a(lp6478
F0.28
aaI25
aa(lp6479
I1
a(lp6480
F0.234043
aaI47
aaa(lp6481
g3003
ag3004
a(lp6482
I1
a(lp6483
F0.4
aaI10
aa(lp6484
I1
a(lp6485
F0.296296
aaI27
aa(lp6486
I1
a(lp6487
F0.296296
aaI27
aa(lp6488
I1
a(lp6489
F0.421053
aaI38
aa(lp6490
I1
a(lp6491
F0.387097
aaI31
aa(lp6492
I1
a(lp6493
F0.314286
aaI35
aa(lp6494
I1
a(lp6495
F0.34375
aaI32
aa(lp6496
I1
a(lp6497
F0.354839
aaI31
aa(lp6498
I1
a(lp6499
F0.333333
aaI33
aa(lp6500
I1
a(lp6501
F0.3
aaI40
aa(lp6502
I1
a(lp6503
F0.454545
aaI33
aa(lp6504
I1
a(lp6505
F0.419355
aaI31
aa(lp6506
I1
a(lp6507
F0.344828
aaI29
aa(lp6508
I1
a(lp6509
F0.227273
aaI22
aa(lp6510
I1
a(lp6511
F0.4
aaI35
aa(lp6512
I1
a(lp6513
F0.285714
aaI28
aa(lp6514
I1
a(lp6515
F0.357143
aaI28
aa(lp6516
I1
a(lp6517
F0.225806
aaI31
aa(lp6518
I1
a(lp6519
F0.272727
aaI33
aa(lp6520
I1
a(lp6521
F0.323529
aaI34
aa(lp6522
I1
a(lp6523
F0.230769
aaI26
aa(lp6524
I1
a(lp6525
F0.272727
aaI22
aa(lp6526
I1
a(lp6527
F0.272727
aaI22
aa(lp6528
I1
a(lp6529
F0.341463
aaI41
aa(lp6530
I1
a(lp6531
F0.307692
aaI39
aa(lp6532
I1
a(lp6533
F0.3
aaI40
aa(lp6534
I1
a(lp6535
F0.282051
aaI39
aa(lp6536
I1
a(lp6537
F0.243243
aaI37
aa(lp6538
I1
a(lp6539
F0.243243
aaI37
aa(lp6540
I1
a(lp6541
F0.355556
aaI45
aa(lp6542
I1
a(lp6543
F0.257143
aaI35
aa(lp6544
I1
a(lp6545
F0.290323
aaI31
aa(lp6546
I1
a(lp6547
F0.258065
aaI31
aa(lp6548
I1
a(lp6549
F0.25
aaI28
aa(lp6550
I1
a(lp6551
F0.222222
aaI27
aa(lp6552
I1
a(lp6553
F0.233333
aaI30
aa(lp6554
I1
a(lp6555
F0.365854
aaI41
aa(lp6556
I1
a(lp6557
F0.387097
aaI31
aa(lp6558
I1
a(lp6559
F0.225
aaI40
aa(lp6560
I1
a(lp6561
F0.3
aaI40
aa(lp6562
I1
a(lp6563
F0.208333
aaI24
aa(lp6564
I1
a(lp6565
F0.411765
aaI34
aa(lp6566
I1
a(lp6567
F0.375
aaI32
aa(lp6568
I1
a(lp6569
F0.55
aaI40
aa(lp6570
I1
a(lp6571
F0.411765
aaI34
aa(lp6572
I1
a(lp6573
F0.404762
aaI42
aa(lp6574
I1
a(lp6575
F0.463415
aaI41
aa(lp6576
I1
a(lp6577
F0.543478
aaI46
aaa(lp6578
g3028
ag3029
aa(lp6579
g3031
ag3032
a(lp6580
I1
a(lp6581
F0.395833
aaI48
aaa(lp6582
g3040
ag3041
a(lp6583
I1
a(lp6584
F0.365854
aaI41
aaa(lp6585
g3045
ag3046
a(lp6586
I1
a(lp6587
F0.2
aaI30
aa(lp6588
I1
a(lp6589
F0.26087
aaI23
aa(lp6590
I1
a(lp6591
F0.285714
aaI21
aa(lp6592
I1
a(lp6593
F0.25
aaI20
aa(lp6594
I1
a(lp6595
F0.59375
aaI32
aa(lp6596
I1
a(lp6597
F0.612903
aaI31
aa(lp6598
I1
a(lp6599
F0.205882
aaI34
aa(lp6600
I1
a(lp6601
F0.2
aaI30
aaa(lp6602
g3060
ag3061
aa(lp6603
g3073
ag3074
a(lp6604
I1
a(lp6605
F0.794872
aaI78
aa(lp6606
I1
a(lp6607
F0.393258
aaI89
aa(lp6608
I1
a(lp6609
F0.238095
aaI21
aa(lp6610
I1
a(lp6611
F0.222222
aaI27
aa(lp6612
I1
a(lp6613
F0.333333
aaI42
aa(lp6614
I1
a(lp6615
F0.407407
aaI27
aa(lp6616
I1
a(lp6617
F0.361111
aaI36
aa(lp6618
I1
a(lp6619
F0.641026
aaI39
aa(lp6620
I1
a(lp6621
F0.485714
aaI35
aa(lp6622
I1
a(lp6623
F0.333333
aaI33
aa(lp6624
I1
a(lp6625
F0.3
aaI30
aa(lp6626
I1
a(lp6627
F0.227273
aaI22
aa(lp6628
I1
a(lp6629
F0.275862
aaI29
aa(lp6630
I1
a(lp6631
F0.296296
aaI27
aa(lp6632
I1
a(lp6633
F0.290323
aaI31
aa(lp6634
I1
a(lp6635
F0.27027
aaI37
aa(lp6636
I1
a(lp6637
F0.243902
aaI41
aa(lp6638
I1
a(lp6639
F0.54386
aaI57
aa(lp6640
I1
a(lp6641
F0.451613
aaI31
aa(lp6642
I1
a(lp6643
F0.413793
aaI29
aa(lp6644
I1
a(lp6645
F0.451613
aaI31
aa(lp6646
I1
a(lp6647
F0.604167
aaI48
aa(lp6648
I1
a(lp6649
F0.222222
aaI36
aaa(lp6650
g3124
ag3125
aa(lp6651
g3197
ag3198
a(lp6652
I1
a(lp6653
F0.428571
aaI35
aaa(lp6654
g3208
ag3209
a(lp6655
I1
a(lp6656
F0.434783
aaI69
aa(lp6657
I1
a(lp6658
F0.421053
aaI38
aa(lp6659
I1
a(lp6660
F0.230769
aaI26
aa(lp6661
I1
a(lp6662
F0.2
aaI35
aa(lp6663
I1
a(lp6664
F0.269231
aaI26
aa(lp6665
I1
a(lp6666
F0.428571
aaI42
aa(lp6667
I1
a(lp6668
F0.25
aaI24
aa(lp6669
I1
a(lp6670
F0.4
aaI25
aa(lp6671
I1
a(lp6672
F0.222222
aaI27
aa(lp6673
I1
a(lp6674
F0.479167
aaI48
aa(lp6675
I1
a(lp6676
F0.342105
aaI38
aaa(lp6677
g3251
ag3252
aa(lp6678
g3254
ag3255
a(lp6679
I1
a(lp6680
F0.214286
aaI42
aa(lp6681
I1
a(lp6682
F0.205882
aaI34
aa(lp6683
I1
a(lp6684
F0.321429
aaI28
aa(lp6685
I1
a(lp6686
F0.2
aaI20
aa(lp6687
I1
a(lp6688
F0.24
aaI25
aa(lp6689
I1
a(lp6690
F0.3
aaI30
aaa(lp6691
g3265
ag3266
a(lp6692
I1
a(lp6693
F0.296296
aaI27
aa(lp6694
I1
a(lp6695
F0.288136
aaI59
aaa(lp6696
g3268
ag3269
a(lp6697
I1
a(lp6698
F0.25
aaI24
aa(lp6699
I1
a(lp6700
F0.285714
aaI21
aa(lp6701
I1
a(lp6702
F0.259259
aaI27
aa(lp6703
I1
a(lp6704
F0.285714
aaI35
aa(lp6705
I1
a(lp6706
F0.568627
aaI51
aa(lp6707
I1
a(lp6708
F0.348485
aaI66
aa(lp6709
I1
a(lp6710
F0.226415
aaI53
aa(lp6711
I1
a(lp6712
F0.339623
aaI53
aaa(lp6713
g3271
ag3272
a(lp6714
I1
a(lp6715
F0.487179
aaI39
aa(lp6716
I1
a(lp6717
F0.435897
aaI39
aa(lp6718
I1
a(lp6719
F0.422222
aaI45
aa(lp6720
I1
a(lp6721
F0.333333
aaI27
aa(lp6722
I1
a(lp6723
F0.469388
aaI49
aa(lp6724
I1
a(lp6725
F0.522727
aaI44
aa(lp6726
I1
a(lp6727
F0.571429
aaI49
aa(lp6728
I1
a(lp6729
F0.45
aaI40
aa(lp6730
I1
a(lp6731
F0.2
aaI25
aaa(lp6732
g3284
ag3285
aa(lp6733
g3297
ag3298
aa(lp6734
g3312
ag3313
a(lp6735
I1
a(lp6736
F0.264706
aaI34
aaa(lp6737
g3339
ag3340
a(lp6738
I1
a(lp6739
F0.461538
aaI52
aa(lp6740
I1
a(lp6741
F0.416667
aaI36
aa(lp6742
I1
a(lp6743
F0.378378
aaI37
aa(lp6744
I1
a(lp6745
F0.392857
aaI28
aa(lp6746
I1
a(lp6747
F0.526316
aaI38
aaa(lp6748
g3342
ag3343
a(lp6749
I1
a(lp6750
F0.422222
aaI45
aa(lp6751
I1
a(lp6752
F0.44186
aaI43
aa(lp6753
I1
a(lp6754
F0.404255
aaI47
aa(lp6755
I1
a(lp6756
F0.21875
aaI32
aa(lp6757
I1
a(lp6758
F0.290323
aaI31
aa(lp6759
I1
a(lp6760
F0.272727
aaI33
aa(lp6761
I1
a(lp6762
F0.3
aaI30
aa(lp6763
I1
a(lp6764
F0.315789
aaI19
aa(lp6765
I1
a(lp6766
F0.304348
aaI23
aa(lp6767
I1
a(lp6768
F0.451613
aaI31
aa(lp6769
I1
a(lp6770
F0.30303
aaI33
aa(lp6771
I1
a(lp6772
F0.25
aaI28
aa(lp6773
I1
a(lp6774
F0.333333
aaI33
aaa(lp6775
g3345
ag3346
aa(lp6776
g3348
ag3349
a(lp6777
I1
a(lp6778
F0.323529
aaI34
aa(lp6779
I1
a(lp6780
F0.266667
aaI30
aa(lp6781
I1
a(lp6782
F0.241379
aaI29
aa(lp6783
I1
a(lp6784
F0.421053
aaI19
aa(lp6785
I1
a(lp6786
F0.28
aaI25
aaa(lp6787
g3351
ag3352
aa(lp6788
g3358
ag3359
aa(lp6789
g3361
ag3362
aa(lp6790
g3376
ag3377
aassS'diploids'
p6791
(dp6792
g3
(lp6793
(lp6794
S'scaffold3626_cov240'
p6795
aS'scaffold4811_cov246'
p6796
a(lp6797
I1
a(lp6798
F0.375
aaI32
aa(lp6799
I1
a(lp6800
F0.37037
aaI27
aa(lp6801
I1
a(lp6802
F0.548387
aaI31
aa(lp6803
I1
a(lp6804
F0.433333
aaI30
aa(lp6805
I1
a(lp6806
F0.333333
aaI33
aa(lp6807
I1
a(lp6808
F0.321429
aaI28
aa(lp6809
I1
a(lp6810
F0.333333
aaI27
aa(lp6811
I1
a(lp6812
F0.377778
aaI45
aa(lp6813
I1
a(lp6814
F0.24
aaI25
aaa(lp6815
S'scaffold11291_cov250'
p6816
aS'scaffold3627_cov265'
p6817
a(lp6818
I1
a(lp6819
F0.344828
aaI29
aa(lp6820
I1
a(lp6821
F0.277778
aaI36
aa(lp6822
I1
a(lp6823
F0.291667
aaI24
aa(lp6824
I1
a(lp6825
F0.333333
aaI27
aa(lp6826
I1
a(lp6827
F0.634146
aaI41
aa(lp6828
I1
a(lp6829
F0.222222
aaI27
aa(lp6830
I1
a(lp6831
F0.25
aaI28
aa(lp6832
I1
a(lp6833
F0.269231
aaI26
aaa(lp6834
S'scaffold1708_cov257'
p6835
aS'scaffold2991_cov233'
p6836
a(lp6837
I1
a(lp6838
F0.508197
aaI61
aa(lp6839
I1
a(lp6840
F0.530612
aaI49
aa(lp6841
I1
a(lp6842
F0.488372
aaI43
aa(lp6843
I1
a(lp6844
F0.230769
aaI39
aa(lp6845
I1
a(lp6846
F0.236842
aaI38
aa(lp6847
I1
a(lp6848
F0.439024
aaI41
aa(lp6849
I1
a(lp6850
F0.5
aaI56
aa(lp6851
I1
a(lp6852
F0.358974
aaI39
aa(lp6853
I1
a(lp6854
F0.372093
aaI43
aa(lp6855
I1
a(lp6856
F0.459459
aaI37
aa(lp6857
I1
a(lp6858
F0.516129
aaI31
aa(lp6859
I1
a(lp6860
F0.32
aaI25
aa(lp6861
I1
a(lp6862
F0.5
aaI44
aa(lp6863
I1
a(lp6864
F0.5
aaI34
aa(lp6865
I1
a(lp6866
F0.266667
aaI30
aaa(lp6867
S'scaffold4798_cov206'
p6868
aS'scaffold8289_cov180'
p6869
a(lp6870
I1
a(lp6871
F0.227273
aaI22
aa(lp6872
I1
a(lp6873
F0.333333
aaI21
aa(lp6874
I1
a(lp6875
F0.363636
aaI22
aa(lp6876
I1
a(lp6877
F0.304348
aaI46
aaa(lp6878
S'scaffold47935_cov305'
p6879
aS'scaffold774_cov229'
p6880
aa(lp6881
S'scaffold467_cov263'
p6882
aS'scaffold7247_cov286'
p6883
aa(lp6884
S'scaffold1469_cov209'
p6885
aS'scaffold3829_cov235'
p6886
a(lp6887
I1
a(lp6888
F0.363636
aaI44
aa(lp6889
I1
a(lp6890
F0.375
aaI24
aa(lp6891
I1
a(lp6892
F0.363636
aaI22
aa(lp6893
I1
a(lp6894
F0.68
aaI25
aa(lp6895
I1
a(lp6896
F0.230769
aaI26
aa(lp6897
I1
a(lp6898
F0.647059
aaI17
aaa(lp6899
S'scaffold19250_cov205'
p6900
aS'scaffold8056_cov196'
p6901
a(lp6902
I1
a(lp6903
F0.225
aaI40
aaa(lp6904
S'scaffold11346_cov240'
p6905
aS'scaffold7912_cov254'
p6906
a(lp6907
I1
a(lp6908
F0.4375
aaI32
aa(lp6909
I1
a(lp6910
F0.384615
aaI39
aa(lp6911
I1
a(lp6912
F0.404762
aaI42
aa(lp6913
I1
a(lp6914
F0.473684
aaI38
aa(lp6915
I1
a(lp6916
F0.333333
aaI42
aa(lp6917
I1
a(lp6918
F0.25641
aaI39
aa(lp6919
I1
a(lp6920
F0.25
aaI36
aa(lp6921
I1
a(lp6922
F0.3
aaI20
aa(lp6923
I1
a(lp6924
F0.380952
aaI21
aa(lp6925
I1
a(lp6926
F0.382979
aaI47
aa(lp6927
I1
a(lp6928
F0.341463
aaI41
aa(lp6929
I1
a(lp6930
F0.288889
aaI45
aa(lp6931
I1
a(lp6932
F0.44
aaI50
aaa(lp6933
S'scaffold1511_cov206'
p6934
aS'scaffold1767_cov191'
p6935
a(lp6936
I1
a(lp6937
F0.296296
aaI27
aa(lp6938
I1
a(lp6939
F0.636364
aaI55
aa(lp6940
I1
a(lp6941
F0.25
aaI44
aa(lp6942
I1
a(lp6943
F0.205128
aaI39
aa(lp6944
I1
a(lp6945
F0.257143
aaI35
aa(lp6946
I1
a(lp6947
F0.235294
aaI34
aa(lp6948
I1
a(lp6949
F0.266667
aaI30
aa(lp6950
I1
a(lp6951
F0.205882
aaI34
aa(lp6952
I1
a(lp6953
F0.314286
aaI35
aa(lp6954
I1
a(lp6955
F0.4
aaI35
aaa(lp6956
S'scaffold2519_cov239'
p6957
aS'scaffold33999_cov278'
p6958
a(lp6959
I1
a(lp6960
F0.212121
aaI33
aaa(lp6961
S'scaffold2747_cov252'
p6962
aS'scaffold35860_cov272'
p6963
a(lp6964
I1
a(lp6965
F0.413043
aaI46
aaa(lp6966
S'scaffold1766_cov198'
p6967
aS'scaffold607_cov179'
p6968
a(lp6969
I1
a(lp6970
F0.0
aaI30
aa(lp6971
I1
a(lp6972
F0.333333
aaI36
aa(lp6973
I1
a(lp6974
F0.228571
aaI35
aaa(lp6975
S'scaffold5198_cov234'
p6976
aS'scaffold709_cov247'
p6977
aa(lp6978
S'scaffold15165_cov249'
p6979
aS'scaffold35835_cov299'
p6980
aa(lp6981
S'scaffold51278_cov326'
p6982
aS'scaffold965_cov205'
p6983
aa(lp6984
S'scaffold36255_cov269'
p6985
aS'scaffold42378_cov315'
p6986
aa(lp6987
S'scaffold5373_cov204'
p6988
aS'scaffold6283_cov179'
p6989
aa(lp6990
S'scaffold2237_cov233'
p6991
aS'scaffold34835_cov215'
p6992
a(lp6993
I1
a(lp6994
F0.416667
aaI48
aa(lp6995
I1
a(lp6996
F0.235294
aaI34
aaa(lp6997
S'scaffold19485_cov191'
p6998
aS'scaffold19486_cov306'
p6999
aa(lp7000
S'scaffold11428_cov295'
p7001
aS'scaffold42512_cov294'
p7002
aa(lp7003
S'scaffold35943_cov295'
p7004
aS'scaffold7990_cov217'
p7005
aa(lp7006
S'scaffold3813_cov275'
p7007
aS'scaffold6764_cov231'
p7008
a(lp7009
I1
a(lp7010
F0.384615
aaI39
aa(lp7011
I1
a(lp7012
F0.382353
aaI34
aa(lp7013
I1
a(lp7014
F0.40625
aaI32
aa(lp7015
I1
a(lp7016
F0.25641
aaI39
aa(lp7017
I1
a(lp7018
F0.478261
aaI23
aa(lp7019
I1
a(lp7020
F0.296296
aaI27
aa(lp7021
I1
a(lp7022
F0.411765
aaI34
aa(lp7023
I1
a(lp7024
F0.434783
aaI46
aa(lp7025
I1
a(lp7026
F0.384615
aaI39
aa(lp7027
I1
a(lp7028
F0.347826
aaI23
aa(lp7029
I1
a(lp7030
F0.386364
aaI44
aa(lp7031
I1
a(lp7032
F0.363636
aaI33
aa(lp7033
I1
a(lp7034
F0.475
aaI40
aa(lp7035
I1
a(lp7036
F0.451613
aaI31
aa(lp7037
I1
a(lp7038
F0.571429
aaI42
aaa(lp7039
S'scaffold16317_cov210'
p7040
aS'scaffold6713_cov225'
p7041
a(lp7042
I1
a(lp7043
F0.384615
aaI26
aa(lp7044
I1
a(lp7045
F0.405405
aaI37
aa(lp7046
I1
a(lp7047
F0.4
aaI35
aa(lp7048
I1
a(lp7049
F0.333333
aaI27
aa(lp7050
I1
a(lp7051
F0.269231
aaI26
aa(lp7052
I1
a(lp7053
F0.489796
aaI49
aaa(lp7054
S'scaffold11324_cov225'
p7055
aS'scaffold9508_cov196'
p7056
a(lp7057
I1
a(lp7058
F0.558824
aaI34
aaa(lp7059
S'scaffold19913_cov154'
p7060
aS'scaffold35508_cov210'
p7061
aa(lp7062
S'scaffold2155_cov181'
p7063
aS'scaffold54209_cov305'
p7064
a(lp7065
I1
a(lp7066
F0.487805
aaI41
aa(lp7067
I1
a(lp7068
F0.292683
aaI41
aa(lp7069
I1
a(lp7070
F0.457143
aaI35
aa(lp7071
I1
a(lp7072
F0.259259
aaI27
aa(lp7073
I1
a(lp7074
F0.259259
aaI27
aa(lp7075
I1
a(lp7076
F0.263158
aaI19
aa(lp7077
I1
a(lp7078
F0.225
aaI40
aaa(lp7079
S'scaffold12582_cov223'
p7080
aS'scaffold3805_cov206'
p7081
a(lp7082
I1
a(lp7083
F0.37931
aaI29
aa(lp7084
I1
a(lp7085
F0.4
aaI25
aa(lp7086
I1
a(lp7087
F0.28125
aaI32
aa(lp7088
I1
a(lp7089
F0.30303
aaI33
aa(lp7090
I1
a(lp7091
F0.358974
aaI39
aa(lp7092
I1
a(lp7093
F0.318182
aaI44
aa(lp7094
I1
a(lp7095
F0.326087
aaI46
aa(lp7096
I1
a(lp7097
F0.275
aaI40
aa(lp7098
I1
a(lp7099
F0.297297
aaI37
aaa(lp7100
S'scaffold193_cov232'
p7101
aS'scaffold51921_cov294'
p7102
a(lp7103
I1
a(lp7104
F0.666667
aaI30
aa(lp7105
I1
a(lp7106
F0.576923
aaI26
aa(lp7107
I1
a(lp7108
F0.459459
aaI37
aa(lp7109
I1
a(lp7110
F0.405405
aaI37
aa(lp7111
I1
a(lp7112
F0.435897
aaI39
aa(lp7113
I1
a(lp7114
F0.428571
aaI42
aa(lp7115
I1
a(lp7116
F0.425
aaI40
aaa(lp7117
S'scaffold1045_cov153'
p7118
aS'scaffold21_cov335'
p7119
aa(lp7120
S'scaffold23025_cov260'
p7121
aS'scaffold34181_cov257'
p7122
aa(lp7123
S'scaffold12541_cov206'
p7124
aS'scaffold1867_cov235'
p7125
a(lp7126
I1
a(lp7127
F0.285714
aaI21
aa(lp7128
I1
a(lp7129
F0.230769
aaI26
aa(lp7130
I1
a(lp7131
F0.392857
aaI28
aa(lp7132
I1
a(lp7133
F0.625
aaI40
aaa(lp7134
S'scaffold3425_cov288'
p7135
aS'scaffold4454_cov228'
p7136
a(lp7137
I1
a(lp7138
F0.5
aaI40
aa(lp7139
I1
a(lp7140
F0.536585
aaI41
aa(lp7141
I1
a(lp7142
F0.255319
aaI47
aa(lp7143
I1
a(lp7144
F0.684211
aaI57
aa(lp7145
I1
a(lp7146
F0.23913
aaI46
aa(lp7147
I1
a(lp7148
F0.315789
aaI19
aaa(lp7149
S'scaffold3656_cov164'
p7150
aS'scaffold7174_cov157'
p7151
a(lp7152
I1
a(lp7153
F0.375
aaI32
aa(lp7154
I1
a(lp7155
F0.354839
aaI31
aa(lp7156
I1
a(lp7157
F0.37931
aaI29
aa(lp7158
I1
a(lp7159
F0.266667
aaI30
aa(lp7160
I1
a(lp7161
F0.258065
aaI31
aa(lp7162
I1
a(lp7163
F0.375
aaI40
aa(lp7164
I1
a(lp7165
F0.375
aaI40
aa(lp7166
I1
a(lp7167
F0.352941
aaI34
aaa(lp7168
S'scaffold3622_cov247'
p7169
aS'scaffold45254_cov315'
p7170
aa(lp7171
S'scaffold114_cov204'
p7172
aS'scaffold12391_cov201'
p7173
a(lp7174
I1
a(lp7175
F0.21875
aaI32
aa(lp7176
I1
a(lp7177
F0.242424
aaI33
aa(lp7178
I1
a(lp7179
F0.297297
aaI37
aa(lp7180
I1
a(lp7181
F0.548387
aaI31
aa(lp7182
I1
a(lp7183
F0.333333
aaI33
aa(lp7184
I1
a(lp7185
F0.205882
aaI34
aaa(lp7186
S'scaffold2058_cov324'
p7187
aS'scaffold6925_cov364'
p7188
aa(lp7189
S'scaffold2864_cov140'
p7190
aS'scaffold6319_cov169'
p7191
aa(lp7192
S'scaffold2297_cov206'
p7193
aS'scaffold4936_cov217'
p7194
a(lp7195
I1
a(lp7196
F0.422222
aaI45
aa(lp7197
I1
a(lp7198
F0.421053
aaI38
aa(lp7199
I1
a(lp7200
F0.472222
aaI36
aa(lp7201
I1
a(lp7202
F0.285714
aaI28
aa(lp7203
I1
a(lp7204
F0.242424
aaI33
aa(lp7205
I1
a(lp7206
F0.297872
aaI47
aa(lp7207
I1
a(lp7208
F0.285714
aaI35
aaa(lp7209
S'scaffold1058_cov270'
p7210
aS'scaffold8732_cov275'
p7211
a(lp7212
I1
a(lp7213
F0.465116
aaI43
aa(lp7214
I1
a(lp7215
F0.435897
aaI39
aa(lp7216
I1
a(lp7217
F0.435897
aaI39
aa(lp7218
I1
a(lp7219
F0.446809
aaI47
aa(lp7220
I1
a(lp7221
F0.6
aaI40
aa(lp7222
I1
a(lp7223
F0.634146
aaI41
aa(lp7224
I1
a(lp7225
F0.538462
aaI26
aa(lp7226
I1
a(lp7227
F0.296296
aaI27
aa(lp7228
I1
a(lp7229
F0.511628
aaI43
aa(lp7230
I1
a(lp7231
F0.511111
aaI45
aa(lp7232
I1
a(lp7233
F0.428571
aaI35
aaa(lp7234
S'scaffold1208_cov229'
p7235
aS'scaffold1508_cov264'
p7236
a(lp7237
I1
a(lp7238
F0.666667
aaI42
aa(lp7239
I1
a(lp7240
F0.444444
aaI36
aa(lp7241
I1
a(lp7242
F0.394737
aaI38
aa(lp7243
I1
a(lp7244
F0.314286
aaI35
aa(lp7245
I1
a(lp7246
F0.571429
aaI28
aaa(lp7247
S'scaffold11822_cov236'
p7248
aS'scaffold34659_cov215'
p7249
a(lp7250
I1
a(lp7251
F0.241379
aaI29
aa(lp7252
I1
a(lp7253
F0.208333
aaI24
aa(lp7254
I1
a(lp7255
F0.217391
aaI23
aa(lp7256
I1
a(lp7257
F0.230769
aaI26
aa(lp7258
I1
a(lp7259
F0.466667
aaI30
aa(lp7260
I1
a(lp7261
F0.28125
aaI32
aa(lp7262
I1
a(lp7263
F0.435897
aaI39
aa(lp7264
I1
a(lp7265
F0.466667
aaI45
aa(lp7266
I1
a(lp7267
F0.352941
aaI34
aa(lp7268
I1
a(lp7269
F0.488372
aaI43
aa(lp7270
I1
a(lp7271
F0.5
aaI32
aa(lp7272
I1
a(lp7273
F0.617647
aaI34
aaa(lp7274
S'scaffold4643_cov233'
p7275
aS'scaffold7882_cov228'
p7276
a(lp7277
I1
a(lp7278
F0.285714
aaI28
aa(lp7279
I1
a(lp7280
F0.323944
aaI71
aa(lp7281
I1
a(lp7282
F0.36
aaI50
aa(lp7283
I1
a(lp7284
F0.454545
aaI55
aaa(lp7285
S'scaffold6544_cov240'
p7286
aS'scaffold8921_cov268'
p7287
a(lp7288
I1
a(lp7289
F0.514286
aaI35
aa(lp7290
I1
a(lp7291
F0.394737
aaI38
aa(lp7292
I1
a(lp7293
F0.608696
aaI46
aa(lp7294
I1
a(lp7295
F0.350877
aaI57
aa(lp7296
I1
a(lp7297
F0.2
aaI65
aa(lp7298
I1
a(lp7299
F0.4
aaI50
aa(lp7300
I1
a(lp7301
F0.267857
aaI56
aaa(lp7302
S'scaffold4981_cov255'
p7303
aS'scaffold5141_cov149'
p7304
aa(lp7305
S'scaffold1798_cov239'
p7306
aS'scaffold35134_cov241'
p7307
a(lp7308
I1
a(lp7309
F0.216216
aaI37
aa(lp7310
I1
a(lp7311
F0.241379
aaI29
aa(lp7312
I1
a(lp7313
F0.285714
aaI35
aa(lp7314
I1
a(lp7315
F0.5
aaI38
aa(lp7316
I1
a(lp7317
F0.211538
aaI52
aaa(lp7318
S'scaffold35079_cov288'
p7319
aS'scaffold35849_cov287'
p7320
a(lp7321
I1
a(lp7322
F0.444444
aaI27
aa(lp7323
I1
a(lp7324
F0.428571
aaI35
aa(lp7325
I1
a(lp7326
F0.628571
aaI35
aa(lp7327
I1
a(lp7328
F0.456522
aaI46
aa(lp7329
I1
a(lp7330
F0.37931
aaI29
aa(lp7331
I1
a(lp7332
F0.520833
aaI48
aa(lp7333
I1
a(lp7334
F0.533333
aaI15
aa(lp7335
I1
a(lp7336
F0.53125
aaI32
aa(lp7337
I1
a(lp7338
F0.6
aaI35
aa(lp7339
I1
a(lp7340
F0.538462
aaI26
aa(lp7341
I1
a(lp7342
F0.452381
aaI42
aa(lp7343
I1
a(lp7344
F0.410256
aaI39
aa(lp7345
I1
a(lp7346
F0.405405
aaI37
aa(lp7347
I1
a(lp7348
F0.517241
aaI29
aa(lp7349
I1
a(lp7350
F0.548387
aaI31
aa(lp7351
I1
a(lp7352
F0.463415
aaI41
aa(lp7353
I1
a(lp7354
F0.30303
aaI33
aa(lp7355
I1
a(lp7356
F0.324324
aaI37
aa(lp7357
I1
a(lp7358
F0.568627
aaI51
aa(lp7359
I1
a(lp7360
F0.538462
aaI39
aa(lp7361
I1
a(lp7362
F0.463415
aaI41
aa(lp7363
I1
a(lp7364
F0.419355
aaI31
aa(lp7365
I1
a(lp7366
F0.388889
aaI36
aa(lp7367
I1
a(lp7368
F0.473684
aaI38
aa(lp7369
I1
a(lp7370
F0.484848
aaI33
aa(lp7371
I1
a(lp7372
F0.470588
aaI34
aa(lp7373
I1
a(lp7374
F0.567568
aaI37
aa(lp7375
I1
a(lp7376
F0.542857
aaI35
aa(lp7377
I1
a(lp7378
F0.368421
aaI38
aa(lp7379
I1
a(lp7380
F0.4375
aaI32
aaa(lp7381
S'scaffold1512_cov178'
p7382
aS'scaffold7068_cov172'
p7383
aa(lp7384
S'scaffold292_cov203'
p7385
aS'scaffold4488_cov207'
p7386
a(lp7387
I1
a(lp7388
F0.222222
aaI27
aaa(lp7389
S'scaffold11838_cov280'
p7390
aS'scaffold3183_cov273'
p7391
a(lp7392
I1
a(lp7393
F0.307692
aaI26
aa(lp7394
I1
a(lp7395
F0.304348
aaI23
aa(lp7396
I1
a(lp7397
F0.555556
aaI36
aaa(lp7398
S'scaffold39652_cov294'
p7399
aS'scaffold6762_cov212'
p7400
aa(lp7401
S'scaffold4640_cov176'
p7402
aS'scaffold6032_cov173'
p7403
aa(lp7404
S'scaffold6144_cov377'
p7405
aS'scaffold6254_cov268'
p7406
aa(lp7407
S'scaffold35739_cov310'
p7408
aS'scaffold36798_cov326'
p7409
aa(lp7410
S'scaffold1948_cov236'
p7411
aS'scaffold3201_cov239'
p7412
aa(lp7413
S'scaffold662_cov282'
p7414
aS'scaffold663_cov256'
p7415
a(lp7416
I1
a(lp7417
F0.447368
aaI38
aa(lp7418
I1
a(lp7419
F0.266667
aaI30
aa(lp7420
I1
a(lp7421
F0.413043
aaI46
aa(lp7422
I1
a(lp7423
F0.580645
aaI31
aa(lp7424
I1
a(lp7425
F0.37931
aaI29
aa(lp7426
I1
a(lp7427
F0.422222
aaI45
aa(lp7428
I1
a(lp7429
F0.272727
aaI44
aa(lp7430
I1
a(lp7431
F0.333333
aaI30
aag6387
ag6389
a(lp7432
I1
a(lp7433
F0.263158
aaI38
aa(lp7434
I1
a(lp7435
F0.285714
aaI35
aa(lp7436
I1
a(lp7437
F0.3
aaI30
aa(lp7438
I1
a(lp7439
F0.578947
aaI38
aa(lp7440
I1
a(lp7441
F0.55
aaI40
aa(lp7442
I1
a(lp7443
F0.596154
aaI52
aa(lp7444
I1
a(lp7445
F0.470588
aaI34
aa(lp7446
I1
a(lp7447
F0.52
aaI50
aa(lp7448
I1
a(lp7449
F0.342857
aaI35
aa(lp7450
I1
a(lp7451
F0.333333
aaI27
aa(lp7452
I1
a(lp7453
F0.444444
aaI36
aa(lp7454
I1
a(lp7455
F0.52
aaI25
aa(lp7456
I1
a(lp7457
F0.36
aaI25
aa(lp7458
I1
a(lp7459
F0.472222
aaI36
aa(lp7460
I1
a(lp7461
F0.28
aaI25
aa(lp7462
I1
a(lp7463
F0.285714
aaI35
aa(lp7464
I1
a(lp7465
F0.642857
aaI28
aa(lp7466
I1
a(lp7467
F0.461538
aaI26
aa(lp7468
I1
a(lp7469
F0.818182
aaI88
aa(lp7470
I1
a(lp7471
F0.218182
aaI55
aa(lp7472
I1
a(lp7473
F0.533333
aaI30
aa(lp7474
I1
a(lp7475
F0.621622
aaI37
aa(lp7476
I1
a(lp7477
F0.518519
aaI27
aa(lp7478
I1
a(lp7479
F0.236364
aaI55
aaa(lp7480
S'scaffold2254_cov207'
p7481
aS'scaffold3033_cov182'
p7482
aa(lp7483
S'scaffold7242_cov266'
p7484
aS'scaffold7661_cov288'
p7485
aa(lp7486
S'scaffold35969_cov266'
p7487
aS'scaffold5160_cov248'
p7488
a(lp7489
I1
a(lp7490
F0.227273
aaI44
aa(lp7491
I1
a(lp7492
F0.526316
aaI38
aaa(lp7493
S'scaffold12609_cov286'
p7494
aS'scaffold3427_cov261'
p7495
a(lp7496
I1
a(lp7497
F0.457143
aaI35
aa(lp7498
I1
a(lp7499
F0.585366
aaI41
aa(lp7500
I1
a(lp7501
F0.357143
aaI28
aa(lp7502
I1
a(lp7503
F0.578947
aaI38
aa(lp7504
I1
a(lp7505
F0.5
aaI34
aa(lp7506
I1
a(lp7507
F0.576923
aaI26
aaa(lp7508
S'scaffold4870_cov219'
p7509
aS'scaffold7504_cov226'
p7510
aa(lp7511
S'scaffold1952_cov217'
p7512
aS'scaffold6035_cov288'
p7513
a(lp7514
I1
a(lp7515
F0.0
aaI14
aa(lp7516
I1
a(lp7517
F0.0
aaI31
aaa(lp7518
S'scaffold14801_cov267'
p7519
aS'scaffold4703_cov265'
p7520
a(lp7521
I1
a(lp7522
F0.466667
aaI45
aa(lp7523
I1
a(lp7524
F0.363636
aaI33
aa(lp7525
I1
a(lp7526
F0.444444
aaI45
aa(lp7527
I1
a(lp7528
F0.333333
aaI39
aa(lp7529
I1
a(lp7530
F0.457143
aaI35
aa(lp7531
I1
a(lp7532
F0.5
aaI38
aa(lp7533
I1
a(lp7534
F0.465116
aaI43
aa(lp7535
I1
a(lp7536
F0.394737
aaI38
aa(lp7537
I1
a(lp7538
F0.418605
aaI43
aaa(lp7539
S'scaffold1047_cov391'
p7540
aS'scaffold1999_cov166'
p7541
a(lp7542
I1
a(lp7543
F0.214286
aaI28
aa(lp7544
I1
a(lp7545
F0.318182
aaI22
aa(lp7546
I1
a(lp7547
F0.275862
aaI29
aa(lp7548
I1
a(lp7549
F0.214286
aaI28
aa(lp7550
I1
a(lp7551
F0.411765
aaI34
aa(lp7552
I1
a(lp7553
F0.275862
aaI29
aa(lp7554
I1
a(lp7555
F0.484848
aaI33
aa(lp7556
I1
a(lp7557
F0.510638
aaI47
aa(lp7558
I1
a(lp7559
F0.483871
aaI31
aa(lp7560
I1
a(lp7561
F0.342857
aaI35
aa(lp7562
I1
a(lp7563
F0.354839
aaI31
aa(lp7564
I1
a(lp7565
F0.354839
aaI31
aa(lp7566
I1
a(lp7567
F0.366667
aaI30
aa(lp7568
I1
a(lp7569
F0.484848
aaI33
aa(lp7570
I1
a(lp7571
F0.304348
aaI23
aa(lp7572
I1
a(lp7573
F0.321429
aaI28
aa(lp7574
I1
a(lp7575
F0.346154
aaI26
aa(lp7576
I1
a(lp7577
F0.217391
aaI23
aaa(lp7578
S'scaffold15715_cov311'
p7579
aS'scaffold34618_cov281'
p7580
aa(lp7581
S'scaffold14007_cov270'
p7582
aS'scaffold181_cov231'
p7583
a(lp7584
I1
a(lp7585
F0.35
aaI20
aa(lp7586
I1
a(lp7587
F0.439024
aaI41
aa(lp7588
I1
a(lp7589
F0.447368
aaI38
aa(lp7590
I1
a(lp7591
F0.45
aaI40
aa(lp7592
I1
a(lp7593
F0.571429
aaI42
aa(lp7594
I1
a(lp7595
F0.575
aaI40
aa(lp7596
I1
a(lp7597
F0.25
aaI24
aa(lp7598
I1
a(lp7599
F0.0
aaI16
aa(lp7600
I1
a(lp7601
F0.375
aaI16
aa(lp7602
I1
a(lp7603
F0.277778
aaI36
aa(lp7604
I1
a(lp7605
F0.390244
aaI41
aa(lp7606
I1
a(lp7607
F0.296296
aaI27
aa(lp7608
I1
a(lp7609
F0.24
aaI25
aa(lp7610
I1
a(lp7611
F0.266667
aaI30
aa(lp7612
I1
a(lp7613
F0.263158
aaI38
aa(lp7614
I1
a(lp7615
F0.315789
aaI19
aa(lp7616
I1
a(lp7617
F0.28125
aaI32
aa(lp7618
I1
a(lp7619
F0.277778
aaI36
aa(lp7620
I1
a(lp7621
F0.243243
aaI37
aa(lp7622
I1
a(lp7623
F0.407407
aaI27
aaa(lp7624
S'scaffold1629_cov253'
p7625
aS'scaffold3436_cov196'
p7626
a(lp7627
I1
a(lp7628
F0.375
aaI32
aa(lp7629
I1
a(lp7630
F0.354839
aaI31
aa(lp7631
I1
a(lp7632
F0.363636
aaI33
aa(lp7633
I1
a(lp7634
F0.3
aaI30
aa(lp7635
I1
a(lp7636
F0.258065
aaI31
aaa(lp7637
S'scaffold35711_cov297'
p7638
aS'scaffold6027_cov281'
p7639
a(lp7640
I1
a(lp7641
F0.596154
aaI52
aa(lp7642
I1
a(lp7643
F0.425
aaI40
aa(lp7644
I1
a(lp7645
F0.432432
aaI37
aa(lp7646
I1
a(lp7647
F0.351351
aaI37
aa(lp7648
I1
a(lp7649
F0.375
aaI40
aa(lp7650
I1
a(lp7651
F0.363636
aaI44
aa(lp7652
I1
a(lp7653
F0.384615
aaI39
aa(lp7654
I1
a(lp7655
F0.702128
aaI47
aa(lp7656
I1
a(lp7657
F0.411765
aaI51
aa(lp7658
I1
a(lp7659
F0.431373
aaI51
aa(lp7660
I1
a(lp7661
F0.45098
aaI51
aa(lp7662
I1
a(lp7663
F0.27907
aaI43
aa(lp7664
I1
a(lp7665
F0.27907
aaI43
aa(lp7666
I1
a(lp7667
F0.48
aaI50
aa(lp7668
I1
a(lp7669
F0.25
aaI40
aa(lp7670
I1
a(lp7671
F0.243243
aaI37
aa(lp7672
I1
a(lp7673
F0.4
aaI45
aa(lp7674
I1
a(lp7675
F0.604167
aaI48
aa(lp7676
I1
a(lp7677
F0.439024
aaI41
aa(lp7678
I1
a(lp7679
F0.452381
aaI42
aa(lp7680
I1
a(lp7681
F0.425
aaI40
aa(lp7682
I1
a(lp7683
F0.473684
aaI38
aa(lp7684
I1
a(lp7685
F0.5
aaI42
aa(lp7686
I1
a(lp7687
F0.6
aaI35
aa(lp7688
I1
a(lp7689
F0.388889
aaI18
aa(lp7690
I1
a(lp7691
F0.42
aaI50
aa(lp7692
I1
a(lp7693
F0.442308
aaI52
aa(lp7694
I1
a(lp7695
F0.444444
aaI45
aa(lp7696
I1
a(lp7697
F0.463415
aaI41
aa(lp7698
I1
a(lp7699
F0.542857
aaI35
aa(lp7700
I1
a(lp7701
F0.411765
aaI34
aa(lp7702
I1
a(lp7703
F0.384615
aaI39
aa(lp7704
I1
a(lp7705
F0.5
aaI36
aa(lp7706
I1
a(lp7707
F0.459459
aaI37
aa(lp7708
I1
a(lp7709
F0.395833
aaI48
aa(lp7710
I1
a(lp7711
F0.4
aaI45
aa(lp7712
I1
a(lp7713
F0.404762
aaI42
aaa(lp7714
S'scaffold2554_cov143'
p7715
aS'scaffold5205_cov172'
p7716
aa(lp7717
S'scaffold10657_cov306'
p7718
aS'scaffold4178_cov282'
p7719
aa(lp7720
S'scaffold10400_cov191'
p7721
aS'scaffold674_cov219'
p7722
a(lp7723
I1
a(lp7724
F0.5
aaI38
aa(lp7725
I1
a(lp7726
F0.2
aaI40
aa(lp7727
I1
a(lp7728
F0.2
aaI35
aa(lp7729
I1
a(lp7730
F0.32
aaI25
aa(lp7731
I1
a(lp7732
F0.333333
aaI30
aa(lp7733
I1
a(lp7734
F0.272727
aaI11
aa(lp7735
I1
a(lp7736
F0.363636
aaI33
aa(lp7737
I1
a(lp7738
F0.323529
aaI34
aa(lp7739
I1
a(lp7740
F0.322581
aaI31
aa(lp7741
I1
a(lp7742
F0.296296
aaI27
aaa(lp7743
S'scaffold2246_cov240'
p7744
aS'scaffold4949_cov266'
p7745
aa(lp7746
S'scaffold1253_cov168'
p7747
aS'scaffold849_cov247'
p7748
aa(lp7749
S'scaffold1042_cov233'
p7750
aS'scaffold20788_cov116'
p7751
aa(lp7752
S'scaffold1999_cov166'
p7753
aS'scaffold6403_cov387'
p7754
a(lp7755
I1
a(lp7756
F0.5
aaI52
aa(lp7757
I1
a(lp7758
F0.428571
aaI42
aa(lp7759
I1
a(lp7760
F0.58
aaI50
aa(lp7761
I1
a(lp7762
F0.26087
aaI23
aa(lp7763
I1
a(lp7764
F0.257143
aaI35
aa(lp7765
I1
a(lp7766
F0.257143
aaI35
aa(lp7767
I1
a(lp7768
F0.272727
aaI33
aa(lp7769
I1
a(lp7770
F0.297297
aaI37
aa(lp7771
I1
a(lp7772
F0.294118
aaI34
aa(lp7773
I1
a(lp7774
F0.340909
aaI44
aa(lp7775
I1
a(lp7776
F0.4
aaI30
aaa(lp7777
S'scaffold2659_cov200'
p7778
aS'scaffold7260_cov230'
p7779
aa(lp7780
S'scaffold3194_cov316'
p7781
aS'scaffold3195_cov270'
p7782
a(lp7783
I1
a(lp7784
F0.452381
aaI42
aa(lp7785
I1
a(lp7786
F0.454545
aaI44
aa(lp7787
I1
a(lp7788
F0.375
aaI48
aa(lp7789
I1
a(lp7790
F0.46
aaI50
aa(lp7791
I1
a(lp7792
F0.4
aaI40
aa(lp7793
I1
a(lp7794
F0.571429
aaI42
aa(lp7795
I1
a(lp7796
F0.611111
aaI36
aaa(lp7797
S'scaffold14897_cov267'
p7798
aS'scaffold5330_cov257'
p7799
a(lp7800
I1
a(lp7801
F0.5
aaI32
aa(lp7802
I1
a(lp7803
F0.225
aaI40
aaa(lp7804
S'scaffold1044_cov225'
p7805
aS'scaffold21510_cov192'
p7806
a(lp7807
I1
a(lp7808
F0.208333
aaI24
aa(lp7809
I1
a(lp7810
F0.323529
aaI34
aaa(lp7811
S'scaffold3188_cov246'
p7812
aS'scaffold36473_cov268'
p7813
a(lp7814
I1
a(lp7815
F0.297872
aaI47
aa(lp7816
I1
a(lp7817
F0.270833
aaI48
aa(lp7818
I1
a(lp7819
F0.255319
aaI47
aa(lp7820
I1
a(lp7821
F0.44
aaI25
aa(lp7822
I1
a(lp7823
F0.482759
aaI29
aa(lp7824
I1
a(lp7825
F0.458333
aaI48
aa(lp7826
I1
a(lp7827
F0.514286
aaI35
aa(lp7828
I1
a(lp7829
F0.5
aaI44
aaa(lp7830
S'scaffold5690_cov178'
p7831
aS'scaffold8992_cov141'
p7832
aa(lp7833
S'scaffold35739_cov310'
p7834
aS'scaffold9147_cov314'
p7835
aa(lp7836
S'scaffold10089_cov244'
p7837
aS'scaffold11805_cov225'
p7838
a(lp7839
I1
a(lp7840
F0.428571
aaI35
aa(lp7841
I1
a(lp7842
F0.473684
aaI57
aa(lp7843
I1
a(lp7844
F0.365854
aaI41
aa(lp7845
I1
a(lp7846
F0.34
aaI50
aaa(lp7847
S'scaffold4966_cov298'
p7848
aS'scaffold5238_cov294'
p7849
a(lp7850
I1
a(lp7851
F0.218045
aaI133
aa(lp7852
I1
a(lp7853
F0.222222
aaI135
aa(lp7854
I1
a(lp7855
F0.414815
aaI135
aa(lp7856
I1
a(lp7857
F0.26
aaI50
aa(lp7858
I1
a(lp7859
F0.26087
aaI46
aa(lp7860
I1
a(lp7861
F0.28
aaI50
aa(lp7862
I1
a(lp7863
F0.259259
aaI54
aa(lp7864
I1
a(lp7865
F0.218182
aaI55
aa(lp7866
I1
a(lp7867
F0.244898
aaI49
aa(lp7868
I1
a(lp7869
F0.25
aaI48
aa(lp7870
I1
a(lp7871
F0.25
aaI48
aa(lp7872
I1
a(lp7873
F0.388889
aaI90
aaa(lp7874
S'scaffold314_cov314'
p7875
aS'scaffold315_cov308'
p7876
a(lp7877
I1
a(lp7878
F0.522727
aaI44
aa(lp7879
I1
a(lp7880
F0.4375
aaI32
aa(lp7881
I1
a(lp7882
F0.272727
aaI66
aa(lp7883
I1
a(lp7884
F0.257143
aaI70
aa(lp7885
I1
a(lp7886
F0.25
aaI72
aa(lp7887
I1
a(lp7888
F0.325581
aaI43
aa(lp7889
I1
a(lp7890
F0.240741
aaI54
aa(lp7891
I1
a(lp7892
F0.333333
aaI66
aa(lp7893
I1
a(lp7894
F0.269841
aaI63
aa(lp7895
I1
a(lp7896
F0.266667
aaI60
aa(lp7897
I1
a(lp7898
F0.222222
aaI54
aa(lp7899
I1
a(lp7900
F0.463415
aaI82
aa(lp7901
I1
a(lp7902
F0.361111
aaI72
aaa(lp7903
S'scaffold54_cov186'
p7904
aS'scaffold6744_cov389'
p7905
a(lp7906
I1
a(lp7907
F0.488372
aaI43
aa(lp7908
I1
a(lp7909
F0.574468
aaI47
aa(lp7910
I1
a(lp7911
F0.204545
aaI44
aaa(lp7912
S'scaffold914_cov157'
p7913
aS'scaffold915_cov207'
p7914
a(lp7915
I1
a(lp7916
F0.264706
aaI34
aa(lp7917
I1
a(lp7918
F0.446809
aaI47
aa(lp7919
I1
a(lp7920
F0.292683
aaI41
aa(lp7921
I1
a(lp7922
F0.241379
aaI29
aa(lp7923
I1
a(lp7924
F0.382353
aaI34
aa(lp7925
I1
a(lp7926
F0.333333
aaI24
aa(lp7927
I1
a(lp7928
F0.264706
aaI34
aa(lp7929
I1
a(lp7930
F0.233333
aaI30
aa(lp7931
I1
a(lp7932
F0.21875
aaI32
aa(lp7933
I1
a(lp7934
F0.233333
aaI30
aa(lp7935
I1
a(lp7936
F0.612245
aaI49
aa(lp7937
I1
a(lp7938
F0.214286
aaI28
aa(lp7939
I1
a(lp7940
F0.0
aaI27
aa(lp7941
I1
a(lp7942
F0.577778
aaI45
aa(lp7943
I1
a(lp7944
F0.490196
aaI51
aa(lp7945
I1
a(lp7946
F0.287671
aaI73
aa(lp7947
I1
a(lp7948
F0.292683
aaI82
aa(lp7949
I1
a(lp7950
F0.24
aaI25
aa(lp7951
I1
a(lp7952
F0.324324
aaI37
aa(lp7953
I1
a(lp7954
F0.318182
aaI22
aa(lp7955
I1
a(lp7956
F0.527778
aaI36
aa(lp7957
I1
a(lp7958
F0.40625
aaI32
aa(lp7959
I1
a(lp7960
F0.4375
aaI32
aa(lp7961
I1
a(lp7962
F0.388889
aaI36
aa(lp7963
I1
a(lp7964
F0.305556
aaI36
aa(lp7965
I1
a(lp7966
F0.272727
aaI33
aa(lp7967
I1
a(lp7968
F0.21875
aaI32
aa(lp7969
I1
a(lp7970
F0.411765
aaI34
aaa(lp7971
S'scaffold12737_cov227'
p7972
aS'scaffold5303_cov242'
p7973
a(lp7974
I1
a(lp7975
F0.425926
aaI54
aa(lp7976
I1
a(lp7977
F0.325
aaI40
aa(lp7978
I1
a(lp7979
F0.307692
aaI39
aa(lp7980
I1
a(lp7981
F0.454545
aaI33
aa(lp7982
I1
a(lp7983
F0.419355
aaI31
aa(lp7984
I1
a(lp7985
F0.266667
aaI30
aa(lp7986
I1
a(lp7987
F0.32
aaI25
aa(lp7988
I1
a(lp7989
F0.264706
aaI34
aa(lp7990
I1
a(lp7991
F0.35
aaI40
aa(lp7992
I1
a(lp7993
F0.428571
aaI49
aa(lp7994
I1
a(lp7995
F0.433333
aaI30
aa(lp7996
I1
a(lp7997
F0.404762
aaI42
aa(lp7998
I1
a(lp7999
F0.574468
aaI47
aa(lp8000
I1
a(lp8001
F0.238095
aaI42
aa(lp8002
I1
a(lp8003
F0.243902
aaI41
aaa(lp8004
S'scaffold2497_cov220'
p8005
aS'scaffold9204_cov285'
p8006
a(lp8007
I1
a(lp8008
F0.452381
aaI42
aaa(lp8009
S'scaffold4382_cov182'
p8010
aS'scaffold50853_cov294'
p8011
a(lp8012
I1
a(lp8013
F0.294118
aaI34
aa(lp8014
I1
a(lp8015
F0.314286
aaI35
aa(lp8016
I1
a(lp8017
F0.323529
aaI34
aa(lp8018
I1
a(lp8019
F0.363636
aaI33
aaa(lp8020
S'scaffold6035_cov288'
p8021
aS'scaffold8301_cov160'
p8022
a(lp8023
I1
a(lp8024
F0.0
aaI16
aa(lp8025
I1
a(lp8026
F0.0
aaI26
aa(lp8027
I1
a(lp8028
F0.0
aaI19
aa(lp8029
I1
a(lp8030
F0.0
aaI3
aa(lp8031
I1
a(lp8032
F0.0
aaI2
aa(lp8033
I1
a(lp8034
F0.0
aaI7
aa(lp8035
I1
a(lp8036
F0.0
aaI26
aa(lp8037
I1
a(lp8038
F0.0
aaI26
aa(lp8039
I1
a(lp8040
F0.285714
aaI35
aa(lp8041
I1
a(lp8042
F0.0
aaI5
aa(lp8043
I1
a(lp8044
F0.0
aaI24
aa(lp8045
I1
a(lp8046
F0.0
aaI26
aa(lp8047
I1
a(lp8048
F0.0
aaI24
aa(lp8049
I1
a(lp8050
F0.0
aaI14
aa(lp8051
I1
a(lp8052
F0.0
aaI19
aa(lp8053
I1
a(lp8054
F0.0
aaI29
aa(lp8055
I1
a(lp8056
F0.0
aaI28
aa(lp8057
I1
a(lp8058
F0.333333
aaI15
aaa(lp8059
S'scaffold3158_cov165'
p8060
aS'scaffold51910_cov463'
p8061
aa(lp8062
S'scaffold305_cov293'
p8063
aS'scaffold437_cov301'
p8064
aa(lp8065
S'scaffold10585_cov239'
p8066
aS'scaffold14002_cov262'
p8067
a(lp8068
I1
a(lp8069
F0.444444
aaI45
aa(lp8070
I1
a(lp8071
F0.472222
aaI36
aa(lp8072
I1
a(lp8073
F0.511628
aaI43
aaa(lp8074
S'scaffold34753_cov325'
p8075
aS'scaffold78_cov298'
p8076
a(lp8077
I1
a(lp8078
F0.416667
aaI36
aa(lp8079
I1
a(lp8080
F0.461538
aaI39
aa(lp8081
I1
a(lp8082
F0.441176
aaI34
aa(lp8083
I1
a(lp8084
F0.511111
aaI45
aa(lp8085
I1
a(lp8086
F0.4
aaI40
aa(lp8087
I1
a(lp8088
F0.432432
aaI37
aa(lp8089
I1
a(lp8090
F0.444444
aaI36
aa(lp8091
I1
a(lp8092
F0.34375
aaI32
aa(lp8093
I1
a(lp8094
F0.366667
aaI30
aa(lp8095
I1
a(lp8096
F0.37931
aaI29
aa(lp8097
I1
a(lp8098
F0.392857
aaI28
aa(lp8099
I1
a(lp8100
F0.525
aaI40
aa(lp8101
I1
a(lp8102
F0.472222
aaI36
aa(lp8103
I1
a(lp8104
F0.388889
aaI36
aa(lp8105
I1
a(lp8106
F0.358974
aaI39
aa(lp8107
I1
a(lp8108
F0.375
aaI48
aa(lp8109
I1
a(lp8110
F0.512195
aaI41
aa(lp8111
I1
a(lp8112
F0.46875
aaI32
aa(lp8113
I1
a(lp8114
F0.285714
aaI42
aa(lp8115
I1
a(lp8116
F0.558824
aaI34
aa(lp8117
I1
a(lp8118
F0.5
aaI48
aa(lp8119
I1
a(lp8120
F0.333333
aaI33
aa(lp8121
I1
a(lp8122
F0.315789
aaI38
aa(lp8123
I1
a(lp8124
F0.475
aaI40
aa(lp8125
I1
a(lp8126
F0.378378
aaI37
aa(lp8127
I1
a(lp8128
F0.568627
aaI51
aa(lp8129
I1
a(lp8130
F0.404762
aaI42
aa(lp8131
I1
a(lp8132
F0.5
aaI36
aa(lp8133
I1
a(lp8134
F0.428571
aaI49
aa(lp8135
I1
a(lp8136
F0.340909
aaI44
aa(lp8137
I1
a(lp8138
F0.375
aaI40
aa(lp8139
I1
a(lp8140
F0.333333
aaI36
aa(lp8141
I1
a(lp8142
F0.297297
aaI37
aa(lp8143
I1
a(lp8144
F0.25
aaI28
aa(lp8145
I1
a(lp8146
F0.382353
aaI34
aa(lp8147
I1
a(lp8148
F0.470588
aaI34
aa(lp8149
I1
a(lp8150
F0.371429
aaI35
aa(lp8151
I1
a(lp8152
F0.223077
aaI130
aa(lp8153
I1
a(lp8154
F0.448276
aaI29
aa(lp8155
I1
a(lp8156
F0.285714
aaI21
aaa(lp8157
S'scaffold10366_cov326'
p8158
aS'scaffold17512_cov158'
p8159
aa(lp8160
S'scaffold10411_cov164'
p8161
aS'scaffold36055_cov189'
p8162
aa(lp8163
S'scaffold1228_cov289'
p8164
aS'scaffold294_cov265'
p8165
aa(lp8166
S'scaffold3956_cov265'
p8167
aS'scaffold4654_cov204'
p8168
aasg3378
(lp8169
(lp8170
g6795
ag6796
aa(lp8171
g6816
ag6817
a(lp8172
I1
a(lp8173
F0.368421
aaI38
aa(lp8174
I1
a(lp8175
F0.257143
aaI35
aa(lp8176
I1
a(lp8177
F0.263158
aaI38
aa(lp8178
I1
a(lp8179
F0.27027
aaI37
aa(lp8180
I1
a(lp8181
F0.555556
aaI27
aa(lp8182
I1
a(lp8183
F0.567568
aaI37
aa(lp8184
I1
a(lp8185
F0.454545
aaI44
aa(lp8186
I1
a(lp8187
F0.470588
aaI34
aa(lp8188
I1
a(lp8189
F0.357143
aaI28
aa(lp8190
I1
a(lp8191
F0.428571
aaI28
aa(lp8192
I1
a(lp8193
F0.266667
aaI15
aaa(lp8194
g6835
ag6836
a(lp8195
I1
a(lp8196
F0.209302
aaI43
aa(lp8197
I1
a(lp8198
F0.392157
aaI51
aa(lp8199
I1
a(lp8200
F0.37037
aaI54
aa(lp8201
I1
a(lp8202
F0.319149
aaI47
aa(lp8203
I1
a(lp8204
F0.462963
aaI54
aa(lp8205
I1
a(lp8206
F0.415094
aaI53
aa(lp8207
I1
a(lp8208
F0.482143
aaI56
aa(lp8209
I1
a(lp8210
F0.446809
aaI47
aa(lp8211
I1
a(lp8212
F0.411765
aaI34
aaa(lp8213
g6868
ag6869
a(lp8214
I1
a(lp8215
F0.405405
aaI37
aa(lp8216
I1
a(lp8217
F0.478261
aaI46
aa(lp8218
I1
a(lp8219
F0.25
aaI52
aaa(lp8220
g6879
ag6880
aa(lp8221
g6882
ag6883
a(lp8222
I1
a(lp8223
F0.578947
aaI38
aa(lp8224
I1
a(lp8225
F0.285714
aaI21
aa(lp8226
I1
a(lp8227
F0.227273
aaI22
aa(lp8228
I1
a(lp8229
F0.227273
aaI22
aa(lp8230
I1
a(lp8231
F0.227273
aaI22
aa(lp8232
I1
a(lp8233
F0.431818
aaI44
aa(lp8234
I1
a(lp8235
F0.297297
aaI37
aa(lp8236
I1
a(lp8237
F0.27027
aaI37
aa(lp8238
I1
a(lp8239
F0.297297
aaI37
aa(lp8240
I1
a(lp8241
F0.348837
aaI43
aa(lp8242
I1
a(lp8243
F0.451613
aaI31
aa(lp8244
I1
a(lp8245
F0.291667
aaI24
aa(lp8246
I1
a(lp8247
F0.233333
aaI30
aa(lp8248
I1
a(lp8249
F0.241379
aaI29
aaa(lp8250
g6885
ag6886
a(lp8251
I1
a(lp8252
F0.38
aaI50
aa(lp8253
I1
a(lp8254
F0.27907
aaI43
aaa(lp8255
g6900
ag6901
aa(lp8256
g6905
ag6906
aa(lp8257
g6934
ag6935
a(lp8258
I1
a(lp8259
F0.5
aaI24
aa(lp8260
I1
a(lp8261
F0.275862
aaI29
aa(lp8262
I1
a(lp8263
F0.428571
aaI35
aa(lp8264
I1
a(lp8265
F0.391304
aaI23
aaa(lp8266
g6957
ag6958
a(lp8267
I1
a(lp8268
F0.217391
aaI46
aaa(lp8269
g6962
ag6963
a(lp8270
I1
a(lp8271
F0.469388
aaI49
aaa(lp8272
g6967
ag6968
aa(lp8273
g6976
ag6977
a(lp8274
I1
a(lp8275
F0.613636
aaI44
aa(lp8276
I1
a(lp8277
F0.361111
aaI36
aa(lp8278
I1
a(lp8279
F0.351351
aaI37
aa(lp8280
I1
a(lp8281
F0.526316
aaI38
aa(lp8282
I1
a(lp8283
F0.526316
aaI38
aa(lp8284
I1
a(lp8285
F0.424242
aaI33
aa(lp8286
I1
a(lp8287
F0.361111
aaI36
aa(lp8288
I1
a(lp8289
F0.514286
aaI35
aa(lp8290
I1
a(lp8291
F0.52381
aaI42
aa(lp8292
I1
a(lp8293
F0.5
aaI38
aa(lp8294
I1
a(lp8295
F0.543478
aaI46
aa(lp8296
I1
a(lp8297
F0.222222
aaI36
aa(lp8298
I1
a(lp8299
F0.230769
aaI39
aa(lp8300
I1
a(lp8301
F0.522727
aaI44
aa(lp8302
I1
a(lp8303
F0.366667
aaI30
aaa(lp8304
g6979
ag6980
aa(lp8305
g6982
ag6983
a(lp8306
I1
a(lp8307
F0.325
aaI40
aa(lp8308
I1
a(lp8309
F0.28
aaI25
aaa(lp8310
g6985
ag6986
aa(lp8311
g6988
ag6989
aa(lp8312
g6991
ag6992
a(lp8313
I1
a(lp8314
F0.214286
aaI28
aaa(lp8315
g6998
ag6999
aa(lp8316
g7001
ag7002
aa(lp8317
g7004
ag7005
a(lp8318
I1
a(lp8319
F0.521739
aaI46
aa(lp8320
I1
a(lp8321
F0.571429
aaI49
aa(lp8322
I1
a(lp8323
F0.510638
aaI47
aaa(lp8324
g7007
ag7008
a(lp8325
I1
a(lp8326
F0.269231
aaI26
aa(lp8327
I1
a(lp8328
F0.322581
aaI31
aa(lp8329
I1
a(lp8330
F0.421053
aaI38
aa(lp8331
I1
a(lp8332
F0.242424
aaI66
aa(lp8333
I1
a(lp8334
F0.519231
aaI52
aa(lp8335
I1
a(lp8336
F0.5
aaI54
aaa(lp8337
g7040
ag7041
a(lp8338
I1
a(lp8339
F0.304348
aaI23
aa(lp8340
I1
a(lp8341
F0.333333
aaI24
aa(lp8342
I1
a(lp8343
F0.416667
aaI24
aa(lp8344
I1
a(lp8345
F0.393939
aaI33
aa(lp8346
I1
a(lp8347
F0.45
aaI40
aa(lp8348
I1
a(lp8349
F0.222222
aaI27
aa(lp8350
I1
a(lp8351
F0.433333
aaI30
aa(lp8352
I1
a(lp8353
F0.411765
aaI17
aa(lp8354
I1
a(lp8355
F0.411765
aaI17
aaa(lp8356
g7055
ag7056
aa(lp8357
g7060
ag7061
aa(lp8358
g7063
ag7064
aa(lp8359
g7080
ag7081
a(lp8360
I1
a(lp8361
F0.361111
aaI36
aa(lp8362
I1
a(lp8363
F0.217391
aaI23
aaa(lp8364
g7101
ag7102
aa(lp8365
g7118
ag7119
aa(lp8366
g7121
ag7122
a(lp8367
I1
a(lp8368
F0.25
aaI32
aa(lp8369
I1
a(lp8370
F0.479167
aaI48
aa(lp8371
I1
a(lp8372
F0.568182
aaI44
aa(lp8373
I1
a(lp8374
F0.580645
aaI31
aa(lp8375
I1
a(lp8376
F0.481481
aaI27
aa(lp8377
I1
a(lp8378
F0.535714
aaI28
aa(lp8379
I1
a(lp8380
F0.545455
aaI44
aa(lp8381
I1
a(lp8382
F0.585366
aaI41
aa(lp8383
I1
a(lp8384
F0.535714
aaI28
aa(lp8385
I1
a(lp8386
F0.392857
aaI28
aa(lp8387
I1
a(lp8388
F0.568182
aaI44
aa(lp8389
I1
a(lp8390
F0.482759
aaI29
aa(lp8391
I1
a(lp8392
F0.53125
aaI32
aa(lp8393
I1
a(lp8394
F0.5
aaI34
aa(lp8395
I1
a(lp8396
F0.545455
aaI44
aa(lp8397
I1
a(lp8398
F0.261905
aaI42
aa(lp8399
I1
a(lp8400
F0.266667
aaI30
aaa(lp8401
g7124
ag7125
a(lp8402
I1
a(lp8403
F0.333333
aaI33
aa(lp8404
I1
a(lp8405
F0.416667
aaI36
aa(lp8406
I1
a(lp8407
F0.378378
aaI37
aa(lp8408
I1
a(lp8409
F0.333333
aaI33
aa(lp8410
I1
a(lp8411
F0.566038
aaI53
aa(lp8412
I1
a(lp8413
F0.2
aaI55
aa(lp8414
I1
a(lp8415
F0.2
aaI55
aa(lp8416
I1
a(lp8417
F0.241379
aaI58
aaa(lp8418
g7135
ag7136
aa(lp8419
g7150
ag7151
aa(lp8420
g7169
ag7170
aa(lp8421
g7172
ag7173
a(lp8422
I1
a(lp8423
F0.25641
aaI39
aaa(lp8424
g7187
ag7188
aa(lp8425
g7190
ag7191
a(lp8426
I1
a(lp8427
F0.272727
aaI33
aa(lp8428
I1
a(lp8429
F0.243243
aaI37
aa(lp8430
I1
a(lp8431
F0.382353
aaI34
aa(lp8432
I1
a(lp8433
F0.333333
aaI24
aaa(lp8434
g7193
ag7194
a(lp8435
I1
a(lp8436
F0.512195
aaI41
aa(lp8437
I1
a(lp8438
F0.543478
aaI46
aa(lp8439
I1
a(lp8440
F0.54
aaI50
aa(lp8441
I1
a(lp8442
F0.529412
aaI34
aa(lp8443
I1
a(lp8444
F0.548387
aaI31
aa(lp8445
I1
a(lp8446
F0.484848
aaI33
aa(lp8447
I1
a(lp8448
F0.36
aaI25
aa(lp8449
I1
a(lp8450
F0.444444
aaI27
aa(lp8451
I1
a(lp8452
F0.277778
aaI36
aa(lp8453
I1
a(lp8454
F0.424242
aaI33
aa(lp8455
I1
a(lp8456
F0.355556
aaI45
aa(lp8457
I1
a(lp8458
F0.5
aaI46
aa(lp8459
I1
a(lp8460
F0.478261
aaI23
aa(lp8461
I1
a(lp8462
F0.2
aaI25
aa(lp8463
I1
a(lp8464
F0.321429
aaI28
aa(lp8465
I1
a(lp8466
F0.277778
aaI36
aa(lp8467
I1
a(lp8468
F0.4
aaI40
aaa(lp8469
g7210
ag7211
a(lp8470
I1
a(lp8471
F0.5
aaI46
aa(lp8472
I1
a(lp8473
F0.482759
aaI29
aa(lp8474
I1
a(lp8475
F0.470588
aaI34
aa(lp8476
I1
a(lp8477
F0.375
aaI32
aa(lp8478
I1
a(lp8479
F0.485714
aaI35
aa(lp8480
I1
a(lp8481
F0.444444
aaI36
aa(lp8482
I1
a(lp8483
F0.473684
aaI38
aa(lp8484
I1
a(lp8485
F0.517241
aaI58
aa(lp8486
I1
a(lp8487
F0.340909
aaI44
aa(lp8488
I1
a(lp8489
F0.358974
aaI39
aa(lp8490
I1
a(lp8491
F0.365854
aaI41
aa(lp8492
I1
a(lp8493
F0.461538
aaI39
aa(lp8494
I1
a(lp8495
F0.378378
aaI37
aa(lp8496
I1
a(lp8497
F0.378378
aaI37
aa(lp8498
I1
a(lp8499
F0.393939
aaI33
aa(lp8500
I1
a(lp8501
F0.391304
aaI23
aa(lp8502
I1
a(lp8503
F0.48
aaI25
aa(lp8504
I1
a(lp8505
F0.575
aaI40
aa(lp8506
I1
a(lp8507
F0.371429
aaI35
aa(lp8508
I1
a(lp8509
F0.0
aaI21
aaa(lp8510
g7235
ag7236
a(lp8511
I1
a(lp8512
F0.24
aaI25
aa(lp8513
I1
a(lp8514
F0.297297
aaI37
aa(lp8515
I1
a(lp8516
F0.36
aaI25
aaa(lp8517
g7248
ag7249
a(lp8518
I1
a(lp8519
F0.285714
aaI28
aa(lp8520
I1
a(lp8521
F0.4
aaI25
aa(lp8522
I1
a(lp8523
F0.321429
aaI28
aa(lp8524
I1
a(lp8525
F0.393939
aaI33
aa(lp8526
I1
a(lp8527
F0.533333
aaI45
aa(lp8528
I1
a(lp8529
F0.5
aaI46
aa(lp8530
I1
a(lp8531
F0.21875
aaI32
aa(lp8532
I1
a(lp8533
F0.233333
aaI30
aa(lp8534
I1
a(lp8535
F0.315789
aaI19
aa(lp8536
I1
a(lp8537
F0.485714
aaI35
aa(lp8538
I1
a(lp8539
F0.521739
aaI23
aa(lp8540
I1
a(lp8541
F0.542857
aaI35
aa(lp8542
I1
a(lp8543
F0.46875
aaI32
aa(lp8544
I1
a(lp8545
F0.655172
aaI29
aa(lp8546
I1
a(lp8547
F0.533333
aaI30
aa(lp8548
I1
a(lp8549
F0.517241
aaI29
aa(lp8550
I1
a(lp8551
F0.612903
aaI31
aa(lp8552
I1
a(lp8553
F0.294118
aaI34
aa(lp8554
I1
a(lp8555
F0.321429
aaI28
aa(lp8556
I1
a(lp8557
F0.357143
aaI28
aa(lp8558
I1
a(lp8559
F0.243243
aaI37
aa(lp8560
I1
a(lp8561
F0.243243
aaI37
aa(lp8562
I1
a(lp8563
F0.25
aaI36
aaa(lp8564
g7275
ag7276
a(lp8565
I1
a(lp8566
F0.217391
aaI23
aa(lp8567
I1
a(lp8568
F0.543478
aaI46
aa(lp8569
I1
a(lp8570
F0.272727
aaI22
aa(lp8571
I1
a(lp8572
F0.269231
aaI26
aa(lp8573
I1
a(lp8574
F0.466667
aaI45
aa(lp8575
I1
a(lp8576
F0.468085
aaI47
aa(lp8577
I1
a(lp8578
F0.5
aaI52
aa(lp8579
I1
a(lp8580
F0.244444
aaI45
aa(lp8581
I1
a(lp8582
F0.32
aaI25
aa(lp8583
I1
a(lp8584
F0.32
aaI25
aa(lp8585
I1
a(lp8586
F0.352941
aaI34
aa(lp8587
I1
a(lp8588
F0.34375
aaI32
aa(lp8589
I1
a(lp8590
F0.275862
aaI29
aaa(lp8591
g7286
ag7287
a(lp8592
I1
a(lp8593
F0.419355
aaI31
aa(lp8594
I1
a(lp8595
F0.416667
aaI24
aaa(lp8596
g7303
ag7304
a(lp8597
I1
a(lp8598
F0.311111
aaI45
aa(lp8599
I1
a(lp8600
F0.242424
aaI33
aa(lp8601
I1
a(lp8602
F0.517241
aaI29
aa(lp8603
I1
a(lp8604
F0.487805
aaI41
aaa(lp8605
g7306
ag7307
a(lp8606
I1
a(lp8607
F0.529412
aaI51
aaa(lp8608
g7319
ag7320
a(lp8609
I1
a(lp8610
F0.588235
aaI34
aa(lp8611
I1
a(lp8612
F0.475
aaI40
aa(lp8613
I1
a(lp8614
F0.2
aaI25
aaa(lp8615
g7382
ag7383
a(lp8616
I1
a(lp8617
F0.275
aaI40
aa(lp8618
I1
a(lp8619
F0.304348
aaI23
aaa(lp8620
g7385
ag7386
aa(lp8621
g7390
ag7391
a(lp8622
I1
a(lp8623
F0.454545
aaI22
aa(lp8624
I1
a(lp8625
F0.47619
aaI21
aa(lp8626
I1
a(lp8627
F0.47619
aaI21
aa(lp8628
I1
a(lp8629
F0.3125
aaI32
aaa(lp8630
g7399
ag7400
aa(lp8631
g7402
ag7403
a(lp8632
I1
a(lp8633
F0.463415
aaI41
aa(lp8634
I1
a(lp8635
F0.566667
aaI30
aa(lp8636
I1
a(lp8637
F0.666667
aaI30
aa(lp8638
I1
a(lp8639
F0.241379
aaI29
aa(lp8640
I1
a(lp8641
F0.25
aaI32
aa(lp8642
I1
a(lp8643
F0.30303
aaI33
aa(lp8644
I1
a(lp8645
F0.435897
aaI39
aa(lp8646
I1
a(lp8647
F0.351351
aaI37
aa(lp8648
I1
a(lp8649
F0.46875
aaI32
aa(lp8650
I1
a(lp8651
F0.484848
aaI33
aa(lp8652
I1
a(lp8653
F0.5
aaI32
aa(lp8654
I1
a(lp8655
F0.444444
aaI36
aa(lp8656
I1
a(lp8657
F0.432432
aaI37
aa(lp8658
I1
a(lp8659
F0.407407
aaI27
aa(lp8660
I1
a(lp8661
F0.344828
aaI29
aa(lp8662
I1
a(lp8663
F0.2
aaI45
aaa(lp8664
g7405
ag7406
aa(lp8665
g7408
ag7409
aa(lp8666
g7411
ag7412
a(lp8667
I1
a(lp8668
F0.444444
aaI45
aa(lp8669
I1
a(lp8670
F0.511111
aaI45
aa(lp8671
I1
a(lp8672
F0.435897
aaI39
aa(lp8673
I1
a(lp8674
F0.388889
aaI36
aa(lp8675
I1
a(lp8676
F0.485714
aaI35
aa(lp8677
I1
a(lp8678
F0.277778
aaI18
aa(lp8679
I1
a(lp8680
F0.35
aaI20
aa(lp8681
I1
a(lp8682
F0.384615
aaI26
aa(lp8683
I1
a(lp8684
F0.4
aaI25
aa(lp8685
I1
a(lp8686
F0.428571
aaI28
aa(lp8687
I1
a(lp8688
F0.413793
aaI29
aa(lp8689
I1
a(lp8690
F0.407407
aaI27
aa(lp8691
I1
a(lp8692
F0.434783
aaI23
aaa(lp8693
g7414
ag7415
a(lp8694
I1
a(lp8695
F0.367347
aaI49
aa(lp8696
I1
a(lp8697
F0.24
aaI50
aa(lp8698
I1
a(lp8699
F0.212766
aaI47
aa(lp8700
I1
a(lp8701
F0.241379
aaI29
aa(lp8702
I1
a(lp8703
F0.525
aaI40
aa(lp8704
I1
a(lp8705
F0.512821
aaI39
aa(lp8706
I1
a(lp8707
F0.614035
aaI57
aa(lp8708
I1
a(lp8709
F0.384615
aaI39
aa(lp8710
I1
a(lp8711
F0.35
aaI40
aa(lp8712
I1
a(lp8713
F0.205128
aaI39
aa(lp8714
I1
a(lp8715
F0.4
aaI30
aa(lp8716
I1
a(lp8717
F0.548387
aaI31
aa(lp8718
I1
a(lp8719
F0.441176
aaI34
aa(lp8720
I1
a(lp8721
F0.354839
aaI31
aa(lp8722
I1
a(lp8723
F0.0
aaI23
aa(lp8724
I1
a(lp8725
F0.48
aaI25
aa(lp8726
I1
a(lp8727
F0.542857
aaI35
aaa(lp8728
g7481
ag7482
a(lp8729
I1
a(lp8730
F0.2
aaI25
aa(lp8731
I1
a(lp8732
F0.242424
aaI33
aa(lp8733
I1
a(lp8734
F0.608696
aaI23
aa(lp8735
I1
a(lp8736
F0.465116
aaI43
aaa(lp8737
g7484
ag7485
a(lp8738
I1
a(lp8739
F0.446809
aaI47
aa(lp8740
I1
a(lp8741
F0.333333
aaI75
aaa(lp8742
g7487
ag7488
a(lp8743
I1
a(lp8744
F0.2
aaI25
aa(lp8745
I1
a(lp8746
F0.0
aaI23
aa(lp8747
I1
a(lp8748
F0.543478
aaI46
aa(lp8749
I1
a(lp8750
F0.404255
aaI47
aa(lp8751
I1
a(lp8752
F0.25641
aaI39
aa(lp8753
I1
a(lp8754
F0.272727
aaI44
aa(lp8755
I1
a(lp8756
F0.35
aaI40
aa(lp8757
I1
a(lp8758
F0.285714
aaI35
aa(lp8759
I1
a(lp8760
F0.294118
aaI34
aa(lp8761
I1
a(lp8762
F0.342857
aaI35
aa(lp8763
I1
a(lp8764
F0.413043
aaI46
aa(lp8765
I1
a(lp8766
F0.380952
aaI42
aa(lp8767
I1
a(lp8768
F0.209302
aaI43
aaa(lp8769
g7494
ag7495
aa(lp8770
g7509
ag7510
a(lp8771
I1
a(lp8772
F0.243243
aaI37
aa(lp8773
I1
a(lp8774
F0.28125
aaI32
aa(lp8775
I1
a(lp8776
F0.266667
aaI30
aaa(lp8777
g7512
ag7513
aa(lp8778
g7519
ag7520
a(lp8779
I1
a(lp8780
F0.463415
aaI41
aa(lp8781
I1
a(lp8782
F0.452381
aaI42
aa(lp8783
I1
a(lp8784
F0.404762
aaI42
aaa(lp8785
g7540
ag7541
aa(lp8786
g7579
ag7580
aa(lp8787
g7582
ag7583
a(lp8788
I1
a(lp8789
F0.434783
aaI23
aa(lp8790
I1
a(lp8791
F0.384615
aaI26
aa(lp8792
I1
a(lp8793
F0.375
aaI32
aa(lp8794
I1
a(lp8795
F0.333333
aaI21
aa(lp8796
I1
a(lp8797
F0.419355
aaI31
aa(lp8798
I1
a(lp8799
F0.259259
aaI27
aa(lp8800
I1
a(lp8801
F0.235294
aaI34
aa(lp8802
I1
a(lp8803
F0.393939
aaI33
aa(lp8804
I1
a(lp8805
F0.461538
aaI26
aa(lp8806
I1
a(lp8807
F0.413793
aaI29
aa(lp8808
I1
a(lp8809
F0.40625
aaI32
aa(lp8810
I1
a(lp8811
F0.416667
aaI36
aa(lp8812
I1
a(lp8813
F0.405405
aaI37
aa(lp8814
I1
a(lp8815
F0.388889
aaI36
aa(lp8816
I1
a(lp8817
F0.325581
aaI43
aa(lp8818
I1
a(lp8819
F0.428571
aaI42
aa(lp8820
I1
a(lp8821
F0.333333
aaI36
aa(lp8822
I1
a(lp8823
F0.388889
aaI36
aa(lp8824
I1
a(lp8825
F0.34375
aaI32
aa(lp8826
I1
a(lp8827
F0.344828
aaI29
aa(lp8828
I1
a(lp8829
F0.30303
aaI33
aa(lp8830
I1
a(lp8831
F0.588235
aaI34
aa(lp8832
I1
a(lp8833
F0.586957
aaI46
aa(lp8834
I1
a(lp8835
F0.520833
aaI48
aa(lp8836
I1
a(lp8837
F0.444444
aaI27
aa(lp8838
I1
a(lp8839
F0.451613
aaI31
aa(lp8840
I1
a(lp8841
F0.5
aaI32
aa(lp8842
I1
a(lp8843
F0.344828
aaI29
aa(lp8844
I1
a(lp8845
F0.388889
aaI36
aaa(lp8846
g7625
ag7626
a(lp8847
I1
a(lp8848
F0.425
aaI40
aa(lp8849
I1
a(lp8850
F0.363636
aaI33
aa(lp8851
I1
a(lp8852
F0.371429
aaI35
aa(lp8853
I1
a(lp8854
F0.657895
aaI38
aaa(lp8855
g7638
ag7639
a(lp8856
I1
a(lp8857
F0.472222
aaI36
aa(lp8858
I1
a(lp8859
F0.419355
aaI31
aa(lp8860
I1
a(lp8861
F0.413793
aaI29
aa(lp8862
I1
a(lp8863
F0.419355
aaI31
aa(lp8864
I1
a(lp8865
F0.472222
aaI36
aa(lp8866
I1
a(lp8867
F0.409836
aaI61
aa(lp8868
I1
a(lp8869
F0.488889
aaI45
aa(lp8870
I1
a(lp8871
F0.255319
aaI47
aaa(lp8872
g7715
ag7716
a(lp8873
I1
a(lp8874
F0.238095
aaI21
aaa(lp8875
g7718
ag7719
aa(lp8876
g7721
ag7722
a(lp8877
I1
a(lp8878
F0.272727
aaI22
aa(lp8879
I1
a(lp8880
F0.25
aaI24
aa(lp8881
I1
a(lp8882
F0.340909
aaI44
aa(lp8883
I1
a(lp8884
F0.363636
aaI33
aa(lp8885
I1
a(lp8886
F0.395833
aaI48
aa(lp8887
I1
a(lp8888
F0.3
aaI30
aa(lp8889
I1
a(lp8890
F0.380952
aaI21
aa(lp8891
I1
a(lp8892
F0.391304
aaI23
aa(lp8893
I1
a(lp8894
F0.47619
aaI21
aa(lp8895
I1
a(lp8896
F0.434783
aaI23
aa(lp8897
I1
a(lp8898
F0.272727
aaI22
aa(lp8899
I1
a(lp8900
F0.333333
aaI24
aa(lp8901
I1
a(lp8902
F0.285714
aaI28
aa(lp8903
I1
a(lp8904
F0.285714
aaI28
aa(lp8905
I1
a(lp8906
F0.291667
aaI24
aa(lp8907
I1
a(lp8908
F0.257143
aaI35
aa(lp8909
I1
a(lp8910
F0.372093
aaI43
aa(lp8911
I1
a(lp8912
F0.522727
aaI44
aa(lp8913
I1
a(lp8914
F0.642857
aaI28
aa(lp8915
I1
a(lp8916
F0.296296
aaI27
aa(lp8917
I1
a(lp8918
F0.513514
aaI37
aa(lp8919
I1
a(lp8920
F0.527778
aaI36
aa(lp8921
I1
a(lp8922
F0.52
aaI25
aa(lp8923
I1
a(lp8924
F0.5
aaI24
aa(lp8925
I1
a(lp8926
F0.5
aaI24
aa(lp8927
I1
a(lp8928
F0.393939
aaI33
aa(lp8929
I1
a(lp8930
F0.289474
aaI38
aa(lp8931
I1
a(lp8932
F0.317073
aaI41
aa(lp8933
I1
a(lp8934
F0.259259
aaI27
aa(lp8935
I1
a(lp8936
F0.25
aaI24
aaa(lp8937
g7744
ag7745
a(lp8938
I1
a(lp8939
F0.0
aaI47
aaa(lp8940
g7747
ag7748
a(lp8941
I1
a(lp8942
F0.392857
aaI28
aa(lp8943
I1
a(lp8944
F0.454545
aaI22
aa(lp8945
I1
a(lp8946
F0.459459
aaI37
aa(lp8947
I1
a(lp8948
F0.432432
aaI37
aa(lp8949
I1
a(lp8950
F0.5
aaI36
aa(lp8951
I1
a(lp8952
F0.607143
aaI28
aa(lp8953
I1
a(lp8954
F0.473684
aaI38
aa(lp8955
I1
a(lp8956
F0.512195
aaI41
aa(lp8957
I1
a(lp8958
F0.393939
aaI33
aa(lp8959
I1
a(lp8960
F0.371429
aaI35
aa(lp8961
I1
a(lp8962
F0.451613
aaI31
aa(lp8963
I1
a(lp8964
F0.222222
aaI36
aa(lp8965
I1
a(lp8966
F0.431373
aaI51
aa(lp8967
I1
a(lp8968
F0.552632
aaI38
aa(lp8969
I1
a(lp8970
F0.282051
aaI39
aa(lp8971
I1
a(lp8972
F0.297297
aaI37
aa(lp8973
I1
a(lp8974
F0.25641
aaI39
aa(lp8975
I1
a(lp8976
F0.225
aaI40
aa(lp8977
I1
a(lp8978
F0.243902
aaI41
aa(lp8979
I1
a(lp8980
F0.418605
aaI43
aa(lp8981
I1
a(lp8982
F0.422222
aaI45
aa(lp8983
I1
a(lp8984
F0.314815
aaI54
aa(lp8985
I1
a(lp8986
F0.345455
aaI55
aa(lp8987
I1
a(lp8988
F0.288462
aaI52
aa(lp8989
I1
a(lp8990
F0.267857
aaI56
aa(lp8991
I1
a(lp8992
F0.32
aaI25
aa(lp8993
I1
a(lp8994
F0.380952
aaI42
aa(lp8995
I1
a(lp8996
F0.463415
aaI41
aa(lp8997
I1
a(lp8998
F0.393939
aaI33
aa(lp8999
I1
a(lp9000
F0.487179
aaI39
aa(lp9001
I1
a(lp9002
F0.382353
aaI34
aa(lp9003
I1
a(lp9004
F0.394737
aaI38
aa(lp9005
I1
a(lp9006
F0.40678
aaI59
aaa(lp9007
g7750
ag7751
a(lp9008
I1
a(lp9009
F0.454545
aaI44
aa(lp9010
I1
a(lp9011
F0.387097
aaI31
aaa(lp9012
g7753
ag7754
aa(lp9013
g7778
ag7779
a(lp9014
I1
a(lp9015
F0.222222
aaI27
aa(lp9016
I1
a(lp9017
F0.512821
aaI39
aa(lp9018
I1
a(lp9019
F0.241379
aaI29
aaa(lp9020
g7781
ag7782
a(lp9021
I1
a(lp9022
F0.581395
aaI43
aa(lp9023
I1
a(lp9024
F0.294118
aaI51
aa(lp9025
I1
a(lp9026
F0.409091
aaI44
aaa(lp9027
g7798
ag7799
aa(lp9028
g7805
ag7806
a(lp9029
I1
a(lp9030
F0.216216
aaI37
aaa(lp9031
g7812
ag7813
a(lp9032
I1
a(lp9033
F0.285714
aaI21
aa(lp9034
I1
a(lp9035
F0.233333
aaI30
aa(lp9036
I1
a(lp9037
F0.206349
aaI63
aa(lp9038
I1
a(lp9039
F0.666667
aaI69
aa(lp9040
I1
a(lp9041
F0.680556
aaI72
aa(lp9042
I1
a(lp9043
F0.706897
aaI58
aa(lp9044
I1
a(lp9045
F0.436364
aaI55
aa(lp9046
I1
a(lp9047
F0.377358
aaI53
aa(lp9048
I1
a(lp9049
F0.314815
aaI54
aa(lp9050
I1
a(lp9051
F0.357143
aaI42
aaa(lp9052
g7831
ag7832
a(lp9053
I1
a(lp9054
F0.384615
aaI39
aa(lp9055
I1
a(lp9056
F0.21875
aaI32
aa(lp9057
I1
a(lp9058
F0.205882
aaI34
aaa(lp9059
g7834
ag7835
aa(lp9060
g7837
ag7838
a(lp9061
I1
a(lp9062
F0.403509
aaI57
aa(lp9063
I1
a(lp9064
F0.465517
aaI58
aa(lp9065
I1
a(lp9066
F0.314815
aaI54
aa(lp9067
I1
a(lp9068
F0.577778
aaI45
aa(lp9069
I1
a(lp9070
F0.564103
aaI39
aa(lp9071
I1
a(lp9072
F0.568182
aaI44
aa(lp9073
I1
a(lp9074
F0.525424
aaI59
aa(lp9075
I1
a(lp9076
F0.28
aaI25
aa(lp9077
I1
a(lp9078
F0.228571
aaI35
aaa(lp9079
g7848
ag7849
aa(lp9080
g7875
ag7876
aa(lp9081
g7904
ag7905
aa(lp9082
g7913
ag7914
a(lp9083
I1
a(lp9084
F0.259259
aaI27
aa(lp9085
I1
a(lp9086
F0.228571
aaI35
aa(lp9087
I1
a(lp9088
F0.444444
aaI45
aa(lp9089
I1
a(lp9090
F0.208333
aaI24
aa(lp9091
I1
a(lp9092
F0.340909
aaI44
aa(lp9093
I1
a(lp9094
F0.25
aaI32
aa(lp9095
I1
a(lp9096
F0.206897
aaI29
aa(lp9097
I1
a(lp9098
F0.347826
aaI23
aa(lp9099
I1
a(lp9100
F0.307692
aaI26
aaa(lp9101
g7972
ag7973
a(lp9102
I1
a(lp9103
F0.461538
aaI39
aa(lp9104
I1
a(lp9105
F0.5
aaI30
aa(lp9106
I1
a(lp9107
F0.46875
aaI32
aa(lp9108
I1
a(lp9109
F0.428571
aaI35
aa(lp9110
I1
a(lp9111
F0.4
aaI35
aa(lp9112
I1
a(lp9113
F0.4
aaI35
aa(lp9114
I1
a(lp9115
F0.354839
aaI31
aa(lp9116
I1
a(lp9117
F0.354839
aaI31
aa(lp9118
I1
a(lp9119
F0.275862
aaI29
aa(lp9120
I1
a(lp9121
F0.342857
aaI35
aa(lp9122
I1
a(lp9123
F0.36
aaI25
aa(lp9124
I1
a(lp9125
F0.304348
aaI23
aa(lp9126
I1
a(lp9127
F0.2
aaI25
aa(lp9128
I1
a(lp9129
F0.2
aaI25
aa(lp9130
I1
a(lp9131
F0.285714
aaI28
aa(lp9132
I1
a(lp9133
F0.285714
aaI28
aa(lp9134
I1
a(lp9135
F0.307692
aaI26
aa(lp9136
I1
a(lp9137
F0.423077
aaI26
aa(lp9138
I1
a(lp9139
F0.4
aaI25
aa(lp9140
I1
a(lp9141
F0.461538
aaI26
aa(lp9142
I1
a(lp9143
F0.269231
aaI26
aaa(lp9144
g8005
ag8006
aa(lp9145
g8010
ag8011
aa(lp9146
g8021
ag8022
aa(lp9147
g8060
ag8061
aa(lp9148
g8063
ag8064
a(lp9149
I1
a(lp9150
F0.0
aaI37
aa(lp9151
I1
a(lp9152
F0.266667
aaI15
aa(lp9153
I1
a(lp9154
F0.315789
aaI19
aaa(lp9155
g8066
ag8067
a(lp9156
I1
a(lp9157
F0.290323
aaI31
aa(lp9158
I1
a(lp9159
F0.28125
aaI32
aa(lp9160
I1
a(lp9161
F0.290323
aaI31
aa(lp9162
I1
a(lp9163
F0.37931
aaI29
aaa(lp9164
g8075
ag8076
a(lp9165
I1
a(lp9166
F0.479167
aaI48
aaa(lp9167
g8158
ag8159
aa(lp9168
g8161
ag8162
a(lp9169
I1
a(lp9170
F0.355556
aaI45
aa(lp9171
I1
a(lp9172
F0.341463
aaI41
aaa(lp9173
g8164
ag8165
a(lp9174
I1
a(lp9175
F0.5
aaI30
aa(lp9176
I1
a(lp9177
F0.451613
aaI31
aa(lp9178
I1
a(lp9179
F0.45
aaI40
aa(lp9180
I1
a(lp9181
F0.230769
aaI26
aa(lp9182
I1
a(lp9183
F0.25
aaI24
aa(lp9184
I1
a(lp9185
F0.25
aaI24
aa(lp9186
I1
a(lp9187
F0.3
aaI30
aa(lp9188
I1
a(lp9189
F0.428571
aaI56
aa(lp9190
I1
a(lp9191
F0.3125
aaI32
aa(lp9192
I1
a(lp9193
F0.28125
aaI32
aa(lp9194
I1
a(lp9195
F0.322581
aaI31
aa(lp9196
I1
a(lp9197
F0.37931
aaI29
aaa(lp9198
g8167
ag8168
ag6079
a(lp9199
I1
a(lp9200
F0.227273
aaI22
aa(lp9201
I1
a(lp9202
F0.351351
aaI37
aa(lp9203
I1
a(lp9204
F0.290323
aaI31
aaass.