(dp0
S'triploids'
p1
(dp2
S'down'
p3
(lp4
(lp5
S'scaffold4386_cov298'
p6
aS'scaffold2688_cov189'
p7
a(lp8
I1
a(lp9
F0.5
aaI50
aa(lp10
I1
a(lp11
F0.458333
aaI24
aaa(lp12
S'scaffold5383_cov228'
p13
aS'scaffold6260_cov182'
p14
a(lp15
I1
a(lp16
F0.333333
aaI33
aaa(lp17
S'scaffold3363_cov220'
p18
aS'scaffold4931_cov207'
p19
a(lp20
I1
a(lp21
F0.5
aaI28
aaa(lp22
S'scaffold5757_cov278'
p23
aS'scaffold35469_cov250'
p24
a(lp25
I1
a(lp26
F0.27027
aaI37
aa(lp27
I1
a(lp28
F0.414634
aaI41
aa(lp29
I1
a(lp30
F0.4
aaI40
aa(lp31
I1
a(lp32
F0.222222
aaI27
aaa(lp33
S'scaffold520_cov225'
p34
aS'scaffold11220_cov221'
p35
a(lp36
I1
a(lp37
F0.0
aaI12
aa(lp38
I1
a(lp39
F0.0
aaI15
aa(lp40
I1
a(lp41
F0.0
aaI8
aa(lp42
I1
a(lp43
F0.0
aaI4
aaa(lp44
S'scaffold8181_cov267'
p45
aS'scaffold4564_cov155'
p46
aa(lp47
S'scaffold3627_cov265'
p48
aS'scaffold11291_cov250'
p49
a(lp50
I1
a(lp51
F0.333333
aaI27
aa(lp52
I1
a(lp53
F0.30303
aaI33
aa(lp54
I1
a(lp55
F0.275862
aaI29
aa(lp56
I1
a(lp57
F0.25
aaI28
aa(lp58
I1
a(lp59
F0.486486
aaI37
aa(lp60
I1
a(lp61
F0.487179
aaI39
aa(lp62
I1
a(lp63
F0.516129
aaI31
aa(lp64
I1
a(lp65
F0.469388
aaI49
aa(lp66
I1
a(lp67
F0.382353
aaI34
aa(lp68
I1
a(lp69
F0.428571
aaI35
aaa(lp70
S'scaffold6784_cov373'
p71
aS'scaffold34876_cov153'
p72
a(lp73
I1
a(lp74
F0.235294
aaI17
aa(lp75
I1
a(lp76
F0.222222
aaI18
aa(lp77
I1
a(lp78
F0.294118
aaI34
aa(lp79
I1
a(lp80
F0.307692
aaI26
aa(lp81
I1
a(lp82
F0.405405
aaI37
aa(lp83
I1
a(lp84
F0.344828
aaI29
aa(lp85
I1
a(lp86
F0.384615
aaI39
aa(lp87
I1
a(lp88
F0.461538
aaI39
aa(lp89
I1
a(lp90
F0.210526
aaI19
aa(lp91
I1
a(lp92
F0.0
aaI20
aa(lp93
I1
a(lp94
F0.285714
aaI14
aa(lp95
I1
a(lp96
F0.285714
aaI14
aa(lp97
I1
a(lp98
F0.264706
aaI34
aa(lp99
I1
a(lp100
F0.30303
aaI33
aa(lp101
I1
a(lp102
F0.216216
aaI37
aaa(lp103
S'scaffold8707_cov275'
p104
aS'scaffold1032_cov163'
p105
a(lp106
I1
a(lp107
F0.24
aaI25
aa(lp108
I1
a(lp109
F0.217391
aaI23
aa(lp110
I1
a(lp111
F0.24
aaI25
aa(lp112
I1
a(lp113
F0.259259
aaI27
aa(lp114
I1
a(lp115
F0.418605
aaI43
aa(lp116
I1
a(lp117
F0.2
aaI20
aaa(lp118
S'scaffold4886_cov351'
p119
aS'scaffold987_cov149'
p120
aa(lp121
S'scaffold5780_cov292'
p122
aS'scaffold421_cov166'
p123
a(lp124
I1
a(lp125
F0.461538
aaI26
aa(lp126
I1
a(lp127
F0.333333
aaI21
aa(lp128
I1
a(lp129
F0.333333
aaI21
aa(lp130
I1
a(lp131
F0.305556
aaI36
aa(lp132
I1
a(lp133
F0.210526
aaI38
aa(lp134
I1
a(lp135
F0.225
aaI40
aa(lp136
I1
a(lp137
F0.243243
aaI37
aa(lp138
I1
a(lp139
F0.272727
aaI22
aa(lp140
I1
a(lp141
F0.222222
aaI27
aaa(lp142
S'scaffold1469_cov209'
p143
aS'scaffold3829_cov235'
p144
a(lp145
I1
a(lp146
F0.466667
aaI45
aa(lp147
I1
a(lp148
F0.23913
aaI46
aaa(lp149
S'scaffold78_cov298'
p150
aS'scaffold3994_cov307'
p151
aa(lp152
S'scaffold14087_cov206'
p153
aS'scaffold4385_cov239'
p154
a(lp155
I1
a(lp156
F0.25
aaI16
aa(lp157
I1
a(lp158
F0.25
aaI16
aa(lp159
I1
a(lp160
F0.307692
aaI26
aa(lp161
I1
a(lp162
F0.333333
aaI30
aaa(lp163
S'scaffold19250_cov205'
p164
aS'scaffold8056_cov196'
p165
aa(lp166
S'scaffold4480_cov293'
p167
aS'scaffold18648_cov147'
p168
aa(lp169
S'scaffold2503_cov151'
p170
aS'scaffold3984_cov353'
p171
aa(lp172
S'scaffold499_cov259'
p173
aS'scaffold8360_cov206'
p174
aa(lp175
S'scaffold3693_cov252'
p176
aS'scaffold35708_cov182'
p177
aa(lp178
S'scaffold35009_cov245'
p179
aS'scaffold91_cov238'
p180
a(lp181
I1
a(lp182
F0.285714
aaI42
aa(lp183
I1
a(lp184
F0.511628
aaI43
aa(lp185
I1
a(lp186
F0.576923
aaI52
aa(lp187
I1
a(lp188
F0.439024
aaI41
aa(lp189
I1
a(lp190
F0.393939
aaI33
aa(lp191
I1
a(lp192
F0.433333
aaI30
aa(lp193
I1
a(lp194
F0.315789
aaI38
aaa(lp195
S'scaffold10091_cov218'
p196
aS'scaffold8128_cov148'
p197
aa(lp198
S'scaffold2747_cov252'
p199
aS'scaffold35860_cov272'
p200
a(lp201
I1
a(lp202
F0.456522
aaI46
aaa(lp203
S'scaffold40391_cov315'
p204
aS'scaffold10294_cov190'
p205
aa(lp206
S'scaffold709_cov247'
p207
aS'scaffold5198_cov234'
p208
aa(lp209
S'scaffold52810_cov589'
p210
aS'scaffold2099_cov316'
p211
aa(lp212
S'scaffold6504_cov303'
p213
aS'scaffold13906_cov172'
p214
aa(lp215
S'scaffold275_cov215'
p216
aS'scaffold387_cov149'
p217
aa(lp218
S'scaffold1607_cov239'
p219
aS'scaffold35912_cov193'
p220
a(lp221
I1
a(lp222
F0.222222
aaI18
aa(lp223
I1
a(lp224
F0.2
aaI25
aa(lp225
I1
a(lp226
F0.2
aaI25
aa(lp227
I1
a(lp228
F0.333333
aaI27
aa(lp229
I1
a(lp230
F0.206897
aaI29
aaa(lp231
S'scaffold15165_cov249'
p232
aS'scaffold35835_cov299'
p233
aa(lp234
S'scaffold3960_cov215'
p235
aS'scaffold3895_cov206'
p236
a(lp237
I1
a(lp238
F0.205128
aaI39
aa(lp239
I1
a(lp240
F0.243902
aaI41
aa(lp241
I1
a(lp242
F0.205128
aaI39
aa(lp243
I1
a(lp244
F0.227273
aaI44
aa(lp245
I1
a(lp246
F0.217391
aaI46
aa(lp247
I1
a(lp248
F0.266667
aaI45
aa(lp249
I1
a(lp250
F0.243243
aaI37
aaa(lp251
S'scaffold2468_cov231'
p252
aS'scaffold4243_cov244'
p253
aa(lp254
S'scaffold2338_cov238'
p255
aS'scaffold2516_cov204'
p256
a(lp257
I1
a(lp258
F0.2
aaI25
aa(lp259
I1
a(lp260
F0.222222
aaI27
aa(lp261
I1
a(lp262
F0.333333
aaI36
aa(lp263
I1
a(lp264
F0.25
aaI32
aa(lp265
I1
a(lp266
F0.333333
aaI36
aa(lp267
I1
a(lp268
F0.25
aaI24
aa(lp269
I1
a(lp270
F0.321429
aaI28
aa(lp271
I1
a(lp272
F0.378378
aaI37
aa(lp273
I1
a(lp274
F0.318182
aaI44
aa(lp275
I1
a(lp276
F0.2
aaI25
aa(lp277
I1
a(lp278
F0.272727
aaI33
aa(lp279
I1
a(lp280
F0.206897
aaI29
aa(lp281
I1
a(lp282
F0.206897
aaI29
aa(lp283
I1
a(lp284
F0.206897
aaI29
aa(lp285
I1
a(lp286
F0.225806
aaI31
aa(lp287
I1
a(lp288
F0.214286
aaI28
aa(lp289
I1
a(lp290
F0.206897
aaI29
aa(lp291
I1
a(lp292
F0.217391
aaI23
aa(lp293
I1
a(lp294
F0.235294
aaI17
aa(lp295
I1
a(lp296
F0.222222
aaI18
aa(lp297
I1
a(lp298
F0.346154
aaI26
aa(lp299
I1
a(lp300
F0.384615
aaI39
aaa(lp301
S'scaffold6588_cov297'
p302
aS'scaffold3089_cov153'
p303
a(lp304
I1
a(lp305
F0.342105
aaI38
aa(lp306
I1
a(lp307
F0.257143
aaI35
aa(lp308
I1
a(lp309
F0.25
aaI32
aa(lp310
I1
a(lp311
F0.28
aaI25
aaa(lp312
S'scaffold11638_cov181'
p313
aS'scaffold11037_cov149'
p314
aa(lp315
S'scaffold5697_cov266'
p316
aS'scaffold3738_cov179'
p317
a(lp318
I1
a(lp319
F0.205882
aaI34
aa(lp320
I1
a(lp321
F0.21875
aaI32
aa(lp322
I1
a(lp323
F0.222222
aaI36
aa(lp324
I1
a(lp325
F0.289474
aaI38
aa(lp326
I1
a(lp327
F0.352941
aaI34
aa(lp328
I1
a(lp329
F0.28125
aaI32
aa(lp330
I1
a(lp331
F0.294118
aaI34
aa(lp332
I1
a(lp333
F0.25
aaI28
aa(lp334
I1
a(lp335
F0.25
aaI28
aa(lp336
I1
a(lp337
F0.241379
aaI29
aa(lp338
I1
a(lp339
F0.44186
aaI43
aa(lp340
I1
a(lp341
F0.534884
aaI43
aa(lp342
I1
a(lp343
F0.392857
aaI28
aa(lp344
I1
a(lp345
F0.391304
aaI23
aa(lp346
I1
a(lp347
F0.35
aaI20
aa(lp348
I1
a(lp349
F0.461538
aaI26
aa(lp350
I1
a(lp351
F0.0
aaI14
aaa(lp352
S'scaffold2640_cov197'
p353
aS'scaffold4560_cov350'
p354
aa(lp355
S'scaffold34901_cov222'
p356
aS'scaffold14139_cov184'
p357
a(lp358
I1
a(lp359
F0.206897
aaI29
aa(lp360
I1
a(lp361
F0.257143
aaI35
aa(lp362
I1
a(lp363
F0.268293
aaI41
aa(lp364
I1
a(lp365
F0.261905
aaI42
aa(lp366
I1
a(lp367
F0.27907
aaI43
aa(lp368
I1
a(lp369
F0.410714
aaI56
aa(lp370
I1
a(lp371
F0.428571
aaI35
aa(lp372
I1
a(lp373
F0.2
aaI20
aa(lp374
I1
a(lp375
F0.25
aaI20
aa(lp376
I1
a(lp377
F0.24
aaI25
aaa(lp378
S'scaffold35491_cov284'
p379
aS'scaffold6922_cov210'
p380
a(lp381
I1
a(lp382
F0.422222
aaI45
aa(lp383
I1
a(lp384
F0.386364
aaI44
aa(lp385
I1
a(lp386
F0.365854
aaI41
aa(lp387
I1
a(lp388
F0.439024
aaI41
aa(lp389
I1
a(lp390
F0.627907
aaI43
aa(lp391
I1
a(lp392
F0.392857
aaI28
aa(lp393
I1
a(lp394
F0.407407
aaI27
aa(lp395
I1
a(lp396
F0.466667
aaI30
aa(lp397
I1
a(lp398
F0.366667
aaI30
aa(lp399
I1
a(lp400
F0.371429
aaI35
aa(lp401
I1
a(lp402
F0.458333
aaI48
aa(lp403
I1
a(lp404
F0.413043
aaI46
aa(lp405
I1
a(lp406
F0.463415
aaI41
aa(lp407
I1
a(lp408
F0.454545
aaI44
aaa(lp409
S'scaffold5724_cov219'
p410
aS'scaffold8613_cov250'
p411
a(lp412
I1
a(lp413
F0.510204
aaI49
aa(lp414
I1
a(lp415
F0.555556
aaI54
aa(lp416
I1
a(lp417
F0.471698
aaI53
aa(lp418
I1
a(lp419
F0.424242
aaI33
aa(lp420
I1
a(lp421
F0.418182
aaI55
aa(lp422
I1
a(lp423
F0.25
aaI24
aa(lp424
I1
a(lp425
F0.242424
aaI33
aa(lp426
I1
a(lp427
F0.243243
aaI37
aa(lp428
I1
a(lp429
F0.27027
aaI37
aa(lp430
I1
a(lp431
F0.34375
aaI32
aa(lp432
I1
a(lp433
F0.674419
aaI43
aa(lp434
I1
a(lp435
F0.382979
aaI47
aa(lp436
I1
a(lp437
F0.348837
aaI43
aa(lp438
I1
a(lp439
F0.306122
aaI49
aa(lp440
I1
a(lp441
F0.358974
aaI39
aa(lp442
I1
a(lp443
F0.263158
aaI38
aa(lp444
I1
a(lp445
F0.315789
aaI38
aa(lp446
I1
a(lp447
F0.243902
aaI41
aa(lp448
I1
a(lp449
F0.27907
aaI43
aa(lp450
I1
a(lp451
F0.268293
aaI41
aa(lp452
I1
a(lp453
F0.351351
aaI37
aa(lp454
I1
a(lp455
F0.305556
aaI36
aa(lp456
I1
a(lp457
F0.35
aaI40
aa(lp458
I1
a(lp459
F0.225806
aaI31
aa(lp460
I1
a(lp461
F0.37931
aaI29
aa(lp462
I1
a(lp463
F0.458333
aaI48
aa(lp464
I1
a(lp465
F0.45283
aaI53
aa(lp466
I1
a(lp467
F0.44898
aaI49
aa(lp468
I1
a(lp469
F0.317073
aaI41
aa(lp470
I1
a(lp471
F0.3
aaI40
aa(lp472
I1
a(lp473
F0.365854
aaI41
aa(lp474
I1
a(lp475
F0.388889
aaI36
aaa(lp476
S'scaffold6223_cov242'
p477
aS'scaffold1876_cov202'
p478
aa(lp479
S'scaffold2702_cov266'
p480
aS'scaffold432_cov233'
p481
a(lp482
I1
a(lp483
F0.36
aaI25
aa(lp484
I1
a(lp485
F0.341463
aaI41
aa(lp486
I1
a(lp487
F0.348837
aaI43
aa(lp488
I1
a(lp489
F0.342105
aaI38
aa(lp490
I1
a(lp491
F0.358974
aaI39
aa(lp492
I1
a(lp493
F0.314286
aaI35
aaa(lp494
S'scaffold11028_cov263'
p495
aS'scaffold3310_cov167'
p496
a(lp497
I1
a(lp498
F0.310345
aaI29
aa(lp499
I1
a(lp500
F0.26087
aaI23
aaa(lp501
S'scaffold5897_cov436'
p502
aS'scaffold343_cov157'
p503
aa(lp504
S'scaffold6105_cov252'
p505
aS'scaffold6855_cov172'
p506
a(lp507
I1
a(lp508
F0.358974
aaI39
aa(lp509
I1
a(lp510
F0.355556
aaI45
aa(lp511
I1
a(lp512
F0.227273
aaI22
aaa(lp513
S'scaffold6283_cov179'
p514
aS'scaffold5373_cov204'
p515
aa(lp516
S'scaffold2237_cov233'
p517
aS'scaffold34835_cov215'
p518
a(lp519
I1
a(lp520
F0.326923
aaI52
aaa(lp521
S'scaffold10188_cov228'
p522
aS'scaffold1228_cov289'
p523
aa(lp524
S'scaffold2751_cov176'
p525
aS'scaffold636_cov192'
p526
a(lp527
I1
a(lp528
F0.217391
aaI23
aa(lp529
I1
a(lp530
F0.214286
aaI28
aa(lp531
I1
a(lp532
F0.241379
aaI29
aa(lp533
I1
a(lp534
F0.235294
aaI17
aa(lp535
I1
a(lp536
F0.363636
aaI22
aa(lp537
I1
a(lp538
F0.363636
aaI22
aaa(lp539
S'scaffold1228_cov289'
p540
aS'scaffold18802_cov239'
p541
aa(lp542
S'scaffold6205_cov227'
p543
aS'scaffold858_cov242'
p544
a(lp545
I1
a(lp546
F0.595745
aaI47
aa(lp547
I1
a(lp548
F0.531915
aaI47
aa(lp549
I1
a(lp550
F0.457143
aaI35
aa(lp551
I1
a(lp552
F0.310345
aaI29
aaa(lp553
S'scaffold34894_cov238'
p554
aS'scaffold424_cov173'
p555
a(lp556
I1
a(lp557
F0.37931
aaI29
aa(lp558
I1
a(lp559
F0.222222
aaI18
aa(lp560
I1
a(lp561
F0.307692
aaI13
aaa(lp562
S'scaffold13730_cov260'
p563
aS'scaffold53022_cov294'
p564
a(lp565
I1
a(lp566
F0.483871
aaI31
aa(lp567
I1
a(lp568
F0.5
aaI32
aaa(lp569
S'scaffold3883_cov286'
p570
aS'scaffold2531_cov161'
p571
aa(lp572
S'scaffold13299_cov272'
p573
aS'scaffold13790_cov193'
p574
a(lp575
I1
a(lp576
F0.6
aaI40
aa(lp577
I1
a(lp578
F0.487179
aaI39
aa(lp579
I1
a(lp580
F0.447368
aaI38
aaa(lp581
S'scaffold2120_cov226'
p582
aS'scaffold5979_cov159'
p583
aa(lp584
S'scaffold30587_cov247'
p585
aS'scaffold1792_cov186'
p586
a(lp587
I1
a(lp588
F0.419355
aaI31
aa(lp589
I1
a(lp590
F0.333333
aaI24
aa(lp591
I1
a(lp592
F0.388889
aaI18
aa(lp593
I1
a(lp594
F0.277778
aaI18
aaa(lp595
S'scaffold3511_cov209'
p596
aS'scaffold383_cov198'
p597
a(lp598
I1
a(lp599
F0.2
aaI20
aa(lp600
I1
a(lp601
F0.25
aaI24
aa(lp602
I1
a(lp603
F0.235294
aaI34
aa(lp604
I1
a(lp605
F0.28125
aaI32
aaa(lp606
S'scaffold34100_cov244'
p607
aS'scaffold1747_cov293'
p608
a(lp609
I1
a(lp610
F0.236842
aaI38
aa(lp611
I1
a(lp612
F0.2
aaI35
aa(lp613
I1
a(lp614
F0.259259
aaI27
aa(lp615
I1
a(lp616
F0.277778
aaI36
aa(lp617
I1
a(lp618
F0.289474
aaI38
aa(lp619
I1
a(lp620
F0.333333
aaI39
aa(lp621
I1
a(lp622
F0.531915
aaI47
aa(lp623
I1
a(lp624
F0.233333
aaI30
aa(lp625
I1
a(lp626
F0.382353
aaI34
aa(lp627
I1
a(lp628
F0.259259
aaI27
aa(lp629
I1
a(lp630
F0.206897
aaI29
aa(lp631
I1
a(lp632
F0.34375
aaI32
aa(lp633
I1
a(lp634
F0.3125
aaI32
aaa(lp635
S'scaffold1599_cov246'
p636
aS'scaffold34016_cov157'
p637
aa(lp638
S'scaffold53165_cov284'
p639
aS'scaffold4404_cov204'
p640
aa(lp641
S'scaffold16908_cov201'
p642
aS'scaffold4051_cov206'
p643
a(lp644
I1
a(lp645
F0.3
aaI30
aa(lp646
I1
a(lp647
F0.46875
aaI32
aa(lp648
I1
a(lp649
F0.297297
aaI37
aa(lp650
I1
a(lp651
F0.296296
aaI27
aaa(lp652
S'scaffold15598_cov210'
p653
aS'scaffold5017_cov219'
p654
a(lp655
I1
a(lp656
F0.444444
aaI27
aa(lp657
I1
a(lp658
F0.333333
aaI30
aa(lp659
I1
a(lp660
F0.233333
aaI30
aa(lp661
I1
a(lp662
F0.214286
aaI28
aa(lp663
I1
a(lp664
F0.384615
aaI39
aa(lp665
I1
a(lp666
F0.275
aaI40
aa(lp667
I1
a(lp668
F0.354839
aaI31
aa(lp669
I1
a(lp670
F0.32
aaI25
aa(lp671
I1
a(lp672
F0.484848
aaI33
aa(lp673
I1
a(lp674
F0.545455
aaI33
aa(lp675
I1
a(lp676
F0.5
aaI34
aa(lp677
I1
a(lp678
F0.515152
aaI33
aa(lp679
I1
a(lp680
F0.448276
aaI29
aa(lp681
I1
a(lp682
F0.2
aaI25
aaa(lp683
S'scaffold2656_cov192'
p684
aS'scaffold28966_cov241'
p685
a(lp686
I1
a(lp687
F0.475
aaI40
aa(lp688
I1
a(lp689
F0.234043
aaI47
aa(lp690
I1
a(lp691
F0.212766
aaI47
aa(lp692
I1
a(lp693
F0.341463
aaI41
aa(lp694
I1
a(lp695
F0.2
aaI105
aa(lp696
I1
a(lp697
F0.567308
aaI104
aa(lp698
I1
a(lp699
F0.314286
aaI35
aa(lp700
I1
a(lp701
F0.325581
aaI43
aa(lp702
I1
a(lp703
F0.439024
aaI41
aaa(lp704
S'scaffold11791_cov336'
p705
aS'scaffold3120_cov189'
p706
a(lp707
I1
a(lp708
F0.26087
aaI23
aa(lp709
I1
a(lp710
F0.227273
aaI22
aaa(lp711
S'scaffold11428_cov295'
p712
aS'scaffold42512_cov294'
p713
aa(lp714
S'scaffold1893_cov262'
p715
aS'scaffold35334_cov163'
p716
aa(lp717
S'scaffold5589_cov166'
p718
aS'scaffold2157_cov220'
p719
a(lp720
I1
a(lp721
F0.0
aaI5
aa(lp722
I1
a(lp723
F0.0
aaI3
aa(lp724
I1
a(lp725
F0.0
aaI3
aa(lp726
I1
a(lp727
F0.0
aaI2
aa(lp728
I1
a(lp729
F0.0
aaI2
aa(lp730
I1
a(lp731
F0.0
aaI15
aa(lp732
I1
a(lp733
F0.0
aaI18
aa(lp734
I1
a(lp735
F0.4
aaI5
aaa(lp736
S'scaffold7588_cov337'
p737
aS'scaffold9757_cov155'
p738
aa(lp739
S'scaffold3083_cov378'
p740
aS'scaffold34652_cov210'
p741
a(lp742
I1
a(lp743
F0.258065
aaI31
aa(lp744
I1
a(lp745
F0.314286
aaI35
aa(lp746
I1
a(lp747
F0.214286
aaI28
aaa(lp748
S'scaffold1203_cov294'
p749
aS'scaffold1019_cov183'
p750
aa(lp751
S'scaffold4758_cov346'
p752
aS'scaffold1045_cov153'
p753
a(lp754
I1
a(lp755
F0.236842
aaI38
aaa(lp756
S'scaffold355_cov233'
p757
aS'scaffold5164_cov209'
p758
a(lp759
I1
a(lp760
F0.217391
aaI23
aa(lp761
I1
a(lp762
F0.35
aaI20
aa(lp763
I1
a(lp764
F0.208333
aaI24
aa(lp765
I1
a(lp766
F0.388889
aaI36
aa(lp767
I1
a(lp768
F0.36
aaI25
aa(lp769
I1
a(lp770
F0.266667
aaI30
aa(lp771
I1
a(lp772
F0.536585
aaI41
aa(lp773
I1
a(lp774
F0.285714
aaI35
aa(lp775
I1
a(lp776
F0.606557
aaI61
aaa(lp777
S'scaffold10417_cov197'
p778
aS'scaffold4396_cov166'
p779
aa(lp780
S'scaffold3883_cov286'
p781
aS'scaffold12108_cov159'
p782
aa(lp783
S'scaffold9508_cov196'
p784
aS'scaffold11324_cov225'
p785
a(lp786
I1
a(lp787
F0.473684
aaI38
aaa(lp788
S'scaffold24073_cov287'
p789
aS'scaffold36462_cov152'
p790
aa(lp791
S'scaffold5051_cov291'
p792
aS'scaffold1404_cov156'
p793
aa(lp794
S'scaffold3476_cov276'
p795
aS'scaffold3249_cov179'
p796
a(lp797
I1
a(lp798
F0.442308
aaI52
aa(lp799
I1
a(lp800
F0.233333
aaI30
aa(lp801
I1
a(lp802
F0.342857
aaI35
aaa(lp803
S'scaffold299_cov290'
p804
aS'scaffold4971_cov235'
p805
aa(lp806
S'scaffold34756_cov262'
p807
aS'scaffold23838_cov109'
p808
aa(lp809
S'scaffold276_cov267'
p810
aS'scaffold6071_cov156'
p811
aa(lp812
S'scaffold38974_cov463'
p813
aS'scaffold343_cov157'
p814
aa(lp815
S'scaffold2270_cov160'
p816
aS'scaffold14255_cov253'
p817
aa(lp818
S'scaffold19913_cov154'
p819
aS'scaffold35508_cov210'
p820
aa(lp821
S'scaffold34969_cov237'
p822
aS'scaffold5373_cov204'
p823
a(lp824
I1
a(lp825
F0.277778
aaI36
aa(lp826
I1
a(lp827
F0.458333
aaI48
aa(lp828
I1
a(lp829
F0.414634
aaI41
aa(lp830
I1
a(lp831
F0.25
aaI40
aa(lp832
I1
a(lp833
F0.236842
aaI38
aa(lp834
I1
a(lp835
F0.263158
aaI38
aa(lp836
I1
a(lp837
F0.285714
aaI35
aa(lp838
I1
a(lp839
F0.513514
aaI37
aa(lp840
I1
a(lp841
F0.375
aaI16
aa(lp842
I1
a(lp843
F0.344828
aaI29
aa(lp844
I1
a(lp845
F0.357143
aaI28
aa(lp846
I1
a(lp847
F0.228571
aaI35
aa(lp848
I1
a(lp849
F0.204082
aaI49
aa(lp850
I1
a(lp851
F0.510204
aaI49
aaa(lp852
S'scaffold22860_cov185'
p853
aS'scaffold6721_cov174'
p854
aa(lp855
S'scaffold1871_cov212'
p856
aS'scaffold3028_cov204'
p857
a(lp858
I1
a(lp859
F0.25
aaI28
aa(lp860
I1
a(lp861
F0.391304
aaI23
aa(lp862
I1
a(lp863
F0.464286
aaI28
aa(lp864
I1
a(lp865
F0.285714
aaI21
aa(lp866
I1
a(lp867
F0.391304
aaI23
aa(lp868
I1
a(lp869
F0.3
aaI30
aa(lp870
I1
a(lp871
F0.264706
aaI34
aa(lp872
I1
a(lp873
F0.272727
aaI33
aa(lp874
I1
a(lp875
F0.342105
aaI38
aa(lp876
I1
a(lp877
F0.434783
aaI46
aa(lp878
I1
a(lp879
F0.423077
aaI52
aa(lp880
I1
a(lp881
F0.37037
aaI27
aaa(lp882
S'scaffold9334_cov225'
p883
aS'scaffold4813_cov177'
p884
a(lp885
I1
a(lp886
F0.25
aaI12
aa(lp887
I1
a(lp888
F0.416667
aaI36
aa(lp889
I1
a(lp890
F0.228571
aaI35
aa(lp891
I1
a(lp892
F0.233333
aaI30
aaa(lp893
S'scaffold2155_cov181'
p894
aS'scaffold54209_cov305'
p895
aa(lp896
S'scaffold625_cov187'
p897
aS'scaffold8957_cov170'
p898
a(lp899
I1
a(lp900
F0.358974
aaI39
aa(lp901
I1
a(lp902
F0.285714
aaI28
aa(lp903
I1
a(lp904
F0.36
aaI25
aa(lp905
I1
a(lp906
F0.206897
aaI29
aa(lp907
I1
a(lp908
F0.54902
aaI51
aa(lp909
I1
a(lp910
F0.275862
aaI29
aa(lp911
I1
a(lp912
F0.275862
aaI29
aa(lp913
I1
a(lp914
F0.25
aaI28
aa(lp915
I1
a(lp916
F0.26087
aaI23
aa(lp917
I1
a(lp918
F0.333333
aaI18
aa(lp919
I1
a(lp920
F0.272727
aaI22
aa(lp921
I1
a(lp922
F0.21875
aaI32
aa(lp923
I1
a(lp924
F0.2
aaI30
aa(lp925
I1
a(lp926
F0.2
aaI25
aa(lp927
I1
a(lp928
F0.241379
aaI29
aa(lp929
I1
a(lp930
F0.296296
aaI27
aa(lp931
I1
a(lp932
F0.25
aaI28
aa(lp933
I1
a(lp934
F0.222222
aaI27
aa(lp935
I1
a(lp936
F0.2
aaI35
aaa(lp937
S'scaffold622_cov424'
p938
aS'scaffold1302_cov140'
p939
aa(lp940
S'scaffold3060_cov247'
p941
aS'scaffold3487_cov182'
p942
aa(lp943
S'scaffold21_cov335'
p944
aS'scaffold1045_cov153'
p945
aa(lp946
S'scaffold13299_cov272'
p947
aS'scaffold10369_cov160'
p948
a(lp949
I1
a(lp950
F0.52381
aaI21
aa(lp951
I1
a(lp952
F0.263158
aaI19
aa(lp953
I1
a(lp954
F0.285714
aaI21
aa(lp955
I1
a(lp956
F0.272727
aaI22
aa(lp957
I1
a(lp958
F0.238095
aaI21
aaa(lp959
S'scaffold1828_cov217'
p960
aS'scaffold5358_cov160'
p961
a(lp962
I1
a(lp963
F0.285714
aaI21
aa(lp964
I1
a(lp965
F0.411765
aaI17
aa(lp966
I1
a(lp967
F0.421053
aaI38
aa(lp968
I1
a(lp969
F0.410256
aaI39
aa(lp970
I1
a(lp971
F0.307692
aaI26
aa(lp972
I1
a(lp973
F0.307692
aaI26
aa(lp974
I1
a(lp975
F0.296296
aaI27
aa(lp976
I1
a(lp977
F0.290323
aaI31
aa(lp978
I1
a(lp979
F0.321429
aaI28
aa(lp980
I1
a(lp981
F0.25
aaI28
aa(lp982
I1
a(lp983
F0.241379
aaI29
aa(lp984
I1
a(lp985
F0.206897
aaI29
aa(lp986
I1
a(lp987
F0.457143
aaI35
aa(lp988
I1
a(lp989
F0.444444
aaI36
aa(lp990
I1
a(lp991
F0.384615
aaI39
aa(lp992
I1
a(lp993
F0.428571
aaI28
aa(lp994
I1
a(lp995
F0.32
aaI25
aa(lp996
I1
a(lp997
F0.322581
aaI31
aa(lp998
I1
a(lp999
F0.3
aaI30
aa(lp1000
I1
a(lp1001
F0.230769
aaI26
aa(lp1002
I1
a(lp1003
F0.357143
aaI28
aaa(lp1004
S'scaffold36286_cov261'
p1005
aS'scaffold8587_cov157'
p1006
aa(lp1007
S'scaffold5178_cov237'
p1008
aS'scaffold6699_cov179'
p1009
aa(lp1010
S'scaffold5073_cov227'
p1011
aS'scaffold3911_cov285'
p1012
a(lp1013
I1
a(lp1014
F0.238095
aaI21
aaa(lp1015
S'scaffold6166_cov218'
p1016
aS'scaffold34141_cov184'
p1017
a(lp1018
I1
a(lp1019
F0.615385
aaI39
aaa(lp1020
S'scaffold3082_cov287'
p1021
aS'scaffold2983_cov165'
p1022
a(lp1023
I1
a(lp1024
F0.577778
aaI45
aa(lp1025
I1
a(lp1026
F0.35
aaI20
aaa(lp1027
S'scaffold47198_cov463'
p1028
aS'scaffold34572_cov182'
p1029
a(lp1030
I1
a(lp1031
F0.553571
aaI56
aa(lp1032
I1
a(lp1033
F0.444444
aaI27
aa(lp1034
I1
a(lp1035
F0.32
aaI25
aa(lp1036
I1
a(lp1037
F0.318182
aaI22
aaa(lp1038
S'scaffold2985_cov221'
p1039
aS'scaffold103_cov152'
p1040
a(lp1041
I1
a(lp1042
F0.0
aaI29
aa(lp1043
I1
a(lp1044
F0.2
aaI10
aaa(lp1045
S'scaffold12793_cov183'
p1046
aS'scaffold12226_cov185'
p1047
aa(lp1048
S'scaffold1234_cov222'
p1049
aS'scaffold34763_cov140'
p1050
a(lp1051
I1
a(lp1052
F0.0
aaI20
aaa(lp1053
S'scaffold3901_cov329'
p1054
aS'scaffold14736_cov203'
p1055
aa(lp1056
S'scaffold7765_cov174'
p1057
aS'scaffold1488_cov177'
p1058
a(lp1059
I1
a(lp1060
F0.238095
aaI42
aa(lp1061
I1
a(lp1062
F0.366667
aaI30
aa(lp1063
I1
a(lp1064
F0.37931
aaI29
aa(lp1065
I1
a(lp1066
F0.37931
aaI29
aa(lp1067
I1
a(lp1068
F0.333333
aaI30
aa(lp1069
I1
a(lp1070
F0.392857
aaI28
aa(lp1071
I1
a(lp1072
F0.454545
aaI33
aaa(lp1073
S'scaffold34579_cov226'
p1074
aS'scaffold34935_cov228'
p1075
a(lp1076
I1
a(lp1077
F0.274194
aaI62
aaa(lp1078
S'scaffold34946_cov233'
p1079
aS'scaffold2695_cov200'
p1080
a(lp1081
I1
a(lp1082
F0.431818
aaI44
aa(lp1083
I1
a(lp1084
F0.4
aaI40
aa(lp1085
I1
a(lp1086
F0.264706
aaI34
aa(lp1087
I1
a(lp1088
F0.302326
aaI43
aa(lp1089
I1
a(lp1090
F0.26087
aaI46
aa(lp1091
I1
a(lp1092
F0.428571
aaI35
aa(lp1093
I1
a(lp1094
F0.394737
aaI38
aa(lp1095
I1
a(lp1096
F0.5
aaI36
aa(lp1097
I1
a(lp1098
F0.322581
aaI31
aa(lp1099
I1
a(lp1100
F0.205882
aaI34
aa(lp1101
I1
a(lp1102
F0.545455
aaI33
aa(lp1103
I1
a(lp1104
F0.432432
aaI37
aa(lp1105
I1
a(lp1106
F0.5
aaI34
aa(lp1107
I1
a(lp1108
F0.388889
aaI36
aa(lp1109
I1
a(lp1110
F0.264706
aaI34
aa(lp1111
I1
a(lp1112
F0.295455
aaI44
aa(lp1113
I1
a(lp1114
F0.461538
aaI13
aa(lp1115
I1
a(lp1116
F0.48
aaI25
aaa(lp1117
S'scaffold4226_cov183'
p1118
aS'scaffold4227_cov149'
p1119
aa(lp1120
S'scaffold12541_cov206'
p1121
aS'scaffold1867_cov235'
p1122
a(lp1123
I1
a(lp1124
F0.454545
aaI33
aa(lp1125
I1
a(lp1126
F0.391304
aaI46
aa(lp1127
I1
a(lp1128
F0.333333
aaI30
aa(lp1129
I1
a(lp1130
F0.357143
aaI28
aa(lp1131
I1
a(lp1132
F0.675676
aaI37
aa(lp1133
I1
a(lp1134
F0.243902
aaI41
aaa(lp1135
S'scaffold7776_cov261'
p1136
aS'scaffold417_cov219'
p1137
aa(lp1138
S'scaffold35170_cov289'
p1139
aS'scaffold34652_cov210'
p1140
a(lp1141
I1
a(lp1142
F0.307692
aaI26
aa(lp1143
I1
a(lp1144
F0.222222
aaI27
aa(lp1145
I1
a(lp1146
F0.451613
aaI31
aa(lp1147
I1
a(lp1148
F0.275862
aaI29
aa(lp1149
I1
a(lp1150
F0.333333
aaI30
aa(lp1151
I1
a(lp1152
F0.266667
aaI30
aa(lp1153
I1
a(lp1154
F0.235294
aaI34
aa(lp1155
I1
a(lp1156
F0.2
aaI35
aa(lp1157
I1
a(lp1158
F0.26087
aaI23
aa(lp1159
I1
a(lp1160
F0.291667
aaI24
aa(lp1161
I1
a(lp1162
F0.333333
aaI30
aa(lp1163
I1
a(lp1164
F0.457143
aaI35
aa(lp1165
I1
a(lp1166
F0.466667
aaI30
aa(lp1167
I1
a(lp1168
F0.2
aaI25
aa(lp1169
I1
a(lp1170
F0.307692
aaI26
aa(lp1171
I1
a(lp1172
F0.333333
aaI24
aa(lp1173
I1
a(lp1174
F0.25
aaI20
aa(lp1175
I1
a(lp1176
F0.25
aaI20
aa(lp1177
I1
a(lp1178
F0.451613
aaI31
aa(lp1179
I1
a(lp1180
F0.5
aaI34
aa(lp1181
I1
a(lp1182
F0.296296
aaI27
aa(lp1183
I1
a(lp1184
F0.347826
aaI23
aa(lp1185
I1
a(lp1186
F0.363636
aaI22
aa(lp1187
I1
a(lp1188
F0.2
aaI20
aa(lp1189
I1
a(lp1190
F0.2
aaI40
aa(lp1191
I1
a(lp1192
F0.217391
aaI23
aa(lp1193
I1
a(lp1194
F0.32
aaI25
aa(lp1195
I1
a(lp1196
F0.26087
aaI23
aa(lp1197
I1
a(lp1198
F0.26087
aaI23
aa(lp1199
I1
a(lp1200
F0.24
aaI25
aa(lp1201
I1
a(lp1202
F0.222222
aaI36
aa(lp1203
I1
a(lp1204
F0.32
aaI25
aa(lp1205
I1
a(lp1206
F0.208333
aaI24
aa(lp1207
I1
a(lp1208
F0.208333
aaI24
aa(lp1209
I1
a(lp1210
F0.439024
aaI41
aa(lp1211
I1
a(lp1212
F0.257143
aaI35
aa(lp1213
I1
a(lp1214
F0.28125
aaI32
aa(lp1215
I1
a(lp1216
F0.272727
aaI33
aa(lp1217
I1
a(lp1218
F0.264706
aaI34
aa(lp1219
I1
a(lp1220
F0.472222
aaI36
aa(lp1221
I1
a(lp1222
F0.540541
aaI37
aa(lp1223
I1
a(lp1224
F0.571429
aaI28
aa(lp1225
I1
a(lp1226
F0.551724
aaI29
aa(lp1227
I1
a(lp1228
F0.392857
aaI28
aa(lp1229
I1
a(lp1230
F0.409091
aaI22
aa(lp1231
I1
a(lp1232
F0.536585
aaI41
aa(lp1233
I1
a(lp1234
F0.55814
aaI43
aa(lp1235
I1
a(lp1236
F0.521739
aaI46
aa(lp1237
I1
a(lp1238
F0.529412
aaI34
aa(lp1239
I1
a(lp1240
F0.361111
aaI36
aa(lp1241
I1
a(lp1242
F0.307692
aaI39
aa(lp1243
I1
a(lp1244
F0.2
aaI30
aa(lp1245
I1
a(lp1246
F0.214286
aaI28
aa(lp1247
I1
a(lp1248
F0.382353
aaI34
aa(lp1249
I1
a(lp1250
F0.325
aaI40
aa(lp1251
I1
a(lp1252
F0.390244
aaI41
aa(lp1253
I1
a(lp1254
F0.372093
aaI43
aa(lp1255
I1
a(lp1256
F0.263158
aaI38
aa(lp1257
I1
a(lp1258
F0.428571
aaI35
aa(lp1259
I1
a(lp1260
F0.321429
aaI28
aa(lp1261
I1
a(lp1262
F0.210526
aaI19
aa(lp1263
I1
a(lp1264
F0.344828
aaI29
aa(lp1265
I1
a(lp1266
F0.310345
aaI29
aa(lp1267
I1
a(lp1268
F0.375
aaI32
aa(lp1269
I1
a(lp1270
F0.422222
aaI45
aa(lp1271
I1
a(lp1272
F0.4
aaI35
aaa(lp1273
S'scaffold65_cov217'
p1274
aS'scaffold15270_cov133'
p1275
aa(lp1276
S'scaffold35361_cov259'
p1277
aS'scaffold2334_cov190'
p1278
a(lp1279
I1
a(lp1280
F0.2
aaI25
aaa(lp1281
S'scaffold34904_cov288'
p1282
aS'scaffold5809_cov177'
p1283
aa(lp1284
S'scaffold3425_cov288'
p1285
aS'scaffold4454_cov228'
p1286
a(lp1287
I1
a(lp1288
F0.538462
aaI39
aa(lp1289
I1
a(lp1290
F0.515152
aaI33
aa(lp1291
I1
a(lp1292
F0.258065
aaI31
aa(lp1293
I1
a(lp1294
F0.375
aaI48
aa(lp1295
I1
a(lp1296
F0.679012
aaI81
aa(lp1297
I1
a(lp1298
F0.229167
aaI48
aa(lp1299
I1
a(lp1300
F0.222222
aaI27
aaa(lp1301
S'scaffold5287_cov211'
p1302
aS'scaffold6822_cov208'
p1303
a(lp1304
I1
a(lp1305
F0.4375
aaI32
aaa(lp1306
S'scaffold21569_cov380'
p1307
aS'scaffold20237_cov146'
p1308
aa(lp1309
S'scaffold5402_cov179'
p1310
aS'scaffold13538_cov239'
p1311
a(lp1312
I1
a(lp1313
F0.0
aaI5
aa(lp1314
I1
a(lp1315
F0.0
aaI7
aa(lp1316
I1
a(lp1317
F0.0
aaI8
aaa(lp1318
S'scaffold7174_cov157'
p1319
aS'scaffold3656_cov164'
p1320
a(lp1321
I1
a(lp1322
F0.230769
aaI39
aa(lp1323
I1
a(lp1324
F0.230769
aaI39
aa(lp1325
I1
a(lp1326
F0.44
aaI25
aa(lp1327
I1
a(lp1328
F0.416667
aaI24
aa(lp1329
I1
a(lp1330
F0.434783
aaI23
aa(lp1331
I1
a(lp1332
F0.2
aaI20
aa(lp1333
I1
a(lp1334
F0.0
aaI20
aa(lp1335
I1
a(lp1336
F0.2
aaI20
aaa(lp1337
S'scaffold6948_cov274'
p1338
aS'scaffold6699_cov179'
p1339
aa(lp1340
S'scaffold3622_cov247'
p1341
aS'scaffold45254_cov315'
p1342
aa(lp1343
S'scaffold5796_cov292'
p1344
aS'scaffold2082_cov195'
p1345
a(lp1346
I1
a(lp1347
F0.409091
aaI22
aa(lp1348
I1
a(lp1349
F0.347826
aaI23
aa(lp1350
I1
a(lp1351
F0.347826
aaI23
aa(lp1352
I1
a(lp1353
F0.347826
aaI23
aa(lp1354
I1
a(lp1355
F0.285714
aaI21
aa(lp1356
I1
a(lp1357
F0.407407
aaI27
aa(lp1358
I1
a(lp1359
F0.372093
aaI43
aa(lp1360
I1
a(lp1361
F0.421053
aaI38
aa(lp1362
I1
a(lp1363
F0.222222
aaI27
aa(lp1364
I1
a(lp1365
F0.259259
aaI27
aa(lp1366
I1
a(lp1367
F0.291667
aaI24
aa(lp1368
I1
a(lp1369
F0.219512
aaI41
aa(lp1370
I1
a(lp1371
F0.512195
aaI41
aa(lp1372
I1
a(lp1373
F0.4375
aaI48
aa(lp1374
I1
a(lp1375
F0.456522
aaI46
aa(lp1376
I1
a(lp1377
F0.418605
aaI43
aa(lp1378
I1
a(lp1379
F0.459459
aaI37
aa(lp1380
I1
a(lp1381
F0.289474
aaI38
aa(lp1382
I1
a(lp1383
F0.3
aaI40
aa(lp1384
I1
a(lp1385
F0.285714
aaI42
aaa(lp1386
S'scaffold5059_cov217'
p1387
aS'scaffold7462_cov213'
p1388
aa(lp1389
S'scaffold6808_cov251'
p1390
aS'scaffold5535_cov217'
p1391
aa(lp1392
S'scaffold114_cov204'
p1393
aS'scaffold12391_cov201'
p1394
a(lp1395
I1
a(lp1396
F0.451613
aaI31
aaa(lp1397
S'scaffold13539_cov223'
p1398
aS'scaffold2054_cov174'
p1399
aa(lp1400
S'scaffold14835_cov172'
p1401
aS'scaffold3075_cov156'
p1402
aa(lp1403
S'scaffold2058_cov324'
p1404
aS'scaffold6925_cov364'
p1405
aa(lp1406
S'scaffold34923_cov148'
p1407
aS'scaffold1507_cov164'
p1408
aa(lp1409
S'scaffold3989_cov265'
p1410
aS'scaffold13021_cov287'
p1411
aa(lp1412
S'scaffold2297_cov206'
p1413
aS'scaffold4936_cov217'
p1414
a(lp1415
I1
a(lp1416
F0.292683
aaI41
aa(lp1417
I1
a(lp1418
F0.352941
aaI34
aa(lp1419
I1
a(lp1420
F0.393939
aaI33
aa(lp1421
I1
a(lp1422
F0.342105
aaI38
aa(lp1423
I1
a(lp1424
F0.25
aaI28
aa(lp1425
I1
a(lp1426
F0.259259
aaI27
aa(lp1427
I1
a(lp1428
F0.238095
aaI21
aa(lp1429
I1
a(lp1430
F0.259259
aaI27
aa(lp1431
I1
a(lp1432
F0.321429
aaI28
aa(lp1433
I1
a(lp1434
F0.384615
aaI39
aa(lp1435
I1
a(lp1436
F0.297297
aaI37
aaa(lp1437
S'scaffold25113_cov199'
p1438
aS'scaffold6911_cov202'
p1439
aa(lp1440
S'scaffold14550_cov277'
p1441
aS'scaffold1760_cov210'
p1442
aa(lp1443
S'scaffold40132_cov484'
p1444
aS'scaffold7849_cov260'
p1445
a(lp1446
I1
a(lp1447
F0.481481
aaI27
aaa(lp1448
S'scaffold3845_cov316'
p1449
aS'scaffold3342_cov163'
p1450
aa(lp1451
S'scaffold3674_cov258'
p1452
aS'scaffold12700_cov150'
p1453
aa(lp1454
S'scaffold34052_cov286'
p1455
aS'scaffold2311_cov232'
p1456
a(lp1457
I1
a(lp1458
F0.555556
aaI54
aa(lp1459
I1
a(lp1460
F0.267857
aaI56
aa(lp1461
I1
a(lp1462
F0.269231
aaI26
aa(lp1463
I1
a(lp1464
F0.560976
aaI41
aa(lp1465
I1
a(lp1466
F0.27027
aaI37
aaa(lp1467
S'scaffold9452_cov208'
p1468
aS'scaffold4391_cov207'
p1469
a(lp1470
I1
a(lp1471
F0.442308
aaI52
aa(lp1472
I1
a(lp1473
F0.416667
aaI48
aa(lp1474
I1
a(lp1475
F0.291667
aaI48
aa(lp1476
I1
a(lp1477
F0.432432
aaI37
aa(lp1478
I1
a(lp1479
F0.263158
aaI38
aa(lp1480
I1
a(lp1481
F0.333333
aaI42
aaa(lp1482
S'scaffold13470_cov212'
p1483
aS'scaffold10396_cov149'
p1484
aa(lp1485
S'scaffold7198_cov282'
p1486
aS'scaffold3310_cov167'
p1487
a(lp1488
I1
a(lp1489
F0.0
aaI25
aa(lp1490
I1
a(lp1491
F0.468085
aaI47
aa(lp1492
I1
a(lp1493
F0.351351
aaI37
aa(lp1494
I1
a(lp1495
F0.37931
aaI29
aa(lp1496
I1
a(lp1497
F0.366667
aaI30
aa(lp1498
I1
a(lp1499
F0.333333
aaI24
aa(lp1500
I1
a(lp1501
F0.423077
aaI26
aa(lp1502
I1
a(lp1503
F0.423077
aaI26
aa(lp1504
I1
a(lp1505
F0.423077
aaI26
aa(lp1506
I1
a(lp1507
F0.24
aaI25
aa(lp1508
I1
a(lp1509
F0.285714
aaI21
aa(lp1510
I1
a(lp1511
F0.264706
aaI34
aa(lp1512
I1
a(lp1513
F0.290323
aaI31
aa(lp1514
I1
a(lp1515
F0.266667
aaI30
aa(lp1516
I1
a(lp1517
F0.259259
aaI27
aa(lp1518
I1
a(lp1519
F0.225806
aaI31
aaa(lp1520
S'scaffold29092_cov411'
p1521
aS'scaffold3158_cov165'
p1522
aa(lp1523
S'scaffold7882_cov228'
p1524
aS'scaffold4643_cov233'
p1525
a(lp1526
I1
a(lp1527
F0.30303
aaI66
aa(lp1528
I1
a(lp1529
F0.32
aaI50
aa(lp1530
I1
a(lp1531
F0.62
aaI50
aaa(lp1532
S'scaffold2260_cov157'
p1533
aS'scaffold23025_cov260'
p1534
aa(lp1535
S'scaffold4981_cov255'
p1536
aS'scaffold5141_cov149'
p1537
aa(lp1538
S'scaffold9518_cov247'
p1539
aS'scaffold1141_cov217'
p1540
a(lp1541
I1
a(lp1542
F0.275862
aaI29
aa(lp1543
I1
a(lp1544
F0.294118
aaI34
aa(lp1545
I1
a(lp1546
F0.233333
aaI30
aa(lp1547
I1
a(lp1548
F0.233333
aaI30
aa(lp1549
I1
a(lp1550
F0.384615
aaI26
aa(lp1551
I1
a(lp1552
F0.307692
aaI26
aa(lp1553
I1
a(lp1554
F0.341463
aaI41
aa(lp1555
I1
a(lp1556
F0.452381
aaI42
aa(lp1557
I1
a(lp1558
F0.588235
aaI51
aaa(lp1559
S'scaffold11665_cov274'
p1560
aS'scaffold4220_cov209'
p1561
a(lp1562
I1
a(lp1563
F0.263158
aaI38
aa(lp1564
I1
a(lp1565
F0.318182
aaI22
aa(lp1566
I1
a(lp1567
F0.285714
aaI21
aa(lp1568
I1
a(lp1569
F0.315789
aaI19
aa(lp1570
I1
a(lp1571
F0.3
aaI20
aa(lp1572
I1
a(lp1573
F0.263158
aaI19
aa(lp1574
I1
a(lp1575
F0.285714
aaI21
aa(lp1576
I1
a(lp1577
F0.307692
aaI13
aa(lp1578
I1
a(lp1579
F0.307692
aaI13
aa(lp1580
I1
a(lp1581
F0.285714
aaI14
aa(lp1582
I1
a(lp1583
F0.0
aaI14
aa(lp1584
I1
a(lp1585
F0.468085
aaI47
aaa(lp1586
S'scaffold50233_cov936'
p1587
aS'scaffold4673_cov163'
p1588
aa(lp1589
S'scaffold52004_cov305'
p1590
aS'scaffold11324_cov225'
p1591
a(lp1592
I1
a(lp1593
F0.391304
aaI46
aa(lp1594
I1
a(lp1595
F0.272727
aaI22
aa(lp1596
I1
a(lp1597
F0.285714
aaI21
aa(lp1598
I1
a(lp1599
F0.25
aaI20
aa(lp1600
I1
a(lp1601
F0.205882
aaI34
aaa(lp1602
S'scaffold11923_cov205'
p1603
aS'scaffold34893_cov219'
p1604
a(lp1605
I1
a(lp1606
F0.0
aaI2
aaa(lp1607
S'scaffold1512_cov178'
p1608
aS'scaffold7068_cov172'
p1609
aa(lp1610
S'scaffold9550_cov156'
p1611
aS'scaffold3486_cov238'
p1612
aa(lp1613
S'scaffold7307_cov224'
p1614
aS'scaffold13758_cov189'
p1615
a(lp1616
I1
a(lp1617
F0.333333
aaI30
aa(lp1618
I1
a(lp1619
F0.266667
aaI30
aa(lp1620
I1
a(lp1621
F0.258065
aaI31
aa(lp1622
I1
a(lp1623
F0.258065
aaI31
aa(lp1624
I1
a(lp1625
F0.258065
aaI31
aa(lp1626
I1
a(lp1627
F0.222222
aaI27
aa(lp1628
I1
a(lp1629
F0.304348
aaI23
aa(lp1630
I1
a(lp1631
F0.25
aaI24
aa(lp1632
I1
a(lp1633
F0.375
aaI16
aa(lp1634
I1
a(lp1635
F0.315789
aaI19
aa(lp1636
I1
a(lp1637
F0.222222
aaI18
aa(lp1638
I1
a(lp1639
F0.767677
aaI99
aaa(lp1640
S'scaffold2251_cov300'
p1641
aS'scaffold5494_cov202'
p1642
a(lp1643
I1
a(lp1644
F0.552632
aaI38
aa(lp1645
I1
a(lp1646
F0.322581
aaI31
aa(lp1647
I1
a(lp1648
F0.342857
aaI35
aa(lp1649
I1
a(lp1650
F0.323529
aaI34
aa(lp1651
I1
a(lp1652
F0.371429
aaI35
aa(lp1653
I1
a(lp1654
F0.371429
aaI35
aa(lp1655
I1
a(lp1656
F0.222222
aaI27
aa(lp1657
I1
a(lp1658
F0.222222
aaI9
aa(lp1659
I1
a(lp1660
F0.318182
aaI22
aa(lp1661
I1
a(lp1662
F0.35
aaI20
aa(lp1663
I1
a(lp1664
F0.4
aaI30
aa(lp1665
I1
a(lp1666
F0.428571
aaI28
aaa(lp1667
S'scaffold10174_cov324'
p1668
aS'scaffold10173_cov150'
p1669
aa(lp1670
S'scaffold13712_cov247'
p1671
aS'scaffold3898_cov165'
p1672
a(lp1673
I1
a(lp1674
F0.225806
aaI31
aa(lp1675
I1
a(lp1676
F0.238095
aaI21
aa(lp1677
I1
a(lp1678
F0.238095
aaI21
aaa(lp1679
S'scaffold3444_cov244'
p1680
aS'scaffold2301_cov209'
p1681
a(lp1682
I1
a(lp1683
F0.206897
aaI29
aa(lp1684
I1
a(lp1685
F0.215686
aaI51
aa(lp1686
I1
a(lp1687
F0.357143
aaI56
aa(lp1688
I1
a(lp1689
F0.378378
aaI37
aa(lp1690
I1
a(lp1691
F0.214286
aaI28
aa(lp1692
I1
a(lp1693
F0.258065
aaI31
aaa(lp1694
S'scaffold1073_cov267'
p1695
aS'scaffold11614_cov255'
p1696
a(lp1697
I1
a(lp1698
F0.285714
aaI21
aa(lp1699
I1
a(lp1700
F0.3
aaI20
aa(lp1701
I1
a(lp1702
F0.285714
aaI21
aa(lp1703
I1
a(lp1704
F0.272727
aaI22
aa(lp1705
I1
a(lp1706
F0.25
aaI20
aa(lp1707
I1
a(lp1708
F0.217391
aaI23
aa(lp1709
I1
a(lp1710
F0.394737
aaI38
aa(lp1711
I1
a(lp1712
F0.444444
aaI18
aa(lp1713
I1
a(lp1714
F0.233333
aaI30
aa(lp1715
I1
a(lp1716
F0.333333
aaI45
aaa(lp1717
S'scaffold205_cov231'
p1718
aS'scaffold1655_cov200'
p1719
a(lp1720
I1
a(lp1721
F0.227273
aaI22
aa(lp1722
I1
a(lp1723
F0.227273
aaI22
aa(lp1724
I1
a(lp1725
F0.277778
aaI18
aa(lp1726
I1
a(lp1727
F0.37037
aaI27
aa(lp1728
I1
a(lp1729
F0.222222
aaI27
aa(lp1730
I1
a(lp1731
F0.0
aaI29
aa(lp1732
I1
a(lp1733
F0.225806
aaI31
aa(lp1734
I1
a(lp1735
F0.259259
aaI27
aaa(lp1736
S'scaffold743_cov228'
p1737
aS'scaffold1746_cov212'
p1738
a(lp1739
I1
a(lp1740
F0.0
aaI2
aa(lp1741
I1
a(lp1742
F0.0
aaI3
aa(lp1743
I1
a(lp1744
F0.0
aaI6
aa(lp1745
I1
a(lp1746
F0.0
aaI5
aa(lp1747
I1
a(lp1748
F0.0
aaI5
aa(lp1749
I1
a(lp1750
F0.0
aaI8
aa(lp1751
I1
a(lp1752
F0.0
aaI13
aa(lp1753
I1
a(lp1754
F0.0
aaI11
aa(lp1755
I1
a(lp1756
F0.0
aaI8
aa(lp1757
I1
a(lp1758
F0.0
aaI15
aa(lp1759
I1
a(lp1760
F0.34375
aaI32
aa(lp1761
I1
a(lp1762
F0.285714
aaI28
aa(lp1763
I1
a(lp1764
F0.323529
aaI34
aa(lp1765
I1
a(lp1766
F0.324324
aaI37
aa(lp1767
I1
a(lp1768
F0.30303
aaI33
aa(lp1769
I1
a(lp1770
F0.28125
aaI32
aa(lp1771
I1
a(lp1772
F0.235294
aaI34
aa(lp1773
I1
a(lp1774
F0.35
aaI20
aa(lp1775
I1
a(lp1776
F0.294118
aaI17
aa(lp1777
I1
a(lp1778
F0.296296
aaI27
aa(lp1779
I1
a(lp1780
F0.333333
aaI27
aa(lp1781
I1
a(lp1782
F0.381818
aaI55
aa(lp1783
I1
a(lp1784
F0.436364
aaI55
aa(lp1785
I1
a(lp1786
F0.702479
aaI121
aa(lp1787
I1
a(lp1788
F0.22
aaI50
aa(lp1789
I1
a(lp1790
F0.313725
aaI51
aaa(lp1791
S'scaffold12547_cov300'
p1792
aS'scaffold2376_cov165'
p1793
a(lp1794
I1
a(lp1795
F0.371429
aaI35
aa(lp1796
I1
a(lp1797
F0.361111
aaI36
aa(lp1798
I1
a(lp1799
F0.351351
aaI37
aa(lp1800
I1
a(lp1801
F0.365854
aaI41
aa(lp1802
I1
a(lp1803
F0.365854
aaI41
aa(lp1804
I1
a(lp1805
F0.473684
aaI38
aa(lp1806
I1
a(lp1807
F0.288889
aaI45
aa(lp1808
I1
a(lp1809
F0.238095
aaI42
aa(lp1810
I1
a(lp1811
F0.225806
aaI31
aa(lp1812
I1
a(lp1813
F0.452381
aaI42
aa(lp1814
I1
a(lp1815
F0.454545
aaI33
aa(lp1816
I1
a(lp1817
F0.441176
aaI34
aa(lp1818
I1
a(lp1819
F0.354839
aaI31
aa(lp1820
I1
a(lp1821
F0.310345
aaI29
aa(lp1822
I1
a(lp1823
F0.405405
aaI37
aa(lp1824
I1
a(lp1825
F0.285714
aaI28
aa(lp1826
I1
a(lp1827
F0.217391
aaI23
aa(lp1828
I1
a(lp1829
F0.34375
aaI32
aa(lp1830
I1
a(lp1831
F0.294118
aaI51
aaa(lp1832
S'scaffold34780_cov223'
p1833
aS'scaffold2666_cov188'
p1834
aa(lp1835
S'scaffold7855_cov227'
p1836
aS'scaffold642_cov217'
p1837
a(lp1838
I1
a(lp1839
F0.222222
aaI18
aa(lp1840
I1
a(lp1841
F0.242424
aaI33
aa(lp1842
I1
a(lp1843
F0.560976
aaI41
aa(lp1844
I1
a(lp1845
F0.459459
aaI37
aa(lp1846
I1
a(lp1847
F0.46875
aaI32
aa(lp1848
I1
a(lp1849
F0.404762
aaI42
aa(lp1850
I1
a(lp1851
F0.4
aaI25
aa(lp1852
I1
a(lp1853
F0.28
aaI25
aa(lp1854
I1
a(lp1855
F0.533333
aaI30
aa(lp1856
I1
a(lp1857
F0.461538
aaI26
aa(lp1858
I1
a(lp1859
F0.447368
aaI38
aaa(lp1860
S'scaffold2395_cov243'
p1861
aS'scaffold3285_cov233'
p1862
a(lp1863
I1
a(lp1864
F0.0
aaI15
aa(lp1865
I1
a(lp1866
F0.32
aaI25
aa(lp1867
I1
a(lp1868
F0.36
aaI25
aa(lp1869
I1
a(lp1870
F0.522727
aaI44
aa(lp1871
I1
a(lp1872
F0.294118
aaI34
aa(lp1873
I1
a(lp1874
F0.352941
aaI34
aa(lp1875
I1
a(lp1876
F0.266667
aaI30
aa(lp1877
I1
a(lp1878
F0.510204
aaI49
aa(lp1879
I1
a(lp1880
F0.225806
aaI31
aa(lp1881
I1
a(lp1882
F0.21875
aaI32
aa(lp1883
I1
a(lp1884
F0.214286
aaI28
aa(lp1885
I1
a(lp1886
F0.206897
aaI29
aa(lp1887
I1
a(lp1888
F0.2
aaI30
aa(lp1889
I1
a(lp1890
F0.3125
aaI16
aaa(lp1891
S'scaffold6112_cov148'
p1892
aS'scaffold19797_cov164'
p1893
aa(lp1894
S'scaffold534_cov297'
p1895
aS'scaffold532_cov244'
p1896
aa(lp1897
S'scaffold7912_cov254'
p1898
aS'scaffold22036_cov148'
p1899
aa(lp1900
S'scaffold4631_cov169'
p1901
aS'scaffold5249_cov206'
p1902
a(lp1903
I1
a(lp1904
F0.0
aaI21
aa(lp1905
I1
a(lp1906
F0.470588
aaI51
aa(lp1907
I1
a(lp1908
F0.447368
aaI38
aa(lp1909
I1
a(lp1910
F0.0
aaI20
aa(lp1911
I1
a(lp1912
F0.0
aaI24
aa(lp1913
I1
a(lp1914
F0.0
aaI19
aa(lp1915
I1
a(lp1916
F0.0
aaI9
aa(lp1917
I1
a(lp1918
F0.0
aaI2
aa(lp1919
I1
a(lp1920
F0.0
aaI2
aa(lp1921
I1
a(lp1922
F0.0
aaI2
aa(lp1923
I1
a(lp1924
F0.0
aaI2
aa(lp1925
I1
a(lp1926
F0.0
aaI2
aa(lp1927
I1
a(lp1928
F0.0
aaI4
aa(lp1929
I1
a(lp1930
F0.0
aaI4
aa(lp1931
I1
a(lp1932
F0.0
aaI4
aa(lp1933
I1
a(lp1934
F0.217391
aaI23
aa(lp1935
I1
a(lp1936
F0.0
aaI6
aa(lp1937
I1
a(lp1938
F0.0
aaI6
aa(lp1939
I1
a(lp1940
F0.0
aaI5
aa(lp1941
I1
a(lp1942
F0.0
aaI2
aa(lp1943
I1
a(lp1944
F0.0
aaI2
aaa(lp1945
S'scaffold3201_cov239'
p1946
aS'scaffold1948_cov236'
p1947
aa(lp1948
S'scaffold6504_cov303'
p1949
aS'scaffold32879_cov158'
p1950
aa(lp1951
S'scaffold1636_cov295'
p1952
aS'scaffold1637_cov206'
p1953
a(lp1954
I1
a(lp1955
F0.5
aaI34
aa(lp1956
I1
a(lp1957
F0.333333
aaI24
aa(lp1958
I1
a(lp1959
F0.375
aaI24
aa(lp1960
I1
a(lp1961
F0.25
aaI28
aa(lp1962
I1
a(lp1963
F0.25
aaI28
aa(lp1964
I1
a(lp1965
F0.269231
aaI26
aa(lp1966
I1
a(lp1967
F0.217391
aaI23
aa(lp1968
I1
a(lp1969
F0.214286
aaI14
aa(lp1970
I1
a(lp1971
F0.419355
aaI31
aa(lp1972
I1
a(lp1973
F0.214286
aaI28
aa(lp1974
I1
a(lp1975
F0.428571
aaI28
aa(lp1976
I1
a(lp1977
F0.518519
aaI27
aaa(lp1978
S'scaffold17188_cov256'
p1979
aS'scaffold6575_cov192'
p1980
a(lp1981
I1
a(lp1982
F0.208333
aaI24
aa(lp1983
I1
a(lp1984
F0.241379
aaI29
aa(lp1985
I1
a(lp1986
F0.454545
aaI33
aa(lp1987
I1
a(lp1988
F0.285714
aaI28
aa(lp1989
I1
a(lp1990
F0.296296
aaI27
aa(lp1991
I1
a(lp1992
F0.208333
aaI24
aa(lp1993
I1
a(lp1994
F0.2
aaI25
aa(lp1995
I1
a(lp1996
F0.25
aaI20
aa(lp1997
I1
a(lp1998
F0.238095
aaI21
aa(lp1999
I1
a(lp2000
F0.333333
aaI21
aa(lp2001
I1
a(lp2002
F0.304348
aaI23
aa(lp2003
I1
a(lp2004
F0.333333
aaI27
aa(lp2005
I1
a(lp2006
F0.36
aaI25
aa(lp2007
I1
a(lp2008
F0.36
aaI25
aa(lp2009
I1
a(lp2010
F0.346154
aaI26
aaa(lp2011
S'scaffold25159_cov143'
p2012
aS'scaffold13565_cov263'
p2013
aa(lp2014
S'scaffold1134_cov233'
p2015
aS'scaffold9743_cov237'
p2016
aa(lp2017
S'scaffold22748_cov150'
p2018
aS'scaffold2939_cov159'
p2019
aa(lp2020
S'scaffold16898_cov268'
p2021
aS'scaffold42181_cov294'
p2022
aa(lp2023
S'scaffold3033_cov182'
p2024
aS'scaffold2254_cov207'
p2025
aa(lp2026
S'scaffold19777_cov232'
p2027
aS'scaffold4838_cov202'
p2028
aa(lp2029
S'scaffold21079_cov185'
p2030
aS'scaffold34580_cov232'
p2031
aa(lp2032
S'scaffold11307_cov229'
p2033
aS'scaffold6551_cov161'
p2034
aa(lp2035
S'scaffold34240_cov291'
p2036
aS'scaffold6227_cov210'
p2037
a(lp2038
I1
a(lp2039
F0.44898
aaI49
aa(lp2040
I1
a(lp2041
F0.342105
aaI38
aaa(lp2042
S'scaffold1520_cov232'
p2043
aS'scaffold5829_cov226'
p2044
a(lp2045
I1
a(lp2046
F0.571429
aaI28
aa(lp2047
I1
a(lp2048
F0.3
aaI30
aa(lp2049
I1
a(lp2050
F0.3125
aaI32
aaa(lp2051
S'scaffold7998_cov239'
p2052
aS'scaffold34786_cov228'
p2053
a(lp2054
I1
a(lp2055
F0.444444
aaI45
aa(lp2056
I1
a(lp2057
F0.447368
aaI38
aa(lp2058
I1
a(lp2059
F0.307692
aaI26
aa(lp2060
I1
a(lp2061
F0.25
aaI16
aa(lp2062
I1
a(lp2063
F0.371429
aaI35
aa(lp2064
I1
a(lp2065
F0.456522
aaI46
aa(lp2066
I1
a(lp2067
F0.378378
aaI37
aa(lp2068
I1
a(lp2069
F0.322581
aaI31
aa(lp2070
I1
a(lp2071
F0.277778
aaI36
aa(lp2072
I1
a(lp2073
F0.25
aaI28
aa(lp2074
I1
a(lp2075
F0.388889
aaI36
aaa(lp2076
S'scaffold2764_cov248'
p2077
aS'scaffold35902_cov179'
p2078
a(lp2079
I1
a(lp2080
F0.407407
aaI27
aa(lp2081
I1
a(lp2082
F0.212121
aaI33
aa(lp2083
I1
a(lp2084
F0.266667
aaI30
aa(lp2085
I1
a(lp2086
F0.432432
aaI37
aaa(lp2087
S'scaffold7504_cov226'
p2088
aS'scaffold4870_cov219'
p2089
a(lp2090
I1
a(lp2091
F0.264706
aaI34
aa(lp2092
I1
a(lp2093
F0.354839
aaI31
aa(lp2094
I1
a(lp2095
F0.333333
aaI30
aaa(lp2096
S'scaffold5560_cov257'
p2097
aS'scaffold8732_cov275'
p2098
a(lp2099
I1
a(lp2100
F0.47619
aaI42
aa(lp2101
I1
a(lp2102
F0.341463
aaI41
aa(lp2103
I1
a(lp2104
F0.25
aaI28
aa(lp2105
I1
a(lp2106
F0.4
aaI35
aaa(lp2107
S'scaffold2730_cov266'
p2108
aS'scaffold3415_cov306'
p2109
a(lp2110
I1
a(lp2111
F0.459459
aaI37
aa(lp2112
I1
a(lp2113
F0.459459
aaI37
aa(lp2114
I1
a(lp2115
F0.447368
aaI38
aa(lp2116
I1
a(lp2117
F0.404762
aaI42
aa(lp2118
I1
a(lp2119
F0.391304
aaI46
aa(lp2120
I1
a(lp2121
F0.395349
aaI43
aa(lp2122
I1
a(lp2123
F0.333333
aaI30
aa(lp2124
I1
a(lp2125
F0.324324
aaI37
aa(lp2126
I1
a(lp2127
F0.258065
aaI31
aa(lp2128
I1
a(lp2129
F0.317073
aaI41
aa(lp2130
I1
a(lp2131
F0.285714
aaI14
aa(lp2132
I1
a(lp2133
F0.461538
aaI26
aa(lp2134
I1
a(lp2135
F0.344828
aaI29
aa(lp2136
I1
a(lp2137
F0.5
aaI50
aa(lp2138
I1
a(lp2139
F0.533333
aaI45
aa(lp2140
I1
a(lp2141
F0.310345
aaI29
aa(lp2142
I1
a(lp2143
F0.290323
aaI31
aa(lp2144
I1
a(lp2145
F0.3
aaI40
aa(lp2146
I1
a(lp2147
F0.208333
aaI24
aa(lp2148
I1
a(lp2149
F0.259259
aaI27
aa(lp2150
I1
a(lp2151
F0.21875
aaI32
aa(lp2152
I1
a(lp2153
F0.214286
aaI28
aa(lp2154
I1
a(lp2155
F0.424242
aaI33
aaa(lp2156
S'scaffold1952_cov217'
p2157
aS'scaffold6035_cov288'
p2158
a(lp2159
I1
a(lp2160
F0.225806
aaI31
aa(lp2161
I1
a(lp2162
F0.55
aaI40
aaa(lp2163
S'scaffold34993_cov283'
p2164
aS'scaffold2688_cov189'
p2165
a(lp2166
I1
a(lp2167
F0.439024
aaI41
aa(lp2168
I1
a(lp2169
F0.461538
aaI26
aa(lp2170
I1
a(lp2171
F0.285714
aaI28
aa(lp2172
I1
a(lp2173
F0.387097
aaI31
aaa(lp2174
S'scaffold2015_cov427'
p2175
aS'scaffold843_cov157'
p2176
aa(lp2177
S'scaffold16937_cov241'
p2178
aS'scaffold1798_cov239'
p2179
aa(lp2180
S'scaffold1047_cov391'
p2181
aS'scaffold1999_cov166'
p2182
a(lp2183
I1
a(lp2184
F0.24
aaI25
aa(lp2185
I1
a(lp2186
F0.25
aaI28
aa(lp2187
I1
a(lp2188
F0.32
aaI50
aa(lp2189
I1
a(lp2190
F0.228571
aaI35
aa(lp2191
I1
a(lp2192
F0.212121
aaI33
aa(lp2193
I1
a(lp2194
F0.384615
aaI39
aa(lp2195
I1
a(lp2196
F0.459459
aaI37
aa(lp2197
I1
a(lp2198
F0.216216
aaI37
aa(lp2199
I1
a(lp2200
F0.216216
aaI37
aa(lp2201
I1
a(lp2202
F0.322581
aaI31
aa(lp2203
I1
a(lp2204
F0.28
aaI25
aa(lp2205
I1
a(lp2206
F0.347826
aaI23
aa(lp2207
I1
a(lp2208
F0.4
aaI20
aa(lp2209
I1
a(lp2210
F0.388889
aaI18
aa(lp2211
I1
a(lp2212
F0.388889
aaI18
aa(lp2213
I1
a(lp2214
F0.411765
aaI17
aaa(lp2215
S'scaffold48640_cov294'
p2216
aS'scaffold10308_cov219'
p2217
aa(lp2218
S'scaffold3282_cov224'
p2219
aS'scaffold35925_cov172'
p2220
a(lp2221
I1
a(lp2222
F0.2
aaI15
aa(lp2223
I1
a(lp2224
F0.2
aaI25
aa(lp2225
I1
a(lp2226
F0.342857
aaI35
aa(lp2227
I1
a(lp2228
F0.324324
aaI37
aa(lp2229
I1
a(lp2230
F0.434783
aaI23
aa(lp2231
I1
a(lp2232
F0.3
aaI20
aa(lp2233
I1
a(lp2234
F0.368421
aaI19
aa(lp2235
I1
a(lp2236
F0.304348
aaI23
aa(lp2237
I1
a(lp2238
F0.206897
aaI29
aa(lp2239
I1
a(lp2240
F0.297872
aaI47
aa(lp2241
I1
a(lp2242
F0.371429
aaI35
aaa(lp2243
S'scaffold14007_cov270'
p2244
aS'scaffold181_cov231'
p2245
a(lp2246
I1
a(lp2247
F0.217391
aaI23
aa(lp2248
I1
a(lp2249
F0.22
aaI50
aa(lp2250
I1
a(lp2251
F0.254902
aaI51
aa(lp2252
I1
a(lp2253
F0.254902
aaI51
aa(lp2254
I1
a(lp2255
F0.5
aaI34
aa(lp2256
I1
a(lp2257
F0.555556
aaI36
aa(lp2258
I1
a(lp2259
F0.259259
aaI27
aa(lp2260
I1
a(lp2261
F0.0
aaI26
aa(lp2262
I1
a(lp2263
F0.28125
aaI32
aa(lp2264
I1
a(lp2265
F0.307692
aaI39
aa(lp2266
I1
a(lp2267
F0.314286
aaI35
aa(lp2268
I1
a(lp2269
F0.235294
aaI34
aa(lp2270
I1
a(lp2271
F0.27027
aaI37
aa(lp2272
I1
a(lp2273
F0.310345
aaI29
aa(lp2274
I1
a(lp2275
F0.375
aaI24
aa(lp2276
I1
a(lp2277
F0.4
aaI30
aa(lp2278
I1
a(lp2279
F0.238095
aaI21
aa(lp2280
I1
a(lp2281
F0.208333
aaI24
aa(lp2282
I1
a(lp2283
F0.227273
aaI22
aa(lp2284
I1
a(lp2285
F0.212121
aaI33
aa(lp2286
I1
a(lp2287
F0.217391
aaI46
aa(lp2288
I1
a(lp2289
F0.555556
aaI27
aaa(lp2290
S'scaffold5495_cov293'
p2291
aS'scaffold42388_cov305'
p2292
aa(lp2293
S'scaffold2836_cov225'
p2294
aS'scaffold4074_cov180'
p2295
a(lp2296
I1
a(lp2297
F0.357143
aaI42
aa(lp2298
I1
a(lp2299
F0.342857
aaI35
aa(lp2300
I1
a(lp2301
F0.323529
aaI34
aa(lp2302
I1
a(lp2303
F0.25
aaI32
aa(lp2304
I1
a(lp2305
F0.289474
aaI38
aa(lp2306
I1
a(lp2307
F0.277778
aaI36
aa(lp2308
I1
a(lp2309
F0.294118
aaI34
aa(lp2310
I1
a(lp2311
F0.30303
aaI33
aa(lp2312
I1
a(lp2313
F0.26087
aaI23
aa(lp2314
I1
a(lp2315
F0.2
aaI25
aa(lp2316
I1
a(lp2317
F0.428571
aaI7
aa(lp2318
I1
a(lp2319
F0.428571
aaI7
aa(lp2320
I1
a(lp2321
F0.285714
aaI14
aa(lp2322
I1
a(lp2323
F0.266667
aaI15
aa(lp2324
I1
a(lp2325
F0.25
aaI16
aa(lp2326
I1
a(lp2327
F0.375
aaI8
aaa(lp2328
S'scaffold8201_cov210'
p2329
aS'scaffold487_cov180'
p2330
aa(lp2331
S'scaffold8280_cov208'
p2332
aS'scaffold18434_cov227'
p2333
a(lp2334
I1
a(lp2335
F0.877863
aaI131
aaa(lp2336
S'scaffold8291_cov270'
p2337
aS'scaffold6880_cov163'
p2338
aa(lp2339
S'scaffold3436_cov196'
p2340
aS'scaffold1629_cov253'
p2341
a(lp2342
I1
a(lp2343
F0.225806
aaI31
aa(lp2344
I1
a(lp2345
F0.233333
aaI30
aaa(lp2346
S'scaffold5242_cov262'
p2347
aS'scaffold35822_cov215'
p2348
a(lp2349
I1
a(lp2350
F0.0
aaI32
aa(lp2351
I1
a(lp2352
F0.571429
aaI35
aa(lp2353
I1
a(lp2354
F0.2
aaI25
aa(lp2355
I1
a(lp2356
F0.2
aaI25
aa(lp2357
I1
a(lp2358
F0.296296
aaI27
aa(lp2359
I1
a(lp2360
F0.452381
aaI42
aa(lp2361
I1
a(lp2362
F0.222222
aaI36
aa(lp2363
I1
a(lp2364
F0.222222
aaI36
aa(lp2365
I1
a(lp2366
F0.216216
aaI37
aaa(lp2367
S'scaffold978_cov183'
p2368
aS'scaffold979_cov154'
p2369
aa(lp2370
S'scaffold34455_cov418'
p2371
aS'scaffold34968_cov196'
p2372
a(lp2373
I1
a(lp2374
F0.25
aaI20
aa(lp2375
I1
a(lp2376
F0.425
aaI40
aa(lp2377
I1
a(lp2378
F0.23
aaI100
aa(lp2379
I1
a(lp2380
F0.255319
aaI47
aaa(lp2381
S'scaffold7259_cov286'
p2382
aS'scaffold1969_cov172'
p2383
a(lp2384
I1
a(lp2385
F0.275
aaI40
aa(lp2386
I1
a(lp2387
F0.342105
aaI38
aa(lp2388
I1
a(lp2389
F0.355556
aaI45
aa(lp2390
I1
a(lp2391
F0.242424
aaI33
aaa(lp2392
S'scaffold16517_cov275'
p2393
aS'scaffold1106_cov224'
p2394
a(lp2395
I1
a(lp2396
F0.433333
aaI30
aa(lp2397
I1
a(lp2398
F0.34375
aaI32
aa(lp2399
I1
a(lp2400
F0.314286
aaI35
aa(lp2401
I1
a(lp2402
F0.2
aaI25
aa(lp2403
I1
a(lp2404
F0.363636
aaI33
aa(lp2405
I1
a(lp2406
F0.318182
aaI22
aa(lp2407
I1
a(lp2408
F0.2
aaI15
aa(lp2409
I1
a(lp2410
F0.0
aaI24
aa(lp2411
I1
a(lp2412
F0.28
aaI25
aa(lp2413
I1
a(lp2414
F0.342857
aaI35
aa(lp2415
I1
a(lp2416
F0.382979
aaI47
aa(lp2417
I1
a(lp2418
F0.484848
aaI33
aa(lp2419
I1
a(lp2420
F0.408163
aaI49
aa(lp2421
I1
a(lp2422
F0.352941
aaI34
aaa(lp2423
S'scaffold6196_cov437'
p2424
aS'scaffold343_cov157'
p2425
a(lp2426
I1
a(lp2427
F0.294118
aaI34
aa(lp2428
I1
a(lp2429
F0.454545
aaI44
aa(lp2430
I1
a(lp2431
F0.323529
aaI34
aa(lp2432
I1
a(lp2433
F0.342857
aaI35
aa(lp2434
I1
a(lp2435
F0.263158
aaI38
aa(lp2436
I1
a(lp2437
F0.2
aaI30
aa(lp2438
I1
a(lp2439
F0.719697
aaI132
aa(lp2440
I1
a(lp2441
F0.2
aaI15
aaa(lp2442
S'scaffold204_cov205'
p2443
aS'scaffold1559_cov231'
p2444
a(lp2445
I1
a(lp2446
F0.0
aaI9
aa(lp2447
I1
a(lp2448
F0.0
aaI9
aa(lp2449
I1
a(lp2450
F0.0
aaI11
aa(lp2451
I1
a(lp2452
F0.0
aaI4
aa(lp2453
I1
a(lp2454
F0.0
aaI2
aa(lp2455
I1
a(lp2456
F0.0
aaI2
aa(lp2457
I1
a(lp2458
F0.0
aaI10
aa(lp2459
I1
a(lp2460
F0.0
aaI10
aa(lp2461
I1
a(lp2462
F0.0
aaI11
aa(lp2463
I1
a(lp2464
F0.0
aaI7
aa(lp2465
I1
a(lp2466
F0.0
aaI10
aa(lp2467
I1
a(lp2468
F0.0
aaI12
aa(lp2469
I1
a(lp2470
F0.0
aaI12
aa(lp2471
I1
a(lp2472
F0.0
aaI2
aa(lp2473
I1
a(lp2474
F0.0
aaI2
aa(lp2475
I1
a(lp2476
F0.0
aaI2
aa(lp2477
I1
a(lp2478
F0.0
aaI2
aa(lp2479
I1
a(lp2480
F0.0
aaI2
aa(lp2481
I1
a(lp2482
F0.0
aaI2
aaa(lp2483
S'scaffold7038_cov214'
p2484
aS'scaffold3562_cov182'
p2485
a(lp2486
I1
a(lp2487
F0.28
aaI25
aa(lp2488
I1
a(lp2489
F0.382353
aaI34
aa(lp2490
I1
a(lp2491
F0.289474
aaI38
aaa(lp2492
S'scaffold4451_cov223'
p2493
aS'scaffold53889_cov315'
p2494
aa(lp2495
S'scaffold9574_cov228'
p2496
aS'scaffold2246_cov240'
p2497
a(lp2498
I1
a(lp2499
F0.342857
aaI70
aa(lp2500
I1
a(lp2501
F0.309524
aaI42
aa(lp2502
I1
a(lp2503
F0.0
aaI24
aa(lp2504
I1
a(lp2505
F0.305556
aaI36
aa(lp2506
I1
a(lp2507
F0.210526
aaI38
aa(lp2508
I1
a(lp2509
F0.205128
aaI39
aa(lp2510
I1
a(lp2511
F0.272727
aaI33
aa(lp2512
I1
a(lp2513
F0.257143
aaI35
aa(lp2514
I1
a(lp2515
F0.267857
aaI56
aa(lp2516
I1
a(lp2517
F0.625
aaI48
aa(lp2518
I1
a(lp2519
F0.622222
aaI45
aa(lp2520
I1
a(lp2521
F0.268657
aaI67
aa(lp2522
I1
a(lp2523
F0.348485
aaI66
aa(lp2524
I1
a(lp2525
F0.486486
aaI37
aa(lp2526
I1
a(lp2527
F0.538462
aaI39
aaa(lp2528
S'scaffold3194_cov316'
p2529
aS'scaffold12171_cov160'
p2530
aa(lp2531
S'scaffold5502_cov291'
p2532
aS'scaffold7790_cov228'
p2533
a(lp2534
I1
a(lp2535
F0.3
aaI30
aa(lp2536
I1
a(lp2537
F0.0
aaI27
aa(lp2538
I1
a(lp2539
F0.214286
aaI28
aa(lp2540
I1
a(lp2541
F0.466667
aaI30
aa(lp2542
I1
a(lp2543
F0.461538
aaI52
aa(lp2544
I1
a(lp2545
F0.5
aaI44
aaa(lp2546
S'scaffold30714_cov262'
p2547
aS'scaffold3621_cov266'
p2548
aa(lp2549
S'scaffold1041_cov212'
p2550
aS'scaffold6560_cov168'
p2551
a(lp2552
I1
a(lp2553
F0.272727
aaI33
aa(lp2554
I1
a(lp2555
F0.25
aaI32
aaa(lp2556
S'scaffold28262_cov431'
p2557
aS'scaffold343_cov157'
p2558
aa(lp2559
S'scaffold4790_cov191'
p2560
aS'scaffold33895_cov180'
p2561
a(lp2562
I1
a(lp2563
F0.21875
aaI32
aaa(lp2564
S'scaffold674_cov219'
p2565
aS'scaffold10400_cov191'
p2566
a(lp2567
I1
a(lp2568
F0.416667
aaI36
aa(lp2569
I1
a(lp2570
F0.214286
aaI14
aa(lp2571
I1
a(lp2572
F0.387097
aaI31
aa(lp2573
I1
a(lp2574
F0.5
aaI34
aa(lp2575
I1
a(lp2576
F0.0
aaI20
aa(lp2577
I1
a(lp2578
F0.433333
aaI30
aa(lp2579
I1
a(lp2580
F0.368421
aaI38
aa(lp2581
I1
a(lp2582
F0.375
aaI40
aa(lp2583
I1
a(lp2584
F0.363636
aaI33
aa(lp2585
I1
a(lp2586
F0.21875
aaI32
aaa(lp2587
S'scaffold3824_cov240'
p2588
aS'scaffold5144_cov205'
p2589
aa(lp2590
S'scaffold8081_cov244'
p2591
aS'scaffold34811_cov176'
p2592
a(lp2593
I1
a(lp2594
F0.323529
aaI34
aa(lp2595
I1
a(lp2596
F0.4375
aaI48
aa(lp2597
I1
a(lp2598
F0.478261
aaI46
aa(lp2599
I1
a(lp2600
F0.548387
aaI31
aa(lp2601
I1
a(lp2602
F0.470588
aaI34
aaa(lp2603
S'scaffold10_cov225'
p2604
aS'scaffold2901_cov252'
p2605
a(lp2606
I1
a(lp2607
F0.53125
aaI32
aa(lp2608
I1
a(lp2609
F0.230769
aaI26
aaa(lp2610
S'scaffold3590_cov237'
p2611
aS'scaffold34183_cov209'
p2612
aa(lp2613
S'scaffold6964_cov214'
p2614
aS'scaffold1655_cov200'
p2615
a(lp2616
I1
a(lp2617
F0.428571
aaI49
aa(lp2618
I1
a(lp2619
F0.213115
aaI61
aa(lp2620
I1
a(lp2621
F0.216667
aaI60
aaa(lp2622
S'scaffold33647_cov137'
p2623
aS'scaffold6177_cov155'
p2624
a(lp2625
I1
a(lp2626
F0.236842
aaI38
aaa(lp2627
S'scaffold41363_cov389'
p2628
aS'scaffold3342_cov163'
p2629
aa(lp2630
S'scaffold5058_cov197'
p2631
aS'scaffold4464_cov185'
p2632
a(lp2633
I1
a(lp2634
F0.451613
aaI31
aa(lp2635
I1
a(lp2636
F0.322581
aaI31
aa(lp2637
I1
a(lp2638
F0.258065
aaI31
aaa(lp2639
S'scaffold35824_cov247'
p2640
aS'scaffold3010_cov208'
p2641
a(lp2642
I1
a(lp2643
F0.37037
aaI27
aa(lp2644
I1
a(lp2645
F0.321429
aaI28
aa(lp2646
I1
a(lp2647
F0.230769
aaI26
aa(lp2648
I1
a(lp2649
F0.483871
aaI31
aa(lp2650
I1
a(lp2651
F0.466667
aaI30
aa(lp2652
I1
a(lp2653
F0.5
aaI26
aa(lp2654
I1
a(lp2655
F0.551724
aaI29
aa(lp2656
I1
a(lp2657
F0.36
aaI25
aa(lp2658
I1
a(lp2659
F0.205128
aaI39
aa(lp2660
I1
a(lp2661
F0.222222
aaI36
aa(lp2662
I1
a(lp2663
F0.230769
aaI26
aa(lp2664
I1
a(lp2665
F0.208333
aaI24
aa(lp2666
I1
a(lp2667
F0.208333
aaI24
aa(lp2668
I1
a(lp2669
F0.310345
aaI29
aa(lp2670
I1
a(lp2671
F0.266667
aaI30
aa(lp2672
I1
a(lp2673
F0.272727
aaI33
aa(lp2674
I1
a(lp2675
F0.242424
aaI33
aa(lp2676
I1
a(lp2677
F0.307692
aaI26
aa(lp2678
I1
a(lp2679
F0.4
aaI40
aa(lp2680
I1
a(lp2681
F0.47619
aaI42
aa(lp2682
I1
a(lp2683
F0.206897
aaI29
aa(lp2684
I1
a(lp2685
F0.25
aaI24
aa(lp2686
I1
a(lp2687
F0.296296
aaI27
aa(lp2688
I1
a(lp2689
F0.222222
aaI27
aa(lp2690
I1
a(lp2691
F0.269231
aaI26
aa(lp2692
I1
a(lp2693
F0.3
aaI30
aa(lp2694
I1
a(lp2695
F0.321429
aaI28
aa(lp2696
I1
a(lp2697
F0.233333
aaI30
aa(lp2698
I1
a(lp2699
F0.333333
aaI30
aa(lp2700
I1
a(lp2701
F0.413793
aaI29
aa(lp2702
I1
a(lp2703
F0.35
aaI20
aa(lp2704
I1
a(lp2705
F0.2
aaI20
aaa(lp2706
S'scaffold3485_cov257'
p2707
aS'scaffold5461_cov213'
p2708
a(lp2709
I1
a(lp2710
F0.228571
aaI35
aa(lp2711
I1
a(lp2712
F0.42
aaI50
aa(lp2713
I1
a(lp2714
F0.2
aaI30
aa(lp2715
I1
a(lp2716
F0.206897
aaI29
aa(lp2717
I1
a(lp2718
F0.241379
aaI29
aa(lp2719
I1
a(lp2720
F0.392857
aaI28
aa(lp2721
I1
a(lp2722
F0.361111
aaI36
aa(lp2723
I1
a(lp2724
F0.589744
aaI39
aa(lp2725
I1
a(lp2726
F0.6
aaI35
aa(lp2727
I1
a(lp2728
F0.525
aaI40
aa(lp2729
I1
a(lp2730
F0.222222
aaI18
aa(lp2731
I1
a(lp2732
F0.37037
aaI27
aa(lp2733
I1
a(lp2734
F0.37931
aaI29
aa(lp2735
I1
a(lp2736
F0.407407
aaI27
aa(lp2737
I1
a(lp2738
F0.458333
aaI24
aa(lp2739
I1
a(lp2740
F0.395833
aaI48
aa(lp2741
I1
a(lp2742
F0.296296
aaI27
aa(lp2743
I1
a(lp2744
F0.321429
aaI28
aa(lp2745
I1
a(lp2746
F0.366667
aaI30
aa(lp2747
I1
a(lp2748
F0.441176
aaI34
aa(lp2749
I1
a(lp2750
F0.214286
aaI28
aaa(lp2751
S'scaffold5523_cov227'
p2752
aS'scaffold3428_cov197'
p2753
a(lp2754
I1
a(lp2755
F0.285714
aaI14
aa(lp2756
I1
a(lp2757
F0.269231
aaI26
aaa(lp2758
S'scaffold16909_cov171'
p2759
aS'scaffold10939_cov235'
p2760
a(lp2761
I1
a(lp2762
F0.210526
aaI19
aa(lp2763
I1
a(lp2764
F0.266667
aaI15
aa(lp2765
I1
a(lp2766
F0.235294
aaI17
aaa(lp2767
S'scaffold34992_cov298'
p2768
aS'scaffold428_cov197'
p2769
a(lp2770
I1
a(lp2771
F0.28
aaI25
aa(lp2772
I1
a(lp2773
F0.290323
aaI31
aa(lp2774
I1
a(lp2775
F0.272727
aaI33
aa(lp2776
I1
a(lp2777
F0.543478
aaI46
aa(lp2778
I1
a(lp2779
F0.333333
aaI39
aa(lp2780
I1
a(lp2781
F0.333333
aaI33
aa(lp2782
I1
a(lp2783
F0.206897
aaI29
aaa(lp2784
S'scaffold5271_cov299'
p2785
aS'scaffold5221_cov193'
p2786
aa(lp2787
S'scaffold13641_cov196'
p2788
aS'scaffold13364_cov176'
p2789
a(lp2790
I1
a(lp2791
F0.241379
aaI29
aa(lp2792
I1
a(lp2793
F0.416667
aaI36
aa(lp2794
I1
a(lp2795
F0.35
aaI40
aaa(lp2796
S'scaffold34868_cov282'
p2797
aS'scaffold8469_cov191'
p2798
aa(lp2799
S'scaffold29217_cov317'
p2800
aS'scaffold1412_cov235'
p2801
a(lp2802
I1
a(lp2803
F0.36
aaI25
aa(lp2804
I1
a(lp2805
F0.384615
aaI26
aa(lp2806
I1
a(lp2807
F0.384615
aaI26
aa(lp2808
I1
a(lp2809
F0.346154
aaI26
aa(lp2810
I1
a(lp2811
F0.36
aaI25
aa(lp2812
I1
a(lp2813
F0.36
aaI25
aa(lp2814
I1
a(lp2815
F0.413793
aaI29
aaa(lp2816
S'scaffold3194_cov316'
p2817
aS'scaffold3195_cov270'
p2818
a(lp2819
I1
a(lp2820
F0.421053
aaI38
aa(lp2821
I1
a(lp2822
F0.447368
aaI38
aa(lp2823
I1
a(lp2824
F0.527778
aaI36
aa(lp2825
I1
a(lp2826
F0.477273
aaI44
aa(lp2827
I1
a(lp2828
F0.5
aaI50
aa(lp2829
I1
a(lp2830
F0.55102
aaI49
aa(lp2831
I1
a(lp2832
F0.310345
aaI29
aaa(lp2833
S'scaffold8573_cov422'
p2834
aS'scaffold5917_cov146'
p2835
aa(lp2836
S'scaffold5708_cov422'
p2837
aS'scaffold5917_cov146'
p2838
aa(lp2839
S'scaffold869_cov236'
p2840
aS'scaffold35051_cov180'
p2841
a(lp2842
I1
a(lp2843
F0.216216
aaI37
aa(lp2844
I1
a(lp2845
F0.235294
aaI17
aa(lp2846
I1
a(lp2847
F0.222222
aaI18
aa(lp2848
I1
a(lp2849
F0.222222
aaI18
aaa(lp2850
S'scaffold5700_cov293'
p2851
aS'scaffold5813_cov245'
p2852
aa(lp2853
S'scaffold36090_cov308'
p2854
aS'scaffold4008_cov147'
p2855
a(lp2856
I1
a(lp2857
F0.25
aaI24
aa(lp2858
I1
a(lp2859
F0.407407
aaI27
aaa(lp2860
S'scaffold38236_cov294'
p2861
aS'scaffold12700_cov150'
p2862
aa(lp2863
S'scaffold10361_cov204'
p2864
aS'scaffold11037_cov149'
p2865
aa(lp2866
S'scaffold1081_cov253'
p2867
aS'scaffold1083_cov222'
p2868
a(lp2869
I1
a(lp2870
F0.217391
aaI23
aa(lp2871
I1
a(lp2872
F0.344828
aaI29
aa(lp2873
I1
a(lp2874
F0.285714
aaI28
aa(lp2875
I1
a(lp2876
F0.366667
aaI30
aa(lp2877
I1
a(lp2878
F0.275862
aaI29
aa(lp2879
I1
a(lp2880
F0.377778
aaI45
aa(lp2881
I1
a(lp2882
F0.378378
aaI37
aa(lp2883
I1
a(lp2884
F0.258065
aaI31
aa(lp2885
I1
a(lp2886
F0.266667
aaI45
aa(lp2887
I1
a(lp2888
F0.384615
aaI26
aa(lp2889
I1
a(lp2890
F0.28
aaI25
aa(lp2891
I1
a(lp2892
F0.227273
aaI22
aa(lp2893
I1
a(lp2894
F0.227273
aaI22
aa(lp2895
I1
a(lp2896
F0.238095
aaI21
aa(lp2897
I1
a(lp2898
F0.217391
aaI23
aa(lp2899
I1
a(lp2900
F0.558824
aaI34
aa(lp2901
I1
a(lp2902
F0.28
aaI25
aa(lp2903
I1
a(lp2904
F0.469388
aaI49
aaa(lp2905
S'scaffold1911_cov231'
p2906
aS'scaffold2955_cov235'
p2907
a(lp2908
I1
a(lp2909
F0.233333
aaI30
aa(lp2910
I1
a(lp2911
F0.208333
aaI24
aa(lp2912
I1
a(lp2913
F0.4
aaI20
aa(lp2914
I1
a(lp2915
F0.4
aaI20
aa(lp2916
I1
a(lp2917
F0.35
aaI20
aa(lp2918
I1
a(lp2919
F0.444444
aaI27
aa(lp2920
I1
a(lp2921
F0.4
aaI25
aa(lp2922
I1
a(lp2923
F0.344828
aaI29
aa(lp2924
I1
a(lp2925
F0.342857
aaI35
aa(lp2926
I1
a(lp2927
F0.30303
aaI33
aaa(lp2928
S'scaffold709_cov247'
p2929
aS'scaffold5394_cov155'
p2930
aa(lp2931
S'scaffold4184_cov249'
p2932
aS'scaffold2531_cov161'
p2933
aa(lp2934
S'scaffold2596_cov234'
p2935
aS'scaffold1898_cov190'
p2936
a(lp2937
I1
a(lp2938
F0.285714
aaI42
aa(lp2939
I1
a(lp2940
F0.0
aaI5
aa(lp2941
I1
a(lp2942
F0.236842
aaI38
aa(lp2943
I1
a(lp2944
F0.228571
aaI35
aa(lp2945
I1
a(lp2946
F0.216216
aaI37
aa(lp2947
I1
a(lp2948
F0.210526
aaI38
aa(lp2949
I1
a(lp2950
F0.214286
aaI28
aa(lp2951
I1
a(lp2952
F0.25
aaI28
aaa(lp2953
S'scaffold6422_cov190'
p2954
aS'scaffold14276_cov161'
p2955
aa(lp2956
S'scaffold3671_cov181'
p2957
aS'scaffold9505_cov197'
p2958
aa(lp2959
S'scaffold36473_cov268'
p2960
aS'scaffold3188_cov246'
p2961
a(lp2962
I1
a(lp2963
F0.371429
aaI35
aa(lp2964
I1
a(lp2965
F0.363636
aaI33
aa(lp2966
I1
a(lp2967
F0.37931
aaI29
aa(lp2968
I1
a(lp2969
F0.411765
aaI34
aa(lp2970
I1
a(lp2971
F0.4
aaI40
aa(lp2972
I1
a(lp2973
F0.645833
aaI48
aa(lp2974
I1
a(lp2975
F0.527778
aaI36
aa(lp2976
I1
a(lp2977
F0.384615
aaI39
aa(lp2978
I1
a(lp2979
F0.425532
aaI47
aaa(lp2980
S'scaffold6461_cov208'
p2981
aS'scaffold10232_cov153'
p2982
a(lp2983
I1
a(lp2984
F0.205882
aaI34
aa(lp2985
I1
a(lp2986
F0.382353
aaI34
aa(lp2987
I1
a(lp2988
F0.348837
aaI43
aa(lp2989
I1
a(lp2990
F0.325581
aaI43
aa(lp2991
I1
a(lp2992
F0.272727
aaI44
aa(lp2993
I1
a(lp2994
F0.285714
aaI28
aa(lp2995
I1
a(lp2996
F0.307692
aaI26
aa(lp2997
I1
a(lp2998
F0.310345
aaI29
aa(lp2999
I1
a(lp3000
F0.214286
aaI28
aa(lp3001
I1
a(lp3002
F0.25
aaI32
aa(lp3003
I1
a(lp3004
F0.322581
aaI31
aa(lp3005
I1
a(lp3006
F0.344828
aaI29
aa(lp3007
I1
a(lp3008
F0.333333
aaI36
aa(lp3009
I1
a(lp3010
F0.228571
aaI35
aaa(lp3011
S'scaffold3709_cov220'
p3012
aS'scaffold9550_cov156'
p3013
aa(lp3014
S'scaffold20444_cov436'
p3015
aS'scaffold13149_cov173'
p3016
a(lp3017
I1
a(lp3018
F0.35
aaI20
aa(lp3019
I1
a(lp3020
F0.333333
aaI21
aa(lp3021
I1
a(lp3022
F0.346154
aaI26
aa(lp3023
I1
a(lp3024
F0.289474
aaI38
aa(lp3025
I1
a(lp3026
F0.264706
aaI34
aaa(lp3027
S'scaffold9528_cov287'
p3028
aS'scaffold13440_cov161'
p3029
a(lp3030
I1
a(lp3031
F0.214286
aaI14
aaa(lp3032
S'scaffold3054_cov300'
p3033
aS'scaffold9545_cov229'
p3034
aa(lp3035
S'scaffold7135_cov385'
p3036
aS'scaffold2547_cov148'
p3037
a(lp3038
I1
a(lp3039
F0.3
aaI20
aa(lp3040
I1
a(lp3041
F0.4
aaI25
aaa(lp3042
S'scaffold15331_cov173'
p3043
aS'scaffold4093_cov203'
p3044
a(lp3045
I1
a(lp3046
F0.416667
aaI24
aa(lp3047
I1
a(lp3048
F0.37931
aaI29
aa(lp3049
I1
a(lp3050
F0.230769
aaI26
aa(lp3051
I1
a(lp3052
F0.361111
aaI36
aa(lp3053
I1
a(lp3054
F0.342857
aaI35
aa(lp3055
I1
a(lp3056
F0.30303
aaI33
aa(lp3057
I1
a(lp3058
F0.2
aaI30
aa(lp3059
I1
a(lp3060
F0.529412
aaI34
aa(lp3061
I1
a(lp3062
F0.533333
aaI30
aa(lp3063
I1
a(lp3064
F0.513514
aaI37
aa(lp3065
I1
a(lp3066
F0.488372
aaI43
aa(lp3067
I1
a(lp3068
F0.28
aaI25
aa(lp3069
I1
a(lp3070
F0.411765
aaI34
aa(lp3071
I1
a(lp3072
F0.214286
aaI28
aa(lp3073
I1
a(lp3074
F0.296296
aaI27
aaa(lp3075
S'scaffold3646_cov176'
p3076
aS'scaffold1795_cov197'
p3077
a(lp3078
I1
a(lp3079
F0.307692
aaI39
aa(lp3080
I1
a(lp3081
F0.368421
aaI38
aa(lp3082
I1
a(lp3083
F0.217391
aaI23
aa(lp3084
I1
a(lp3085
F0.208333
aaI24
aa(lp3086
I1
a(lp3087
F0.366667
aaI30
aa(lp3088
I1
a(lp3089
F0.290323
aaI31
aa(lp3090
I1
a(lp3091
F0.3125
aaI32
aaa(lp3092
S'scaffold4879_cov249'
p3093
aS'scaffold916_cov197'
p3094
aa(lp3095
S'scaffold441_cov213'
p3096
aS'scaffold3541_cov180'
p3097
aa(lp3098
S'scaffold6945_cov182'
p3099
aS'scaffold3075_cov156'
p3100
aa(lp3101
S'scaffold10089_cov244'
p3102
aS'scaffold11805_cov225'
p3103
a(lp3104
I1
a(lp3105
F0.846154
aaI13
aaa(lp3106
S'scaffold19598_cov155'
p3107
aS'scaffold3188_cov246'
p3108
aa(lp3109
S'scaffold4966_cov298'
p3110
aS'scaffold5238_cov294'
p3111
a(lp3112
I1
a(lp3113
F0.333333
aaI87
aa(lp3114
I1
a(lp3115
F0.325843
aaI89
aa(lp3116
I1
a(lp3117
F0.403226
aaI124
aa(lp3118
I1
a(lp3119
F0.283784
aaI74
aa(lp3120
I1
a(lp3121
F0.276596
aaI47
aa(lp3122
I1
a(lp3123
F0.25
aaI44
aa(lp3124
I1
a(lp3125
F0.357143
aaI28
aa(lp3126
I1
a(lp3127
F0.357143
aaI28
aa(lp3128
I1
a(lp3129
F0.230769
aaI26
aa(lp3130
I1
a(lp3131
F0.259259
aaI27
aa(lp3132
I1
a(lp3133
F0.285714
aaI28
aa(lp3134
I1
a(lp3135
F0.3125
aaI32
aa(lp3136
I1
a(lp3137
F0.322581
aaI31
aa(lp3138
I1
a(lp3139
F0.294118
aaI34
aa(lp3140
I1
a(lp3141
F0.30303
aaI33
aa(lp3142
I1
a(lp3143
F0.512195
aaI41
aaa(lp3144
S'scaffold2691_cov437'
p3145
aS'scaffold843_cov157'
p3146
a(lp3147
I1
a(lp3148
F0.307692
aaI13
aa(lp3149
I1
a(lp3150
F0.0
aaI16
aaa(lp3151
S'scaffold644_cov199'
p3152
aS'scaffold31451_cov239'
p3153
a(lp3154
I1
a(lp3155
F0.0
aaI29
aaa(lp3156
S'scaffold54_cov186'
p3157
aS'scaffold6744_cov389'
p3158
aa(lp3159
S'scaffold11228_cov232'
p3160
aS'scaffold14602_cov161'
p3161
a(lp3162
I1
a(lp3163
F0.225806
aaI31
aa(lp3164
I1
a(lp3165
F0.24
aaI25
aa(lp3166
I1
a(lp3167
F0.210526
aaI19
aa(lp3168
I1
a(lp3169
F0.315789
aaI19
aa(lp3170
I1
a(lp3171
F0.310345
aaI29
aa(lp3172
I1
a(lp3173
F0.230769
aaI13
aa(lp3174
I1
a(lp3175
F0.214286
aaI14
aa(lp3176
I1
a(lp3177
F0.26087
aaI23
aaa(lp3178
S'scaffold36852_cov305'
p3179
aS'scaffold4188_cov191'
p3180
aa(lp3181
S'scaffold663_cov256'
p3182
aS'scaffold29908_cov147'
p3183
aa(lp3184
S'scaffold12737_cov227'
p3185
aS'scaffold5303_cov242'
p3186
a(lp3187
I1
a(lp3188
F0.0
aaI22
aa(lp3189
I1
a(lp3190
F0.0
aaI8
aa(lp3191
I1
a(lp3192
F0.0
aaI10
aa(lp3193
I1
a(lp3194
F0.0
aaI12
aa(lp3195
I1
a(lp3196
F0.0
aaI10
aa(lp3197
I1
a(lp3198
F0.0
aaI4
aa(lp3199
I1
a(lp3200
F0.0
aaI11
aa(lp3201
I1
a(lp3202
F0.0
aaI12
aa(lp3203
I1
a(lp3204
F0.0
aaI14
aa(lp3205
I1
a(lp3206
F0.0
aaI22
aaa(lp3207
S'scaffold1561_cov271'
p3208
aS'scaffold1811_cov234'
p3209
a(lp3210
I1
a(lp3211
F0.208333
aaI24
aa(lp3212
I1
a(lp3213
F0.392857
aaI28
aa(lp3214
I1
a(lp3215
F0.333333
aaI24
aa(lp3216
I1
a(lp3217
F0.411765
aaI17
aa(lp3218
I1
a(lp3219
F0.3
aaI20
aa(lp3220
I1
a(lp3221
F0.64
aaI25
aa(lp3222
I1
a(lp3223
F0.222222
aaI36
aa(lp3224
I1
a(lp3225
F0.230769
aaI26
aa(lp3226
I1
a(lp3227
F0.236842
aaI38
aa(lp3228
I1
a(lp3229
F0.255814
aaI43
aa(lp3230
I1
a(lp3231
F0.242424
aaI33
aa(lp3232
I1
a(lp3233
F0.366667
aaI30
aa(lp3234
I1
a(lp3235
F0.242424
aaI33
aaa(lp3236
S'scaffold279_cov300'
p3237
aS'scaffold888_cov152'
p3238
a(lp3239
I1
a(lp3240
F0.222222
aaI27
aaa(lp3241
S'scaffold35026_cov310'
p3242
aS'scaffold288_cov182'
p3243
a(lp3244
I1
a(lp3245
F0.227273
aaI22
aa(lp3246
I1
a(lp3247
F0.32
aaI25
aa(lp3248
I1
a(lp3249
F0.321429
aaI28
aa(lp3250
I1
a(lp3251
F0.4
aaI30
aa(lp3252
I1
a(lp3253
F0.3
aaI30
aa(lp3254
I1
a(lp3255
F0.290323
aaI31
aa(lp3256
I1
a(lp3257
F0.28125
aaI32
aa(lp3258
I1
a(lp3259
F0.602151
aaI93
aa(lp3260
I1
a(lp3261
F0.352941
aaI17
aa(lp3262
I1
a(lp3263
F0.3125
aaI16
aa(lp3264
I1
a(lp3265
F0.235294
aaI17
aa(lp3266
I1
a(lp3267
F0.294118
aaI17
aaa(lp3268
S'scaffold47223_cov305'
p3269
aS'scaffold428_cov197'
p3270
aa(lp3271
S'scaffold3367_cov255'
p3272
aS'scaffold3227_cov180'
p3273
a(lp3274
I1
a(lp3275
F0.378378
aaI37
aa(lp3276
I1
a(lp3277
F0.238095
aaI21
aa(lp3278
I1
a(lp3279
F0.333333
aaI33
aaa(lp3280
S'scaffold1226_cov199'
p3281
aS'scaffold3246_cov212'
p3282
a(lp3283
I1
a(lp3284
F0.321429
aaI28
aa(lp3285
I1
a(lp3286
F0.392857
aaI28
aa(lp3287
I1
a(lp3288
F0.235294
aaI17
aa(lp3289
I1
a(lp3290
F0.266667
aaI30
aa(lp3291
I1
a(lp3292
F0.272727
aaI22
aa(lp3293
I1
a(lp3294
F0.296296
aaI27
aa(lp3295
I1
a(lp3296
F0.222222
aaI27
aaa(lp3297
S'scaffold17142_cov215'
p3298
aS'scaffold35222_cov195'
p3299
a(lp3300
I1
a(lp3301
F0.0
aaI6
aa(lp3302
I1
a(lp3303
F0.0
aaI9
aa(lp3304
I1
a(lp3305
F0.0
aaI7
aa(lp3306
I1
a(lp3307
F0.0
aaI7
aa(lp3308
I1
a(lp3309
F0.0
aaI6
aa(lp3310
I1
a(lp3311
F0.0
aaI9
aa(lp3312
I1
a(lp3313
F0.857143
aaI7
aa(lp3314
I1
a(lp3315
F0.0
aaI2
aa(lp3316
I1
a(lp3317
F0.0
aaI3
aa(lp3318
I1
a(lp3319
F0.0
aaI3
aa(lp3320
I1
a(lp3321
F0.0
aaI3
aa(lp3322
I1
a(lp3323
F0.0
aaI3
aa(lp3324
I1
a(lp3325
F0.0
aaI11
aaa(lp3326
S'scaffold35800_cov215'
p3327
aS'scaffold7468_cov213'
p3328
a(lp3329
I1
a(lp3330
F0.361111
aaI36
aa(lp3331
I1
a(lp3332
F0.351351
aaI37
aa(lp3333
I1
a(lp3334
F0.275862
aaI29
aa(lp3335
I1
a(lp3336
F0.318182
aaI22
aa(lp3337
I1
a(lp3338
F0.433333
aaI30
aa(lp3339
I1
a(lp3340
F0.238095
aaI42
aa(lp3341
I1
a(lp3342
F0.302326
aaI43
aa(lp3343
I1
a(lp3344
F0.317073
aaI41
aa(lp3345
I1
a(lp3346
F0.296296
aaI27
aa(lp3347
I1
a(lp3348
F0.222222
aaI27
aa(lp3349
I1
a(lp3350
F0.230769
aaI26
aa(lp3351
I1
a(lp3352
F0.296296
aaI27
aa(lp3353
I1
a(lp3354
F0.466667
aaI30
aa(lp3355
I1
a(lp3356
F0.40625
aaI32
aa(lp3357
I1
a(lp3358
F0.333333
aaI27
aa(lp3359
I1
a(lp3360
F0.310345
aaI29
aa(lp3361
I1
a(lp3362
F0.473684
aaI38
aa(lp3363
I1
a(lp3364
F0.5
aaI36
aa(lp3365
I1
a(lp3366
F0.416667
aaI36
aa(lp3367
I1
a(lp3368
F0.222222
aaI18
aaa(lp3369
S'scaffold50853_cov294'
p3370
aS'scaffold4382_cov182'
p3371
a(lp3372
I1
a(lp3373
F0.2
aaI25
aa(lp3374
I1
a(lp3375
F0.482759
aaI29
aa(lp3376
I1
a(lp3377
F0.515152
aaI33
aa(lp3378
I1
a(lp3379
F0.424242
aaI33
aa(lp3380
I1
a(lp3381
F0.34375
aaI32
aaa(lp3382
S'scaffold6035_cov288'
p3383
aS'scaffold8301_cov160'
p3384
aa(lp3385
S'scaffold51910_cov463'
p3386
aS'scaffold3158_cov165'
p3387
aa(lp3388
S'scaffold1343_cov240'
p3389
aS'scaffold219_cov217'
p3390
a(lp3391
I1
a(lp3392
F0.233333
aaI30
aa(lp3393
I1
a(lp3394
F0.233333
aaI30
aa(lp3395
I1
a(lp3396
F0.28
aaI25
aa(lp3397
I1
a(lp3398
F0.4
aaI30
aa(lp3399
I1
a(lp3400
F0.411765
aaI34
aa(lp3401
I1
a(lp3402
F0.444444
aaI36
aa(lp3403
I1
a(lp3404
F0.366667
aaI30
aa(lp3405
I1
a(lp3406
F0.5
aaI16
aa(lp3407
I2
a(lp3408
F0.25
aF0.25
aaI12
aa(lp3409
I1
a(lp3410
F0.277778
aaI36
aa(lp3411
I1
a(lp3412
F0.28125
aaI32
aa(lp3413
I1
a(lp3414
F0.294118
aaI34
aa(lp3415
I1
a(lp3416
F0.470588
aaI17
aa(lp3417
I1
a(lp3418
F0.45
aaI20
aa(lp3419
I1
a(lp3420
F0.214286
aaI28
aa(lp3421
I1
a(lp3422
F0.266667
aaI30
aa(lp3423
I1
a(lp3424
F0.4
aaI50
aa(lp3425
I1
a(lp3426
F0.242424
aaI33
aa(lp3427
I1
a(lp3428
F0.263158
aaI38
aa(lp3429
I1
a(lp3430
F0.25
aaI36
aa(lp3431
I1
a(lp3432
F0.508197
aaI61
aa(lp3433
I1
a(lp3434
F0.395349
aaI43
aa(lp3435
I1
a(lp3436
F0.889831
aaI236
aa(lp3437
I1
a(lp3438
F0.243243
aaI37
aaa(lp3439
S'scaffold12570_cov377'
p3440
aS'scaffold1045_cov153'
p3441
aa(lp3442
S'scaffold437_cov301'
p3443
aS'scaffold305_cov293'
p3444
a(lp3445
I1
a(lp3446
F0.318182
aaI22
aa(lp3447
I1
a(lp3448
F0.20765
aaI183
aa(lp3449
I1
a(lp3450
F0.5
aaI6
aa(lp3451
I1
a(lp3452
F0.5
aaI6
aaa(lp3453
S'scaffold902_cov223'
p3454
aS'scaffold6221_cov149'
p3455
a(lp3456
I1
a(lp3457
F0.238095
aaI21
aaa(lp3458
S'scaffold12881_cov242'
p3459
aS'scaffold36279_cov207'
p3460
a(lp3461
I1
a(lp3462
F0.352941
aaI34
aa(lp3463
I1
a(lp3464
F0.314286
aaI35
aa(lp3465
I1
a(lp3466
F0.363636
aaI33
aa(lp3467
I1
a(lp3468
F0.333333
aaI27
aa(lp3469
I1
a(lp3470
F0.209302
aaI43
aa(lp3471
I1
a(lp3472
F0.235294
aaI34
aa(lp3473
I1
a(lp3474
F0.222222
aaI36
aa(lp3475
I1
a(lp3476
F0.257143
aaI35
aa(lp3477
I1
a(lp3478
F0.378378
aaI37
aa(lp3479
I1
a(lp3480
F0.470588
aaI34
aa(lp3481
I1
a(lp3482
F0.486486
aaI37
aaa(lp3483
S'scaffold10585_cov239'
p3484
aS'scaffold14002_cov262'
p3485
a(lp3486
I1
a(lp3487
F0.404762
aaI42
aa(lp3488
I1
a(lp3489
F0.571429
aaI42
aa(lp3490
I1
a(lp3491
F0.548387
aaI31
aaa(lp3492
S'scaffold12136_cov215'
p3493
aS'scaffold5344_cov146'
p3494
a(lp3495
I1
a(lp3496
F0.714286
aaI21
aa(lp3497
I1
a(lp3498
F0.486486
aaI37
aa(lp3499
I1
a(lp3500
F0.444444
aaI45
aaa(lp3501
S'scaffold2323_cov224'
p3502
aS'scaffold11669_cov179'
p3503
a(lp3504
I1
a(lp3505
F0.25
aaI32
aaa(lp3506
S'scaffold7526_cov240'
p3507
aS'scaffold8195_cov213'
p3508
a(lp3509
I1
a(lp3510
F0.285714
aaI42
aa(lp3511
I1
a(lp3512
F0.3
aaI40
aa(lp3513
I1
a(lp3514
F0.238095
aaI21
aa(lp3515
I1
a(lp3516
F0.285714
aaI35
aa(lp3517
I1
a(lp3518
F0.314286
aaI35
aa(lp3519
I1
a(lp3520
F0.371429
aaI35
aa(lp3521
I1
a(lp3522
F0.6
aaI40
aaa(lp3523
S'scaffold5645_cov270'
p3524
aS'scaffold8590_cov218'
p3525
aa(lp3526
S'scaffold50320_cov305'
p3527
aS'scaffold1792_cov186'
p3528
a(lp3529
I1
a(lp3530
F0.28125
aaI32
aaa(lp3531
S'scaffold17512_cov158'
p3532
aS'scaffold10366_cov326'
p3533
aa(lp3534
S'scaffold6871_cov206'
p3535
aS'scaffold10121_cov202'
p3536
aa(lp3537
S'scaffold9918_cov286'
p3538
aS'scaffold3310_cov167'
p3539
a(lp3540
I1
a(lp3541
F0.0
aaI15
aa(lp3542
I1
a(lp3543
F0.378788
aaI66
aaa(lp3544
S'scaffold2942_cov228'
p3545
aS'scaffold18738_cov241'
p3546
a(lp3547
I1
a(lp3548
F0.227273
aaI22
aaa(lp3549
S'scaffold10654_cov169'
p3550
aS'scaffold5155_cov170'
p3551
a(lp3552
I1
a(lp3553
F0.347826
aaI23
aaa(lp3554
S'scaffold16272_cov418'
p3555
aS'scaffold343_cov157'
p3556
aa(lp3557
S'scaffold3956_cov265'
p3558
aS'scaffold4654_cov204'
p3559
a(lp3560
I1
a(lp3561
F0.394737
aaI38
aa(lp3562
I1
a(lp3563
F0.394737
aaI38
aa(lp3564
I1
a(lp3565
F0.333333
aaI30
aaasS'up'
p3566
(lp3567
(lp3568
g6
ag7
aa(lp3569
g13
ag14
a(lp3570
I1
a(lp3571
F0.510204
aaI49
aa(lp3572
I1
a(lp3573
F0.37037
aaI27
aa(lp3574
I1
a(lp3575
F0.37037
aaI27
aa(lp3576
I1
a(lp3577
F0.4
aaI25
aa(lp3578
I1
a(lp3579
F0.230769
aaI39
aa(lp3580
I1
a(lp3581
F0.208333
aaI24
aa(lp3582
I1
a(lp3583
F0.206897
aaI29
aa(lp3584
I1
a(lp3585
F0.325581
aaI43
aa(lp3586
I1
a(lp3587
F0.428571
aaI35
aa(lp3588
I1
a(lp3589
F0.361111
aaI36
aa(lp3590
I1
a(lp3591
F0.225806
aaI31
aa(lp3592
I1
a(lp3593
F0.225806
aaI31
aa(lp3594
I1
a(lp3595
F0.233333
aaI30
aa(lp3596
I1
a(lp3597
F0.212121
aaI33
aa(lp3598
I1
a(lp3599
F0.25641
aaI39
aa(lp3600
I1
a(lp3601
F0.5
aaI38
aa(lp3602
I1
a(lp3603
F0.307692
aaI26
aa(lp3604
I1
a(lp3605
F0.333333
aaI27
aa(lp3606
I1
a(lp3607
F0.208333
aaI24
aa(lp3608
I1
a(lp3609
F0.342857
aaI35
aa(lp3610
I1
a(lp3611
F0.2
aaI50
aa(lp3612
I1
a(lp3613
F0.272727
aaI33
aaa(lp3614
g18
ag19
a(lp3615
I1
a(lp3616
F0.212121
aaI33
aa(lp3617
I1
a(lp3618
F0.233333
aaI30
aa(lp3619
I1
a(lp3620
F0.233333
aaI30
aaa(lp3621
g23
ag24
a(lp3622
I1
a(lp3623
F0.462963
aaI54
aa(lp3624
I1
a(lp3625
F0.477273
aaI44
aaa(lp3626
g34
ag35
a(lp3627
I1
a(lp3628
F0.307692
aaI39
aa(lp3629
I1
a(lp3630
F0.425
aaI40
aaa(lp3631
g45
ag46
aa(lp3632
g48
ag49
a(lp3633
I1
a(lp3634
F0.307692
aaI26
aa(lp3635
I1
a(lp3636
F0.243243
aaI37
aa(lp3637
I1
a(lp3638
F0.384615
aaI26
aa(lp3639
I1
a(lp3640
F0.464286
aaI28
aa(lp3641
I1
a(lp3642
F0.526316
aaI38
aa(lp3643
I1
a(lp3644
F0.24
aaI25
aa(lp3645
I1
a(lp3646
F0.2
aaI25
aa(lp3647
I1
a(lp3648
F0.0
aaI19
aaa(lp3649
g71
ag72
aa(lp3650
g104
ag105
a(lp3651
I1
a(lp3652
F0.294118
aaI51
aa(lp3653
I1
a(lp3654
F0.536585
aaI41
aa(lp3655
I1
a(lp3656
F0.535714
aaI28
aa(lp3657
I1
a(lp3658
F0.25
aaI12
aa(lp3659
I1
a(lp3660
F0.2
aaI20
aa(lp3661
I1
a(lp3662
F0.2
aaI25
aa(lp3663
I1
a(lp3664
F0.25
aaI24
aa(lp3665
I1
a(lp3666
F0.344828
aaI29
aa(lp3667
I1
a(lp3668
F0.352941
aaI34
aa(lp3669
I1
a(lp3670
F0.410256
aaI39
aa(lp3671
I1
a(lp3672
F0.285714
aaI35
aa(lp3673
I1
a(lp3674
F0.513514
aaI37
aa(lp3675
I1
a(lp3676
F0.372093
aaI43
aaa(lp3677
g119
ag120
aa(lp3678
g122
ag123
aa(lp3679
g143
ag144
a(lp3680
I1
a(lp3681
F0.263158
aaI19
aa(lp3682
I1
a(lp3683
F0.351351
aaI37
aa(lp3684
I1
a(lp3685
F0.24
aaI25
aa(lp3686
I1
a(lp3687
F0.333333
aaI27
aa(lp3688
I1
a(lp3689
F0.0
aaI20
aa(lp3690
I1
a(lp3691
F0.52381
aaI21
aaa(lp3692
g150
ag151
aa(lp3693
g153
ag154
aa(lp3694
g164
ag165
a(lp3695
I1
a(lp3696
F0.235294
aaI34
aaa(lp3697
g167
ag168
a(lp3698
I1
a(lp3699
F0.25
aaI16
aa(lp3700
I1
a(lp3701
F0.2
aaI15
aa(lp3702
I1
a(lp3703
F0.32
aaI25
aa(lp3704
I1
a(lp3705
F0.318182
aaI22
aa(lp3706
I1
a(lp3707
F0.35
aaI20
aa(lp3708
I1
a(lp3709
F0.315789
aaI19
aa(lp3710
I1
a(lp3711
F0.0
aaI28
aa(lp3712
I1
a(lp3713
F0.3125
aaI32
aa(lp3714
I1
a(lp3715
F0.3125
aaI32
aa(lp3716
I1
a(lp3717
F0.3125
aaI32
aa(lp3718
I1
a(lp3719
F0.266667
aaI30
aa(lp3720
I1
a(lp3721
F0.357143
aaI28
aaa(lp3722
g170
ag171
a(lp3723
I1
a(lp3724
F0.25
aaI20
aa(lp3725
I1
a(lp3726
F0.0
aaI20
aa(lp3727
I1
a(lp3728
F0.28125
aaI32
aa(lp3729
I1
a(lp3730
F0.242424
aaI33
aa(lp3731
I1
a(lp3732
F0.323529
aaI34
aa(lp3733
I1
a(lp3734
F0.285714
aaI35
aa(lp3735
I1
a(lp3736
F0.294118
aaI34
aaa(lp3737
g173
ag174
a(lp3738
I1
a(lp3739
F0.384615
aaI26
aa(lp3740
I1
a(lp3741
F0.222222
aaI27
aa(lp3742
I1
a(lp3743
F0.333333
aaI27
aa(lp3744
I1
a(lp3745
F0.454545
aaI33
aaa(lp3746
g176
ag177
aa(lp3747
g179
ag180
a(lp3748
I1
a(lp3749
F0.272727
aaI44
aa(lp3750
I1
a(lp3751
F0.432432
aaI37
aa(lp3752
I1
a(lp3753
F0.444444
aaI36
aa(lp3754
I1
a(lp3755
F0.511111
aaI45
aaa(lp3756
g196
ag197
a(lp3757
I1
a(lp3758
F0.290323
aaI31
aa(lp3759
I1
a(lp3760
F0.576923
aaI26
aaa(lp3761
g199
ag200
a(lp3762
I1
a(lp3763
F0.5
aaI54
aaa(lp3764
g204
ag205
aa(lp3765
g207
ag208
a(lp3766
I1
a(lp3767
F0.479167
aaI48
aa(lp3768
I1
a(lp3769
F0.355556
aaI45
aa(lp3770
I1
a(lp3771
F0.363636
aaI44
aa(lp3772
I1
a(lp3773
F0.479167
aaI48
aa(lp3774
I1
a(lp3775
F0.5
aaI48
aa(lp3776
I1
a(lp3777
F0.533333
aaI60
aa(lp3778
I1
a(lp3779
F0.382353
aaI34
aa(lp3780
I1
a(lp3781
F0.457143
aaI35
aa(lp3782
I1
a(lp3783
F0.296296
aaI27
aa(lp3784
I1
a(lp3785
F0.28125
aaI32
aa(lp3786
I1
a(lp3787
F0.458333
aaI48
aa(lp3788
I1
a(lp3789
F0.266667
aaI30
aa(lp3790
I1
a(lp3791
F0.454545
aaI44
aa(lp3792
I1
a(lp3793
F0.568182
aaI44
aaa(lp3794
g210
ag211
aa(lp3795
g213
ag214
aa(lp3796
g216
ag217
a(lp3797
I1
a(lp3798
F0.227273
aaI44
aa(lp3799
I1
a(lp3800
F0.34375
aaI32
aa(lp3801
I1
a(lp3802
F0.37931
aaI29
aa(lp3803
I1
a(lp3804
F0.310345
aaI29
aa(lp3805
I1
a(lp3806
F0.296296
aaI27
aa(lp3807
I1
a(lp3808
F0.516667
aaI60
aa(lp3809
I1
a(lp3810
F0.47619
aaI42
aa(lp3811
I1
a(lp3812
F0.513514
aaI37
aa(lp3813
I1
a(lp3814
F0.641026
aaI39
aa(lp3815
I1
a(lp3816
F0.470588
aaI34
aa(lp3817
I1
a(lp3818
F0.333333
aaI30
aa(lp3819
I1
a(lp3820
F0.361111
aaI36
aa(lp3821
I1
a(lp3822
F0.378378
aaI37
aa(lp3823
I1
a(lp3824
F0.28
aaI25
aa(lp3825
I1
a(lp3826
F0.322581
aaI31
aaa(lp3827
g219
ag220
a(lp3828
I1
a(lp3829
F0.428571
aaI56
aa(lp3830
I1
a(lp3831
F0.309091
aaI55
aa(lp3832
I1
a(lp3833
F0.228571
aaI35
aa(lp3834
I1
a(lp3835
F0.210526
aaI38
aa(lp3836
I1
a(lp3837
F0.222222
aaI27
aa(lp3838
I1
a(lp3839
F0.264706
aaI34
aa(lp3840
I1
a(lp3841
F0.242424
aaI33
aa(lp3842
I1
a(lp3843
F0.217391
aaI23
aa(lp3844
I1
a(lp3845
F0.269231
aaI26
aa(lp3846
I1
a(lp3847
F0.269231
aaI26
aa(lp3848
I1
a(lp3849
F0.275862
aaI29
aa(lp3850
I1
a(lp3851
F0.2
aaI30
aa(lp3852
I1
a(lp3853
F0.272727
aaI33
aaa(lp3854
g232
ag233
aa(lp3855
g235
ag236
a(lp3856
I1
a(lp3857
F0.272727
aaI33
aa(lp3858
I1
a(lp3859
F0.30303
aaI33
aa(lp3860
I1
a(lp3861
F0.323529
aaI34
aa(lp3862
I1
a(lp3863
F0.368421
aaI38
aa(lp3864
I1
a(lp3865
F0.257143
aaI35
aa(lp3866
I1
a(lp3867
F0.575
aaI40
aa(lp3868
I1
a(lp3869
F0.533333
aaI30
aaa(lp3870
g252
ag253
aa(lp3871
g255
ag256
a(lp3872
I1
a(lp3873
F0.294118
aaI17
aa(lp3874
I1
a(lp3875
F0.545455
aaI44
aa(lp3876
I1
a(lp3877
F0.5
aaI42
aa(lp3878
I1
a(lp3879
F0.487805
aaI41
aa(lp3880
I1
a(lp3881
F0.416667
aaI36
aa(lp3882
I1
a(lp3883
F0.578947
aaI38
aa(lp3884
I1
a(lp3885
F0.367347
aaI49
aa(lp3886
I1
a(lp3887
F0.418605
aaI43
aa(lp3888
I1
a(lp3889
F0.518519
aaI27
aa(lp3890
I1
a(lp3891
F0.272727
aaI33
aa(lp3892
I1
a(lp3893
F0.28
aaI25
aa(lp3894
I1
a(lp3895
F0.230769
aaI26
aa(lp3896
I1
a(lp3897
F0.357143
aaI28
aa(lp3898
I1
a(lp3899
F0.2
aaI20
aa(lp3900
I1
a(lp3901
F0.210526
aaI19
aa(lp3902
I1
a(lp3903
F0.324324
aaI37
aa(lp3904
I1
a(lp3905
F0.28
aaI25
aa(lp3906
I1
a(lp3907
F0.28125
aaI32
aa(lp3908
I1
a(lp3909
F0.294118
aaI34
aa(lp3910
I1
a(lp3911
F0.34375
aaI32
aa(lp3912
I1
a(lp3913
F0.388889
aaI36
aa(lp3914
I1
a(lp3915
F0.405405
aaI37
aa(lp3916
I1
a(lp3917
F0.425532
aaI47
aa(lp3918
I1
a(lp3919
F0.363636
aaI33
aaa(lp3920
g302
ag303
aa(lp3921
g313
ag314
aa(lp3922
g316
ag317
a(lp3923
I1
a(lp3924
F0.341463
aaI41
aa(lp3925
I1
a(lp3926
F0.333333
aaI54
aaa(lp3927
g353
ag354
a(lp3928
I1
a(lp3929
F0.233333
aaI30
aa(lp3930
I1
a(lp3931
F0.333333
aaI27
aa(lp3932
I1
a(lp3933
F0.310345
aaI29
aa(lp3934
I1
a(lp3935
F0.290323
aaI31
aa(lp3936
I1
a(lp3937
F0.290323
aaI31
aa(lp3938
I1
a(lp3939
F0.258065
aaI31
aaa(lp3940
g356
ag357
a(lp3941
I1
a(lp3942
F0.0
aaI35
aa(lp3943
I1
a(lp3944
F0.217391
aaI23
aa(lp3945
I1
a(lp3946
F0.263158
aaI38
aa(lp3947
I1
a(lp3948
F0.348837
aaI43
aa(lp3949
I1
a(lp3950
F0.315789
aaI38
aa(lp3951
I1
a(lp3952
F0.384615
aaI39
aa(lp3953
I1
a(lp3954
F0.518519
aaI27
aa(lp3955
I1
a(lp3956
F0.290323
aaI31
aa(lp3957
I1
a(lp3958
F0.34375
aaI32
aa(lp3959
I1
a(lp3960
F0.2
aaI25
aa(lp3961
I1
a(lp3962
F0.531915
aaI47
aa(lp3963
I1
a(lp3964
F0.4375
aaI48
aa(lp3965
I1
a(lp3966
F0.536585
aaI41
aa(lp3967
I1
a(lp3968
F0.54
aaI50
aa(lp3969
I1
a(lp3970
F0.488889
aaI45
aa(lp3971
I1
a(lp3972
F0.522727
aaI44
aa(lp3973
I1
a(lp3974
F0.37931
aaI29
aaa(lp3975
g379
ag380
aa(lp3976
g410
ag411
a(lp3977
I1
a(lp3978
F0.230769
aaI26
aa(lp3979
I1
a(lp3980
F0.382353
aaI34
aa(lp3981
I1
a(lp3982
F0.371429
aaI35
aa(lp3983
I1
a(lp3984
F0.3125
aaI32
aa(lp3985
I1
a(lp3986
F0.323529
aaI34
aa(lp3987
I1
a(lp3988
F0.3
aaI40
aa(lp3989
I1
a(lp3990
F0.285714
aaI35
aa(lp3991
I1
a(lp3992
F0.375
aaI32
aa(lp3993
I1
a(lp3994
F0.363636
aaI33
aa(lp3995
I1
a(lp3996
F0.454545
aaI55
aaa(lp3997
g477
ag478
a(lp3998
I1
a(lp3999
F0.296296
aaI27
aa(lp4000
I1
a(lp4001
F0.380952
aaI42
aa(lp4002
I1
a(lp4003
F0.5
aaI34
aaa(lp4004
g480
ag481
a(lp4005
I1
a(lp4006
F0.387097
aaI31
aaa(lp4007
g495
ag496
aa(lp4008
g502
ag503
aa(lp4009
g505
ag506
a(lp4010
I1
a(lp4011
F0.527778
aaI36
aa(lp4012
I1
a(lp4013
F0.478261
aaI46
aa(lp4014
I1
a(lp4015
F0.527778
aaI36
aaa(lp4016
g514
ag515
aa(lp4017
g517
ag518
aa(lp4018
g522
ag523
aa(lp4019
g525
ag526
aa(lp4020
g540
ag541
aa(lp4021
g543
ag544
a(lp4022
I1
a(lp4023
F0.442308
aaI52
aaa(lp4024
g554
ag555
a(lp4025
I1
a(lp4026
F0.448276
aaI29
aa(lp4027
I1
a(lp4028
F0.463415
aaI41
aa(lp4029
I1
a(lp4030
F0.30303
aaI33
aa(lp4031
I1
a(lp4032
F0.214286
aaI28
aa(lp4033
I1
a(lp4034
F0.378378
aaI37
aa(lp4035
I1
a(lp4036
F0.6
aaI45
aa(lp4037
I1
a(lp4038
F0.444444
aaI36
aa(lp4039
I1
a(lp4040
F0.604167
aaI48
aaa(lp4041
g563
ag564
aa(lp4042
g570
ag571
aa(lp4043
g573
ag574
a(lp4044
I1
a(lp4045
F0.390244
aaI41
aa(lp4046
I1
a(lp4047
F0.384615
aaI39
aa(lp4048
I1
a(lp4049
F0.542857
aaI35
aa(lp4050
I1
a(lp4051
F0.485714
aaI35
aa(lp4052
I1
a(lp4053
F0.557692
aaI52
aa(lp4054
I1
a(lp4055
F0.235294
aaI34
aa(lp4056
I1
a(lp4057
F0.333333
aaI33
aa(lp4058
I1
a(lp4059
F0.2
aaI25
aa(lp4060
I1
a(lp4061
F0.396226
aaI53
aa(lp4062
I1
a(lp4063
F0.47541
aaI61
aa(lp4064
I1
a(lp4065
F0.454545
aaI55
aaa(lp4066
g582
ag583
aa(lp4067
g585
ag586
aa(lp4068
g596
ag597
a(lp4069
I1
a(lp4070
F0.536585
aaI41
aa(lp4071
I1
a(lp4072
F0.380952
aaI21
aa(lp4073
I1
a(lp4074
F0.342105
aaI38
aa(lp4075
I1
a(lp4076
F0.342105
aaI38
aa(lp4077
I1
a(lp4078
F0.342105
aaI38
aa(lp4079
I1
a(lp4080
F0.371429
aaI35
aa(lp4081
I1
a(lp4082
F0.382353
aaI34
aa(lp4083
I1
a(lp4084
F0.366667
aaI30
aa(lp4085
I1
a(lp4086
F0.366667
aaI30
aa(lp4087
I1
a(lp4088
F0.475
aaI40
aa(lp4089
I1
a(lp4090
F0.347826
aaI46
aa(lp4091
I1
a(lp4092
F0.423077
aaI26
aa(lp4093
I1
a(lp4094
F0.36
aaI25
aa(lp4095
I1
a(lp4096
F0.36
aaI50
aa(lp4097
I1
a(lp4098
F0.48
aaI50
aa(lp4099
I1
a(lp4100
F0.25
aaI20
aa(lp4101
I1
a(lp4102
F0.208955
aaI67
aa(lp4103
I1
a(lp4104
F0.473684
aaI19
aaa(lp4105
g607
ag608
a(lp4106
I1
a(lp4107
F0.547619
aaI42
aa(lp4108
I1
a(lp4109
F0.348837
aaI43
aa(lp4110
I1
a(lp4111
F0.425
aaI40
aa(lp4112
I1
a(lp4113
F0.410256
aaI39
aa(lp4114
I1
a(lp4115
F0.333333
aaI24
aa(lp4116
I1
a(lp4117
F0.526316
aaI38
aaa(lp4118
g636
ag637
a(lp4119
I1
a(lp4120
F0.4
aaI45
aa(lp4121
I1
a(lp4122
F0.354839
aaI31
aa(lp4123
I1
a(lp4124
F0.222222
aaI27
aa(lp4125
I1
a(lp4126
F0.333333
aaI36
aa(lp4127
I1
a(lp4128
F0.3125
aaI32
aa(lp4129
I1
a(lp4130
F0.325
aaI40
aa(lp4131
I1
a(lp4132
F0.483871
aaI31
aa(lp4133
I1
a(lp4134
F0.642857
aaI42
aa(lp4135
I1
a(lp4136
F0.378378
aaI37
aa(lp4137
I1
a(lp4138
F0.324324
aaI37
aa(lp4139
I1
a(lp4140
F0.525
aaI40
aa(lp4141
I1
a(lp4142
F0.484848
aaI33
aa(lp4143
I1
a(lp4144
F0.25
aaI28
aa(lp4145
I1
a(lp4146
F0.371429
aaI35
aa(lp4147
I1
a(lp4148
F0.34375
aaI32
aa(lp4149
I1
a(lp4150
F0.28
aaI25
aa(lp4151
I1
a(lp4152
F0.304348
aaI23
aa(lp4153
I1
a(lp4154
F0.269231
aaI26
aa(lp4155
I1
a(lp4156
F0.24
aaI25
aa(lp4157
I1
a(lp4158
F0.484848
aaI33
aa(lp4159
I1
a(lp4160
F0.526316
aaI38
aa(lp4161
I1
a(lp4162
F0.272727
aaI22
aaa(lp4163
g639
ag640
aa(lp4164
g642
ag643
aa(lp4165
g653
ag654
a(lp4166
I1
a(lp4167
F0.241379
aaI29
aa(lp4168
I1
a(lp4169
F0.222222
aaI27
aa(lp4170
I1
a(lp4171
F0.269231
aaI26
aaa(lp4172
g684
ag685
a(lp4173
I1
a(lp4174
F0.679012
aaI81
aa(lp4175
I1
a(lp4176
F0.390244
aaI41
aa(lp4177
I1
a(lp4178
F0.380952
aaI42
aa(lp4179
I1
a(lp4180
F0.392857
aaI28
aa(lp4181
I1
a(lp4182
F0.210526
aaI38
aa(lp4183
I1
a(lp4184
F0.222222
aaI36
aaa(lp4185
g705
ag706
aa(lp4186
g712
ag713
aa(lp4187
g715
ag716
a(lp4188
I1
a(lp4189
F0.484848
aaI33
aa(lp4190
I1
a(lp4191
F0.305556
aaI36
aaa(lp4192
g718
ag719
aa(lp4193
g737
ag738
a(lp4194
I1
a(lp4195
F0.283333
aaI60
aaa(lp4196
g740
ag741
aa(lp4197
g749
ag750
aa(lp4198
g752
ag753
aa(lp4199
g757
ag758
a(lp4200
I1
a(lp4201
F0.208333
aaI24
aa(lp4202
I1
a(lp4203
F0.2
aaI25
aa(lp4204
I1
a(lp4205
F0.307692
aaI26
aa(lp4206
I1
a(lp4207
F0.377778
aaI45
aa(lp4208
I1
a(lp4209
F0.428571
aaI49
aa(lp4210
I1
a(lp4211
F0.4375
aaI48
aa(lp4212
I1
a(lp4213
F0.444444
aaI45
aa(lp4214
I1
a(lp4215
F0.365854
aaI41
aaa(lp4216
g778
ag779
a(lp4217
I1
a(lp4218
F0.382979
aaI47
aa(lp4219
I1
a(lp4220
F0.538462
aaI39
aa(lp4221
I1
a(lp4222
F0.511628
aaI43
aa(lp4223
I1
a(lp4224
F0.463415
aaI41
aa(lp4225
I1
a(lp4226
F0.466667
aaI45
aa(lp4227
I1
a(lp4228
F0.4375
aaI48
aa(lp4229
I1
a(lp4230
F0.5
aaI48
aa(lp4231
I1
a(lp4232
F0.264706
aaI34
aa(lp4233
I1
a(lp4234
F0.285714
aaI21
aa(lp4235
I1
a(lp4236
F0.277778
aaI36
aaa(lp4237
g781
ag782
a(lp4238
I1
a(lp4239
F0.428571
aaI35
aa(lp4240
I1
a(lp4241
F0.465116
aaI43
aa(lp4242
I1
a(lp4243
F0.419355
aaI31
aa(lp4244
I1
a(lp4245
F0.525
aaI40
aaa(lp4246
g784
ag785
aa(lp4247
g789
ag790
aa(lp4248
g792
ag793
aa(lp4249
g795
ag796
a(lp4250
I1
a(lp4251
F0.565217
aaI46
aa(lp4252
I1
a(lp4253
F0.5625
aaI48
aa(lp4254
I1
a(lp4255
F0.513514
aaI37
aa(lp4256
I1
a(lp4257
F0.487805
aaI41
aa(lp4258
I1
a(lp4259
F0.468085
aaI47
aa(lp4260
I1
a(lp4261
F0.452381
aaI42
aa(lp4262
I1
a(lp4263
F0.302326
aaI43
aaa(lp4264
g804
ag805
aa(lp4265
g807
ag808
aa(lp4266
g810
ag811
a(lp4267
I1
a(lp4268
F0.513514
aaI37
aa(lp4269
I1
a(lp4270
F0.465116
aaI43
aa(lp4271
I1
a(lp4272
F0.514286
aaI35
aaa(lp4273
g813
ag814
aa(lp4274
g816
ag817
a(lp4275
I1
a(lp4276
F0.28
aaI25
aa(lp4277
I1
a(lp4278
F0.4375
aaI32
aaa(lp4279
g819
ag820
aa(lp4280
g822
ag823
a(lp4281
I1
a(lp4282
F0.4
aaI50
aa(lp4283
I1
a(lp4284
F0.490196
aaI51
aa(lp4285
I1
a(lp4286
F0.272727
aaI33
aa(lp4287
I1
a(lp4288
F0.243243
aaI37
aa(lp4289
I1
a(lp4290
F0.346154
aaI52
aa(lp4291
I1
a(lp4292
F0.391304
aaI46
aa(lp4293
I1
a(lp4294
F0.466667
aaI30
aaa(lp4295
g853
ag854
a(lp4296
I1
a(lp4297
F0.393939
aaI33
aa(lp4298
I1
a(lp4299
F0.230769
aaI26
aa(lp4300
I1
a(lp4301
F0.4
aaI45
aaa(lp4302
g856
ag857
a(lp4303
I1
a(lp4304
F0.580645
aaI31
aa(lp4305
I1
a(lp4306
F0.5
aaI30
aa(lp4307
I1
a(lp4308
F0.551724
aaI29
aa(lp4309
I1
a(lp4310
F0.266667
aaI30
aa(lp4311
I1
a(lp4312
F0.32
aaI25
aa(lp4313
I1
a(lp4314
F0.290323
aaI31
aa(lp4315
I1
a(lp4316
F0.434783
aaI23
aa(lp4317
I1
a(lp4318
F0.285714
aaI14
aa(lp4319
I1
a(lp4320
F0.333333
aaI27
aa(lp4321
I1
a(lp4322
F0.5
aaI34
aa(lp4323
I1
a(lp4324
F0.333333
aaI21
aa(lp4325
I1
a(lp4326
F0.3125
aaI32
aa(lp4327
I1
a(lp4328
F0.2
aaI25
aa(lp4329
I1
a(lp4330
F0.344828
aaI29
aa(lp4331
I1
a(lp4332
F0.375
aaI24
aa(lp4333
I1
a(lp4334
F0.2
aaI25
aa(lp4335
I1
a(lp4336
F0.392857
aaI28
aa(lp4337
I1
a(lp4338
F0.282051
aaI39
aa(lp4339
I1
a(lp4340
F0.315789
aaI38
aa(lp4341
I1
a(lp4342
F0.520833
aaI48
aa(lp4343
I1
a(lp4344
F0.241379
aaI29
aa(lp4345
I1
a(lp4346
F0.307692
aaI26
aa(lp4347
I1
a(lp4348
F0.32
aaI25
aa(lp4349
I1
a(lp4350
F0.24
aaI25
aa(lp4351
I1
a(lp4352
F0.0
aaI25
aa(lp4353
I1
a(lp4354
F0.241379
aaI29
aa(lp4355
I1
a(lp4356
F0.264706
aaI34
aa(lp4357
I1
a(lp4358
F0.419355
aaI31
aa(lp4359
I1
a(lp4360
F0.444444
aaI27
aa(lp4361
I1
a(lp4362
F0.5
aaI30
aa(lp4363
I1
a(lp4364
F0.347826
aaI23
aa(lp4365
I1
a(lp4366
F0.347826
aaI23
aa(lp4367
I1
a(lp4368
F0.210526
aaI19
aa(lp4369
I1
a(lp4370
F0.2
aaI25
aa(lp4371
I1
a(lp4372
F0.24
aaI25
aa(lp4373
I1
a(lp4374
F0.269231
aaI26
aaa(lp4375
g883
ag884
a(lp4376
I1
a(lp4377
F0.264706
aaI34
aa(lp4378
I1
a(lp4379
F0.466667
aaI30
aa(lp4380
I1
a(lp4381
F0.529412
aaI51
aa(lp4382
I1
a(lp4383
F0.543478
aaI46
aa(lp4384
I1
a(lp4385
F0.5
aaI38
aa(lp4386
I1
a(lp4387
F0.288889
aaI45
aa(lp4388
I1
a(lp4389
F0.351351
aaI37
aa(lp4390
I1
a(lp4391
F0.446809
aaI47
aa(lp4392
I1
a(lp4393
F0.285714
aaI28
aa(lp4394
I1
a(lp4395
F0.291667
aaI24
aa(lp4396
I1
a(lp4397
F0.53125
aaI32
aaa(lp4398
g894
ag895
a(lp4399
I1
a(lp4400
F0.25
aaI28
aa(lp4401
I1
a(lp4402
F0.233333
aaI30
aa(lp4403
I1
a(lp4404
F0.206897
aaI29
aa(lp4405
I1
a(lp4406
F0.222222
aaI27
aa(lp4407
I1
a(lp4408
F0.208333
aaI24
aa(lp4409
I1
a(lp4410
F0.208333
aaI24
aa(lp4411
I1
a(lp4412
F0.222222
aaI18
aa(lp4413
I1
a(lp4414
F0.222222
aaI18
aa(lp4415
I1
a(lp4416
F0.222222
aaI18
aaa(lp4417
g897
ag898
a(lp4418
I1
a(lp4419
F0.245614
aaI57
aa(lp4420
I1
a(lp4421
F0.567568
aaI37
aa(lp4422
I1
a(lp4423
F0.241379
aaI29
aa(lp4424
I1
a(lp4425
F0.294118
aaI17
aaa(lp4426
g938
ag939
aa(lp4427
g941
ag942
a(lp4428
I1
a(lp4429
F0.461538
aaI39
aa(lp4430
I1
a(lp4431
F0.363636
aaI44
aa(lp4432
I1
a(lp4433
F0.348837
aaI43
aa(lp4434
I1
a(lp4435
F0.571429
aaI70
aa(lp4436
I1
a(lp4437
F0.257143
aaI35
aa(lp4438
I1
a(lp4439
F0.363636
aaI44
aa(lp4440
I1
a(lp4441
F0.216216
aaI37
aaa(lp4442
g944
ag945
aa(lp4443
g947
ag948
a(lp4444
I1
a(lp4445
F0.30303
aaI33
aa(lp4446
I1
a(lp4447
F0.214286
aaI42
aaa(lp4448
g960
ag961
a(lp4449
I1
a(lp4450
F0.333333
aaI45
aa(lp4451
I1
a(lp4452
F0.428571
aaI42
aa(lp4453
I1
a(lp4454
F0.529412
aaI17
aa(lp4455
I1
a(lp4456
F0.464286
aaI28
aa(lp4457
I1
a(lp4458
F0.75
aaI116
aa(lp4459
I1
a(lp4460
F0.375
aaI48
aa(lp4461
I1
a(lp4462
F0.354167
aaI48
aa(lp4463
I1
a(lp4464
F0.4
aaI55
aa(lp4465
I1
a(lp4466
F0.410256
aaI39
aa(lp4467
I1
a(lp4468
F0.444444
aaI36
aaa(lp4469
g1005
ag1006
a(lp4470
I1
a(lp4471
F0.52381
aaI42
aa(lp4472
I1
a(lp4473
F0.489796
aaI49
aaa(lp4474
g1008
ag1009
aa(lp4475
g1011
ag1012
a(lp4476
I1
a(lp4477
F0.388235
aaI85
aa(lp4478
I1
a(lp4479
F0.4
aaI80
aa(lp4480
I1
a(lp4481
F0.241935
aaI62
aa(lp4482
I1
a(lp4483
F0.567568
aaI37
aa(lp4484
I1
a(lp4485
F0.342857
aaI35
aa(lp4486
I1
a(lp4487
F0.264706
aaI34
aa(lp4488
I1
a(lp4489
F0.210526
aaI19
aa(lp4490
I1
a(lp4491
F0.222222
aaI18
aa(lp4492
I1
a(lp4493
F0.3125
aaI32
aa(lp4494
I1
a(lp4495
F0.214286
aaI28
aa(lp4496
I1
a(lp4497
F0.2
aaI30
aa(lp4498
I1
a(lp4499
F0.225806
aaI31
aa(lp4500
I1
a(lp4501
F0.2
aaI15
aaa(lp4502
g1016
ag1017
a(lp4503
I1
a(lp4504
F0.435897
aaI39
aa(lp4505
I1
a(lp4506
F0.37931
aaI29
aa(lp4507
I1
a(lp4508
F0.333333
aaI24
aa(lp4509
I1
a(lp4510
F0.285714
aaI21
aa(lp4511
I1
a(lp4512
F0.25
aaI20
aa(lp4513
I1
a(lp4514
F0.459459
aaI37
aa(lp4515
I1
a(lp4516
F0.272727
aaI33
aa(lp4517
I1
a(lp4518
F0.575
aaI40
aa(lp4519
I1
a(lp4520
F0.2
aaI15
aa(lp4521
I1
a(lp4522
F0.384615
aaI26
aa(lp4523
I1
a(lp4524
F0.323529
aaI34
aaa(lp4525
g1021
ag1022
aa(lp4526
g1028
ag1029
aa(lp4527
g1039
ag1040
aa(lp4528
g1046
ag1047
aa(lp4529
g1049
ag1050
a(lp4530
I1
a(lp4531
F0.35
aaI20
aa(lp4532
I1
a(lp4533
F0.472222
aaI36
aa(lp4534
I1
a(lp4535
F0.545455
aaI33
aa(lp4536
I1
a(lp4537
F0.322581
aaI31
aaa(lp4538
g1054
ag1055
a(lp4539
I1
a(lp4540
F0.551724
aaI29
aa(lp4541
I1
a(lp4542
F0.275862
aaI29
aaa(lp4543
g1057
ag1058
a(lp4544
I1
a(lp4545
F0.227273
aaI22
aa(lp4546
I1
a(lp4547
F0.357143
aaI28
aa(lp4548
I1
a(lp4549
F0.344828
aaI29
aaa(lp4550
g1074
ag1075
a(lp4551
I1
a(lp4552
F0.378378
aaI37
aa(lp4553
I1
a(lp4554
F0.37037
aaI27
aa(lp4555
I1
a(lp4556
F0.410959
aaI73
aa(lp4557
I1
a(lp4558
F0.710145
aaI69
aaa(lp4559
g1079
ag1080
a(lp4560
I1
a(lp4561
F0.361111
aaI36
aa(lp4562
I1
a(lp4563
F0.263158
aaI38
aa(lp4564
I1
a(lp4565
F0.458333
aaI24
aa(lp4566
I1
a(lp4567
F0.466667
aaI30
aaa(lp4568
g1118
ag1119
a(lp4569
I1
a(lp4570
F0.206897
aaI29
aa(lp4571
I1
a(lp4572
F0.206897
aaI29
aa(lp4573
I1
a(lp4574
F0.264706
aaI34
aaa(lp4575
g1121
ag1122
a(lp4576
I1
a(lp4577
F0.257143
aaI35
aa(lp4578
I1
a(lp4579
F0.6
aaI35
aaa(lp4580
g1136
ag1137
a(lp4581
I1
a(lp4582
F0.290323
aaI31
aa(lp4583
I1
a(lp4584
F0.3125
aaI32
aa(lp4585
I1
a(lp4586
F0.275862
aaI29
aa(lp4587
I1
a(lp4588
F0.275862
aaI29
aa(lp4589
I1
a(lp4590
F0.266667
aaI30
aa(lp4591
I1
a(lp4592
F0.21875
aaI32
aa(lp4593
I1
a(lp4594
F0.352941
aaI17
aa(lp4595
I1
a(lp4596
F0.352941
aaI17
aa(lp4597
I1
a(lp4598
F0.368421
aaI19
aa(lp4599
I1
a(lp4600
F0.382979
aaI47
aa(lp4601
I1
a(lp4602
F0.289474
aaI38
aa(lp4603
I1
a(lp4604
F0.269231
aaI26
aa(lp4605
I1
a(lp4606
F0.227273
aaI22
aaa(lp4607
g1139
ag1140
a(lp4608
I1
a(lp4609
F0.52381
aaI42
aa(lp4610
I1
a(lp4611
F0.671429
aaI140
aaa(lp4612
g1274
ag1275
aa(lp4613
g1277
ag1278
aa(lp4614
g1282
ag1283
aa(lp4615
g1285
ag1286
a(lp4616
I1
a(lp4617
F0.306122
aaI49
aaa(lp4618
g1302
ag1303
aa(lp4619
g1307
ag1308
aa(lp4620
g1310
ag1311
a(lp4621
I1
a(lp4622
F0.272727
aaI33
aaa(lp4623
g1319
ag1320
aa(lp4624
g1338
ag1339
a(lp4625
I1
a(lp4626
F0.333333
aaI45
aaa(lp4627
g1341
ag1342
aa(lp4628
g1344
ag1345
a(lp4629
I1
a(lp4630
F0.254902
aaI51
aa(lp4631
I1
a(lp4632
F0.204082
aaI49
aa(lp4633
I1
a(lp4634
F0.213333
aaI75
aaa(lp4635
g1387
ag1388
a(lp4636
I1
a(lp4637
F0.4
aaI30
aa(lp4638
I1
a(lp4639
F0.457143
aaI35
aa(lp4640
I1
a(lp4641
F0.473684
aaI38
aa(lp4642
I1
a(lp4643
F0.357143
aaI28
aa(lp4644
I1
a(lp4645
F0.208333
aaI24
aa(lp4646
I2
a(lp4647
F0.206897
aF0.206897
aaI29
aa(lp4648
I1
a(lp4649
F0.382353
aaI34
aa(lp4650
I1
a(lp4651
F0.451613
aaI62
aa(lp4652
I1
a(lp4653
F0.206897
aaI29
aa(lp4654
I1
a(lp4655
F0.324324
aaI37
aa(lp4656
I1
a(lp4657
F0.269231
aaI26
aa(lp4658
I1
a(lp4659
F0.269231
aaI26
aa(lp4660
I1
a(lp4661
F0.296296
aaI27
aa(lp4662
I1
a(lp4663
F0.296296
aaI27
aa(lp4664
I1
a(lp4665
F0.275862
aaI29
aa(lp4666
I1
a(lp4667
F0.3125
aaI32
aa(lp4668
I1
a(lp4669
F0.277778
aaI36
aa(lp4670
I1
a(lp4671
F0.297297
aaI37
aaa(lp4672
g1390
ag1391
aa(lp4673
g1393
ag1394
a(lp4674
I1
a(lp4675
F0.238095
aaI21
aa(lp4676
I1
a(lp4677
F0.235294
aaI17
aa(lp4678
I1
a(lp4679
F0.238095
aaI21
aa(lp4680
I1
a(lp4681
F0.513514
aaI37
aa(lp4682
I1
a(lp4683
F0.333333
aaI30
aa(lp4684
I1
a(lp4685
F0.322581
aaI31
aaa(lp4686
g1398
ag1399
a(lp4687
I1
a(lp4688
F0.285714
aaI35
aa(lp4689
I1
a(lp4690
F0.285714
aaI35
aa(lp4691
I1
a(lp4692
F0.431818
aaI44
aaa(lp4693
g1401
ag1402
a(lp4694
I1
a(lp4695
F0.633803
aaI71
aaa(lp4696
g1404
ag1405
aa(lp4697
g1407
ag1408
aa(lp4698
g1410
ag1411
a(lp4699
I1
a(lp4700
F0.4
aaI50
aa(lp4701
I1
a(lp4702
F0.470588
aaI34
aa(lp4703
I1
a(lp4704
F0.465116
aaI43
aaa(lp4705
g1413
ag1414
a(lp4706
I1
a(lp4707
F0.525
aaI40
aa(lp4708
I1
a(lp4709
F0.558824
aaI34
aa(lp4710
I1
a(lp4711
F0.5
aaI30
aa(lp4712
I1
a(lp4713
F0.534884
aaI43
aa(lp4714
I1
a(lp4715
F0.558824
aaI34
aa(lp4716
I1
a(lp4717
F0.53125
aaI32
aa(lp4718
I1
a(lp4719
F0.241379
aaI29
aa(lp4720
I1
a(lp4721
F0.2
aaI30
aa(lp4722
I1
a(lp4723
F0.0
aaI30
aa(lp4724
I1
a(lp4725
F0.275862
aaI29
aa(lp4726
I1
a(lp4727
F0.296296
aaI27
aa(lp4728
I1
a(lp4729
F0.310345
aaI29
aa(lp4730
I1
a(lp4731
F0.28125
aaI32
aa(lp4732
I1
a(lp4733
F0.0
aaI25
aa(lp4734
I1
a(lp4735
F0.410256
aaI39
aa(lp4736
I1
a(lp4737
F0.230769
aaI26
aa(lp4738
I1
a(lp4739
F0.363636
aaI33
aa(lp4740
I1
a(lp4741
F0.232558
aaI43
aa(lp4742
I1
a(lp4743
F0.44186
aaI43
aa(lp4744
I1
a(lp4745
F0.5
aaI30
aa(lp4746
I1
a(lp4747
F0.3
aaI30
aa(lp4748
I1
a(lp4749
F0.289474
aaI38
aa(lp4750
I1
a(lp4751
F0.210526
aaI38
aa(lp4752
I1
a(lp4753
F0.302326
aaI43
aaa(lp4754
g1438
ag1439
aa(lp4755
g1441
ag1442
aa(lp4756
g1444
ag1445
aa(lp4757
g1449
ag1450
aa(lp4758
g1452
ag1453
a(lp4759
I1
a(lp4760
F0.6875
aaI32
aa(lp4761
I1
a(lp4762
F0.638889
aaI36
aa(lp4763
I1
a(lp4764
F0.259259
aaI27
aa(lp4765
I1
a(lp4766
F0.314286
aaI35
aaa(lp4767
g1455
ag1456
a(lp4768
I1
a(lp4769
F0.333333
aaI36
aa(lp4770
I1
a(lp4771
F0.530612
aaI49
aaa(lp4772
g1468
ag1469
aa(lp4773
g1483
ag1484
a(lp4774
I1
a(lp4775
F0.321429
aaI28
aa(lp4776
I1
a(lp4777
F0.342857
aaI35
aa(lp4778
I1
a(lp4779
F0.6
aaI55
aa(lp4780
I1
a(lp4781
F0.0
aaI33
aa(lp4782
I1
a(lp4783
F0.475
aaI40
aa(lp4784
I1
a(lp4785
F0.261905
aaI42
aaa(lp4786
g1486
ag1487
aa(lp4787
g1521
ag1522
aa(lp4788
g1524
ag1525
a(lp4789
I1
a(lp4790
F0.219512
aaI41
aa(lp4791
I1
a(lp4792
F0.368421
aaI38
aa(lp4793
I1
a(lp4794
F0.272727
aaI33
aa(lp4795
I1
a(lp4796
F0.333333
aaI36
aa(lp4797
I1
a(lp4798
F0.5
aaI44
aa(lp4799
I1
a(lp4800
F0.292683
aaI41
aa(lp4801
I1
a(lp4802
F0.342105
aaI38
aa(lp4803
I1
a(lp4804
F0.421053
aaI38
aa(lp4805
I1
a(lp4806
F0.285714
aaI28
aa(lp4807
I1
a(lp4808
F0.0
aaI9
aa(lp4809
I1
a(lp4810
F0.3
aaI20
aa(lp4811
I1
a(lp4812
F0.210526
aaI19
aa(lp4813
I1
a(lp4814
F0.380952
aaI21
aa(lp4815
I1
a(lp4816
F0.380952
aaI21
aa(lp4817
I1
a(lp4818
F0.230769
aaI26
aaa(lp4819
g1533
ag1534
aa(lp4820
g1536
ag1537
a(lp4821
I1
a(lp4822
F0.30303
aaI33
aa(lp4823
I1
a(lp4824
F0.368421
aaI38
aa(lp4825
I1
a(lp4826
F0.511628
aaI43
aa(lp4827
I1
a(lp4828
F0.47619
aaI42
aaa(lp4829
g1539
ag1540
aa(lp4830
g1560
ag1561
aa(lp4831
g1587
ag1588
aa(lp4832
g1590
ag1591
aa(lp4833
g1603
ag1604
a(lp4834
I1
a(lp4835
F0.34375
aaI32
aa(lp4836
I1
a(lp4837
F0.540541
aaI37
aa(lp4838
I1
a(lp4839
F0.628571
aaI35
aa(lp4840
I1
a(lp4841
F0.404255
aaI47
aa(lp4842
I1
a(lp4843
F0.357143
aaI56
aa(lp4844
I1
a(lp4845
F0.333333
aaI45
aa(lp4846
I1
a(lp4847
F0.454545
aaI33
aa(lp4848
I1
a(lp4849
F0.321429
aaI28
aa(lp4850
I1
a(lp4851
F0.459459
aaI37
aa(lp4852
I1
a(lp4853
F0.628571
aaI35
aa(lp4854
I1
a(lp4855
F0.464286
aaI28
aa(lp4856
I1
a(lp4857
F0.307692
aaI26
aa(lp4858
I1
a(lp4859
F0.241379
aaI29
aa(lp4860
I1
a(lp4861
F0.461538
aaI39
aaa(lp4862
g1608
ag1609
a(lp4863
I1
a(lp4864
F0.243243
aaI37
aa(lp4865
I1
a(lp4866
F0.228571
aaI35
aaa(lp4867
g1611
ag1612
aa(lp4868
g1614
ag1615
a(lp4869
I1
a(lp4870
F0.28
aaI25
aa(lp4871
I1
a(lp4872
F0.32
aaI25
aa(lp4873
I1
a(lp4874
F0.241379
aaI29
aa(lp4875
I1
a(lp4876
F0.225806
aaI31
aa(lp4877
I1
a(lp4878
F0.5
aaI34
aa(lp4879
I1
a(lp4880
F0.264706
aaI34
aa(lp4881
I1
a(lp4882
F0.296296
aaI27
aa(lp4883
I1
a(lp4884
F0.275862
aaI29
aa(lp4885
I1
a(lp4886
F0.346939
aaI49
aa(lp4887
I1
a(lp4888
F0.410256
aaI39
aa(lp4889
I1
a(lp4890
F0.423077
aaI26
aa(lp4891
I1
a(lp4892
F0.318182
aaI22
aa(lp4893
I1
a(lp4894
F0.578947
aaI38
aa(lp4895
I1
a(lp4896
F0.543478
aaI46
aa(lp4897
I1
a(lp4898
F0.363636
aaI33
aa(lp4899
I1
a(lp4900
F0.351351
aaI37
aaa(lp4901
g1641
ag1642
a(lp4902
I1
a(lp4903
F0.0
aaI4
aa(lp4904
I1
a(lp4905
F0.4375
aaI32
aa(lp4906
I1
a(lp4907
F0.482759
aaI29
aa(lp4908
I1
a(lp4909
F0.470588
aaI34
aa(lp4910
I1
a(lp4911
F0.615385
aaI26
aa(lp4912
I1
a(lp4913
F0.487179
aaI39
aa(lp4914
I1
a(lp4915
F0.351351
aaI37
aa(lp4916
I1
a(lp4917
F0.44
aaI25
aa(lp4918
I1
a(lp4919
F0.419355
aaI31
aa(lp4920
I1
a(lp4921
F0.447368
aaI38
aa(lp4922
I1
a(lp4923
F0.5
aaI54
aa(lp4924
I1
a(lp4925
F0.392857
aaI28
aa(lp4926
I1
a(lp4927
F0.419355
aaI31
aa(lp4928
I1
a(lp4929
F0.307692
aaI26
aa(lp4930
I1
a(lp4931
F0.388889
aaI36
aa(lp4932
I1
a(lp4933
F0.5
aaI34
aa(lp4934
I1
a(lp4935
F0.471698
aaI53
aa(lp4936
I1
a(lp4937
F0.545455
aaI33
aa(lp4938
I1
a(lp4939
F0.456522
aaI46
aa(lp4940
I1
a(lp4941
F0.518519
aaI54
aaa(lp4942
g1668
ag1669
aa(lp4943
g1671
ag1672
a(lp4944
I1
a(lp4945
F0.25
aaI28
aa(lp4946
I1
a(lp4947
F0.291667
aaI24
aa(lp4948
I1
a(lp4949
F0.448276
aaI29
aa(lp4950
I1
a(lp4951
F0.511628
aaI43
aa(lp4952
I1
a(lp4953
F0.365854
aaI41
aa(lp4954
I1
a(lp4955
F0.358974
aaI39
aa(lp4956
I1
a(lp4957
F0.407407
aaI27
aa(lp4958
I1
a(lp4959
F0.27907
aaI43
aa(lp4960
I1
a(lp4961
F0.217391
aaI23
aa(lp4962
I1
a(lp4963
F0.2
aaI25
aa(lp4964
I1
a(lp4965
F0.388889
aaI36
aa(lp4966
I1
a(lp4967
F0.243902
aaI41
aa(lp4968
I1
a(lp4969
F0.317073
aaI41
aa(lp4970
I1
a(lp4971
F0.3
aaI30
aa(lp4972
I1
a(lp4973
F0.25
aaI24
aaa(lp4974
g1680
ag1681
a(lp4975
I1
a(lp4976
F0.275862
aaI29
aa(lp4977
I1
a(lp4978
F0.0
aaI20
aa(lp4979
I1
a(lp4980
F0.432432
aaI37
aa(lp4981
I1
a(lp4982
F0.333333
aaI33
aa(lp4983
I1
a(lp4984
F0.52381
aaI42
aa(lp4985
I1
a(lp4986
F0.290323
aaI31
aa(lp4987
I1
a(lp4988
F0.439024
aaI41
aa(lp4989
I1
a(lp4990
F0.297297
aaI37
aa(lp4991
I1
a(lp4992
F0.25641
aaI39
aaa(lp4993
g1695
ag1696
a(lp4994
I1
a(lp4995
F0.571429
aaI49
aa(lp4996
I1
a(lp4997
F0.238806
aaI67
aa(lp4998
I1
a(lp4999
F0.358974
aaI39
aa(lp5000
I1
a(lp5001
F0.327273
aaI55
aa(lp5002
I1
a(lp5003
F0.236842
aaI38
aa(lp5004
I1
a(lp5005
F0.315789
aaI57
aa(lp5006
I1
a(lp5007
F0.290323
aaI62
aa(lp5008
I1
a(lp5009
F0.5
aaI54
aa(lp5010
I1
a(lp5011
F0.478261
aaI46
aaa(lp5012
g1718
ag1719
a(lp5013
I1
a(lp5014
F0.4375
aaI48
aa(lp5015
I1
a(lp5016
F0.464286
aaI28
aa(lp5017
I1
a(lp5018
F0.576923
aaI26
aa(lp5019
I1
a(lp5020
F0.545455
aaI33
aaa(lp5021
g1737
ag1738
a(lp5022
I1
a(lp5023
F0.404762
aaI42
aa(lp5024
I1
a(lp5025
F0.4
aaI40
aa(lp5026
I1
a(lp5027
F0.5
aaI36
aa(lp5028
I1
a(lp5029
F0.558824
aaI34
aa(lp5030
I1
a(lp5031
F0.21875
aaI32
aa(lp5032
I1
a(lp5033
F0.24
aaI25
aa(lp5034
I1
a(lp5035
F0.368421
aaI38
aa(lp5036
I1
a(lp5037
F0.473684
aaI38
aa(lp5038
I1
a(lp5039
F0.227273
aaI22
aa(lp5040
I1
a(lp5041
F0.25
aaI32
aa(lp5042
I1
a(lp5043
F0.325
aaI40
aa(lp5044
I1
a(lp5045
F0.421053
aaI38
aa(lp5046
I1
a(lp5047
F0.416667
aaI36
aa(lp5048
I1
a(lp5049
F0.515152
aaI33
aa(lp5050
I1
a(lp5051
F0.384615
aaI26
aa(lp5052
I1
a(lp5053
F0.214286
aaI28
aa(lp5054
I1
a(lp5055
F0.25
aaI24
aa(lp5056
I1
a(lp5057
F0.435897
aaI39
aa(lp5058
I1
a(lp5059
F0.289474
aaI38
aa(lp5060
I1
a(lp5061
F0.25
aaI28
aa(lp5062
I1
a(lp5063
F0.259259
aaI27
aa(lp5064
I1
a(lp5065
F0.28
aaI25
aa(lp5066
I1
a(lp5067
F0.28
aaI25
aa(lp5068
I1
a(lp5069
F0.26087
aaI23
aa(lp5070
I1
a(lp5071
F0.272727
aaI22
aa(lp5072
I1
a(lp5073
F0.333333
aaI24
aa(lp5074
I1
a(lp5075
F0.275862
aaI29
aa(lp5076
I1
a(lp5077
F0.285714
aaI28
aa(lp5078
I1
a(lp5079
F0.275862
aaI29
aa(lp5080
I1
a(lp5081
F0.266667
aaI30
aa(lp5082
I1
a(lp5083
F0.258065
aaI31
aa(lp5084
I1
a(lp5085
F0.555556
aaI36
aa(lp5086
I1
a(lp5087
F0.571429
aaI35
aa(lp5088
I1
a(lp5089
F0.534884
aaI43
aa(lp5090
I1
a(lp5091
F0.54
aaI50
aa(lp5092
I1
a(lp5093
F0.258065
aaI31
aa(lp5094
I1
a(lp5095
F0.419355
aaI31
aa(lp5096
I1
a(lp5097
F0.470588
aaI34
aa(lp5098
I1
a(lp5099
F0.393939
aaI33
aa(lp5100
I1
a(lp5101
F0.410256
aaI39
aa(lp5102
I1
a(lp5103
F0.217391
aaI23
aa(lp5104
I1
a(lp5105
F0.25
aaI24
aa(lp5106
I1
a(lp5107
F0.315789
aaI19
aa(lp5108
I1
a(lp5109
F0.322581
aaI31
aa(lp5110
I1
a(lp5111
F0.34375
aaI32
aa(lp5112
I1
a(lp5113
F0.3125
aaI32
aa(lp5114
I1
a(lp5115
F0.458333
aaI24
aa(lp5116
I1
a(lp5117
F0.3125
aaI32
aaa(lp5118
g1792
ag1793
aa(lp5119
g1833
ag1834
a(lp5120
I1
a(lp5121
F0.439024
aaI41
aa(lp5122
I1
a(lp5123
F0.333333
aaI24
aa(lp5124
I1
a(lp5125
F0.344828
aaI29
aa(lp5126
I1
a(lp5127
F0.448276
aaI29
aa(lp5128
I1
a(lp5129
F0.407407
aaI27
aa(lp5130
I1
a(lp5131
F0.517241
aaI29
aa(lp5132
I1
a(lp5133
F0.423077
aaI52
aaa(lp5134
g1836
ag1837
a(lp5135
I1
a(lp5136
F0.358974
aaI39
aa(lp5137
I1
a(lp5138
F0.528302
aaI53
aa(lp5139
I1
a(lp5140
F0.461538
aaI39
aa(lp5141
I1
a(lp5142
F0.411765
aaI34
aa(lp5143
I1
a(lp5144
F0.21875
aaI32
aa(lp5145
I1
a(lp5146
F0.257143
aaI35
aa(lp5147
I1
a(lp5148
F0.333333
aaI30
aa(lp5149
I1
a(lp5150
F0.333333
aaI33
aa(lp5151
I1
a(lp5152
F0.314286
aaI35
aa(lp5153
I1
a(lp5154
F0.30303
aaI33
aa(lp5155
I1
a(lp5156
F0.633333
aaI60
aa(lp5157
I1
a(lp5158
F0.275862
aaI29
aa(lp5159
I1
a(lp5160
F0.25
aaI32
aaa(lp5161
g1861
ag1862
a(lp5162
I1
a(lp5163
F0.535714
aaI28
aa(lp5164
I1
a(lp5165
F0.333333
aaI27
aa(lp5166
I1
a(lp5167
F0.375
aaI40
aa(lp5168
I1
a(lp5169
F0.291667
aaI24
aa(lp5170
I1
a(lp5171
F0.333333
aaI27
aa(lp5172
I1
a(lp5173
F0.333333
aaI39
aa(lp5174
I1
a(lp5175
F0.333333
aaI33
aa(lp5176
I1
a(lp5177
F0.323529
aaI34
aa(lp5178
I1
a(lp5179
F0.275862
aaI29
aa(lp5180
I1
a(lp5181
F0.28125
aaI32
aa(lp5182
I1
a(lp5183
F0.289474
aaI38
aa(lp5184
I1
a(lp5185
F0.444444
aaI27
aa(lp5186
I1
a(lp5187
F0.5
aaI28
aa(lp5188
I1
a(lp5189
F0.421053
aaI38
aaa(lp5190
g1892
ag1893
aa(lp5191
g1895
ag1896
aa(lp5192
g1898
ag1899
aa(lp5193
g1901
ag1902
a(lp5194
I1
a(lp5195
F0.225806
aaI31
aa(lp5196
I1
a(lp5197
F0.266667
aaI30
aa(lp5198
I1
a(lp5199
F0.375
aaI32
aa(lp5200
I1
a(lp5201
F0.405405
aaI37
aa(lp5202
I1
a(lp5203
F0.489362
aaI47
aa(lp5204
I1
a(lp5205
F0.520833
aaI48
aa(lp5206
I1
a(lp5207
F0.206897
aaI29
aa(lp5208
I1
a(lp5209
F0.2
aaI30
aa(lp5210
I1
a(lp5211
F0.536585
aaI41
aa(lp5212
I1
a(lp5213
F0.296296
aaI27
aa(lp5214
I1
a(lp5215
F0.393939
aaI33
aa(lp5216
I1
a(lp5217
F0.24
aaI25
aa(lp5218
I1
a(lp5219
F0.241379
aaI29
aaa(lp5220
g1946
ag1947
a(lp5221
I1
a(lp5222
F0.5
aaI40
aa(lp5223
I1
a(lp5224
F0.368421
aaI38
aa(lp5225
I1
a(lp5226
F0.386364
aaI44
aa(lp5227
I1
a(lp5228
F0.488372
aaI43
aa(lp5229
I1
a(lp5230
F0.6
aaI50
aa(lp5231
I1
a(lp5232
F0.235294
aaI17
aa(lp5233
I1
a(lp5234
F0.434783
aaI23
aa(lp5235
I1
a(lp5236
F0.206897
aaI29
aa(lp5237
I1
a(lp5238
F0.241379
aaI29
aa(lp5239
I1
a(lp5240
F0.4
aaI35
aa(lp5241
I1
a(lp5242
F0.514286
aaI35
aa(lp5243
I1
a(lp5244
F0.384615
aaI39
aaa(lp5245
g1949
ag1950
aa(lp5246
g1952
ag1953
aa(lp5247
g1979
ag1980
a(lp5248
I1
a(lp5249
F0.382979
aaI47
aa(lp5250
I1
a(lp5251
F0.238095
aaI21
aa(lp5252
I1
a(lp5253
F0.206897
aaI29
aa(lp5254
I1
a(lp5255
F0.30303
aaI33
aa(lp5256
I1
a(lp5257
F0.354839
aaI31
aa(lp5258
I1
a(lp5259
F0.264706
aaI34
aa(lp5260
I1
a(lp5261
F0.4
aaI35
aa(lp5262
I1
a(lp5263
F0.314286
aaI35
aa(lp5264
I1
a(lp5265
F0.348837
aaI43
aa(lp5266
I1
a(lp5267
F0.322581
aaI31
aa(lp5268
I1
a(lp5269
F0.358974
aaI39
aa(lp5270
I1
a(lp5271
F0.391304
aaI23
aa(lp5272
I1
a(lp5273
F0.447368
aaI38
aa(lp5274
I1
a(lp5275
F0.333333
aaI24
aa(lp5276
I1
a(lp5277
F0.444444
aaI27
aa(lp5278
I1
a(lp5279
F0.206897
aaI29
aa(lp5280
I1
a(lp5281
F0.206897
aaI29
aa(lp5282
I1
a(lp5283
F0.2
aaI30
aa(lp5284
I1
a(lp5285
F0.2
aaI30
aa(lp5286
I1
a(lp5287
F0.206897
aaI29
aa(lp5288
I1
a(lp5289
F0.372093
aaI43
aa(lp5290
I1
a(lp5291
F0.341463
aaI41
aa(lp5292
I1
a(lp5293
F0.38
aaI50
aa(lp5294
I1
a(lp5295
F0.357143
aaI28
aa(lp5296
I1
a(lp5297
F0.594595
aaI37
aa(lp5298
I1
a(lp5299
F0.375
aaI40
aa(lp5300
I1
a(lp5301
F0.285714
aaI35
aa(lp5302
I1
a(lp5303
F0.404762
aaI42
aaa(lp5304
g2012
ag2013
aa(lp5305
g2015
ag2016
a(lp5306
I1
a(lp5307
F0.415094
aaI53
aa(lp5308
I1
a(lp5309
F0.583333
aaI36
aa(lp5310
I1
a(lp5311
F0.583333
aaI36
aa(lp5312
I1
a(lp5313
F0.341463
aaI41
aa(lp5314
I1
a(lp5315
F0.642857
aaI28
aa(lp5316
I1
a(lp5317
F0.529412
aaI34
aa(lp5318
I1
a(lp5319
F0.5
aaI40
aa(lp5320
I1
a(lp5321
F0.424242
aaI33
aa(lp5322
I1
a(lp5323
F0.45
aaI20
aa(lp5324
I1
a(lp5325
F0.553191
aaI47
aa(lp5326
I1
a(lp5327
F0.447368
aaI38
aa(lp5328
I1
a(lp5329
F0.236842
aaI38
aa(lp5330
I1
a(lp5331
F0.342857
aaI35
aaa(lp5332
g2018
ag2019
aa(lp5333
g2021
ag2022
aa(lp5334
g2024
ag2025
a(lp5335
I1
a(lp5336
F0.228571
aaI35
aa(lp5337
I1
a(lp5338
F0.258065
aaI31
aa(lp5339
I1
a(lp5340
F0.285714
aaI35
aa(lp5341
I1
a(lp5342
F0.571429
aaI42
aa(lp5343
I1
a(lp5344
F0.666667
aaI51
aaa(lp5345
g2027
ag2028
aa(lp5346
g2030
ag2031
aa(lp5347
g2033
ag2034
a(lp5348
I1
a(lp5349
F0.205882
aaI34
aa(lp5350
I1
a(lp5351
F0.333333
aaI27
aaa(lp5352
g2036
ag2037
a(lp5353
I1
a(lp5354
F0.45098
aaI51
aaa(lp5355
g2043
ag2044
a(lp5356
I1
a(lp5357
F0.688889
aaI45
aa(lp5358
I1
a(lp5359
F0.480769
aaI52
aa(lp5360
I1
a(lp5361
F0.37931
aaI29
aa(lp5362
I1
a(lp5363
F0.488889
aaI45
aa(lp5364
I1
a(lp5365
F0.4
aaI40
aaa(lp5366
g2052
ag2053
a(lp5367
I1
a(lp5368
F0.454545
aaI33
aa(lp5369
I1
a(lp5370
F0.538462
aaI39
aa(lp5371
I1
a(lp5372
F0.297297
aaI37
aa(lp5373
I1
a(lp5374
F0.419355
aaI31
aa(lp5375
I1
a(lp5376
F0.333333
aaI30
aa(lp5377
I1
a(lp5378
F0.333333
aaI39
aa(lp5379
I1
a(lp5380
F0.4
aaI35
aa(lp5381
I1
a(lp5382
F0.558824
aaI34
aa(lp5383
I1
a(lp5384
F0.425926
aaI54
aa(lp5385
I1
a(lp5386
F0.283019
aaI53
aa(lp5387
I1
a(lp5388
F0.479167
aaI48
aa(lp5389
I1
a(lp5390
F0.480769
aaI52
aa(lp5391
I1
a(lp5392
F0.325
aaI40
aa(lp5393
I1
a(lp5394
F0.432432
aaI37
aa(lp5395
I1
a(lp5396
F0.425
aaI40
aa(lp5397
I1
a(lp5398
F0.390244
aaI41
aa(lp5399
I1
a(lp5400
F0.25
aaI28
aa(lp5401
I1
a(lp5402
F0.2
aaI30
aaa(lp5403
g2077
ag2078
a(lp5404
I1
a(lp5405
F0.478261
aaI46
aa(lp5406
I1
a(lp5407
F0.413793
aaI29
aa(lp5408
I1
a(lp5409
F0.285714
aaI28
aa(lp5410
I1
a(lp5411
F0.4
aaI25
aa(lp5412
I1
a(lp5413
F0.37037
aaI27
aa(lp5414
I1
a(lp5415
F0.384615
aaI26
aa(lp5416
I1
a(lp5417
F0.463415
aaI41
aa(lp5418
I1
a(lp5419
F0.416667
aaI36
aa(lp5420
I1
a(lp5421
F0.459459
aaI37
aa(lp5422
I1
a(lp5423
F0.394737
aaI38
aa(lp5424
I1
a(lp5425
F0.422222
aaI45
aa(lp5426
I1
a(lp5427
F0.354839
aaI31
aaa(lp5428
g2088
ag2089
aa(lp5429
g2097
ag2098
a(lp5430
I1
a(lp5431
F0.465116
aaI43
aa(lp5432
I1
a(lp5433
F0.519231
aaI52
aa(lp5434
I1
a(lp5435
F0.418182
aaI55
aa(lp5436
I1
a(lp5437
F0.333333
aaI60
aa(lp5438
I1
a(lp5439
F0.513514
aaI37
aa(lp5440
I1
a(lp5441
F0.475
aaI40
aa(lp5442
I1
a(lp5443
F0.306122
aaI49
aa(lp5444
I1
a(lp5445
F0.340909
aaI44
aa(lp5446
I1
a(lp5447
F0.461538
aaI52
aa(lp5448
I1
a(lp5449
F0.4375
aaI32
aa(lp5450
I1
a(lp5451
F0.681818
aaI44
aaa(lp5452
g2108
ag2109
a(lp5453
I1
a(lp5454
F0.24
aaI25
aa(lp5455
I1
a(lp5456
F0.285714
aaI28
aa(lp5457
I1
a(lp5458
F0.28125
aaI32
aa(lp5459
I1
a(lp5460
F0.333333
aaI33
aa(lp5461
I1
a(lp5462
F0.333333
aaI39
aa(lp5463
I1
a(lp5464
F0.257143
aaI35
aa(lp5465
I1
a(lp5466
F0.264706
aaI34
aa(lp5467
I1
a(lp5468
F0.4
aaI40
aaa(lp5469
g2157
ag2158
aa(lp5470
g2164
ag2165
aa(lp5471
g2175
ag2176
aa(lp5472
g2178
ag2179
aa(lp5473
g2181
ag2182
aa(lp5474
g2216
ag2217
aa(lp5475
g2219
ag2220
a(lp5476
I1
a(lp5477
F0.382353
aaI34
aa(lp5478
I1
a(lp5479
F0.357143
aaI28
aa(lp5480
I1
a(lp5481
F0.461538
aaI26
aa(lp5482
I1
a(lp5483
F0.307692
aaI26
aa(lp5484
I1
a(lp5485
F0.24
aaI25
aa(lp5486
I1
a(lp5487
F0.25
aaI20
aa(lp5488
I1
a(lp5489
F0.5
aaI24
aa(lp5490
I1
a(lp5491
F0.62963
aaI27
aa(lp5492
I1
a(lp5493
F0.411765
aaI34
aa(lp5494
I1
a(lp5495
F0.225806
aaI31
aa(lp5496
I1
a(lp5497
F0.428571
aaI49
aa(lp5498
I1
a(lp5499
F0.30303
aaI33
aa(lp5500
I1
a(lp5501
F0.222222
aaI27
aa(lp5502
I1
a(lp5503
F0.290323
aaI31
aa(lp5504
I1
a(lp5505
F0.2
aaI25
aa(lp5506
I1
a(lp5507
F0.227273
aaI22
aa(lp5508
I1
a(lp5509
F0.263158
aaI19
aa(lp5510
I1
a(lp5511
F0.481481
aaI27
aa(lp5512
I1
a(lp5513
F0.322581
aaI31
aa(lp5514
I1
a(lp5515
F0.310345
aaI29
aa(lp5516
I1
a(lp5517
F0.487179
aaI39
aaa(lp5518
g2244
ag2245
a(lp5519
I1
a(lp5520
F0.451613
aaI31
aa(lp5521
I1
a(lp5522
F0.466667
aaI30
aa(lp5523
I1
a(lp5524
F0.463415
aaI41
aa(lp5525
I1
a(lp5526
F0.285714
aaI14
aa(lp5527
I1
a(lp5528
F0.391304
aaI46
aa(lp5529
I1
a(lp5530
F0.32
aaI25
aa(lp5531
I1
a(lp5532
F0.444444
aaI36
aa(lp5533
I1
a(lp5534
F0.48
aaI25
aa(lp5535
I1
a(lp5536
F0.425532
aaI47
aa(lp5537
I1
a(lp5538
F0.317073
aaI41
aa(lp5539
I1
a(lp5540
F0.257143
aaI35
aa(lp5541
I1
a(lp5542
F0.243243
aaI37
aa(lp5543
I1
a(lp5544
F0.25
aaI32
aa(lp5545
I1
a(lp5546
F0.363636
aaI33
aa(lp5547
I1
a(lp5548
F0.578947
aaI38
aa(lp5549
I1
a(lp5550
F0.321429
aaI28
aa(lp5551
I1
a(lp5552
F0.321429
aaI28
aa(lp5553
I1
a(lp5554
F0.382353
aaI34
aa(lp5555
I1
a(lp5556
F0.416667
aaI36
aa(lp5557
I1
a(lp5558
F0.375
aaI24
aa(lp5559
I1
a(lp5560
F0.369565
aaI46
aa(lp5561
I1
a(lp5562
F0.416667
aaI48
aa(lp5563
I1
a(lp5564
F0.581395
aaI43
aa(lp5565
I1
a(lp5566
F0.357143
aaI42
aa(lp5567
I1
a(lp5568
F0.28125
aaI32
aa(lp5569
I1
a(lp5570
F0.268293
aaI41
aa(lp5571
I1
a(lp5572
F0.305556
aaI36
aa(lp5573
I1
a(lp5574
F0.405405
aaI37
aa(lp5575
I1
a(lp5576
F0.55814
aaI43
aaa(lp5577
g2291
ag2292
aa(lp5578
g2294
ag2295
aa(lp5579
g2329
ag2330
aa(lp5580
g2332
ag2333
a(lp5581
I1
a(lp5582
F0.314286
aaI35
aa(lp5583
I1
a(lp5584
F0.40625
aaI32
aaa(lp5585
g2337
ag2338
a(lp5586
I1
a(lp5587
F0.363636
aaI22
aa(lp5588
I1
a(lp5589
F0.391304
aaI23
aa(lp5590
I1
a(lp5591
F0.35
aaI20
aa(lp5592
I1
a(lp5593
F0.333333
aaI15
aa(lp5594
I1
a(lp5595
F0.294118
aaI17
aa(lp5596
I1
a(lp5597
F0.37037
aaI27
aaa(lp5598
g2340
ag2341
a(lp5599
I1
a(lp5600
F0.432432
aaI37
aa(lp5601
I1
a(lp5602
F0.422222
aaI45
aa(lp5603
I1
a(lp5604
F0.423077
aaI52
aa(lp5605
I1
a(lp5606
F0.454545
aaI44
aaa(lp5607
g2347
ag2348
a(lp5608
I1
a(lp5609
F0.404762
aaI42
aa(lp5610
I1
a(lp5611
F0.387097
aaI31
aa(lp5612
I1
a(lp5613
F0.391304
aaI23
aa(lp5614
I1
a(lp5615
F0.28125
aaI32
aa(lp5616
I1
a(lp5617
F0.419355
aaI31
aa(lp5618
I1
a(lp5619
F0.32
aaI25
aa(lp5620
I1
a(lp5621
F0.214286
aaI28
aa(lp5622
I1
a(lp5623
F0.428571
aaI28
aa(lp5624
I1
a(lp5625
F0.541667
aaI48
aa(lp5626
I1
a(lp5627
F0.424242
aaI33
aa(lp5628
I1
a(lp5629
F0.393939
aaI33
aa(lp5630
I1
a(lp5631
F0.384615
aaI52
aa(lp5632
I1
a(lp5633
F0.346939
aaI49
aa(lp5634
I1
a(lp5635
F0.27027
aaI37
aa(lp5636
I1
a(lp5637
F0.269231
aaI26
aa(lp5638
I1
a(lp5639
F0.333333
aaI39
aa(lp5640
I1
a(lp5641
F0.324324
aaI37
aa(lp5642
I1
a(lp5643
F0.344828
aaI29
aa(lp5644
I1
a(lp5645
F0.315789
aaI38
aa(lp5646
I1
a(lp5647
F0.222222
aaI45
aa(lp5648
I1
a(lp5649
F0.2
aaI25
aa(lp5650
I1
a(lp5651
F0.227273
aaI22
aa(lp5652
I1
a(lp5653
F0.28125
aaI32
aa(lp5654
I1
a(lp5655
F0.30303
aaI33
aa(lp5656
I1
a(lp5657
F0.344828
aaI29
aa(lp5658
I1
a(lp5659
F0.4
aaI30
aa(lp5660
I1
a(lp5661
F0.451613
aaI31
aa(lp5662
I1
a(lp5663
F0.230769
aaI26
aa(lp5664
I1
a(lp5665
F0.448276
aaI29
aa(lp5666
I1
a(lp5667
F0.5
aaI32
aa(lp5668
I1
a(lp5669
F0.511628
aaI43
aa(lp5670
I1
a(lp5671
F0.352941
aaI34
aa(lp5672
I1
a(lp5673
F0.333333
aaI30
aa(lp5674
I1
a(lp5675
F0.205882
aaI34
aa(lp5676
I1
a(lp5677
F0.5
aaI46
aa(lp5678
I1
a(lp5679
F0.2
aaI30
aa(lp5680
I1
a(lp5681
F0.238095
aaI21
aa(lp5682
I1
a(lp5683
F0.263158
aaI19
aaa(lp5684
g2368
ag2369
aa(lp5685
g2371
ag2372
a(lp5686
I1
a(lp5687
F0.324675
aaI77
aa(lp5688
I1
a(lp5689
F0.35
aaI60
aaa(lp5690
g2382
ag2383
a(lp5691
I1
a(lp5692
F0.0
aaI40
aa(lp5693
I1
a(lp5694
F0.306122
aaI49
aa(lp5695
I1
a(lp5696
F0.32
aaI50
aaa(lp5697
g2393
ag2394
aa(lp5698
g2424
ag2425
aa(lp5699
g2443
ag2444
a(lp5700
I1
a(lp5701
F0.435897
aaI39
aa(lp5702
I1
a(lp5703
F0.431818
aaI44
aa(lp5704
I1
a(lp5705
F0.217391
aaI23
aa(lp5706
I1
a(lp5707
F0.24
aaI25
aa(lp5708
I1
a(lp5709
F0.242424
aaI33
aaa(lp5710
g2484
ag2485
a(lp5711
I1
a(lp5712
F0.2
aaI45
aa(lp5713
I1
a(lp5714
F0.380952
aaI21
aa(lp5715
I1
a(lp5716
F0.2
aaI25
aa(lp5717
I1
a(lp5718
F0.222222
aaI36
aa(lp5719
I1
a(lp5720
F0.47619
aaI42
aa(lp5721
I1
a(lp5722
F0.305556
aaI36
aa(lp5723
I1
a(lp5724
F0.6
aaI40
aa(lp5725
I1
a(lp5726
F0.25
aaI28
aa(lp5727
I1
a(lp5728
F0.307692
aaI26
aa(lp5729
I1
a(lp5730
F0.315789
aaI19
aaa(lp5731
g2493
ag2494
aa(lp5732
g2496
ag2497
aa(lp5733
g2529
ag2530
aa(lp5734
g2532
ag2533
aa(lp5735
g2547
ag2548
a(lp5736
I1
a(lp5737
F0.205882
aaI34
aa(lp5738
I1
a(lp5739
F0.257143
aaI35
aa(lp5740
I1
a(lp5741
F0.21875
aaI32
aaa(lp5742
g2550
ag2551
a(lp5743
I1
a(lp5744
F0.25
aaI36
aa(lp5745
I1
a(lp5746
F0.263158
aaI38
aaa(lp5747
g2557
ag2558
aa(lp5748
g2560
ag2561
a(lp5749
I1
a(lp5750
F0.279412
aaI136
aa(lp5751
I1
a(lp5752
F0.261905
aaI42
aa(lp5753
I1
a(lp5754
F0.277778
aaI36
aa(lp5755
I1
a(lp5756
F0.388889
aaI36
aa(lp5757
I1
a(lp5758
F0.22973
aaI74
aaa(lp5759
g2565
ag2566
a(lp5760
I1
a(lp5761
F0.333333
aaI24
aa(lp5762
I1
a(lp5763
F0.291667
aaI24
aa(lp5764
I1
a(lp5765
F0.372093
aaI43
aa(lp5766
I1
a(lp5767
F0.26087
aaI23
aa(lp5768
I1
a(lp5769
F0.5
aaI28
aa(lp5770
I1
a(lp5771
F0.333333
aaI24
aa(lp5772
I1
a(lp5773
F0.28
aaI25
aa(lp5774
I1
a(lp5775
F0.291667
aaI24
aa(lp5776
I1
a(lp5777
F0.407407
aaI27
aa(lp5778
I1
a(lp5779
F0.409091
aaI22
aa(lp5780
I1
a(lp5781
F0.375
aaI24
aa(lp5782
I1
a(lp5783
F0.32
aaI25
aa(lp5784
I1
a(lp5785
F0.28
aaI25
aa(lp5786
I1
a(lp5787
F0.314286
aaI35
aa(lp5788
I1
a(lp5789
F0.488889
aaI45
aa(lp5790
I1
a(lp5791
F0.622222
aaI45
aa(lp5792
I1
a(lp5793
F0.387755
aaI49
aa(lp5794
I1
a(lp5795
F0.285714
aaI28
aa(lp5796
I1
a(lp5797
F0.395349
aaI43
aa(lp5798
I1
a(lp5799
F0.352941
aaI34
aa(lp5800
I1
a(lp5801
F0.365385
aaI52
aa(lp5802
I1
a(lp5803
F0.38
aaI50
aa(lp5804
I1
a(lp5805
F0.361702
aaI47
aa(lp5806
I1
a(lp5807
F0.322581
aaI31
aa(lp5808
I1
a(lp5809
F0.4
aaI35
aa(lp5810
I1
a(lp5811
F0.434783
aaI23
aa(lp5812
I1
a(lp5813
F0.409091
aaI22
aaa(lp5814
g2588
ag2589
a(lp5815
I1
a(lp5816
F0.0
aaI14
aa(lp5817
I1
a(lp5818
F0.0
aaI29
aa(lp5819
I1
a(lp5820
F0.0
aaI28
aa(lp5821
I1
a(lp5822
F0.0
aaI32
aa(lp5823
I1
a(lp5824
F0.0
aaI27
aa(lp5825
I1
a(lp5826
F0.0
aaI12
aa(lp5827
I1
a(lp5828
F0.0
aaI8
aa(lp5829
I1
a(lp5830
F0.0
aaI29
aa(lp5831
I1
a(lp5832
F0.0
aaI38
aa(lp5833
I1
a(lp5834
F0.0
aaI4
aa(lp5835
I1
a(lp5836
F0.0
aaI4
aaa(lp5837
g2591
ag2592
a(lp5838
I1
a(lp5839
F0.25
aaI36
aaa(lp5840
g2604
ag2605
a(lp5841
I1
a(lp5842
F0.344828
aaI29
aa(lp5843
I1
a(lp5844
F0.244444
aaI45
aa(lp5845
I1
a(lp5846
F0.222222
aaI27
aa(lp5847
I1
a(lp5848
F0.3
aaI30
aa(lp5849
I1
a(lp5850
F0.242424
aaI33
aa(lp5851
I1
a(lp5852
F0.212121
aaI33
aa(lp5853
I1
a(lp5854
F0.214286
aaI28
aaa(lp5855
g2611
ag2612
a(lp5856
I1
a(lp5857
F0.289474
aaI38
aa(lp5858
I1
a(lp5859
F0.233333
aaI30
aa(lp5860
I1
a(lp5861
F0.37931
aaI29
aa(lp5862
I1
a(lp5863
F0.4
aaI25
aa(lp5864
I1
a(lp5865
F0.304348
aaI23
aa(lp5866
I1
a(lp5867
F0.291667
aaI24
aa(lp5868
I1
a(lp5869
F0.28
aaI25
aa(lp5870
I1
a(lp5871
F0.25
aaI28
aa(lp5872
I1
a(lp5873
F0.241379
aaI29
aa(lp5874
I1
a(lp5875
F0.37931
aaI29
aa(lp5876
I1
a(lp5877
F0.390244
aaI41
aa(lp5878
I1
a(lp5879
F0.5
aaI42
aaa(lp5880
g2614
ag2615
a(lp5881
I1
a(lp5882
F0.384615
aaI39
aa(lp5883
I1
a(lp5884
F0.418605
aaI43
aa(lp5885
I1
a(lp5886
F0.425
aaI40
aa(lp5887
I1
a(lp5888
F0.214286
aaI28
aa(lp5889
I1
a(lp5890
F0.235294
aaI51
aa(lp5891
I1
a(lp5892
F0.226804
aaI97
aa(lp5893
I1
a(lp5894
F0.458333
aaI48
aaa(lp5895
g2623
ag2624
aa(lp5896
g2628
ag2629
aa(lp5897
g2631
ag2632
a(lp5898
I1
a(lp5899
F0.285714
aaI28
aaa(lp5900
g2640
ag2641
aa(lp5901
g2707
ag2708
a(lp5902
I1
a(lp5903
F0.34375
aaI32
aa(lp5904
I1
a(lp5905
F0.5
aaI24
aa(lp5906
I1
a(lp5907
F0.2
aaI20
aa(lp5908
I1
a(lp5909
F0.214286
aaI42
aa(lp5910
I1
a(lp5911
F0.435897
aaI39
aa(lp5912
I1
a(lp5913
F0.342105
aaI38
aa(lp5914
I1
a(lp5915
F0.27907
aaI43
aa(lp5916
I1
a(lp5917
F0.297297
aaI37
aa(lp5918
I1
a(lp5919
F0.275862
aaI29
aa(lp5920
I1
a(lp5921
F0.419355
aaI31
aa(lp5922
I1
a(lp5923
F0.448276
aaI29
aa(lp5924
I1
a(lp5925
F0.454545
aaI33
aa(lp5926
I1
a(lp5927
F0.432432
aaI37
aa(lp5928
I1
a(lp5929
F0.390244
aaI41
aa(lp5930
I1
a(lp5931
F0.384615
aaI39
aa(lp5932
I1
a(lp5933
F0.384615
aaI39
aa(lp5934
I1
a(lp5935
F0.418605
aaI43
aa(lp5936
I1
a(lp5937
F0.428571
aaI42
aa(lp5938
I1
a(lp5939
F0.361702
aaI47
aa(lp5940
I1
a(lp5941
F0.270833
aaI48
aa(lp5942
I1
a(lp5943
F0.271429
aaI70
aa(lp5944
I1
a(lp5945
F0.384615
aaI26
aa(lp5946
I1
a(lp5947
F0.363636
aaI33
aa(lp5948
I1
a(lp5949
F0.222222
aaI27
aa(lp5950
I1
a(lp5951
F0.289474
aaI38
aa(lp5952
I1
a(lp5953
F0.307692
aaI39
aa(lp5954
I1
a(lp5955
F0.263158
aaI38
aa(lp5956
I1
a(lp5957
F0.297297
aaI37
aa(lp5958
I1
a(lp5959
F0.297297
aaI37
aa(lp5960
I1
a(lp5961
F0.209302
aaI43
aa(lp5962
I1
a(lp5963
F0.392157
aaI51
aa(lp5964
I1
a(lp5965
F0.230769
aaI26
aa(lp5966
I1
a(lp5967
F0.285714
aaI21
aa(lp5968
I1
a(lp5969
F0.551724
aaI29
aa(lp5970
I1
a(lp5971
F0.0
aaI96
aa(lp5972
I1
a(lp5973
F0.395349
aaI43
aa(lp5974
I1
a(lp5975
F0.305556
aaI36
aa(lp5976
I1
a(lp5977
F0.21875
aaI32
aa(lp5978
I1
a(lp5979
F0.266667
aaI30
aa(lp5980
I1
a(lp5981
F0.366667
aaI30
aa(lp5982
I1
a(lp5983
F0.30303
aaI33
aa(lp5984
I1
a(lp5985
F0.291667
aaI24
aa(lp5986
I1
a(lp5987
F0.25
aaI28
aaa(lp5988
g2752
ag2753
a(lp5989
I1
a(lp5990
F0.285714
aaI28
aa(lp5991
I1
a(lp5992
F0.25
aaI28
aa(lp5993
I1
a(lp5994
F0.25
aaI28
aa(lp5995
I1
a(lp5996
F0.230769
aaI26
aa(lp5997
I1
a(lp5998
F0.217391
aaI23
aa(lp5999
I1
a(lp6000
F0.323529
aaI34
aa(lp6001
I1
a(lp6002
F0.304348
aaI23
aa(lp6003
I1
a(lp6004
F0.272727
aaI22
aa(lp6005
I1
a(lp6006
F0.380952
aaI42
aa(lp6007
I1
a(lp6008
F0.382353
aaI34
aa(lp6009
I1
a(lp6010
F0.470588
aaI34
aa(lp6011
I1
a(lp6012
F0.583333
aaI36
aa(lp6013
I1
a(lp6014
F0.45
aaI40
aa(lp6015
I1
a(lp6016
F0.677419
aaI31
aa(lp6017
I1
a(lp6018
F0.5
aaI40
aa(lp6019
I1
a(lp6020
F0.37037
aaI54
aa(lp6021
I1
a(lp6022
F0.436364
aaI55
aa(lp6023
I1
a(lp6024
F0.372093
aaI43
aa(lp6025
I1
a(lp6026
F0.586207
aaI29
aa(lp6027
I1
a(lp6028
F0.475
aaI40
aa(lp6029
I1
a(lp6030
F0.277778
aaI36
aa(lp6031
I1
a(lp6032
F0.470588
aaI34
aa(lp6033
I1
a(lp6034
F0.413793
aaI29
aa(lp6035
I1
a(lp6036
F0.483871
aaI31
aa(lp6037
I1
a(lp6038
F0.214286
aaI28
aa(lp6039
I1
a(lp6040
F0.296296
aaI27
aa(lp6041
I1
a(lp6042
F0.451613
aaI31
aa(lp6043
I1
a(lp6044
F0.294118
aaI34
aa(lp6045
I1
a(lp6046
F0.3
aaI30
aa(lp6047
I1
a(lp6048
F0.363636
aaI33
aa(lp6049
I1
a(lp6050
F0.413793
aaI29
aa(lp6051
I1
a(lp6052
F0.483871
aaI31
aa(lp6053
I1
a(lp6054
F0.46875
aaI32
aa(lp6055
I1
a(lp6056
F0.46875
aaI32
aa(lp6057
I1
a(lp6058
F0.40625
aaI32
aa(lp6059
I1
a(lp6060
F0.40625
aaI32
aa(lp6061
I1
a(lp6062
F0.470588
aaI34
aa(lp6063
I1
a(lp6064
F0.484848
aaI33
aa(lp6065
I1
a(lp6066
F0.37931
aaI29
aa(lp6067
I1
a(lp6068
F0.384615
aaI26
aa(lp6069
I1
a(lp6070
F0.25
aaI20
aaa(lp6071
g2759
ag2760
aa(lp6072
g2768
ag2769
a(lp6073
I1
a(lp6074
F0.318182
aaI44
aa(lp6075
I1
a(lp6076
F0.382979
aaI47
aaa(lp6077
g2785
ag2786
aa(lp6078
g2788
ag2789
aa(lp6079
g2797
ag2798
aa(lp6080
g2800
ag2801
aa(lp6081
g2817
ag2818
a(lp6082
I1
a(lp6083
F0.564103
aaI39
aa(lp6084
I1
a(lp6085
F0.525
aaI40
aa(lp6086
I1
a(lp6087
F0.536585
aaI41
aaa(lp6088
g2834
ag2835
a(lp6089
I1
a(lp6090
F0.230769
aaI26
aa(lp6091
I1
a(lp6092
F0.322222
aaI90
aaa(lp6093
g2837
ag2838
a(lp6094
I1
a(lp6095
F0.671875
aaI64
aaa(lp6096
g2840
ag2841
aa(lp6097
g2851
ag2852
aa(lp6098
g2854
ag2855
a(lp6099
I1
a(lp6100
F0.238095
aaI42
aa(lp6101
I1
a(lp6102
F0.257143
aaI35
aa(lp6103
I1
a(lp6104
F0.290323
aaI31
aa(lp6105
I1
a(lp6106
F0.241379
aaI29
aa(lp6107
I1
a(lp6108
F0.264706
aaI34
aa(lp6109
I1
a(lp6110
F0.30303
aaI33
aa(lp6111
I1
a(lp6112
F0.30303
aaI33
aa(lp6113
I1
a(lp6114
F0.290323
aaI31
aa(lp6115
I1
a(lp6116
F0.4
aaI35
aa(lp6117
I1
a(lp6118
F0.235294
aaI34
aa(lp6119
I1
a(lp6120
F0.425532
aaI47
aa(lp6121
I1
a(lp6122
F0.434783
aaI69
aaa(lp6123
g2861
ag2862
aa(lp6124
g2864
ag2865
a(lp6125
I1
a(lp6126
F0.233333
aaI30
aa(lp6127
I1
a(lp6128
F0.228571
aaI35
aa(lp6129
I1
a(lp6130
F0.219512
aaI41
aa(lp6131
I1
a(lp6132
F0.380952
aaI42
aa(lp6133
I1
a(lp6134
F0.378378
aaI37
aaa(lp6135
g2867
ag2868
aa(lp6136
g2906
ag2907
aa(lp6137
g2929
ag2930
a(lp6138
I1
a(lp6139
F0.436364
aaI55
aa(lp6140
I1
a(lp6141
F0.44898
aaI49
aa(lp6142
I1
a(lp6143
F0.486486
aaI37
aa(lp6144
I1
a(lp6145
F0.425
aaI40
aaa(lp6146
g2932
ag2933
aa(lp6147
g2935
ag2936
aa(lp6148
g2954
ag2955
a(lp6149
I1
a(lp6150
F0.269231
aaI26
aa(lp6151
I1
a(lp6152
F0.28
aaI25
aa(lp6153
I1
a(lp6154
F0.259259
aaI27
aa(lp6155
I1
a(lp6156
F0.512195
aaI41
aa(lp6157
I1
a(lp6158
F0.408269
aaI387
aaa(lp6159
g2957
ag2958
a(lp6160
I1
a(lp6161
F0.772277
aaI101
aaa(lp6162
g2960
ag2961
a(lp6163
I1
a(lp6164
F0.275862
aaI29
aa(lp6165
I1
a(lp6166
F0.225806
aaI31
aa(lp6167
I1
a(lp6168
F0.214286
aaI56
aa(lp6169
I1
a(lp6170
F0.701493
aaI67
aa(lp6171
I1
a(lp6172
F0.671429
aaI70
aa(lp6173
I1
a(lp6174
F0.612903
aaI62
aa(lp6175
I1
a(lp6176
F0.366667
aaI60
aa(lp6177
I1
a(lp6178
F0.32
aaI50
aa(lp6179
I1
a(lp6180
F0.369565
aaI46
aa(lp6181
I1
a(lp6182
F0.347826
aaI46
aaa(lp6183
g2981
ag2982
a(lp6184
I1
a(lp6185
F0.428571
aaI42
aa(lp6186
I1
a(lp6187
F0.422222
aaI45
aa(lp6188
I1
a(lp6189
F0.26087
aaI23
aa(lp6190
I1
a(lp6191
F0.40625
aaI32
aaa(lp6192
g3012
ag3013
aa(lp6193
g3015
ag3016
aa(lp6194
g3028
ag3029
a(lp6195
I1
a(lp6196
F0.564103
aaI39
aa(lp6197
I1
a(lp6198
F0.310345
aaI29
aa(lp6199
I1
a(lp6200
F0.225806
aaI31
aa(lp6201
I1
a(lp6202
F0.241379
aaI29
aaa(lp6203
g3033
ag3034
a(lp6204
I1
a(lp6205
F0.301887
aaI53
aaa(lp6206
g3036
ag3037
aa(lp6207
g3043
ag3044
aa(lp6208
g3076
ag3077
aa(lp6209
g3093
ag3094
a(lp6210
I1
a(lp6211
F0.351351
aaI37
aa(lp6212
I1
a(lp6213
F0.382979
aaI47
aa(lp6214
I1
a(lp6215
F0.3125
aaI32
aaa(lp6216
g3096
ag3097
aa(lp6217
g3099
ag3100
a(lp6218
I1
a(lp6219
F0.382979
aaI47
aaa(lp6220
g3102
ag3103
a(lp6221
I1
a(lp6222
F0.269231
aaI52
aa(lp6223
I1
a(lp6224
F0.2
aaI55
aa(lp6225
I1
a(lp6226
F0.351852
aaI54
aa(lp6227
I1
a(lp6228
F0.288136
aaI59
aa(lp6229
I1
a(lp6230
F0.555556
aaI45
aa(lp6231
I1
a(lp6232
F0.365854
aaI41
aa(lp6233
I1
a(lp6234
F0.521739
aaI46
aa(lp6235
I1
a(lp6236
F0.577778
aaI45
aa(lp6237
I1
a(lp6238
F0.365854
aaI41
aa(lp6239
I1
a(lp6240
F0.0
aaI30
aaa(lp6241
g3107
ag3108
aa(lp6242
g3110
ag3111
a(lp6243
I1
a(lp6244
F0.333333
aaI45
aaa(lp6245
g3145
ag3146
aa(lp6246
g3152
ag3153
a(lp6247
I1
a(lp6248
F0.473684
aaI19
aaa(lp6249
g3157
ag3158
a(lp6250
I1
a(lp6251
F0.425926
aaI54
aa(lp6252
I1
a(lp6253
F0.44186
aaI43
aaa(lp6254
g3160
ag3161
a(lp6255
I1
a(lp6256
F0.272727
aaI33
aa(lp6257
I1
a(lp6258
F0.5
aaI30
aa(lp6259
I1
a(lp6260
F0.294118
aaI17
aa(lp6261
I1
a(lp6262
F0.384615
aaI26
aa(lp6263
I1
a(lp6264
F0.461538
aaI26
aa(lp6265
I1
a(lp6266
F0.384615
aaI26
aa(lp6267
I1
a(lp6268
F0.461538
aaI39
aa(lp6269
I1
a(lp6270
F0.428571
aaI35
aa(lp6271
I1
a(lp6272
F0.473684
aaI38
aa(lp6273
I1
a(lp6274
F0.538462
aaI39
aa(lp6275
I1
a(lp6276
F0.310345
aaI29
aa(lp6277
I1
a(lp6278
F0.36
aaI25
aa(lp6279
I1
a(lp6280
F0.305556
aaI36
aa(lp6281
I1
a(lp6282
F0.405405
aaI37
aa(lp6283
I1
a(lp6284
F0.361111
aaI36
aa(lp6285
I1
a(lp6286
F0.305556
aaI36
aa(lp6287
I1
a(lp6288
F0.235294
aaI34
aa(lp6289
I1
a(lp6290
F0.294118
aaI34
aa(lp6291
I1
a(lp6292
F0.342105
aaI38
aa(lp6293
I1
a(lp6294
F0.466667
aaI30
aa(lp6295
I1
a(lp6296
F0.4375
aaI32
aaa(lp6297
g3179
ag3180
aa(lp6298
g3182
ag3183
a(lp6299
I1
a(lp6300
F0.543478
aaI46
aa(lp6301
I1
a(lp6302
F0.378378
aaI37
aa(lp6303
I1
a(lp6304
F0.465116
aaI43
aa(lp6305
I1
a(lp6306
F0.479167
aaI48
aa(lp6307
I1
a(lp6308
F0.55814
aaI43
aaa(lp6309
g3185
ag3186
a(lp6310
I1
a(lp6311
F0.363636
aaI33
aa(lp6312
I1
a(lp6313
F0.515152
aaI33
aa(lp6314
I1
a(lp6315
F0.3125
aaI32
aa(lp6316
I1
a(lp6317
F0.26087
aaI46
aa(lp6318
I1
a(lp6319
F0.227273
aaI44
aa(lp6320
I1
a(lp6321
F0.204545
aaI44
aa(lp6322
I1
a(lp6323
F0.342857
aaI35
aa(lp6324
I1
a(lp6325
F0.227273
aaI22
aa(lp6326
I1
a(lp6327
F0.32
aaI25
aa(lp6328
I1
a(lp6329
F0.275862
aaI29
aa(lp6330
I1
a(lp6331
F0.413793
aaI29
aa(lp6332
I1
a(lp6333
F0.5
aaI32
aa(lp6334
I1
a(lp6335
F0.545455
aaI33
aa(lp6336
I1
a(lp6337
F0.514286
aaI35
aa(lp6338
I1
a(lp6339
F0.285714
aaI28
aa(lp6340
I1
a(lp6341
F0.222222
aaI27
aa(lp6342
I1
a(lp6343
F0.222222
aaI27
aa(lp6344
I1
a(lp6345
F0.371429
aaI35
aa(lp6346
I1
a(lp6347
F0.34375
aaI32
aa(lp6348
I1
a(lp6349
F0.25
aaI36
aaa(lp6350
g3208
ag3209
a(lp6351
I1
a(lp6352
F0.483871
aaI31
aa(lp6353
I1
a(lp6354
F0.428571
aaI42
aa(lp6355
I1
a(lp6356
F0.354167
aaI48
aa(lp6357
I1
a(lp6358
F0.395833
aaI48
aa(lp6359
I1
a(lp6360
F0.536585
aaI41
aa(lp6361
I1
a(lp6362
F0.475
aaI40
aa(lp6363
I1
a(lp6364
F0.37037
aaI54
aa(lp6365
I1
a(lp6366
F0.4
aaI50
aa(lp6367
I1
a(lp6368
F0.45
aaI40
aa(lp6369
I1
a(lp6370
F0.512821
aaI39
aa(lp6371
I1
a(lp6372
F0.405405
aaI37
aa(lp6373
I1
a(lp6374
F0.394737
aaI38
aa(lp6375
I1
a(lp6376
F0.416667
aaI36
aa(lp6377
I1
a(lp6378
F0.609756
aaI41
aa(lp6379
I1
a(lp6380
F0.466667
aaI45
aa(lp6381
I1
a(lp6382
F0.444444
aaI45
aa(lp6383
I1
a(lp6384
F0.366667
aaI30
aa(lp6385
I1
a(lp6386
F0.358974
aaI39
aa(lp6387
I1
a(lp6388
F0.469388
aaI49
aa(lp6389
I1
a(lp6390
F0.514286
aaI35
aa(lp6391
I1
a(lp6392
F0.358974
aaI39
aa(lp6393
I1
a(lp6394
F0.441176
aaI34
aa(lp6395
I1
a(lp6396
F0.394737
aaI38
aa(lp6397
I1
a(lp6398
F0.314286
aaI35
aa(lp6399
I1
a(lp6400
F0.444444
aaI45
aa(lp6401
I1
a(lp6402
F0.44
aaI50
aa(lp6403
I1
a(lp6404
F0.35
aaI20
aaa(lp6405
g3237
ag3238
a(lp6406
I1
a(lp6407
F0.322581
aaI31
aa(lp6408
I1
a(lp6409
F0.319149
aaI47
aa(lp6410
I1
a(lp6411
F0.475
aaI40
aa(lp6412
I1
a(lp6413
F0.272727
aaI33
aa(lp6414
I1
a(lp6415
F0.4
aaI40
aa(lp6416
I1
a(lp6417
F0.32
aaI25
aa(lp6418
I1
a(lp6419
F0.409091
aaI22
aa(lp6420
I1
a(lp6421
F0.307692
aaI26
aa(lp6422
I1
a(lp6423
F0.269231
aaI26
aa(lp6424
I1
a(lp6425
F0.371429
aaI35
aa(lp6426
I1
a(lp6427
F0.472222
aaI36
aa(lp6428
I1
a(lp6429
F0.210526
aaI38
aa(lp6430
I1
a(lp6431
F0.232558
aaI43
aa(lp6432
I1
a(lp6433
F0.212766
aaI47
aa(lp6434
I1
a(lp6435
F0.268293
aaI41
aa(lp6436
I1
a(lp6437
F0.282051
aaI39
aa(lp6438
I1
a(lp6439
F0.268293
aaI41
aa(lp6440
I1
a(lp6441
F0.266667
aaI45
aa(lp6442
I1
a(lp6443
F0.228571
aaI35
aa(lp6444
I1
a(lp6445
F0.25
aaI24
aa(lp6446
I1
a(lp6447
F0.511111
aaI45
aaa(lp6448
g3242
ag3243
a(lp6449
I1
a(lp6450
F0.3125
aaI16
aa(lp6451
I1
a(lp6452
F0.416667
aaI24
aa(lp6453
I1
a(lp6454
F0.357143
aaI28
aa(lp6455
I1
a(lp6456
F0.451613
aaI31
aa(lp6457
I1
a(lp6458
F0.289474
aaI38
aa(lp6459
I1
a(lp6460
F0.289474
aaI38
aa(lp6461
I1
a(lp6462
F0.307692
aaI39
aa(lp6463
I1
a(lp6464
F0.266667
aaI30
aa(lp6465
I1
a(lp6466
F0.344828
aaI29
aa(lp6467
I1
a(lp6468
F0.215686
aaI51
aa(lp6469
I1
a(lp6470
F0.2
aaI25
aa(lp6471
I1
a(lp6472
F0.272727
aaI33
aa(lp6473
I1
a(lp6474
F0.407407
aaI27
aa(lp6475
I1
a(lp6476
F0.0
aaI25
aa(lp6477
I1
a(lp6478
F0.258065
aaI31
aa(lp6479
I1
a(lp6480
F0.3
aaI30
aa(lp6481
I1
a(lp6482
F0.242424
aaI33
aa(lp6483
I1
a(lp6484
F0.28
aaI25
aa(lp6485
I1
a(lp6486
F0.304348
aaI23
aa(lp6487
I1
a(lp6488
F0.304348
aaI23
aa(lp6489
I1
a(lp6490
F0.5
aaI42
aa(lp6491
I1
a(lp6492
F0.5
aaI42
aa(lp6493
I1
a(lp6494
F0.512195
aaI41
aa(lp6495
I1
a(lp6496
F0.487805
aaI41
aa(lp6497
I1
a(lp6498
F0.513514
aaI37
aa(lp6499
I1
a(lp6500
F0.434783
aaI46
aa(lp6501
I1
a(lp6502
F0.371429
aaI35
aa(lp6503
I1
a(lp6504
F0.32
aaI25
aa(lp6505
I1
a(lp6506
F0.346154
aaI26
aa(lp6507
I1
a(lp6508
F0.217391
aaI23
aa(lp6509
I1
a(lp6510
F0.388889
aaI18
aa(lp6511
I1
a(lp6512
F0.48
aaI25
aa(lp6513
I1
a(lp6514
F0.5
aaI36
aa(lp6515
I1
a(lp6516
F0.56
aaI25
aa(lp6517
I1
a(lp6518
F0.468085
aaI47
aa(lp6519
I1
a(lp6520
F0.44186
aaI43
aa(lp6521
I1
a(lp6522
F0.434783
aaI23
aa(lp6523
I1
a(lp6524
F0.32
aaI25
aa(lp6525
I1
a(lp6526
F0.47619
aaI42
aa(lp6527
I1
a(lp6528
F0.633333
aaI30
aa(lp6529
I1
a(lp6530
F0.5
aaI40
aa(lp6531
I1
a(lp6532
F0.487805
aaI41
aa(lp6533
I1
a(lp6534
F0.425
aaI40
aaa(lp6535
g3269
ag3270
aa(lp6536
g3272
ag3273
a(lp6537
I1
a(lp6538
F0.387755
aaI49
aaa(lp6539
g3281
ag3282
a(lp6540
I1
a(lp6541
F0.238095
aaI21
aa(lp6542
I1
a(lp6543
F0.52
aaI25
aa(lp6544
I1
a(lp6545
F0.5
aaI26
aa(lp6546
I1
a(lp6547
F0.464286
aaI28
aa(lp6548
I1
a(lp6549
F0.487179
aaI39
aa(lp6550
I1
a(lp6551
F0.5
aaI36
aa(lp6552
I1
a(lp6553
F0.296296
aaI27
aaa(lp6554
g3298
ag3299
aa(lp6555
g3327
ag3328
a(lp6556
I1
a(lp6557
F0.318182
aaI22
aa(lp6558
I1
a(lp6559
F0.78125
aaI64
aa(lp6560
I1
a(lp6561
F0.337838
aaI74
aa(lp6562
I1
a(lp6563
F0.208333
aaI24
aa(lp6564
I1
a(lp6565
F0.232558
aaI43
aa(lp6566
I1
a(lp6567
F0.25
aaI24
aa(lp6568
I1
a(lp6569
F0.333333
aaI24
aa(lp6570
I1
a(lp6571
F0.390244
aaI41
aa(lp6572
I1
a(lp6573
F0.666667
aaI42
aa(lp6574
I1
a(lp6575
F0.567568
aaI37
aa(lp6576
I1
a(lp6577
F0.264706
aaI34
aa(lp6578
I1
a(lp6579
F0.296296
aaI27
aa(lp6580
I1
a(lp6581
F0.46875
aaI32
aa(lp6582
I1
a(lp6583
F0.451613
aaI31
aa(lp6584
I1
a(lp6585
F0.3125
aaI32
aa(lp6586
I1
a(lp6587
F0.413793
aaI29
aa(lp6588
I1
a(lp6589
F0.235294
aaI34
aa(lp6590
I1
a(lp6591
F0.428571
aaI42
aa(lp6592
I1
a(lp6593
F0.393939
aaI33
aa(lp6594
I1
a(lp6595
F0.484848
aaI33
aa(lp6596
I1
a(lp6597
F0.4375
aaI32
aa(lp6598
I1
a(lp6599
F0.473684
aaI38
aa(lp6600
I1
a(lp6601
F0.357143
aaI42
aaa(lp6602
g3370
ag3371
aa(lp6603
g3383
ag3384
a(lp6604
I1
a(lp6605
F0.242424
aaI33
aa(lp6606
I1
a(lp6607
F0.45614
aaI57
aa(lp6608
I1
a(lp6609
F0.393939
aaI33
aa(lp6610
I1
a(lp6611
F0.363636
aaI33
aa(lp6612
I1
a(lp6613
F0.351351
aaI37
aa(lp6614
I1
a(lp6615
F0.457143
aaI35
aa(lp6616
I1
a(lp6617
F0.333333
aaI27
aa(lp6618
I1
a(lp6619
F0.346154
aaI26
aa(lp6620
I1
a(lp6621
F0.0
aaI19
aa(lp6622
I1
a(lp6623
F0.4
aaI25
aa(lp6624
I1
a(lp6625
F0.214286
aaI28
aa(lp6626
I1
a(lp6627
F0.25641
aaI39
aaa(lp6628
g3386
ag3387
aa(lp6629
g3389
ag3390
a(lp6630
I1
a(lp6631
F0.61039
aaI77
aa(lp6632
I1
a(lp6633
F0.488372
aaI43
aa(lp6634
I1
a(lp6635
F0.212121
aaI33
aa(lp6636
I1
a(lp6637
F0.5
aaI32
aa(lp6638
I1
a(lp6639
F0.489362
aaI47
aa(lp6640
I1
a(lp6641
F0.222222
aaI27
aa(lp6642
I1
a(lp6643
F0.315789
aaI19
aa(lp6644
I1
a(lp6645
F0.25
aaI24
aa(lp6646
I1
a(lp6647
F0.382353
aaI34
aa(lp6648
I1
a(lp6649
F0.47619
aaI42
aa(lp6650
I1
a(lp6651
F0.477273
aaI44
aaa(lp6652
g3440
ag3441
aa(lp6653
g3443
ag3444
aa(lp6654
g3454
ag3455
a(lp6655
I1
a(lp6656
F0.269231
aaI26
aa(lp6657
I1
a(lp6658
F0.291667
aaI48
aaa(lp6659
g3459
ag3460
aa(lp6660
g3484
ag3485
a(lp6661
I1
a(lp6662
F0.205882
aaI34
aa(lp6663
I1
a(lp6664
F0.2
aaI30
aaa(lp6665
g3493
ag3494
a(lp6666
I1
a(lp6667
F0.266667
aaI75
aa(lp6668
I1
a(lp6669
F0.318841
aaI69
aa(lp6670
I1
a(lp6671
F0.285714
aaI35
aa(lp6672
I1
a(lp6673
F0.375
aaI56
aa(lp6674
I1
a(lp6675
F0.411765
aaI34
aa(lp6676
I1
a(lp6677
F0.220339
aaI59
aa(lp6678
I1
a(lp6679
F0.269231
aaI52
aa(lp6680
I1
a(lp6681
F0.303571
aaI56
aa(lp6682
I1
a(lp6683
F0.339623
aaI53
aaa(lp6684
g3502
ag3503
aa(lp6685
g3507
ag3508
a(lp6686
I1
a(lp6687
F0.289474
aaI38
aa(lp6688
I1
a(lp6689
F0.285714
aaI35
aa(lp6690
I1
a(lp6691
F0.384615
aaI26
aaa(lp6692
g3524
ag3525
a(lp6693
I1
a(lp6694
F0.469388
aaI49
aa(lp6695
I1
a(lp6696
F0.5
aaI32
aa(lp6697
I1
a(lp6698
F0.6
aaI40
aa(lp6699
I1
a(lp6700
F0.425
aaI40
aa(lp6701
I1
a(lp6702
F0.457143
aaI35
aaa(lp6703
g3527
ag3528
aa(lp6704
g3532
ag3533
aa(lp6705
g3535
ag3536
a(lp6706
I1
a(lp6707
F0.37037
aaI27
aa(lp6708
I1
a(lp6709
F0.516129
aaI31
aa(lp6710
I1
a(lp6711
F0.275862
aaI29
aaa(lp6712
g3538
ag3539
aa(lp6713
g3545
ag3546
aa(lp6714
g3550
ag3551
aa(lp6715
g3555
ag3556
aa(lp6716
g3558
ag3559
aassS'diploids'
p6717
(dp6718
g3
(lp6719
(lp6720
S'scaffold3626_cov240'
p6721
aS'scaffold4811_cov246'
p6722
a(lp6723
I1
a(lp6724
F0.325
aaI40
aa(lp6725
I1
a(lp6726
F0.333333
aaI27
aa(lp6727
I1
a(lp6728
F0.342857
aaI35
aa(lp6729
I1
a(lp6730
F0.548387
aaI31
aa(lp6731
I1
a(lp6732
F0.44898
aaI49
aa(lp6733
I1
a(lp6734
F0.5
aaI40
aa(lp6735
I1
a(lp6736
F0.485714
aaI35
aa(lp6737
I1
a(lp6738
F0.410256
aaI39
aa(lp6739
I1
a(lp6740
F0.222222
aaI27
aaa(lp6741
S'scaffold126_cov233'
p6742
aS'scaffold34997_cov218'
p6743
a(lp6744
I1
a(lp6745
F0.0
aaI13
aaa(lp6746
S'scaffold1708_cov257'
p6747
aS'scaffold2991_cov233'
p6748
a(lp6749
I1
a(lp6750
F0.414634
aaI41
aa(lp6751
I1
a(lp6752
F0.384615
aaI52
aa(lp6753
I1
a(lp6754
F0.396226
aaI53
aa(lp6755
I1
a(lp6756
F0.384615
aaI39
aa(lp6757
I1
a(lp6758
F0.394737
aaI38
aa(lp6759
I1
a(lp6760
F0.459459
aaI37
aa(lp6761
I1
a(lp6762
F0.625
aaI48
aa(lp6763
I1
a(lp6764
F0.0
aaI26
aa(lp6765
I1
a(lp6766
F0.0
aaI32
aa(lp6767
I1
a(lp6768
F0.5
aaI30
aa(lp6769
I1
a(lp6770
F0.461538
aaI39
aa(lp6771
I1
a(lp6772
F0.574468
aaI47
aaa(lp6773
S'scaffold4798_cov206'
p6774
aS'scaffold8289_cov180'
p6775
a(lp6776
I1
a(lp6777
F0.459459
aaI37
aa(lp6778
I1
a(lp6779
F0.323529
aaI34
aa(lp6780
I1
a(lp6781
F0.45
aaI40
aa(lp6782
I1
a(lp6783
F0.263158
aaI57
aaa(lp6784
S'scaffold47935_cov305'
p6785
aS'scaffold774_cov229'
p6786
aa(lp6787
S'scaffold467_cov263'
p6788
aS'scaffold7247_cov286'
p6789
aa(lp6790
S'scaffold11346_cov240'
p6791
aS'scaffold7912_cov254'
p6792
a(lp6793
I1
a(lp6794
F0.371429
aaI35
aa(lp6795
I1
a(lp6796
F0.4
aaI35
aa(lp6797
I1
a(lp6798
F0.452381
aaI42
aa(lp6799
I1
a(lp6800
F0.4375
aaI32
aa(lp6801
I1
a(lp6802
F0.428571
aaI28
aa(lp6803
I1
a(lp6804
F0.458333
aaI24
aa(lp6805
I1
a(lp6806
F0.37931
aaI29
aa(lp6807
I1
a(lp6808
F0.545455
aaI22
aa(lp6809
I1
a(lp6810
F0.541667
aaI24
aa(lp6811
I1
a(lp6812
F0.407407
aaI27
aa(lp6813
I1
a(lp6814
F0.485714
aaI35
aa(lp6815
I1
a(lp6816
F0.470588
aaI34
aa(lp6817
I1
a(lp6818
F0.522727
aaI44
aaa(lp6819
S'scaffold1511_cov206'
p6820
aS'scaffold1767_cov191'
p6821
a(lp6822
I1
a(lp6823
F0.233333
aaI30
aa(lp6824
I1
a(lp6825
F0.38
aaI50
aa(lp6826
I1
a(lp6827
F0.307692
aaI39
aa(lp6828
I1
a(lp6829
F0.225806
aaI31
aa(lp6830
I1
a(lp6831
F0.366667
aaI30
aa(lp6832
I1
a(lp6833
F0.342105
aaI38
aa(lp6834
I1
a(lp6835
F0.333333
aaI39
aa(lp6836
I1
a(lp6837
F0.26087
aaI23
aa(lp6838
I1
a(lp6839
F0.291667
aaI24
aa(lp6840
I1
a(lp6841
F0.333333
aaI27
aa(lp6842
I1
a(lp6843
F0.481481
aaI27
aaa(lp6844
S'scaffold2519_cov239'
p6845
aS'scaffold33999_cov278'
p6846
aa(lp6847
S'scaffold1766_cov198'
p6848
aS'scaffold607_cov179'
p6849
aa(lp6850
S'scaffold51278_cov326'
p6851
aS'scaffold965_cov205'
p6852
a(lp6853
I1
a(lp6854
F0.307692
aaI26
aaa(lp6855
S'scaffold12689_cov256'
p6856
aS'scaffold7460_cov152'
p6857
aa(lp6858
S'scaffold2175_cov210'
p6859
aS'scaffold3666_cov227'
p6860
aa(lp6861
S'scaffold14855_cov234'
p6862
aS'scaffold34047_cov174'
p6863
a(lp6864
I1
a(lp6865
F0.21875
aaI32
aa(lp6866
I1
a(lp6867
F0.206897
aaI29
aa(lp6868
I1
a(lp6869
F0.310345
aaI29
aa(lp6870
I1
a(lp6871
F0.394737
aaI38
aaa(lp6872
S'scaffold36255_cov269'
p6873
aS'scaffold42378_cov315'
p6874
a(lp6875
I1
a(lp6876
F0.268293
aaI41
aaa(lp6877
S'scaffold34878_cov239'
p6878
aS'scaffold6446_cov191'
p6879
a(lp6880
I1
a(lp6881
F0.0
aaI20
aaa(lp6882
S'scaffold19485_cov191'
p6883
aS'scaffold19486_cov306'
p6884
aa(lp6885
S'scaffold27882_cov209'
p6886
aS'scaffold36175_cov226'
p6887
aa(lp6888
S'scaffold35943_cov295'
p6889
aS'scaffold7990_cov217'
p6890
a(lp6891
I1
a(lp6892
F0.305556
aaI36
aa(lp6893
I1
a(lp6894
F0.263158
aaI38
aa(lp6895
I1
a(lp6896
F0.454545
aaI44
aaa(lp6897
S'scaffold3813_cov275'
p6898
aS'scaffold6764_cov231'
p6899
a(lp6900
I1
a(lp6901
F0.487805
aaI41
aa(lp6902
I1
a(lp6903
F0.475
aaI40
aa(lp6904
I1
a(lp6905
F0.487805
aaI41
aa(lp6906
I1
a(lp6907
F0.310345
aaI29
aa(lp6908
I1
a(lp6909
F0.588235
aaI51
aa(lp6910
I1
a(lp6911
F0.25
aaI40
aa(lp6912
I1
a(lp6913
F0.291667
aaI48
aa(lp6914
I1
a(lp6915
F0.466667
aaI30
aa(lp6916
I1
a(lp6917
F0.684211
aaI38
aa(lp6918
I1
a(lp6919
F0.270833
aaI48
aa(lp6920
I1
a(lp6921
F0.261905
aaI42
aa(lp6922
I1
a(lp6923
F0.477273
aaI44
aaa(lp6924
S'scaffold16317_cov210'
p6925
aS'scaffold6713_cov225'
p6926
a(lp6927
I1
a(lp6928
F0.227273
aaI22
aa(lp6929
I1
a(lp6930
F0.413793
aaI29
aa(lp6931
I1
a(lp6932
F0.538462
aaI13
aa(lp6933
I1
a(lp6934
F0.529412
aaI17
aa(lp6935
I1
a(lp6936
F0.48
aaI25
aa(lp6937
I1
a(lp6938
F0.48
aaI25
aa(lp6939
I1
a(lp6940
F0.6
aaI45
aaa(lp6941
S'scaffold2105_cov193'
p6942
aS'scaffold4704_cov190'
p6943
aa(lp6944
S'scaffold34240_cov291'
p6945
aS'scaffold43247_cov305'
p6946
aa(lp6947
S'scaffold6415_cov250'
p6948
aS'scaffold6724_cov185'
p6949
aa(lp6950
S'scaffold12582_cov223'
p6951
aS'scaffold3805_cov206'
p6952
a(lp6953
I1
a(lp6954
F0.28
aaI25
aa(lp6955
I1
a(lp6956
F0.25
aaI20
aaa(lp6957
S'scaffold193_cov232'
p6958
aS'scaffold51921_cov294'
p6959
a(lp6960
I1
a(lp6961
F0.484848
aaI33
aa(lp6962
I1
a(lp6963
F0.421053
aaI38
aa(lp6964
I1
a(lp6965
F0.470588
aaI34
aa(lp6966
I1
a(lp6967
F0.45
aaI40
aa(lp6968
I1
a(lp6969
F0.47619
aaI42
aa(lp6970
I1
a(lp6971
F0.538462
aaI39
aa(lp6972
I1
a(lp6973
F0.522727
aaI44
aaa(lp6974
S'scaffold23025_cov260'
p6975
aS'scaffold34181_cov257'
p6976
a(lp6977
I1
a(lp6978
F0.5
aaI46
aa(lp6979
I1
a(lp6980
F0.333333
aaI45
aa(lp6981
I1
a(lp6982
F0.404762
aaI42
aa(lp6983
I1
a(lp6984
F0.555556
aaI45
aa(lp6985
I1
a(lp6986
F0.534884
aaI43
aa(lp6987
I1
a(lp6988
F0.489796
aaI49
aa(lp6989
I1
a(lp6990
F0.454545
aaI44
aa(lp6991
I1
a(lp6992
F0.422222
aaI45
aa(lp6993
I1
a(lp6994
F0.418605
aaI43
aa(lp6995
I1
a(lp6996
F0.565217
aaI23
aa(lp6997
I1
a(lp6998
F0.354839
aaI31
aa(lp6999
I1
a(lp7000
F0.235294
aaI34
aa(lp7001
I1
a(lp7002
F0.289474
aaI38
aa(lp7003
I1
a(lp7004
F0.272727
aaI44
aa(lp7005
I1
a(lp7006
F0.333333
aaI45
aa(lp7007
I1
a(lp7008
F0.5
aaI20
aaa(lp7009
S'scaffold21112_cov305'
p7010
aS'scaffold22738_cov154'
p7011
aa(lp7012
S'scaffold2864_cov140'
p7013
aS'scaffold6319_cov169'
p7014
aa(lp7015
S'scaffold2759_cov181'
p7016
aS'scaffold8772_cov153'
p7017
aa(lp7018
S'scaffold19757_cov388'
p7019
aS'scaffold1999_cov166'
p7020
a(lp7021
I1
a(lp7022
F0.4375
aaI48
aa(lp7023
I1
a(lp7024
F0.452381
aaI42
aa(lp7025
I1
a(lp7026
F0.265306
aaI49
aa(lp7027
I1
a(lp7028
F0.21875
aaI32
aa(lp7029
I1
a(lp7030
F0.294118
aaI34
aaa(lp7031
S'scaffold1058_cov270'
p7032
aS'scaffold8732_cov275'
p7033
a(lp7034
I1
a(lp7035
F0.444444
aaI45
aa(lp7036
I1
a(lp7037
F0.465116
aaI43
aa(lp7038
I1
a(lp7039
F0.475
aaI40
aa(lp7040
I1
a(lp7041
F0.525
aaI40
aa(lp7042
I1
a(lp7043
F0.552632
aaI38
aa(lp7044
I1
a(lp7045
F0.581395
aaI43
aa(lp7046
I1
a(lp7047
F0.431818
aaI44
aa(lp7048
I1
a(lp7049
F0.5
aaI32
aa(lp7050
I1
a(lp7051
F0.53125
aaI32
aa(lp7052
I1
a(lp7053
F0.405405
aaI37
aa(lp7054
I1
a(lp7055
F0.236842
aaI38
aaa(lp7056
S'scaffold1208_cov229'
p7057
aS'scaffold1508_cov264'
p7058
a(lp7059
I1
a(lp7060
F0.521739
aaI46
aa(lp7061
I1
a(lp7062
F0.553191
aaI47
aa(lp7063
I1
a(lp7064
F0.348837
aaI43
aa(lp7065
I1
a(lp7066
F0.340909
aaI44
aa(lp7067
I1
a(lp7068
F0.423077
aaI26
aaa(lp7069
S'scaffold11822_cov236'
p7070
aS'scaffold34659_cov215'
p7071
a(lp7072
I1
a(lp7073
F0.3125
aaI32
aa(lp7074
I1
a(lp7075
F0.30303
aaI33
aa(lp7076
I1
a(lp7077
F0.233333
aaI30
aa(lp7078
I1
a(lp7079
F0.452381
aaI42
aa(lp7080
I1
a(lp7081
F0.463415
aaI41
aa(lp7082
I1
a(lp7083
F0.214286
aaI28
aa(lp7084
I1
a(lp7085
F0.0
aaI30
aa(lp7086
I1
a(lp7087
F0.382353
aaI34
aa(lp7088
I1
a(lp7089
F0.517241
aaI29
aa(lp7090
I1
a(lp7091
F0.517241
aaI29
aa(lp7092
I1
a(lp7093
F0.518519
aaI27
aa(lp7094
I1
a(lp7095
F0.484848
aaI33
aa(lp7096
I1
a(lp7097
F0.459459
aaI37
aa(lp7098
I1
a(lp7099
F0.435897
aaI39
aa(lp7100
I1
a(lp7101
F0.468085
aaI47
aa(lp7102
I1
a(lp7103
F0.547619
aaI42
aa(lp7104
I1
a(lp7105
F0.513514
aaI37
aa(lp7106
I1
a(lp7107
F0.25
aaI20
aa(lp7108
I1
a(lp7109
F0.363636
aaI22
aa(lp7110
I1
a(lp7111
F0.214286
aaI28
aaa(lp7112
S'scaffold6544_cov240'
p7113
aS'scaffold8921_cov268'
p7114
a(lp7115
I1
a(lp7116
F0.421053
aaI38
aa(lp7117
I1
a(lp7118
F0.416667
aaI48
aaa(lp7119
S'scaffold1798_cov239'
p7120
aS'scaffold35134_cov241'
p7121
a(lp7122
I1
a(lp7123
F0.30303
aaI33
aa(lp7124
I1
a(lp7125
F0.235294
aaI34
aa(lp7126
I1
a(lp7127
F0.235294
aaI34
aa(lp7128
I1
a(lp7129
F0.242424
aaI33
aa(lp7130
I1
a(lp7131
F0.222222
aaI27
aa(lp7132
I1
a(lp7133
F0.526316
aaI38
aaa(lp7134
S'scaffold35079_cov288'
p7135
aS'scaffold35849_cov287'
p7136
a(lp7137
I1
a(lp7138
F0.392857
aaI28
aa(lp7139
I1
a(lp7140
F0.44186
aaI43
aa(lp7141
I1
a(lp7142
F0.391304
aaI46
aa(lp7143
I1
a(lp7144
F0.5
aaI52
aa(lp7145
I1
a(lp7146
F0.454545
aaI44
aa(lp7147
I1
a(lp7148
F0.52381
aaI42
aa(lp7149
I1
a(lp7150
F0.285714
aaI14
aa(lp7151
I1
a(lp7152
F0.434783
aaI23
aa(lp7153
I1
a(lp7154
F0.542857
aaI35
aa(lp7155
I1
a(lp7156
F0.5
aaI28
aa(lp7157
I1
a(lp7158
F0.425
aaI40
aa(lp7159
I1
a(lp7160
F0.357143
aaI42
aa(lp7161
I1
a(lp7162
F0.425532
aaI47
aa(lp7163
I1
a(lp7164
F0.5
aaI34
aa(lp7165
I1
a(lp7166
F0.266667
aaI30
aa(lp7167
I1
a(lp7168
F0.403846
aaI52
aa(lp7169
I1
a(lp7170
F0.530612
aaI49
aa(lp7171
I1
a(lp7172
F0.446809
aaI47
aa(lp7173
I1
a(lp7174
F0.666667
aaI39
aa(lp7175
I1
a(lp7176
F0.447368
aaI38
aa(lp7177
I1
a(lp7178
F0.529412
aaI34
aa(lp7179
I1
a(lp7180
F0.478261
aaI23
aa(lp7181
I1
a(lp7182
F0.4
aaI25
aa(lp7183
I1
a(lp7184
F0.407407
aaI27
aa(lp7185
I1
a(lp7186
F0.28
aaI25
aa(lp7187
I1
a(lp7188
F0.411765
aaI34
aa(lp7189
I1
a(lp7190
F0.542857
aaI35
aa(lp7191
I1
a(lp7192
F0.4
aaI40
aa(lp7193
I1
a(lp7194
F0.5
aaI34
aa(lp7195
I1
a(lp7196
F0.484848
aaI33
aaa(lp7197
S'scaffold11990_cov204'
p7198
aS'scaffold15595_cov207'
p7199
aa(lp7200
S'scaffold292_cov203'
p7201
aS'scaffold4488_cov207'
p7202
a(lp7203
I1
a(lp7204
F0.347826
aaI23
aaa(lp7205
S'scaffold11481_cov169'
p7206
aS'scaffold21751_cov240'
p7207
a(lp7208
I1
a(lp7209
F0.413793
aaI29
aa(lp7210
I1
a(lp7211
F0.413793
aaI29
aa(lp7212
I1
a(lp7213
F0.392857
aaI28
aa(lp7214
I1
a(lp7215
F0.407407
aaI27
aa(lp7216
I1
a(lp7217
F0.392857
aaI28
aa(lp7218
I1
a(lp7219
F0.4
aaI25
aa(lp7220
I1
a(lp7221
F0.423077
aaI26
aa(lp7222
I1
a(lp7223
F0.423077
aaI26
aa(lp7224
I1
a(lp7225
F0.428571
aaI21
aa(lp7226
I1
a(lp7227
F0.5
aaI18
aa(lp7228
I1
a(lp7229
F0.529412
aaI17
aa(lp7230
I1
a(lp7231
F0.48
aaI25
aa(lp7232
I1
a(lp7233
F0.380952
aaI21
aa(lp7234
I1
a(lp7235
F0.428571
aaI21
aa(lp7236
I1
a(lp7237
F0.478261
aaI23
aa(lp7238
I1
a(lp7239
F0.428571
aaI28
aa(lp7240
I1
a(lp7241
F0.433333
aaI30
aa(lp7242
I1
a(lp7243
F0.387097
aaI31
aa(lp7244
I1
a(lp7245
F0.36
aaI25
aa(lp7246
I1
a(lp7247
F0.333333
aaI27
aa(lp7248
I1
a(lp7249
F0.275862
aaI29
aa(lp7250
I1
a(lp7251
F0.241379
aaI29
aa(lp7252
I1
a(lp7253
F0.25
aaI20
aa(lp7254
I1
a(lp7255
F0.344828
aaI29
aa(lp7256
I1
a(lp7257
F0.2
aaI15
aa(lp7258
I1
a(lp7259
F0.25
aaI20
aa(lp7260
I1
a(lp7261
F0.391304
aaI23
aa(lp7262
I1
a(lp7263
F0.285714
aaI21
aa(lp7264
I1
a(lp7265
F0.2
aaI35
aa(lp7266
I1
a(lp7267
F0.205882
aaI34
aa(lp7268
I1
a(lp7269
F0.212121
aaI33
aa(lp7270
I1
a(lp7271
F0.235294
aaI34
aa(lp7272
I1
a(lp7273
F0.210526
aaI38
aa(lp7274
I1
a(lp7275
F0.236842
aaI38
aa(lp7276
I1
a(lp7277
F0.25641
aaI39
aa(lp7278
I1
a(lp7279
F0.545455
aaI33
aa(lp7280
I1
a(lp7281
F0.558824
aaI34
aa(lp7282
I1
a(lp7283
F0.384615
aaI26
aa(lp7284
I1
a(lp7285
F0.384615
aaI26
aa(lp7286
I1
a(lp7287
F0.291667
aaI24
aa(lp7288
I1
a(lp7289
F0.272727
aaI22
aa(lp7290
I1
a(lp7291
F0.25
aaI12
aa(lp7292
I1
a(lp7293
F0.2
aaI15
aa(lp7294
I1
a(lp7295
F0.230769
aaI13
aa(lp7296
I1
a(lp7297
F0.214286
aaI14
aa(lp7298
I1
a(lp7299
F0.380952
aaI21
aa(lp7300
I1
a(lp7301
F0.263158
aaI19
aa(lp7302
I1
a(lp7303
F0.233333
aaI30
aa(lp7304
I1
a(lp7305
F0.28
aaI25
aa(lp7306
I1
a(lp7307
F0.217391
aaI23
aa(lp7308
I1
a(lp7309
F0.26087
aaI23
aa(lp7310
I1
a(lp7311
F0.208333
aaI24
aa(lp7312
I1
a(lp7313
F0.2
aaI25
aaa(lp7314
S'scaffold11838_cov280'
p7315
aS'scaffold3183_cov273'
p7316
a(lp7317
I1
a(lp7318
F0.243243
aaI37
aa(lp7319
I1
a(lp7320
F0.225
aaI40
aa(lp7321
I1
a(lp7322
F0.225
aaI40
aa(lp7323
I1
a(lp7324
F0.413793
aaI29
aaa(lp7325
S'scaffold39652_cov294'
p7326
aS'scaffold6762_cov212'
p7327
aa(lp7328
S'scaffold2115_cov223'
p7329
aS'scaffold4466_cov187'
p7330
aa(lp7331
S'scaffold4640_cov176'
p7332
aS'scaffold6032_cov173'
p7333
aa(lp7334
S'scaffold6144_cov377'
p7335
aS'scaffold6254_cov268'
p7336
aa(lp7337
S'scaffold35739_cov310'
p7338
aS'scaffold36798_cov326'
p7339
aa(lp7340
S'scaffold30714_cov262'
p7341
aS'scaffold40802_cov284'
p7342
aa(lp7343
S'scaffold11329_cov238'
p7344
aS'scaffold3410_cov258'
p7345
a(lp7346
I1
a(lp7347
F0.529412
aaI34
aa(lp7348
I1
a(lp7349
F0.444444
aaI36
aa(lp7350
I1
a(lp7351
F0.521739
aaI46
aa(lp7352
I1
a(lp7353
F0.557692
aaI52
aa(lp7354
I1
a(lp7355
F0.269231
aaI26
aa(lp7356
I1
a(lp7357
F0.296296
aaI27
aa(lp7358
I1
a(lp7359
F0.413043
aaI46
aa(lp7360
I1
a(lp7361
F0.428571
aaI42
aa(lp7362
I1
a(lp7363
F0.454545
aaI33
aa(lp7364
I1
a(lp7365
F0.352941
aaI34
aa(lp7366
I1
a(lp7367
F0.444444
aaI54
aa(lp7368
I1
a(lp7369
F0.533333
aaI45
aa(lp7370
I1
a(lp7371
F0.521739
aaI46
aa(lp7372
I1
a(lp7373
F0.511628
aaI43
aa(lp7374
I1
a(lp7375
F0.484848
aaI33
aa(lp7376
I1
a(lp7377
F0.340909
aaI44
aa(lp7378
I1
a(lp7379
F0.333333
aaI45
aa(lp7380
I1
a(lp7381
F0.3
aaI40
aa(lp7382
I1
a(lp7383
F0.44186
aaI43
aaa(lp7384
S'scaffold662_cov282'
p7385
aS'scaffold663_cov256'
p7386
a(lp7387
I1
a(lp7388
F0.444444
aaI45
aa(lp7389
I1
a(lp7390
F0.333333
aaI27
aa(lp7391
I1
a(lp7392
F0.404255
aaI47
aa(lp7393
I1
a(lp7394
F0.515152
aaI33
aa(lp7395
I1
a(lp7396
F0.325
aaI40
aa(lp7397
I1
a(lp7398
F0.322581
aaI31
aa(lp7399
I1
a(lp7400
F0.5
aaI36
aag6305
ag6307
a(lp7401
I1
a(lp7402
F0.510638
aaI47
aa(lp7403
I1
a(lp7404
F0.533333
aaI45
aa(lp7405
I1
a(lp7406
F0.314286
aaI35
aa(lp7407
I1
a(lp7408
F0.4375
aaI32
aa(lp7409
I1
a(lp7410
F0.368421
aaI38
aa(lp7411
I1
a(lp7412
F0.404762
aaI42
aa(lp7413
I1
a(lp7414
F0.342857
aaI35
aa(lp7415
I1
a(lp7416
F0.434783
aaI46
aa(lp7417
I1
a(lp7418
F0.472727
aaI55
aa(lp7419
I1
a(lp7420
F0.545455
aaI33
aa(lp7421
I1
a(lp7422
F0.233333
aaI30
aa(lp7423
I1
a(lp7424
F0.238095
aaI42
aa(lp7425
I1
a(lp7426
F0.392857
aaI28
aa(lp7427
I1
a(lp7428
F0.628571
aaI35
aa(lp7429
I1
a(lp7430
F0.461538
aaI26
aa(lp7431
I1
a(lp7432
F0.393939
aaI33
aa(lp7433
I1
a(lp7434
F0.628571
aaI35
aa(lp7435
I1
a(lp7436
F0.3125
aaI32
aa(lp7437
I1
a(lp7438
F0.6
aaI30
aa(lp7439
I1
a(lp7440
F0.734043
aaI94
aa(lp7441
I1
a(lp7442
F0.558824
aaI34
aa(lp7443
I1
a(lp7444
F0.536585
aaI41
aa(lp7445
I1
a(lp7446
F0.32
aaI25
aa(lp7447
I1
a(lp7448
F0.205128
aaI39
aaa(lp7449
S'scaffold7242_cov266'
p7450
aS'scaffold7661_cov288'
p7451
aa(lp7452
S'scaffold35969_cov266'
p7453
aS'scaffold5160_cov248'
p7454
a(lp7455
I1
a(lp7456
F0.424242
aaI33
aa(lp7457
I1
a(lp7458
F0.433333
aaI30
aaa(lp7459
S'scaffold12609_cov286'
p7460
aS'scaffold3427_cov261'
p7461
a(lp7462
I1
a(lp7463
F0.531915
aaI47
aa(lp7464
I1
a(lp7465
F0.288889
aaI45
aa(lp7466
I1
a(lp7467
F0.354839
aaI31
aa(lp7468
I1
a(lp7469
F0.42
aaI50
aa(lp7470
I1
a(lp7471
F0.404255
aaI47
aa(lp7472
I1
a(lp7473
F0.461538
aaI39
aaa(lp7474
S'scaffold10988_cov149'
p7475
aS'scaffold5533_cov227'
p7476
aa(lp7477
S'scaffold14801_cov267'
p7478
aS'scaffold4703_cov265'
p7479
a(lp7480
I1
a(lp7481
F0.480769
aaI52
aa(lp7482
I1
a(lp7483
F0.315789
aaI38
aa(lp7484
I1
a(lp7485
F0.583333
aaI36
aa(lp7486
I1
a(lp7487
F0.461538
aaI39
aa(lp7488
I1
a(lp7489
F0.384615
aaI26
aa(lp7490
I1
a(lp7491
F0.333333
aaI24
aa(lp7492
I1
a(lp7493
F0.418605
aaI43
aa(lp7494
I1
a(lp7495
F0.421053
aaI19
aa(lp7496
I1
a(lp7497
F0.285714
aaI28
aaa(lp7498
S'scaffold2018_cov229'
p7499
aS'scaffold3622_cov247'
p7500
a(lp7501
I1
a(lp7502
F0.266667
aaI30
aa(lp7503
I1
a(lp7504
F0.428571
aaI70
aa(lp7505
I1
a(lp7506
F0.285714
aaI28
aa(lp7507
I1
a(lp7508
F0.309524
aaI42
aa(lp7509
I1
a(lp7510
F0.348837
aaI43
aa(lp7511
I1
a(lp7512
F0.325581
aaI43
aaa(lp7513
S'scaffold15715_cov311'
p7514
aS'scaffold34618_cov281'
p7515
aa(lp7516
S'scaffold35711_cov297'
p7517
aS'scaffold6027_cov281'
p7518
a(lp7519
I1
a(lp7520
F0.45283
aaI53
aa(lp7521
I1
a(lp7522
F0.428571
aaI42
aa(lp7523
I1
a(lp7524
F0.411765
aaI34
aa(lp7525
I1
a(lp7526
F0.378378
aaI37
aa(lp7527
I1
a(lp7528
F0.309524
aaI42
aa(lp7529
I1
a(lp7530
F0.390244
aaI41
aa(lp7531
I1
a(lp7532
F0.487179
aaI39
aa(lp7533
I1
a(lp7534
F0.44
aaI50
aa(lp7535
I1
a(lp7536
F0.526316
aaI38
aa(lp7537
I1
a(lp7538
F0.444444
aaI45
aa(lp7539
I1
a(lp7540
F0.439024
aaI41
aa(lp7541
I1
a(lp7542
F0.269231
aaI26
aa(lp7543
I1
a(lp7544
F0.259259
aaI27
aa(lp7545
I1
a(lp7546
F0.454545
aaI33
aa(lp7547
I1
a(lp7548
F0.324324
aaI37
aa(lp7549
I1
a(lp7550
F0.268293
aaI41
aa(lp7551
I1
a(lp7552
F0.564103
aaI39
aa(lp7553
I1
a(lp7554
F0.515625
aaI64
aa(lp7555
I1
a(lp7556
F0.565217
aaI46
aa(lp7557
I1
a(lp7558
F0.530612
aaI49
aa(lp7559
I1
a(lp7560
F0.521739
aaI46
aa(lp7561
I1
a(lp7562
F0.473684
aaI38
aa(lp7563
I1
a(lp7564
F0.26087
aaI46
aa(lp7565
I1
a(lp7566
F0.333333
aaI45
aa(lp7567
I1
a(lp7568
F0.526316
aaI19
aa(lp7569
I1
a(lp7570
F0.509804
aaI51
aa(lp7571
I1
a(lp7572
F0.583333
aaI48
aa(lp7573
I1
a(lp7574
F0.404762
aaI42
aa(lp7575
I1
a(lp7576
F0.410256
aaI39
aa(lp7577
I1
a(lp7578
F0.40625
aaI32
aa(lp7579
I1
a(lp7580
F0.423077
aaI26
aa(lp7581
I1
a(lp7582
F0.613636
aaI44
aa(lp7583
I1
a(lp7584
F0.386364
aaI44
aa(lp7585
I1
a(lp7586
F0.377778
aaI45
aa(lp7587
I1
a(lp7588
F0.35
aaI40
aa(lp7589
I1
a(lp7590
F0.403846
aaI52
aa(lp7591
I1
a(lp7592
F0.403846
aaI52
aa(lp7593
I1
a(lp7594
F0.536585
aaI41
aaa(lp7595
S'scaffold44578_cov315'
p7596
aS'scaffold585_cov234'
p7597
aa(lp7598
S'scaffold33716_cov277'
p7599
aS'scaffold58_cov215'
p7600
a(lp7601
I1
a(lp7602
F0.454545
aaI33
aa(lp7603
I1
a(lp7604
F0.214286
aaI28
aa(lp7605
I1
a(lp7606
F0.296296
aaI27
aa(lp7607
I1
a(lp7608
F0.4
aaI30
aa(lp7609
I1
a(lp7610
F0.272727
aaI22
aa(lp7611
I1
a(lp7612
F0.34375
aaI32
aa(lp7613
I1
a(lp7614
F0.419355
aaI31
aaa(lp7615
S'scaffold4867_cov158'
p7616
aS'scaffold6911_cov202'
p7617
aa(lp7618
S'scaffold36011_cov302'
p7619
aS'scaffold40654_cov315'
p7620
aa(lp7621
S'scaffold2554_cov143'
p7622
aS'scaffold5205_cov172'
p7623
aa(lp7624
S'scaffold2328_cov197'
p7625
aS'scaffold8399_cov190'
p7626
aa(lp7627
S'scaffold10657_cov306'
p7628
aS'scaffold4178_cov282'
p7629
aa(lp7630
S'scaffold38603_cov305'
p7631
aS'scaffold7912_cov254'
p7632
aa(lp7633
S'scaffold25510_cov231'
p7634
aS'scaffold8365_cov240'
p7635
a(lp7636
I1
a(lp7637
F0.243243
aaI37
aa(lp7638
I1
a(lp7639
F0.314286
aaI35
aa(lp7640
I1
a(lp7641
F0.277778
aaI36
aa(lp7642
I1
a(lp7643
F0.225806
aaI31
aaa(lp7644
S'scaffold10029_cov156'
p7645
aS'scaffold34854_cov183'
p7646
a(lp7647
I1
a(lp7648
F0.435897
aaI78
aa(lp7649
I1
a(lp7650
F0.285714
aaI21
aa(lp7651
I1
a(lp7652
F0.28
aaI25
aa(lp7653
I1
a(lp7654
F0.352941
aaI34
aa(lp7655
I1
a(lp7656
F0.28
aaI25
aaa(lp7657
S'scaffold2246_cov240'
p7658
aS'scaffold4949_cov266'
p7659
aa(lp7660
S'scaffold1253_cov168'
p7661
aS'scaffold849_cov247'
p7662
a(lp7663
I1
a(lp7664
F0.475
aaI40
aa(lp7665
I1
a(lp7666
F0.25
aaI36
aa(lp7667
I1
a(lp7668
F0.323529
aaI34
aa(lp7669
I1
a(lp7670
F0.35
aaI40
aa(lp7671
I1
a(lp7672
F0.363636
aaI33
aa(lp7673
I1
a(lp7674
F0.421053
aaI38
aa(lp7675
I1
a(lp7676
F0.378378
aaI37
aa(lp7677
I1
a(lp7678
F0.28125
aaI32
aa(lp7679
I1
a(lp7680
F0.28125
aaI32
aa(lp7681
I1
a(lp7682
F0.285714
aaI35
aa(lp7683
I1
a(lp7684
F0.378378
aaI37
aa(lp7685
I1
a(lp7686
F0.410714
aaI56
aa(lp7687
I1
a(lp7688
F0.25
aaI48
aa(lp7689
I1
a(lp7690
F0.464286
aaI28
aa(lp7691
I1
a(lp7692
F0.291667
aaI24
aa(lp7693
I1
a(lp7694
F0.357143
aaI28
aa(lp7695
I1
a(lp7696
F0.46875
aaI32
aa(lp7697
I1
a(lp7698
F0.235294
aaI34
aa(lp7699
I1
a(lp7700
F0.230769
aaI26
aa(lp7701
I1
a(lp7702
F0.269231
aaI26
aa(lp7703
I1
a(lp7704
F0.435897
aaI39
aa(lp7705
I1
a(lp7706
F0.363636
aaI33
aa(lp7707
I1
a(lp7708
F0.3
aaI40
aa(lp7709
I1
a(lp7710
F0.235294
aaI51
aa(lp7711
I1
a(lp7712
F0.211538
aaI52
aa(lp7713
I1
a(lp7714
F0.268293
aaI41
aa(lp7715
I1
a(lp7716
F0.415094
aaI53
aa(lp7717
I1
a(lp7718
F0.482143
aaI56
aa(lp7719
I1
a(lp7720
F0.352941
aaI51
aa(lp7721
I1
a(lp7722
F0.386364
aaI44
aa(lp7723
I1
a(lp7724
F0.486486
aaI37
aa(lp7725
I1
a(lp7726
F0.485714
aaI35
aa(lp7727
I1
a(lp7728
F0.54
aaI50
aaa(lp7729
S'scaffold11878_cov196'
p7730
aS'scaffold1436_cov280'
p7731
a(lp7732
I1
a(lp7733
F0.583333
aaI48
aa(lp7734
I1
a(lp7735
F0.666667
aaI36
aa(lp7736
I1
a(lp7737
F0.333333
aaI21
aa(lp7738
I1
a(lp7739
F0.37037
aaI27
aa(lp7740
I1
a(lp7741
F0.548387
aaI31
aa(lp7742
I1
a(lp7743
F0.333333
aaI27
aa(lp7744
I1
a(lp7745
F0.25
aaI24
aaa(lp7746
S'scaffold4654_cov204'
p7747
aS'scaffold6978_cov264'
p7748
a(lp7749
I1
a(lp7750
F0.290323
aaI31
aa(lp7751
I1
a(lp7752
F0.264706
aaI34
aa(lp7753
I1
a(lp7754
F0.257143
aaI35
aa(lp7755
I1
a(lp7756
F0.297297
aaI37
aa(lp7757
I1
a(lp7758
F0.289474
aaI38
aa(lp7759
I1
a(lp7760
F0.357143
aaI28
aa(lp7761
I1
a(lp7762
F0.37931
aaI29
aa(lp7763
I1
a(lp7764
F0.416667
aaI48
aa(lp7765
I1
a(lp7766
F0.510638
aaI47
aa(lp7767
I1
a(lp7768
F0.388889
aaI36
aa(lp7769
I1
a(lp7770
F0.204545
aaI44
aa(lp7771
I1
a(lp7772
F0.209302
aaI43
aaa(lp7773
S'scaffold3325_cov214'
p7774
aS'scaffold5976_cov266'
p7775
a(lp7776
I1
a(lp7777
F0.230769
aaI39
aa(lp7778
I1
a(lp7779
F0.204545
aaI44
aa(lp7780
I1
a(lp7781
F0.258065
aaI31
aa(lp7782
I1
a(lp7783
F0.258065
aaI31
aa(lp7784
I1
a(lp7785
F0.315789
aaI38
aa(lp7786
I1
a(lp7787
F0.289474
aaI38
aa(lp7788
I1
a(lp7789
F0.294118
aaI34
aa(lp7790
I1
a(lp7791
F0.212121
aaI33
aa(lp7792
I1
a(lp7793
F0.243243
aaI37
aa(lp7794
I1
a(lp7795
F0.2
aaI25
aa(lp7796
I1
a(lp7797
F0.208333
aaI24
aa(lp7798
I1
a(lp7799
F0.258065
aaI31
aaa(lp7800
S'scaffold1042_cov233'
p7801
aS'scaffold20788_cov116'
p7802
aa(lp7803
S'scaffold1999_cov166'
p7804
aS'scaffold6403_cov387'
p7805
a(lp7806
I1
a(lp7807
F0.409091
aaI44
aa(lp7808
I1
a(lp7809
F0.444444
aaI36
aa(lp7810
I1
a(lp7811
F0.218182
aaI55
aa(lp7812
I1
a(lp7813
F0.342105
aaI38
aa(lp7814
I1
a(lp7815
F0.275862
aaI29
aa(lp7816
I1
a(lp7817
F0.214286
aaI28
aa(lp7818
I1
a(lp7819
F0.2
aaI35
aa(lp7820
I1
a(lp7821
F0.222222
aaI36
aa(lp7822
I1
a(lp7823
F0.290323
aaI31
aa(lp7824
I1
a(lp7825
F0.259259
aaI27
aa(lp7826
I1
a(lp7827
F0.27907
aaI43
aaa(lp7828
S'scaffold854_cov247'
p7829
aS'scaffold9044_cov264'
p7830
a(lp7831
I1
a(lp7832
F0.314286
aaI35
aa(lp7833
I1
a(lp7834
F0.59322
aaI59
aa(lp7835
I1
a(lp7836
F0.444444
aaI45
aa(lp7837
I1
a(lp7838
F0.5
aaI50
aa(lp7839
I1
a(lp7840
F0.490196
aaI51
aaa(lp7841
S'scaffold2659_cov200'
p7842
aS'scaffold7260_cov230'
p7843
aa(lp7844
S'scaffold14897_cov267'
p7845
aS'scaffold5330_cov257'
p7846
aa(lp7847
S'scaffold1044_cov225'
p7848
aS'scaffold21510_cov192'
p7849
a(lp7850
I1
a(lp7851
F0.230769
aaI39
aa(lp7852
I1
a(lp7853
F0.205128
aaI39
aa(lp7854
I1
a(lp7855
F0.242424
aaI33
aaa(lp7856
S'scaffold10673_cov201'
p7857
aS'scaffold3680_cov185'
p7858
a(lp7859
I1
a(lp7860
F0.37037
aaI27
aa(lp7861
I1
a(lp7862
F0.365854
aaI41
aa(lp7863
I1
a(lp7864
F0.333333
aaI33
aa(lp7865
I1
a(lp7866
F0.25
aaI36
aaa(lp7867
S'scaffold4573_cov200'
p7868
aS'scaffold9482_cov230'
p7869
a(lp7870
I1
a(lp7871
F0.363636
aaI33
aa(lp7872
I1
a(lp7873
F0.25
aaI40
aa(lp7874
I1
a(lp7875
F0.25
aaI16
aa(lp7876
I1
a(lp7877
F0.588235
aaI34
aa(lp7878
I1
a(lp7879
F0.454545
aaI22
aa(lp7880
I1
a(lp7881
F0.35
aaI20
aa(lp7882
I1
a(lp7883
F0.36
aaI25
aa(lp7884
I1
a(lp7885
F0.384615
aaI26
aa(lp7886
I1
a(lp7887
F0.227273
aaI22
aa(lp7888
I1
a(lp7889
F0.37931
aaI29
aa(lp7890
I1
a(lp7891
F0.333333
aaI27
aa(lp7892
I1
a(lp7893
F0.368421
aaI19
aa(lp7894
I1
a(lp7895
F0.290323
aaI31
aaa(lp7896
S'scaffold10547_cov289'
p7897
aS'scaffold11428_cov295'
p7898
a(lp7899
I1
a(lp7900
F0.447368
aaI38
aaa(lp7901
S'scaffold22541_cov161'
p7902
aS'scaffold6820_cov173'
p7903
aa(lp7904
S'scaffold5690_cov178'
p7905
aS'scaffold8992_cov141'
p7906
aa(lp7907
S'scaffold1435_cov176'
p7908
aS'scaffold7695_cov182'
p7909
a(lp7910
I1
a(lp7911
F0.228571
aaI35
aa(lp7912
I1
a(lp7913
F0.333333
aaI30
aa(lp7914
I1
a(lp7915
F0.344828
aaI29
aa(lp7916
I1
a(lp7917
F0.25
aaI28
aa(lp7918
I1
a(lp7919
F0.291667
aaI24
aaa(lp7920
S'scaffold35739_cov310'
p7921
aS'scaffold9147_cov314'
p7922
aa(lp7923
S'scaffold314_cov314'
p7924
aS'scaffold315_cov308'
p7925
aa(lp7926
S'scaffold3062_cov254'
p7927
aS'scaffold34957_cov248'
p7928
a(lp7929
I1
a(lp7930
F0.333333
aaI42
aaa(lp7931
S'scaffold18214_cov222'
p7932
aS'scaffold3250_cov209'
p7933
a(lp7934
I1
a(lp7935
F0.425
aaI40
aa(lp7936
I1
a(lp7937
F0.305556
aaI36
aa(lp7938
I1
a(lp7939
F0.258065
aaI31
aaa(lp7940
S'scaffold914_cov157'
p7941
aS'scaffold915_cov207'
p7942
a(lp7943
I1
a(lp7944
F0.3
aaI20
aa(lp7945
I1
a(lp7946
F0.310345
aaI29
aa(lp7947
I1
a(lp7948
F0.282051
aaI39
aa(lp7949
I1
a(lp7950
F0.302326
aaI43
aa(lp7951
I1
a(lp7952
F0.236842
aaI38
aa(lp7953
I1
a(lp7954
F0.225806
aaI31
aa(lp7955
I1
a(lp7956
F0.366667
aaI30
aa(lp7957
I1
a(lp7958
F0.24
aaI25
aa(lp7959
I1
a(lp7960
F0.24
aaI25
aa(lp7961
I1
a(lp7962
F0.208333
aaI24
aa(lp7963
I1
a(lp7964
F0.233333
aaI30
aa(lp7965
I1
a(lp7966
F0.225806
aaI31
aa(lp7967
I1
a(lp7968
F0.291667
aaI24
aa(lp7969
I1
a(lp7970
F0.227273
aaI22
aa(lp7971
I1
a(lp7972
F0.227273
aaI22
aa(lp7973
I1
a(lp7974
F0.217391
aaI23
aa(lp7975
I1
a(lp7976
F0.2
aaI25
aa(lp7977
I1
a(lp7978
F0.28
aaI25
aa(lp7979
I1
a(lp7980
F0.291667
aaI24
aa(lp7981
I1
a(lp7982
F0.24
aaI25
aa(lp7983
I1
a(lp7984
F0.534884
aaI43
aa(lp7985
I1
a(lp7986
F0.263158
aaI19
aa(lp7987
I1
a(lp7988
F0.277778
aaI18
aa(lp7989
I1
a(lp7990
F0.263158
aaI19
aa(lp7991
I1
a(lp7992
F0.2
aaI25
aa(lp7993
I1
a(lp7994
F0.241379
aaI29
aa(lp7995
I1
a(lp7996
F0.477612
aaI67
aa(lp7997
I1
a(lp7998
F0.606557
aaI61
aa(lp7999
I1
a(lp8000
F0.347222
aaI72
aa(lp8001
I1
a(lp8002
F0.380952
aaI84
aa(lp8003
I1
a(lp8004
F0.297297
aaI37
aa(lp8005
I1
a(lp8006
F0.285714
aaI35
aa(lp8007
I1
a(lp8008
F0.46875
aaI32
aa(lp8009
I1
a(lp8010
F0.290323
aaI31
aa(lp8011
I1
a(lp8012
F0.259259
aaI27
aa(lp8013
I1
a(lp8014
F0.45
aaI40
aa(lp8015
I1
a(lp8016
F0.263158
aaI19
aa(lp8017
I1
a(lp8018
F0.25
aaI20
aa(lp8019
I1
a(lp8020
F0.205882
aaI34
aa(lp8021
I1
a(lp8022
F0.317073
aaI41
aaa(lp8023
S'scaffold2497_cov220'
p8024
aS'scaffold9204_cov285'
p8025
a(lp8026
I1
a(lp8027
F0.481481
aaI27
aaa(lp8028
S'scaffold4452_cov272'
p8029
aS'scaffold7051_cov276'
p8030
a(lp8031
I1
a(lp8032
F0.44898
aaI49
aaa(lp8033
S'scaffold33985_cov263'
p8034
aS'scaffold383_cov198'
p8035
a(lp8036
I1
a(lp8037
F0.352941
aaI34
aa(lp8038
I1
a(lp8039
F0.378378
aaI37
aa(lp8040
I1
a(lp8041
F0.5
aaI38
aa(lp8042
I1
a(lp8043
F0.258065
aaI31
aa(lp8044
I1
a(lp8045
F0.259259
aaI27
aa(lp8046
I1
a(lp8047
F0.222222
aaI36
aa(lp8048
I1
a(lp8049
F0.210526
aaI38
aa(lp8050
I1
a(lp8051
F0.255814
aaI43
aa(lp8052
I1
a(lp8053
F0.324324
aaI37
aa(lp8054
I1
a(lp8055
F0.388889
aaI36
aa(lp8056
I1
a(lp8057
F0.434783
aaI46
aa(lp8058
I1
a(lp8059
F0.24
aaI25
aa(lp8060
I1
a(lp8061
F0.219512
aaI41
aa(lp8062
I1
a(lp8063
F0.219512
aaI41
aa(lp8064
I1
a(lp8065
F0.225
aaI40
aa(lp8066
I1
a(lp8067
F0.375
aaI32
aa(lp8068
I1
a(lp8069
F0.393939
aaI33
aa(lp8070
I1
a(lp8071
F0.375
aaI32
aa(lp8072
I1
a(lp8073
F0.34375
aaI32
aa(lp8074
I1
a(lp8075
F0.388889
aaI36
aa(lp8076
I1
a(lp8077
F0.310345
aaI29
aa(lp8078
I1
a(lp8079
F0.263158
aaI19
aa(lp8080
I1
a(lp8081
F0.290323
aaI31
aa(lp8082
I1
a(lp8083
F0.375
aaI32
aa(lp8084
I1
a(lp8085
F0.361111
aaI36
aa(lp8086
I1
a(lp8087
F0.289474
aaI38
aa(lp8088
I1
a(lp8089
F0.365854
aaI41
aa(lp8090
I1
a(lp8091
F0.258065
aaI31
aa(lp8092
I1
a(lp8093
F0.26087
aaI23
aa(lp8094
I1
a(lp8095
F0.26087
aaI23
aa(lp8096
I1
a(lp8097
F0.26087
aaI23
aa(lp8098
I1
a(lp8099
F0.25
aaI24
aa(lp8100
I1
a(lp8101
F0.230769
aaI26
aa(lp8102
I1
a(lp8103
F0.208333
aaI24
aa(lp8104
I1
a(lp8105
F0.208333
aaI24
aa(lp8106
I1
a(lp8107
F0.387097
aaI31
aa(lp8108
I1
a(lp8109
F0.333333
aaI36
aa(lp8110
I1
a(lp8111
F0.378378
aaI37
aa(lp8112
I1
a(lp8113
F0.342105
aaI38
aa(lp8114
I1
a(lp8115
F0.26087
aaI23
aa(lp8116
I1
a(lp8117
F0.2
aaI30
aa(lp8118
I1
a(lp8119
F0.233333
aaI30
aa(lp8120
I1
a(lp8121
F0.233333
aaI30
aa(lp8122
I1
a(lp8123
F0.513514
aaI37
aaa(lp8124
S'scaffold10520_cov256'
p8125
aS'scaffold4734_cov186'
p8126
a(lp8127
I1
a(lp8128
F0.347826
aaI23
aaa(lp8129
S'scaffold4548_cov238'
p8130
aS'scaffold8091_cov211'
p8131
a(lp8132
I1
a(lp8133
F0.425532
aaI47
aa(lp8134
I1
a(lp8135
F0.391304
aaI46
aa(lp8136
I1
a(lp8137
F0.386364
aaI44
aa(lp8138
I1
a(lp8139
F0.304348
aaI23
aa(lp8140
I1
a(lp8141
F0.318182
aaI22
aaa(lp8142
S'scaffold34054_cov214'
p8143
aS'scaffold7758_cov177'
p8144
aa(lp8145
S'scaffold34753_cov325'
p8146
aS'scaffold78_cov298'
p8147
a(lp8148
I1
a(lp8149
F0.347826
aaI46
aa(lp8150
I1
a(lp8151
F0.369565
aaI46
aa(lp8152
I1
a(lp8153
F0.424242
aaI33
aa(lp8154
I1
a(lp8155
F0.645833
aaI48
aa(lp8156
I1
a(lp8157
F0.378378
aaI37
aa(lp8158
I1
a(lp8159
F0.363636
aaI33
aa(lp8160
I1
a(lp8161
F0.447368
aaI38
aa(lp8162
I1
a(lp8163
F0.394737
aaI38
aa(lp8164
I1
a(lp8165
F0.435897
aaI39
aa(lp8166
I1
a(lp8167
F0.322581
aaI31
aa(lp8168
I1
a(lp8169
F0.266667
aaI30
aa(lp8170
I1
a(lp8171
F0.555556
aaI36
aa(lp8172
I1
a(lp8173
F0.534884
aaI43
aa(lp8174
I1
a(lp8175
F0.459459
aaI37
aa(lp8176
I1
a(lp8177
F0.4
aaI35
aa(lp8178
I1
a(lp8179
F0.594595
aaI37
aa(lp8180
I1
a(lp8181
F0.45098
aaI51
aa(lp8182
I1
a(lp8183
F0.5
aaI32
aa(lp8184
I1
a(lp8185
F0.558824
aaI34
aa(lp8186
I1
a(lp8187
F0.487179
aaI39
aa(lp8188
I1
a(lp8189
F0.387755
aaI49
aa(lp8190
I1
a(lp8191
F0.56
aaI50
aa(lp8192
I1
a(lp8193
F0.363636
aaI33
aa(lp8194
I1
a(lp8195
F0.363636
aaI44
aa(lp8196
I1
a(lp8197
F0.313725
aaI51
aa(lp8198
I1
a(lp8199
F0.463415
aaI41
aa(lp8200
I1
a(lp8201
F0.52381
aaI42
aa(lp8202
I1
a(lp8203
F0.555556
aaI45
aa(lp8204
I1
a(lp8205
F0.347826
aaI46
aa(lp8206
I1
a(lp8207
F0.294118
aaI34
aa(lp8208
I1
a(lp8209
F0.403226
aaI62
aa(lp8210
I1
a(lp8211
F0.434783
aaI46
aa(lp8212
I1
a(lp8213
F0.28
aaI25
aa(lp8214
I1
a(lp8215
F0.205882
aaI34
aa(lp8216
I1
a(lp8217
F0.233871
aaI124
aa(lp8218
I1
a(lp8219
F0.485714
aaI35
aa(lp8220
I1
a(lp8221
F0.321429
aaI28
aaa(lp8222
S'scaffold34809_cov225'
p8223
aS'scaffold34892_cov211'
p8224
a(lp8225
I1
a(lp8226
F0.594595
aaI37
aa(lp8227
I1
a(lp8228
F0.458333
aaI48
aa(lp8229
I1
a(lp8230
F0.511111
aaI45
aa(lp8231
I1
a(lp8232
F0.206897
aaI29
aa(lp8233
I1
a(lp8234
F0.241379
aaI29
aa(lp8235
I1
a(lp8236
F0.233333
aaI30
aa(lp8237
I1
a(lp8238
F0.241379
aaI29
aa(lp8239
I1
a(lp8240
F0.263158
aaI19
aa(lp8241
I1
a(lp8242
F0.263158
aaI19
aa(lp8243
I1
a(lp8244
F0.307692
aaI39
aa(lp8245
I1
a(lp8246
F0.285714
aaI35
aa(lp8247
I1
a(lp8248
F0.296296
aaI27
aa(lp8249
I1
a(lp8250
F0.37931
aaI29
aaa(lp8251
S'scaffold10411_cov164'
p8252
aS'scaffold36055_cov189'
p8253
a(lp8254
I1
a(lp8255
F0.285714
aaI35
aa(lp8256
I1
a(lp8257
F0.55814
aaI43
aaa(lp8258
S'scaffold1228_cov289'
p8259
aS'scaffold294_cov265'
p8260
a(lp8261
I1
a(lp8262
F0.421053
aaI57
aa(lp8263
I1
a(lp8264
F0.515152
aaI33
aa(lp8265
I1
a(lp8266
F0.428571
aaI28
aa(lp8267
I1
a(lp8268
F0.393939
aaI33
aa(lp8269
I1
a(lp8270
F0.285714
aaI35
aa(lp8271
I1
a(lp8272
F0.285714
aaI35
aa(lp8273
I1
a(lp8274
F0.285714
aaI28
aa(lp8275
I1
a(lp8276
F0.272727
aaI11
aa(lp8277
I1
a(lp8278
F0.514286
aaI35
aa(lp8279
I1
a(lp8280
F0.341463
aaI41
aa(lp8281
I1
a(lp8282
F0.309524
aaI42
aa(lp8283
I1
a(lp8284
F0.407407
aaI27
aaasg3566
(lp8285
(lp8286
g6721
ag6722
aa(lp8287
g6742
ag6743
aa(lp8288
g6747
ag6748
a(lp8289
I1
a(lp8290
F0.32
aaI50
aa(lp8291
I1
a(lp8292
F0.339623
aaI53
aa(lp8293
I1
a(lp8294
F0.282609
aaI46
aa(lp8295
I1
a(lp8296
F0.440678
aaI59
aa(lp8297
I1
a(lp8298
F0.383333
aaI60
aa(lp8299
I1
a(lp8300
F0.460317
aaI63
aa(lp8301
I1
a(lp8302
F0.519231
aaI52
aa(lp8303
I1
a(lp8304
F0.522727
aaI44
aa(lp8305
I1
a(lp8306
F0.444444
aaI27
aaa(lp8307
g6774
ag6775
a(lp8308
I1
a(lp8309
F0.2
aaI25
aa(lp8310
I1
a(lp8311
F0.264706
aaI34
aa(lp8312
I1
a(lp8313
F0.272727
aaI33
aa(lp8314
I1
a(lp8315
F0.4
aaI25
aa(lp8316
I1
a(lp8317
F0.214286
aaI28
aaa(lp8318
g6785
ag6786
aa(lp8319
g6788
ag6789
a(lp8320
I1
a(lp8321
F0.484848
aaI33
aa(lp8322
I1
a(lp8323
F0.621622
aaI37
aa(lp8324
I1
a(lp8325
F0.242424
aaI33
aa(lp8326
I1
a(lp8327
F0.277778
aaI36
aa(lp8328
I1
a(lp8329
F0.206897
aaI29
aa(lp8330
I1
a(lp8331
F0.484848
aaI33
aa(lp8332
I1
a(lp8333
F0.352941
aaI34
aa(lp8334
I1
a(lp8335
F0.214286
aaI28
aa(lp8336
I1
a(lp8337
F0.285714
aaI21
aa(lp8338
I1
a(lp8339
F0.277778
aaI18
aa(lp8340
I1
a(lp8341
F0.210526
aaI19
aaa(lp8342
g6791
ag6792
aa(lp8343
g6820
ag6821
a(lp8344
I1
a(lp8345
F0.285714
aaI28
aa(lp8346
I1
a(lp8347
F0.487805
aaI41
aa(lp8348
I1
a(lp8349
F0.392857
aaI28
aaa(lp8350
g6845
ag6846
aa(lp8351
g6848
ag6849
a(lp8352
I1
a(lp8353
F0.428571
aaI21
aa(lp8354
I1
a(lp8355
F0.25
aaI20
aa(lp8356
I1
a(lp8357
F0.2
aaI15
aaa(lp8358
g6851
ag6852
aa(lp8359
g6856
ag6857
aa(lp8360
g6859
ag6860
aa(lp8361
g6862
ag6863
aa(lp8362
g6873
ag6874
aa(lp8363
g6878
ag6879
aa(lp8364
g6883
ag6884
aa(lp8365
g6886
ag6887
aa(lp8366
g6889
ag6890
aa(lp8367
g6898
ag6899
a(lp8368
I1
a(lp8369
F0.230769
aaI26
aa(lp8370
I1
a(lp8371
F0.2
aaI25
aa(lp8372
I1
a(lp8373
F0.25
aaI28
aa(lp8374
I1
a(lp8375
F0.218182
aaI55
aa(lp8376
I1
a(lp8377
F0.5625
aaI64
aa(lp8378
I1
a(lp8379
F0.52
aaI50
aa(lp8380
I1
a(lp8381
F0.21875
aaI64
aa(lp8382
I1
a(lp8383
F0.55
aaI60
aa(lp8384
I1
a(lp8385
F0.254902
aaI51
aaa(lp8386
g6925
ag6926
a(lp8387
I1
a(lp8388
F0.28
aaI25
aa(lp8389
I1
a(lp8390
F0.28
aaI25
aa(lp8391
I1
a(lp8392
F0.272727
aaI33
aa(lp8393
I1
a(lp8394
F0.5
aaI36
aa(lp8395
I1
a(lp8396
F0.545455
aaI33
aa(lp8397
I1
a(lp8398
F0.242424
aaI33
aa(lp8399
I1
a(lp8400
F0.25
aaI28
aa(lp8401
I1
a(lp8402
F0.266667
aaI30
aa(lp8403
I1
a(lp8404
F0.241379
aaI29
aaa(lp8405
g6942
ag6943
a(lp8406
I1
a(lp8407
F0.378378
aaI37
aaa(lp8408
g6945
ag6946
aa(lp8409
g6948
ag6949
a(lp8410
I1
a(lp8411
F0.611111
aaI18
aa(lp8412
I1
a(lp8413
F0.0
aaI16
aa(lp8414
I1
a(lp8415
F0.0
aaI12
aa(lp8416
I1
a(lp8417
F0.259259
aaI27
aa(lp8418
I1
a(lp8419
F0.208333
aaI24
aa(lp8420
I1
a(lp8421
F0.0
aaI17
aa(lp8422
I1
a(lp8423
F0.0
aaI3
aa(lp8424
I1
a(lp8425
F0.0
aaI6
aa(lp8426
I1
a(lp8427
F0.0
aaI6
aa(lp8428
I1
a(lp8429
F0.0
aaI4
aaa(lp8430
g6951
ag6952
a(lp8431
I1
a(lp8432
F0.351351
aaI37
aa(lp8433
I1
a(lp8434
F0.361111
aaI36
aa(lp8435
I1
a(lp8436
F0.206897
aaI29
aa(lp8437
I1
a(lp8438
F0.627451
aaI51
aa(lp8439
I1
a(lp8440
F0.617021
aaI47
aa(lp8441
I1
a(lp8442
F0.34375
aaI32
aa(lp8443
I1
a(lp8444
F0.424242
aaI33
aa(lp8445
I1
a(lp8446
F0.26
aaI50
aaa(lp8447
g6958
ag6959
aa(lp8448
g6975
ag6976
aa(lp8449
g7010
ag7011
aa(lp8450
g7013
ag7014
a(lp8451
I1
a(lp8452
F0.272727
aaI22
aa(lp8453
I1
a(lp8454
F0.3
aaI30
aaa(lp8455
g7016
ag7017
aa(lp8456
g7019
ag7020
aa(lp8457
g7032
ag7033
a(lp8458
I1
a(lp8459
F0.477273
aaI44
aa(lp8460
I1
a(lp8461
F0.34375
aaI32
aa(lp8462
I1
a(lp8463
F0.441176
aaI34
aa(lp8464
I1
a(lp8465
F0.419355
aaI31
aa(lp8466
I1
a(lp8467
F0.4375
aaI32
aa(lp8468
I1
a(lp8469
F0.375
aaI24
aa(lp8470
I1
a(lp8471
F0.375
aaI24
aa(lp8472
I1
a(lp8473
F0.565217
aaI46
aa(lp8474
I1
a(lp8475
F0.463415
aaI41
aa(lp8476
I1
a(lp8477
F0.384615
aaI39
aa(lp8478
I1
a(lp8479
F0.404762
aaI42
aa(lp8480
I1
a(lp8481
F0.428571
aaI21
aa(lp8482
I1
a(lp8483
F0.333333
aaI21
aa(lp8484
I1
a(lp8485
F0.304348
aaI23
aa(lp8486
I1
a(lp8487
F0.380952
aaI21
aa(lp8488
I1
a(lp8489
F0.238095
aaI21
aa(lp8490
I1
a(lp8491
F0.291667
aaI24
aa(lp8492
I1
a(lp8493
F0.310345
aaI29
aa(lp8494
I1
a(lp8495
F0.488889
aaI45
aa(lp8496
I1
a(lp8497
F0.0
aaI26
aaa(lp8498
g7057
ag7058
a(lp8499
I1
a(lp8500
F0.206897
aaI29
aa(lp8501
I1
a(lp8502
F0.414634
aaI41
aaa(lp8503
g7070
ag7071
a(lp8504
I1
a(lp8505
F0.416667
aaI36
aa(lp8506
I1
a(lp8507
F0.387097
aaI31
aa(lp8508
I1
a(lp8509
F0.307692
aaI26
aa(lp8510
I1
a(lp8511
F0.407407
aaI27
aa(lp8512
I1
a(lp8513
F0.392857
aaI28
aa(lp8514
I1
a(lp8515
F0.592593
aaI54
aa(lp8516
I1
a(lp8517
F0.46875
aaI32
aa(lp8518
I1
a(lp8519
F0.46875
aaI32
aa(lp8520
I1
a(lp8521
F0.485714
aaI35
aa(lp8522
I1
a(lp8523
F0.269231
aaI26
aa(lp8524
I1
a(lp8525
F0.358974
aaI39
aa(lp8526
I1
a(lp8527
F0.511111
aaI45
aa(lp8528
I1
a(lp8529
F0.282051
aaI39
aa(lp8530
I1
a(lp8531
F0.486486
aaI37
aaa(lp8532
g7113
ag7114
a(lp8533
I1
a(lp8534
F0.574074
aaI54
aa(lp8535
I1
a(lp8536
F0.514286
aaI35
aa(lp8537
I1
a(lp8538
F0.5
aaI36
aa(lp8539
I1
a(lp8540
F0.55
aaI40
aa(lp8541
I1
a(lp8542
F0.207547
aaI53
aa(lp8543
I1
a(lp8544
F0.588235
aaI51
aaa(lp8545
g7120
ag7121
a(lp8546
I1
a(lp8547
F0.0
aaI7
aa(lp8548
I1
a(lp8549
F0.390244
aaI41
aaa(lp8550
g7135
ag7136
a(lp8551
I1
a(lp8552
F0.529412
aaI34
aa(lp8553
I1
a(lp8554
F0.482759
aaI58
aaa(lp8555
g7198
ag7199
a(lp8556
I1
a(lp8557
F0.333333
aaI30
aa(lp8558
I1
a(lp8559
F0.444444
aaI45
aa(lp8560
I1
a(lp8561
F0.30303
aaI33
aa(lp8562
I1
a(lp8563
F0.225806
aaI31
aa(lp8564
I1
a(lp8565
F0.242424
aaI33
aaa(lp8566
g7201
ag7202
aa(lp8567
g7206
ag7207
a(lp8568
I1
a(lp8569
F0.25
aaI12
aa(lp8570
I1
a(lp8571
F0.2
aaI15
aa(lp8572
I1
a(lp8573
F0.210526
aaI19
aa(lp8574
I1
a(lp8575
F0.25
aaI24
aa(lp8576
I1
a(lp8577
F0.241379
aaI29
aa(lp8578
I1
a(lp8579
F0.28125
aaI32
aa(lp8580
I1
a(lp8581
F0.344828
aaI29
aa(lp8582
I1
a(lp8583
F0.481481
aaI27
aa(lp8584
I1
a(lp8585
F0.464286
aaI28
aa(lp8586
I1
a(lp8587
F0.366667
aaI30
aa(lp8588
I1
a(lp8589
F0.37037
aaI27
aa(lp8590
I1
a(lp8591
F0.4
aaI25
aa(lp8592
I1
a(lp8593
F0.333333
aaI24
aa(lp8594
I1
a(lp8595
F0.28
aaI25
aa(lp8596
I1
a(lp8597
F0.32
aaI25
aa(lp8598
I1
a(lp8599
F0.466667
aaI30
aa(lp8600
I1
a(lp8601
F0.366667
aaI30
aa(lp8602
I1
a(lp8603
F0.321429
aaI28
aa(lp8604
I1
a(lp8605
F0.3
aaI30
aa(lp8606
I1
a(lp8607
F0.24
aaI25
aa(lp8608
I1
a(lp8609
F0.25
aaI28
aa(lp8610
I1
a(lp8611
F0.222222
aaI18
aa(lp8612
I1
a(lp8613
F0.233333
aaI30
aa(lp8614
I1
a(lp8615
F0.3
aaI20
aa(lp8616
I1
a(lp8617
F0.26087
aaI23
aa(lp8618
I1
a(lp8619
F0.26087
aaI23
aa(lp8620
I1
a(lp8621
F0.368421
aaI19
aa(lp8622
I1
a(lp8623
F0.477273
aaI44
aa(lp8624
I1
a(lp8625
F0.465116
aaI43
aa(lp8626
I1
a(lp8627
F0.222222
aaI27
aaa(lp8628
g7315
ag7316
a(lp8629
I1
a(lp8630
F0.470588
aaI34
aaa(lp8631
g7326
ag7327
aa(lp8632
g7329
ag7330
a(lp8633
I1
a(lp8634
F0.25
aaI20
aa(lp8635
I1
a(lp8636
F0.210526
aaI19
aa(lp8637
I1
a(lp8638
F0.242424
aaI33
aaa(lp8639
g7332
ag7333
a(lp8640
I1
a(lp8641
F0.489362
aaI47
aa(lp8642
I1
a(lp8643
F0.48
aaI25
aa(lp8644
I1
a(lp8645
F0.481481
aaI27
aa(lp8646
I1
a(lp8647
F0.444444
aaI36
aa(lp8648
I1
a(lp8649
F0.37931
aaI29
aa(lp8650
I1
a(lp8651
F0.4
aaI30
aa(lp8652
I1
a(lp8653
F0.363636
aaI33
aa(lp8654
I1
a(lp8655
F0.363636
aaI33
aa(lp8656
I1
a(lp8657
F0.352941
aaI34
aa(lp8658
I1
a(lp8659
F0.296296
aaI27
aa(lp8660
I1
a(lp8661
F0.333333
aaI24
aa(lp8662
I1
a(lp8663
F0.259259
aaI27
aa(lp8664
I1
a(lp8665
F0.259259
aaI27
aa(lp8666
I1
a(lp8667
F0.24
aaI25
aa(lp8668
I1
a(lp8669
F0.238095
aaI21
aa(lp8670
I1
a(lp8671
F0.290909
aaI55
aaa(lp8672
g7335
ag7336
aa(lp8673
g7338
ag7339
aa(lp8674
g7341
ag7342
aa(lp8675
g7344
ag7345
a(lp8676
I1
a(lp8677
F0.478261
aaI23
aa(lp8678
I1
a(lp8679
F0.285714
aaI35
aa(lp8680
I1
a(lp8681
F0.25
aaI24
aa(lp8682
I1
a(lp8683
F0.25
aaI40
aa(lp8684
I1
a(lp8685
F0.285714
aaI42
aa(lp8686
I1
a(lp8687
F0.413043
aaI46
aa(lp8688
I1
a(lp8689
F0.4
aaI45
aa(lp8690
I1
a(lp8691
F0.419355
aaI31
aa(lp8692
I1
a(lp8693
F0.380952
aaI42
aa(lp8694
I1
a(lp8695
F0.418605
aaI43
aa(lp8696
I1
a(lp8697
F0.241379
aaI29
aa(lp8698
I1
a(lp8699
F0.578947
aaI19
aa(lp8700
I1
a(lp8701
F0.529412
aaI17
aa(lp8702
I1
a(lp8703
F0.473684
aaI19
aa(lp8704
I1
a(lp8705
F0.375
aaI32
aa(lp8706
I1
a(lp8707
F0.482759
aaI29
aa(lp8708
I1
a(lp8709
F0.321429
aaI28
aa(lp8710
I1
a(lp8711
F0.351351
aaI37
aaa(lp8712
g7385
ag7386
a(lp8713
I1
a(lp8714
F0.471698
aaI53
aa(lp8715
I1
a(lp8716
F0.564103
aaI39
aa(lp8717
I1
a(lp8718
F0.531915
aaI47
aa(lp8719
I1
a(lp8720
F0.520833
aaI48
aa(lp8721
I1
a(lp8722
F0.571429
aaI35
aa(lp8723
I1
a(lp8724
F0.461538
aaI52
aa(lp8725
I1
a(lp8726
F0.323529
aaI34
aa(lp8727
I1
a(lp8728
F0.297297
aaI37
aa(lp8729
I1
a(lp8730
F0.375
aaI40
aa(lp8731
I1
a(lp8732
F0.410256
aaI39
aa(lp8733
I1
a(lp8734
F0.448276
aaI29
aa(lp8735
I1
a(lp8736
F0.366667
aaI30
aa(lp8737
I1
a(lp8738
F0.333333
aaI21
aa(lp8739
I1
a(lp8740
F0.346154
aaI26
aa(lp8741
I1
a(lp8742
F0.555556
aaI27
aaa(lp8743
g7450
ag7451
a(lp8744
I1
a(lp8745
F0.4
aaI40
aa(lp8746
I1
a(lp8747
F0.214286
aaI28
aa(lp8748
I1
a(lp8749
F0.2
aaI30
aa(lp8750
I1
a(lp8751
F0.328571
aaI70
aaa(lp8752
g7453
ag7454
a(lp8753
I1
a(lp8754
F0.0
aaI23
aa(lp8755
I1
a(lp8756
F0.25
aaI24
aa(lp8757
I1
a(lp8758
F0.238095
aaI21
aa(lp8759
I1
a(lp8760
F0.464286
aaI56
aa(lp8761
I1
a(lp8762
F0.410714
aaI56
aa(lp8763
I1
a(lp8764
F0.285714
aaI35
aa(lp8765
I1
a(lp8766
F0.277778
aaI36
aa(lp8767
I1
a(lp8768
F0.3125
aaI48
aa(lp8769
I1
a(lp8770
F0.342857
aaI35
aa(lp8771
I1
a(lp8772
F0.371429
aaI35
aa(lp8773
I1
a(lp8774
F0.428571
aaI35
aa(lp8775
I1
a(lp8776
F0.238095
aaI42
aaa(lp8777
g7460
ag7461
aa(lp8778
g7475
ag7476
a(lp8779
I1
a(lp8780
F0.214286
aaI28
aa(lp8781
I1
a(lp8782
F0.225806
aaI31
aa(lp8783
I1
a(lp8784
F0.0
aaI10
aa(lp8785
I1
a(lp8786
F0.4
aaI15
aa(lp8787
I1
a(lp8788
F0.466667
aaI30
aa(lp8789
I1
a(lp8790
F0.36
aaI25
aa(lp8791
I1
a(lp8792
F0.485714
aaI35
aa(lp8793
I1
a(lp8794
F0.5
aaI40
aa(lp8795
I1
a(lp8796
F0.5
aaI24
aa(lp8797
I1
a(lp8798
F0.3125
aaI16
aaa(lp8799
g7478
ag7479
a(lp8800
I1
a(lp8801
F0.363636
aaI33
aa(lp8802
I1
a(lp8803
F0.361111
aaI36
aa(lp8804
I1
a(lp8805
F0.372093
aaI43
aaa(lp8806
g7499
ag7500
a(lp8807
I1
a(lp8808
F0.272727
aaI22
aaa(lp8809
g7514
ag7515
aa(lp8810
g7517
ag7518
a(lp8811
I1
a(lp8812
F0.419355
aaI62
aa(lp8813
I1
a(lp8814
F0.413793
aaI58
aa(lp8815
I1
a(lp8816
F0.392857
aaI56
aa(lp8817
I1
a(lp8818
F0.435484
aaI62
aa(lp8819
I1
a(lp8820
F0.46875
aaI64
aa(lp8821
I1
a(lp8822
F0.434783
aaI46
aa(lp8823
I1
a(lp8824
F0.222222
aaI54
aaa(lp8825
g7596
ag7597
aa(lp8826
g7599
ag7600
aa(lp8827
g7616
ag7617
a(lp8828
I1
a(lp8829
F0.457143
aaI35
aa(lp8830
I1
a(lp8831
F0.266667
aaI30
aa(lp8832
I1
a(lp8833
F0.34375
aaI32
aa(lp8834
I1
a(lp8835
F0.354839
aaI31
aa(lp8836
I1
a(lp8837
F0.354839
aaI31
aa(lp8838
I1
a(lp8839
F0.3
aaI30
aa(lp8840
I1
a(lp8841
F0.272727
aaI33
aa(lp8842
I1
a(lp8843
F0.241379
aaI29
aa(lp8844
I1
a(lp8845
F0.225806
aaI31
aa(lp8846
I1
a(lp8847
F0.21875
aaI32
aa(lp8848
I1
a(lp8849
F0.225806
aaI31
aa(lp8850
I1
a(lp8851
F0.233333
aaI30
aaa(lp8852
g7619
ag7620
aa(lp8853
g7622
ag7623
aa(lp8854
g7625
ag7626
a(lp8855
I1
a(lp8856
F0.275862
aaI29
aa(lp8857
I1
a(lp8858
F0.321429
aaI28
aa(lp8859
I1
a(lp8860
F0.384615
aaI26
aa(lp8861
I1
a(lp8862
F0.423077
aaI26
aa(lp8863
I1
a(lp8864
F0.44
aaI25
aa(lp8865
I1
a(lp8866
F0.206897
aaI29
aa(lp8867
I1
a(lp8868
F0.214286
aaI28
aa(lp8869
I1
a(lp8870
F0.421053
aaI38
aa(lp8871
I1
a(lp8872
F0.52381
aaI42
aaa(lp8873
g7628
ag7629
aa(lp8874
g7631
ag7632
a(lp8875
I1
a(lp8876
F0.382979
aaI47
aa(lp8877
I1
a(lp8878
F0.219512
aaI41
aa(lp8879
I1
a(lp8880
F0.323529
aaI34
aaa(lp8881
g7634
ag7635
aa(lp8882
g7645
ag7646
aa(lp8883
g7658
ag7659
a(lp8884
I1
a(lp8885
F0.0
aaI56
aaa(lp8886
g7661
ag7662
aa(lp8887
g7730
ag7731
aa(lp8888
g7747
ag7748
a(lp8889
I1
a(lp8890
F0.456522
aaI46
aa(lp8891
I1
a(lp8892
F0.361702
aaI47
aa(lp8893
I1
a(lp8894
F0.441176
aaI34
aa(lp8895
I1
a(lp8896
F0.255319
aaI47
aa(lp8897
I1
a(lp8898
F0.27907
aaI43
aa(lp8899
I1
a(lp8900
F0.414634
aaI41
aa(lp8901
I1
a(lp8902
F0.5
aaI32
aaa(lp8903
g7774
ag7775
a(lp8904
I1
a(lp8905
F0.545455
aaI44
aa(lp8906
I1
a(lp8907
F0.378378
aaI37
aa(lp8908
I1
a(lp8909
F0.307692
aaI39
aa(lp8910
I1
a(lp8911
F0.25
aaI28
aa(lp8912
I1
a(lp8913
F0.243243
aaI37
aa(lp8914
I1
a(lp8915
F0.225
aaI40
aa(lp8916
I1
a(lp8917
F0.306122
aaI49
aa(lp8918
I1
a(lp8919
F0.26087
aaI23
aaa(lp8920
g7801
ag7802
a(lp8921
I1
a(lp8922
F0.543478
aaI46
aa(lp8923
I1
a(lp8924
F0.28125
aaI32
aa(lp8925
I1
a(lp8926
F0.25
aaI36
aaa(lp8927
g7804
ag7805
aa(lp8928
g7829
ag7830
a(lp8929
I1
a(lp8930
F0.217391
aaI23
aa(lp8931
I1
a(lp8932
F0.404255
aaI47
aa(lp8933
I1
a(lp8934
F0.277778
aaI36
aa(lp8935
I1
a(lp8936
F0.27027
aaI37
aa(lp8937
I1
a(lp8938
F0.529412
aaI34
aa(lp8939
I1
a(lp8940
F0.0
aaI24
aa(lp8941
I1
a(lp8942
F0.368421
aaI38
aa(lp8943
I1
a(lp8944
F0.4
aaI30
aa(lp8945
I1
a(lp8946
F0.4
aaI30
aa(lp8947
I1
a(lp8948
F0.333333
aaI30
aa(lp8949
I1
a(lp8950
F0.317073
aaI41
aa(lp8951
I1
a(lp8952
F0.0
aaI32
aaa(lp8953
g7842
ag7843
a(lp8954
I1
a(lp8955
F0.333333
aaI27
aa(lp8956
I1
a(lp8957
F0.222222
aaI18
aa(lp8958
I1
a(lp8959
F0.363636
aaI33
aa(lp8960
I1
a(lp8961
F0.30303
aaI33
aaa(lp8962
g7845
ag7846
a(lp8963
I1
a(lp8964
F0.674419
aaI43
aaa(lp8965
g7848
ag7849
a(lp8966
I1
a(lp8967
F0.351351
aaI37
aaa(lp8968
g7857
ag7858
a(lp8969
I1
a(lp8970
F0.448276
aaI29
aa(lp8971
I1
a(lp8972
F0.321429
aaI28
aa(lp8973
I1
a(lp8974
F0.263158
aaI19
aa(lp8975
I1
a(lp8976
F0.235294
aaI17
aa(lp8977
I1
a(lp8978
F0.37037
aaI27
aa(lp8979
I1
a(lp8980
F0.361111
aaI36
aa(lp8981
I1
a(lp8982
F0.214286
aaI28
aa(lp8983
I1
a(lp8984
F0.225806
aaI31
aa(lp8985
I1
a(lp8986
F0.275862
aaI29
aaa(lp8987
g7868
ag7869
a(lp8988
I1
a(lp8989
F0.295455
aaI44
aa(lp8990
I1
a(lp8991
F0.242424
aaI33
aa(lp8992
I1
a(lp8993
F0.428571
aaI28
aa(lp8994
I1
a(lp8995
F0.448276
aaI29
aa(lp8996
I1
a(lp8997
F0.428571
aaI42
aa(lp8998
I1
a(lp8999
F0.275862
aaI29
aa(lp9000
I1
a(lp9001
F0.333333
aaI27
aa(lp9002
I1
a(lp9003
F0.52
aaI25
aa(lp9004
I1
a(lp9005
F0.475
aaI40
aa(lp9006
I1
a(lp9007
F0.5
aaI26
aa(lp9008
I1
a(lp9009
F0.461538
aaI26
aaa(lp9010
g7897
ag7898
a(lp9011
I1
a(lp9012
F0.5
aaI42
aa(lp9013
I1
a(lp9014
F0.457143
aaI35
aa(lp9015
I1
a(lp9016
F0.46875
aaI32
aa(lp9017
I1
a(lp9018
F0.5
aaI38
aa(lp9019
I1
a(lp9020
F0.296296
aaI27
aa(lp9021
I1
a(lp9022
F0.487179
aaI39
aa(lp9023
I1
a(lp9024
F0.465116
aaI43
aa(lp9025
I1
a(lp9026
F0.428571
aaI49
aa(lp9027
I1
a(lp9028
F0.447368
aaI38
aa(lp9029
I1
a(lp9030
F0.531915
aaI47
aaa(lp9031
g7902
ag7903
aa(lp9032
g7905
ag7906
a(lp9033
I1
a(lp9034
F0.277778
aaI36
aa(lp9035
I1
a(lp9036
F0.233333
aaI30
aa(lp9037
I1
a(lp9038
F0.21875
aaI32
aaa(lp9039
g7908
ag7909
a(lp9040
I1
a(lp9041
F0.25
aaI24
aaa(lp9042
g7921
ag7922
aa(lp9043
g7924
ag7925
a(lp9044
I1
a(lp9045
F0.555556
aaI36
aa(lp9046
I1
a(lp9047
F0.465116
aaI43
aa(lp9048
I1
a(lp9049
F0.259259
aaI81
aa(lp9050
I1
a(lp9051
F0.26506
aaI83
aa(lp9052
I1
a(lp9053
F0.282353
aaI85
aa(lp9054
I1
a(lp9055
F0.421053
aaI76
aa(lp9056
I1
a(lp9057
F0.218182
aaI55
aa(lp9058
I1
a(lp9059
F0.25
aaI68
aa(lp9060
I1
a(lp9061
F0.344262
aaI61
aa(lp9062
I1
a(lp9063
F0.392857
aaI56
aa(lp9064
I1
a(lp9065
F0.385965
aaI57
aa(lp9066
I1
a(lp9067
F0.333333
aaI57
aa(lp9068
I1
a(lp9069
F0.369048
aaI84
aa(lp9070
I1
a(lp9071
F0.488889
aaI90
aaa(lp9072
g7927
ag7928
a(lp9073
I1
a(lp9074
F0.222222
aaI27
aa(lp9075
I1
a(lp9076
F0.25
aaI24
aaa(lp9077
g7932
ag7933
aa(lp9078
g7941
ag7942
a(lp9079
I1
a(lp9080
F0.423077
aaI26
aa(lp9081
I1
a(lp9082
F0.225806
aaI31
aa(lp9083
I1
a(lp9084
F0.323529
aaI34
aa(lp9085
I1
a(lp9086
F0.416667
aaI36
aa(lp9087
I1
a(lp9088
F0.545455
aaI33
aa(lp9089
I1
a(lp9090
F0.515152
aaI33
aa(lp9091
I1
a(lp9092
F0.470588
aaI34
aa(lp9093
I1
a(lp9094
F0.25641
aaI39
aa(lp9095
I1
a(lp9096
F0.2
aaI30
aaa(lp9097
g8024
ag8025
aa(lp9098
g8029
ag8030
a(lp9099
I1
a(lp9100
F0.547619
aaI42
aaa(lp9101
g8034
ag8035
aa(lp9102
g8125
ag8126
a(lp9103
I1
a(lp9104
F0.371429
aaI35
aa(lp9105
I1
a(lp9106
F0.512195
aaI41
aa(lp9107
I1
a(lp9108
F0.421053
aaI38
aa(lp9109
I1
a(lp9110
F0.30303
aaI33
aaa(lp9111
g8130
ag8131
a(lp9112
I1
a(lp9113
F0.297872
aaI47
aa(lp9114
I1
a(lp9115
F0.3
aaI40
aa(lp9116
I1
a(lp9117
F0.32
aaI25
aa(lp9118
I1
a(lp9119
F0.266667
aaI15
aa(lp9120
I1
a(lp9121
F0.2
aaI15
aa(lp9122
I1
a(lp9123
F0.3
aaI10
aa(lp9124
I1
a(lp9125
F0.291667
aaI24
aa(lp9126
I1
a(lp9127
F0.333333
aaI24
aaa(lp9128
g8143
ag8144
a(lp9129
I1
a(lp9130
F0.394737
aaI38
aa(lp9131
I1
a(lp9132
F0.3
aaI30
aa(lp9133
I1
a(lp9134
F0.361111
aaI36
aaa(lp9135
g8146
ag8147
a(lp9136
I1
a(lp9137
F0.565217
aaI46
aaa(lp9138
g8223
ag8224
aa(lp9139
g8252
ag8253
aa(lp9140
g8259
ag8260
aass.