(dp0
S'triploids'
p1
(dp2
S'down'
p3
(lp4
(lp5
S'scaffold4811_cov246'
p6
aS'scaffold3626_cov240'
p7
aa(lp8
S'scaffold5383_cov228'
p9
aS'scaffold6260_cov182'
p10
a(lp11
I1
a(lp12
F0.337449
aaI243
aa(lp13
I1
a(lp14
F0.202186
aaI183
aaa(lp15
S'scaffold34997_cov218'
p16
aS'scaffold126_cov233'
p17
aa(lp18
S'scaffold3363_cov220'
p19
aS'scaffold4931_cov207'
p20
a(lp21
I1
a(lp22
F0.444
aaI250
aa(lp23
I1
a(lp24
F0.282258
aaI248
aaa(lp25
S'scaffold5757_cov278'
p26
aS'scaffold35469_cov250'
p27
a(lp28
I1
a(lp29
F0.378947
aaI190
aa(lp30
I1
a(lp31
F0.401869
aaI214
aa(lp32
I1
a(lp33
F0.386139
aaI202
aa(lp34
I1
a(lp35
F0.238281
aaI256
aaa(lp36
S'scaffold520_cov225'
p37
aS'scaffold11220_cov221'
p38
a(lp39
I1
a(lp40
F0.3361
aaI241
aa(lp41
I1
a(lp42
F0.348361
aaI244
aa(lp43
I1
a(lp44
F0.394309
aaI246
aa(lp45
I1
a(lp46
F0.242424
aaI198
aa(lp47
I1
a(lp48
F0.325688
aaI218
aa(lp49
I1
a(lp50
F0.312775
aaI227
aa(lp51
I1
a(lp52
F0.239631
aaI217
aaa(lp53
S'scaffold8181_cov267'
p54
aS'scaffold4564_cov155'
p55
aa(lp56
S'scaffold6784_cov373'
p57
aS'scaffold34876_cov153'
p58
a(lp59
I1
a(lp60
F0.314394
aaI264
aaa(lp61
S'scaffold8707_cov275'
p62
aS'scaffold1032_cov163'
p63
a(lp64
I1
a(lp65
F0.232558
aaI215
aa(lp66
I1
a(lp67
F0.233645
aaI214
aa(lp68
I1
a(lp69
F0.216216
aaI222
aa(lp70
I1
a(lp71
F0.202703
aaI222
aa(lp72
I1
a(lp73
F0.245614
aaI228
aa(lp74
I1
a(lp75
F0.294118
aaI221
aa(lp76
I1
a(lp77
F0.378788
aaI264
aaa(lp78
S'scaffold4886_cov351'
p79
aS'scaffold987_cov149'
p80
aa(lp81
S'scaffold5780_cov292'
p82
aS'scaffold421_cov166'
p83
a(lp84
I1
a(lp85
F0.373786
aaI206
aa(lp86
I1
a(lp87
F0.234177
aaI158
aa(lp88
I1
a(lp89
F0.242268
aaI194
aa(lp90
I1
a(lp91
F0.231579
aaI190
aa(lp92
I1
a(lp93
F0.215686
aaI204
aa(lp94
I1
a(lp95
F0.262195
aaI164
aaa(lp96
S'scaffold467_cov263'
p97
aS'scaffold7247_cov286'
p98
aa(lp99
S'scaffold14087_cov206'
p100
aS'scaffold4385_cov239'
p101
a(lp102
I1
a(lp103
F0.256757
aaI222
aa(lp104
I1
a(lp105
F0.215054
aaI186
aa(lp106
I1
a(lp107
F0.290323
aaI217
aa(lp108
I1
a(lp109
F0.31746
aaI252
aaa(lp110
S'scaffold4480_cov293'
p111
aS'scaffold18648_cov147'
p112
aa(lp113
S'scaffold3984_cov353'
p114
aS'scaffold2503_cov151'
p115
a(lp116
I1
a(lp117
F0.0
aaI185
aa(lp118
I1
a(lp119
F0.275862
aaI203
aa(lp120
I1
a(lp121
F0.279188
aaI197
aa(lp122
I1
a(lp123
F0.263889
aaI216
aa(lp124
I1
a(lp125
F0.353191
aaI235
aaa(lp126
S'scaffold3693_cov252'
p127
aS'scaffold35708_cov182'
p128
aa(lp129
S'scaffold35009_cov245'
p130
aS'scaffold91_cov238'
p131
a(lp132
I1
a(lp133
F0.39834
aaI241
aa(lp134
I1
a(lp135
F0.509091
aaI275
aa(lp136
I1
a(lp137
F0.475504
aaI347
aa(lp138
I1
a(lp139
F0.458904
aaI292
aa(lp140
I1
a(lp141
F0.346154
aaI260
aa(lp142
I1
a(lp143
F0.366667
aaI240
aa(lp144
I1
a(lp145
F0.380952
aaI210
aaa(lp146
S'scaffold1767_cov191'
p147
aS'scaffold1511_cov206'
p148
a(lp149
I1
a(lp150
F0.0
aaI11
aa(lp151
I1
a(lp152
F0.0
aaI13
aa(lp153
I1
a(lp154
F0.0
aaI58
aa(lp155
I1
a(lp156
F0.0
aaI8
aa(lp157
I1
a(lp158
F0.0
aaI8
aa(lp159
I1
a(lp160
F0.0
aaI25
aa(lp161
I1
a(lp162
F0.0
aaI49
aa(lp163
I1
a(lp164
F0.0
aaI67
aa(lp165
I1
a(lp166
F0.0
aaI36
aa(lp167
I1
a(lp168
F0.0
aaI35
aa(lp169
I1
a(lp170
F0.0
aaI35
aaa(lp171
S'scaffold33999_cov278'
p172
aS'scaffold2519_cov239'
p173
aa(lp174
S'scaffold10091_cov218'
p175
aS'scaffold8128_cov148'
p176
aa(lp177
S'scaffold40391_cov315'
p178
aS'scaffold10294_cov190'
p179
aa(lp180
S'scaffold709_cov247'
p181
aS'scaffold5198_cov234'
p182
aa(lp183
S'scaffold52810_cov589'
p184
aS'scaffold2099_cov316'
p185
aa(lp186
S'scaffold6504_cov303'
p187
aS'scaffold13906_cov172'
p188
aa(lp189
S'scaffold275_cov215'
p190
aS'scaffold387_cov149'
p191
aa(lp192
S'scaffold1607_cov239'
p193
aS'scaffold35912_cov193'
p194
a(lp195
I1
a(lp196
F0.295082
aaI183
aa(lp197
I1
a(lp198
F0.265432
aaI162
aa(lp199
I1
a(lp200
F0.267974
aaI153
aa(lp201
I1
a(lp202
F0.253086
aaI162
aa(lp203
I1
a(lp204
F0.232432
aaI185
aa(lp205
I1
a(lp206
F0.226415
aaI159
aa(lp207
I1
a(lp208
F0.214286
aaI168
aaa(lp209
S'scaffold3960_cov215'
p210
aS'scaffold3895_cov206'
p211
a(lp212
I1
a(lp213
F0.27897
aaI233
aa(lp214
I1
a(lp215
F0.290179
aaI224
aa(lp216
I1
a(lp217
F0.27027
aaI222
aa(lp218
I1
a(lp219
F0.240566
aaI212
aa(lp220
I1
a(lp221
F0.201878
aaI213
aa(lp222
I1
a(lp223
F0.317857
aaI280
aa(lp224
I1
a(lp225
F0.36
aaI300
aa(lp226
I1
a(lp227
F0.358885
aaI287
aa(lp228
I1
a(lp229
F0.375839
aaI298
aa(lp230
I1
a(lp231
F0.348993
aaI298
aa(lp232
I1
a(lp233
F0.246032
aaI252
aaa(lp234
S'scaffold2468_cov231'
p235
aS'scaffold4243_cov244'
p236
aa(lp237
S'scaffold2338_cov238'
p238
aS'scaffold2516_cov204'
p239
a(lp240
I1
a(lp241
F0.259259
aaI162
aa(lp242
I1
a(lp243
F0.274854
aaI171
aa(lp244
I1
a(lp245
F0.282486
aaI177
aa(lp246
I1
a(lp247
F0.238318
aaI214
aa(lp248
I1
a(lp249
F0.26087
aaI207
aa(lp250
I1
a(lp251
F0.281407
aaI199
aa(lp252
I1
a(lp253
F0.240909
aaI220
aa(lp254
I1
a(lp255
F0.373016
aaI252
aa(lp256
I1
a(lp257
F0.327511
aaI229
aa(lp258
I1
a(lp259
F0.28125
aaI160
aa(lp260
I1
a(lp261
F0.287671
aaI219
aa(lp262
I1
a(lp263
F0.267081
aaI161
aa(lp264
I1
a(lp265
F0.345
aaI200
aaa(lp266
S'scaffold6588_cov297'
p267
aS'scaffold3089_cov153'
p268
a(lp269
I1
a(lp270
F0.465455
aaI275
aa(lp271
I1
a(lp272
F0.391667
aaI240
aa(lp273
I1
a(lp274
F0.207547
aaI159
aaa(lp275
S'scaffold11638_cov181'
p276
aS'scaffold11037_cov149'
p277
aa(lp278
S'scaffold5697_cov266'
p279
aS'scaffold3738_cov179'
p280
a(lp281
I1
a(lp282
F0.287958
aaI191
aa(lp283
I1
a(lp284
F0.337719
aaI228
aa(lp285
I1
a(lp286
F0.318627
aaI204
aa(lp287
I1
a(lp288
F0.354839
aaI217
aa(lp289
I1
a(lp290
F0.358744
aaI223
aa(lp291
I1
a(lp292
F0.325991
aaI227
aa(lp293
I1
a(lp294
F0.316964
aaI224
aa(lp295
I1
a(lp296
F0.277273
aaI220
aa(lp297
I1
a(lp298
F0.216749
aaI203
aa(lp299
I1
a(lp300
F0.204082
aaI196
aa(lp301
I1
a(lp302
F0.235294
aaI221
aa(lp303
I1
a(lp304
F0.283843
aaI229
aa(lp305
I1
a(lp306
F0.303419
aaI234
aa(lp307
I1
a(lp308
F0.300493
aaI203
aa(lp309
I1
a(lp310
F0.471154
aaI312
aa(lp311
I1
a(lp312
F0.488294
aaI299
aa(lp313
I1
a(lp314
F0.518152
aaI303
aa(lp315
I1
a(lp316
F0.215385
aaI195
aa(lp317
I1
a(lp318
F0.223881
aaI201
aa(lp319
I1
a(lp320
F0.227723
aaI202
aa(lp321
I1
a(lp322
F0.248677
aaI189
aa(lp323
I1
a(lp324
F0.240223
aaI179
aa(lp325
I1
a(lp326
F0.258242
aaI182
aa(lp327
I1
a(lp328
F0.256983
aaI179
aa(lp329
I1
a(lp330
F0.267081
aaI161
aa(lp331
I1
a(lp332
F0.292818
aaI181
aa(lp333
I1
a(lp334
F0.267045
aaI176
aa(lp335
I1
a(lp336
F0.382353
aaI238
aa(lp337
I1
a(lp338
F0.237113
aaI194
aa(lp339
I1
a(lp340
F0.238095
aaI189
aa(lp341
I1
a(lp342
F0.238095
aaI189
aa(lp343
I1
a(lp344
F0.244444
aaI180
aa(lp345
I1
a(lp346
F0.233333
aaI180
aaa(lp347
S'scaffold4560_cov350'
p348
aS'scaffold2640_cov197'
p349
a(lp350
I1
a(lp351
F0.237864
aaI206
aa(lp352
I1
a(lp353
F0.241706
aaI211
aa(lp354
I1
a(lp355
F0.245
aaI200
aaa(lp356
S'scaffold34901_cov222'
p357
aS'scaffold14139_cov184'
p358
a(lp359
I1
a(lp360
F0.258065
aaI186
aa(lp361
I1
a(lp362
F0.259459
aaI185
aa(lp363
I1
a(lp364
F0.512821
aaI312
aa(lp365
I1
a(lp366
F0.889706
aaI136
aa(lp367
I1
a(lp368
F0.414966
aaI294
aa(lp369
I1
a(lp370
F0.221557
aaI167
aaa(lp371
S'scaffold35491_cov284'
p372
aS'scaffold6922_cov210'
p373
a(lp374
I1
a(lp375
F0.539286
aaI280
aa(lp376
I1
a(lp377
F0.498141
aaI269
aa(lp378
I1
a(lp379
F0.515152
aaI231
aa(lp380
I1
a(lp381
F0.551181
aaI254
aa(lp382
I1
a(lp383
F0.521277
aaI282
aa(lp384
I1
a(lp385
F0.28125
aaI224
aa(lp386
I1
a(lp387
F0.28125
aaI224
aa(lp388
I1
a(lp389
F0.301724
aaI232
aa(lp390
I1
a(lp391
F0.260274
aaI219
aa(lp392
I1
a(lp393
F0.330275
aaI218
aa(lp394
I1
a(lp395
F0.406452
aaI310
aa(lp396
I1
a(lp397
F0.40264
aaI303
aa(lp398
I1
a(lp399
F0.368794
aaI282
aa(lp400
I1
a(lp401
F0.368421
aaI247
aaa(lp402
S'scaffold5724_cov219'
p403
aS'scaffold8613_cov250'
p404
a(lp405
I1
a(lp406
F0.335821
aaI268
aa(lp407
I1
a(lp408
F0.343173
aaI271
aa(lp409
I1
a(lp410
F0.317518
aaI274
aa(lp411
I1
a(lp412
F0.401575
aaI254
aa(lp413
I1
a(lp414
F0.462094
aaI277
aa(lp415
I1
a(lp416
F0.32381
aaI210
aa(lp417
I1
a(lp418
F0.219251
aaI187
aa(lp419
I1
a(lp420
F0.292035
aaI226
aa(lp421
I1
a(lp422
F0.304933
aaI223
aa(lp423
I1
a(lp424
F0.314721
aaI197
aa(lp425
I1
a(lp426
F0.473498
aaI283
aa(lp427
I1
a(lp428
F0.386454
aaI251
aa(lp429
I1
a(lp430
F0.35533
aaI197
aa(lp431
I1
a(lp432
F0.461538
aaI273
aa(lp433
I1
a(lp434
F0.390244
aaI246
aa(lp435
I1
a(lp436
F0.383721
aaI258
aa(lp437
I1
a(lp438
F0.375
aaI256
aa(lp439
I1
a(lp440
F0.326203
aaI187
aa(lp441
I1
a(lp442
F0.281437
aaI167
aa(lp443
I1
a(lp444
F0.20297
aaI202
aa(lp445
I1
a(lp446
F0.288043
aaI184
aa(lp447
I1
a(lp448
F0.308017
aaI237
aa(lp449
I1
a(lp450
F0.415966
aaI238
aa(lp451
I1
a(lp452
F0.485714
aaI280
aa(lp453
I1
a(lp454
F0.4
aaI265
aa(lp455
I1
a(lp456
F0.387755
aaI245
aa(lp457
I1
a(lp458
F0.351351
aaI296
aa(lp459
I1
a(lp460
F0.325088
aaI283
aa(lp461
I1
a(lp462
F0.309179
aaI207
aaa(lp463
S'scaffold6223_cov242'
p464
aS'scaffold1876_cov202'
p465
aa(lp466
S'scaffold34047_cov174'
p467
aS'scaffold14855_cov234'
p468
a(lp469
I1
a(lp470
F0.428571
aaI273
aa(lp471
I1
a(lp472
F0.385496
aaI262
aa(lp473
I1
a(lp474
F0.405694
aaI281
aa(lp475
I1
a(lp476
F0.470395
aaI304
aaa(lp477
S'scaffold2702_cov266'
p478
aS'scaffold432_cov233'
p479
a(lp480
I1
a(lp481
F0.225131
aaI191
aa(lp482
I1
a(lp483
F0.302326
aaI172
aa(lp484
I1
a(lp485
F0.477528
aaI356
aa(lp486
I1
a(lp487
F0.501502
aaI333
aa(lp488
I1
a(lp489
F0.308333
aaI240
aa(lp490
I1
a(lp491
F0.320388
aaI206
aa(lp492
I1
a(lp493
F0.389671
aaI213
aa(lp494
I1
a(lp495
F0.281818
aaI110
aaa(lp496
S'scaffold11028_cov263'
p497
aS'scaffold3310_cov167'
p498
a(lp499
I1
a(lp500
F0.397541
aaI244
aa(lp501
I1
a(lp502
F0.505119
aaI293
aa(lp503
I1
a(lp504
F0.494774
aaI287
aa(lp505
I1
a(lp506
F0.271845
aaI309
aaa(lp507
S'scaffold5897_cov436'
p508
aS'scaffold343_cov157'
p509
aa(lp510
S'scaffold6105_cov252'
p511
aS'scaffold6855_cov172'
p512
a(lp513
I1
a(lp514
F0.304933
aaI223
aa(lp515
I1
a(lp516
F0.334572
aaI269
aaa(lp517
S'scaffold36255_cov269'
p518
aS'scaffold42378_cov315'
p519
aa(lp520
S'scaffold5373_cov204'
p521
aS'scaffold6283_cov179'
p522
aa(lp523
S'scaffold2237_cov233'
p524
aS'scaffold34835_cov215'
p525
a(lp526
I1
a(lp527
F0.450185
aaI271
aaa(lp528
S'scaffold2751_cov176'
p529
aS'scaffold636_cov192'
p530
a(lp531
I1
a(lp532
F0.240838
aaI191
aaa(lp533
S'scaffold1228_cov289'
p534
aS'scaffold18802_cov239'
p535
aa(lp536
S'scaffold34878_cov239'
p537
aS'scaffold6446_cov191'
p538
aa(lp539
S'scaffold6205_cov227'
p540
aS'scaffold858_cov242'
p541
a(lp542
I1
a(lp543
F0.466238
aaI311
aa(lp544
I1
a(lp545
F0.451923
aaI312
aa(lp546
I1
a(lp547
F0.443478
aaI230
aa(lp548
I1
a(lp549
F0.373391
aaI233
aaa(lp550
S'scaffold34894_cov238'
p551
aS'scaffold424_cov173'
p552
a(lp553
I1
a(lp554
F0.341709
aaI199
aa(lp555
I1
a(lp556
F0.391473
aaI258
aaa(lp557
S'scaffold13730_cov260'
p558
aS'scaffold53022_cov294'
p559
a(lp560
I1
a(lp561
F0.421488
aaI242
aa(lp562
I1
a(lp563
F0.411017
aaI236
aaa(lp564
S'scaffold3883_cov286'
p565
aS'scaffold2531_cov161'
p566
aa(lp567
S'scaffold19486_cov306'
p568
aS'scaffold19485_cov191'
p569
aa(lp570
S'scaffold13299_cov272'
p571
aS'scaffold13790_cov193'
p572
a(lp573
I1
a(lp574
F0.489362
aaI282
aa(lp575
I1
a(lp576
F0.439689
aaI257
aa(lp577
I1
a(lp578
F0.247788
aaI226
aaa(lp579
S'scaffold2120_cov226'
p580
aS'scaffold5979_cov159'
p581
aa(lp582
S'scaffold30587_cov247'
p583
aS'scaffold1792_cov186'
p584
a(lp585
I1
a(lp586
F0.324201
aaI219
aa(lp587
I1
a(lp588
F0.301887
aaI212
aa(lp589
I1
a(lp590
F0.280788
aaI203
aaa(lp591
S'scaffold3511_cov209'
p592
aS'scaffold383_cov198'
p593
a(lp594
I1
a(lp595
F0.479167
aaI240
aa(lp596
I1
a(lp597
F0.27193
aaI228
aa(lp598
I1
a(lp599
F0.35567
aaI194
aaa(lp600
S'scaffold1747_cov293'
p601
aS'scaffold34100_cov244'
p602
a(lp603
I1
a(lp604
F0.460145
aaI276
aa(lp605
I1
a(lp606
F0.41629
aaI221
aa(lp607
I1
a(lp608
F0.427273
aaI220
aa(lp609
I1
a(lp610
F0.452915
aaI223
aa(lp611
I1
a(lp612
F0.302419
aaI248
aaa(lp613
S'scaffold1599_cov246'
p614
aS'scaffold34016_cov157'
p615
aa(lp616
S'scaffold53165_cov284'
p617
aS'scaffold4404_cov204'
p618
aa(lp619
S'scaffold5017_cov219'
p620
aS'scaffold15598_cov210'
p621
a(lp622
I1
a(lp623
F0.846154
aaI13
aa(lp624
I1
a(lp625
F0.0
aaI48
aa(lp626
I1
a(lp627
F0.0
aaI43
aa(lp628
I2
a(lp629
F0.25
aF0.5
aaI8
aa(lp630
I1
a(lp631
F0.625
aaI8
aa(lp632
I1
a(lp633
F0.909091
aaI22
aa(lp634
I1
a(lp635
F0.0
aaI7
aa(lp636
I1
a(lp637
F0.0
aaI52
aa(lp638
I1
a(lp639
F0.5
aaI24
aa(lp640
I1
a(lp641
F0.0
aaI34
aa(lp642
I2
a(lp643
F0.346154
aF0.634615
aaI52
aa(lp644
I1
a(lp645
F0.0
aaI63
aa(lp646
I1
a(lp647
F0.571429
aaI7
aa(lp648
I1
a(lp649
F0.571429
aaI7
aa(lp650
I1
a(lp651
F0.571429
aaI7
aa(lp652
I1
a(lp653
F0.636364
aaI11
aa(lp654
I1
a(lp655
F0.636364
aaI11
aa(lp656
I1
a(lp657
F0.666667
aaI15
aa(lp658
I1
a(lp659
F0.785714
aaI14
aaa(lp660
S'scaffold28966_cov241'
p661
aS'scaffold2656_cov192'
p662
a(lp663
I1
a(lp664
F0.615385
aaI468
aa(lp665
I1
a(lp666
F0.243363
aaI226
aa(lp667
I1
a(lp668
F0.263158
aaI228
aa(lp669
I1
a(lp670
F0.368687
aaI198
aa(lp671
I1
a(lp672
F0.213115
aaI183
aa(lp673
I1
a(lp674
F0.202312
aaI173
aa(lp675
I1
a(lp676
F0.219251
aaI187
aa(lp677
I1
a(lp678
F0.263889
aaI216
aaa(lp679
S'scaffold11791_cov336'
p680
aS'scaffold3120_cov189'
p681
a(lp682
I1
a(lp683
F0.235669
aaI157
aaa(lp684
S'scaffold1893_cov262'
p685
aS'scaffold35334_cov163'
p686
aa(lp687
S'scaffold2157_cov220'
p688
aS'scaffold5589_cov166'
p689
aa(lp690
S'scaffold7588_cov337'
p691
aS'scaffold9757_cov155'
p692
aa(lp693
S'scaffold35943_cov295'
p694
aS'scaffold7990_cov217'
p695
a(lp696
I1
a(lp697
F0.395939
aaI197
aa(lp698
I1
a(lp699
F0.419811
aaI212
aa(lp700
I1
a(lp701
F0.441667
aaI240
aaa(lp702
S'scaffold1203_cov294'
p703
aS'scaffold1019_cov183'
p704
aa(lp705
S'scaffold4758_cov346'
p706
aS'scaffold1045_cov153'
p707
a(lp708
I1
a(lp709
F0.261538
aaI195
aa(lp710
I1
a(lp711
F0.396396
aaI222
aa(lp712
I1
a(lp713
F0.207447
aaI188
aa(lp714
I1
a(lp715
F0.255924
aaI211
aaa(lp716
S'scaffold355_cov233'
p717
aS'scaffold5164_cov209'
p718
a(lp719
I1
a(lp720
F0.22381
aaI210
aa(lp721
I1
a(lp722
F0.26087
aaI207
aa(lp723
I1
a(lp724
F0.299107
aaI224
aa(lp725
I1
a(lp726
F0.413223
aaI242
aa(lp727
I1
a(lp728
F0.338235
aaI204
aa(lp729
I1
a(lp730
F0.204082
aaI196
aa(lp731
I1
a(lp732
F0.432234
aaI273
aa(lp733
I1
a(lp734
F0.6125
aaI320
aaa(lp735
S'scaffold10417_cov197'
p736
aS'scaffold4396_cov166'
p737
aa(lp738
S'scaffold3883_cov286'
p739
aS'scaffold12108_cov159'
p740
aa(lp741
S'scaffold9508_cov196'
p742
aS'scaffold11324_cov225'
p743
a(lp744
I1
a(lp745
F0.405556
aaI180
aaa(lp746
S'scaffold24073_cov287'
p747
aS'scaffold36462_cov152'
p748
aa(lp749
S'scaffold5051_cov291'
p750
aS'scaffold1404_cov156'
p751
aa(lp752
S'scaffold3476_cov276'
p753
aS'scaffold3249_cov179'
p754
a(lp755
I1
a(lp756
F0.459627
aaI322
aa(lp757
I1
a(lp758
F0.311927
aaI218
aaa(lp759
S'scaffold299_cov290'
p760
aS'scaffold4971_cov235'
p761
aa(lp762
S'scaffold34756_cov262'
p763
aS'scaffold23838_cov109'
p764
aa(lp765
S'scaffold276_cov267'
p766
aS'scaffold6071_cov156'
p767
aa(lp768
S'scaffold38974_cov463'
p769
aS'scaffold343_cov157'
p770
aa(lp771
S'scaffold14255_cov253'
p772
aS'scaffold2270_cov160'
p773
a(lp774
I1
a(lp775
F0.248677
aaI189
aa(lp776
I1
a(lp777
F0.232704
aaI159
aa(lp778
I1
a(lp779
F0.480427
aaI281
aaa(lp780
S'scaffold6415_cov250'
p781
aS'scaffold6724_cov185'
p782
a(lp783
I1
a(lp784
F0.241379
aaI203
aa(lp785
I1
a(lp786
F0.247525
aaI202
aaa(lp787
S'scaffold22860_cov185'
p788
aS'scaffold6721_cov174'
p789
a(lp790
I1
a(lp791
F0.25
aaI200
aa(lp792
I1
a(lp793
F0.242424
aaI297
aaa(lp794
S'scaffold1871_cov212'
p795
aS'scaffold3028_cov204'
p796
a(lp797
I1
a(lp798
F0.210526
aaI190
aa(lp799
I1
a(lp800
F0.366379
aaI232
aa(lp801
I1
a(lp802
F0.225434
aaI173
aa(lp803
I1
a(lp804
F0.270531
aaI207
aa(lp805
I1
a(lp806
F0.285047
aaI214
aa(lp807
I1
a(lp808
F0.261905
aaI210
aa(lp809
I1
a(lp810
F0.307339
aaI218
aa(lp811
I1
a(lp812
F0.494662
aaI281
aa(lp813
I1
a(lp814
F0.476667
aaI300
aaa(lp815
S'scaffold9334_cov225'
p816
aS'scaffold4813_cov177'
p817
a(lp818
I1
a(lp819
F0.337017
aaI181
aa(lp820
I1
a(lp821
F0.273469
aaI245
aa(lp822
I1
a(lp823
F0.212435
aaI193
aaa(lp824
S'scaffold193_cov232'
p825
aS'scaffold51921_cov294'
p826
aa(lp827
S'scaffold622_cov424'
p828
aS'scaffold1302_cov140'
p829
aa(lp830
S'scaffold3060_cov247'
p831
aS'scaffold3487_cov182'
p832
aa(lp833
S'scaffold21_cov335'
p834
aS'scaffold1045_cov153'
p835
aa(lp836
S'scaffold13299_cov272'
p837
aS'scaffold10369_cov160'
p838
a(lp839
I1
a(lp840
F0.35567
aaI194
aa(lp841
I1
a(lp842
F0.44
aaI125
aaa(lp843
S'scaffold1828_cov217'
p844
aS'scaffold5358_cov160'
p845
a(lp846
I1
a(lp847
F0.44358
aaI257
aa(lp848
I1
a(lp849
F0.458824
aaI255
aa(lp850
I1
a(lp851
F0.232456
aaI228
aa(lp852
I1
a(lp853
F0.215859
aaI227
aaa(lp854
S'scaffold36286_cov261'
p855
aS'scaffold8587_cov157'
p856
aa(lp857
S'scaffold5178_cov237'
p858
aS'scaffold6699_cov179'
p859
aa(lp860
S'scaffold3911_cov285'
p861
aS'scaffold5073_cov227'
p862
a(lp863
I1
a(lp864
F0.468504
aaI254
aa(lp865
I1
a(lp866
F0.200647
aaI309
aa(lp867
I1
a(lp868
F0.272189
aaI338
aa(lp869
I1
a(lp870
F0.226913
aaI379
aa(lp871
I1
a(lp872
F0.379221
aaI385
aa(lp873
I1
a(lp874
F0.409091
aaI396
aa(lp875
I1
a(lp876
F0.477848
aaI316
aa(lp877
I1
a(lp878
F0.27451
aaI306
aa(lp879
I1
a(lp880
F0.280405
aaI296
aa(lp881
I1
a(lp882
F0.223629
aaI237
aa(lp883
I1
a(lp884
F0.260377
aaI265
aa(lp885
I1
a(lp886
F0.283465
aaI254
aa(lp887
I1
a(lp888
F0.261224
aaI245
aa(lp889
I1
a(lp890
F0.242063
aaI252
aa(lp891
I1
a(lp892
F0.243243
aaI259
aaa(lp893
S'scaffold6166_cov218'
p894
aS'scaffold34141_cov184'
p895
a(lp896
I1
a(lp897
F0.475177
aaI282
aaa(lp898
S'scaffold3082_cov287'
p899
aS'scaffold2983_cov165'
p900
a(lp901
I1
a(lp902
F0.641791
aaI402
aa(lp903
I1
a(lp904
F0.284264
aaI197
aaa(lp905
S'scaffold47198_cov463'
p906
aS'scaffold34572_cov182'
p907
a(lp908
I1
a(lp909
F0.588083
aaI386
aa(lp910
I1
a(lp911
F0.262136
aaI206
aa(lp912
I1
a(lp913
F0.328571
aaI210
aaa(lp914
S'scaffold2985_cov221'
p915
aS'scaffold103_cov152'
p916
a(lp917
I1
a(lp918
F0.0
aaI370
aa(lp919
I1
a(lp920
F0.204545
aaI352
aa(lp921
I1
a(lp922
F0.382022
aaI356
aaa(lp923
S'scaffold12793_cov183'
p924
aS'scaffold12226_cov185'
p925
aa(lp926
S'scaffold1234_cov222'
p927
aS'scaffold34763_cov140'
p928
aa(lp929
S'scaffold3901_cov329'
p930
aS'scaffold14736_cov203'
p931
aa(lp932
S'scaffold34579_cov226'
p933
aS'scaffold34935_cov228'
p934
a(lp935
I1
a(lp936
F0.322581
aaI434
aaa(lp937
S'scaffold21112_cov305'
p938
aS'scaffold22738_cov154'
p939
aa(lp940
S'scaffold34946_cov233'
p941
aS'scaffold2695_cov200'
p942
a(lp943
I1
a(lp944
F0.396825
aaI252
aa(lp945
I1
a(lp946
F0.389313
aaI262
aa(lp947
I1
a(lp948
F0.309322
aaI236
aa(lp949
I1
a(lp950
F0.38403
aaI263
aa(lp951
I1
a(lp952
F0.350554
aaI271
aa(lp953
I1
a(lp954
F0.471042
aaI259
aa(lp955
I1
a(lp956
F0.493007
aaI286
aa(lp957
I1
a(lp958
F0.457143
aaI315
aa(lp959
I1
a(lp960
F0.422925
aaI253
aa(lp961
I1
a(lp962
F0.381148
aaI244
aa(lp963
I1
a(lp964
F0.359649
aaI228
aa(lp965
I1
a(lp966
F0.275472
aaI265
aa(lp967
I1
a(lp968
F0.227273
aaI220
aa(lp969
I1
a(lp970
F0.253659
aaI205
aa(lp971
I1
a(lp972
F0.28673
aaI422
aa(lp973
I1
a(lp974
F0.351724
aaI290
aa(lp975
I1
a(lp976
F0.383562
aaI146
aa(lp977
I1
a(lp978
F0.340426
aaI141
aaa(lp979
S'scaffold4226_cov183'
p980
aS'scaffold4227_cov149'
p981
aa(lp982
S'scaffold34652_cov210'
p983
aS'scaffold35170_cov289'
p984
a(lp985
I1
a(lp986
F0.668896
aaI598
aaa(lp987
S'scaffold65_cov217'
p988
aS'scaffold15270_cov133'
p989
aa(lp990
S'scaffold35361_cov259'
p991
aS'scaffold2334_cov190'
p992
aa(lp993
S'scaffold34904_cov288'
p994
aS'scaffold5809_cov177'
p995
aa(lp996
S'scaffold5287_cov211'
p997
aS'scaffold6822_cov208'
p998
a(lp999
I1
a(lp1000
F0.434959
aaI246
aaa(lp1001
S'scaffold21569_cov380'
p1002
aS'scaffold20237_cov146'
p1003
aa(lp1004
S'scaffold13538_cov239'
p1005
aS'scaffold5402_cov179'
p1006
a(lp1007
I1
a(lp1008
F0.312217
aaI221
aa(lp1009
I1
a(lp1010
F0.219895
aaI191
aaa(lp1011
S'scaffold6948_cov274'
p1012
aS'scaffold6699_cov179'
p1013
aa(lp1014
S'scaffold3622_cov247'
p1015
aS'scaffold45254_cov315'
p1016
aa(lp1017
S'scaffold5796_cov292'
p1018
aS'scaffold2082_cov195'
p1019
a(lp1020
I1
a(lp1021
F0.236994
aaI173
aa(lp1022
I1
a(lp1023
F0.248555
aaI173
aa(lp1024
I1
a(lp1025
F0.277778
aaI180
aa(lp1026
I1
a(lp1027
F0.331522
aaI184
aa(lp1028
I1
a(lp1029
F0.318919
aaI185
aa(lp1030
I1
a(lp1031
F0.260204
aaI196
aa(lp1032
I1
a(lp1033
F0.371179
aaI229
aa(lp1034
I1
a(lp1035
F0.333333
aaI225
aa(lp1036
I1
a(lp1037
F0.267281
aaI217
aa(lp1038
I1
a(lp1039
F0.269006
aaI171
aa(lp1040
I1
a(lp1041
F0.226316
aaI190
aa(lp1042
I1
a(lp1043
F0.25641
aaI195
aa(lp1044
I1
a(lp1045
F0.383333
aaI240
aa(lp1046
I1
a(lp1047
F0.369231
aaI195
aa(lp1048
I1
a(lp1049
F0.20765
aaI183
aa(lp1050
I1
a(lp1051
F0.494163
aaI257
aa(lp1052
I1
a(lp1053
F0.424138
aaI290
aa(lp1054
I1
a(lp1055
F0.460784
aaI306
aa(lp1056
I1
a(lp1057
F0.496622
aaI296
aa(lp1058
I1
a(lp1059
F0.486486
aaI259
aa(lp1060
I1
a(lp1061
F0.404762
aaI252
aa(lp1062
I1
a(lp1063
F0.430233
aaI258
aa(lp1064
I1
a(lp1065
F0.408511
aaI235
aaa(lp1066
S'scaffold5059_cov217'
p1067
aS'scaffold7462_cov213'
p1068
aa(lp1069
S'scaffold5535_cov217'
p1070
aS'scaffold6808_cov251'
p1071
aa(lp1072
S'scaffold13539_cov223'
p1073
aS'scaffold2054_cov174'
p1074
aa(lp1075
S'scaffold6925_cov364'
p1076
aS'scaffold2058_cov324'
p1077
a(lp1078
I1
a(lp1079
F0.201571
aaI382
aaa(lp1080
S'scaffold2297_cov206'
p1081
aS'scaffold4936_cov217'
p1082
a(lp1083
I1
a(lp1084
F0.463415
aaI246
aa(lp1085
I1
a(lp1086
F0.42616
aaI237
aa(lp1087
I1
a(lp1088
F0.436214
aaI243
aa(lp1089
I1
a(lp1090
F0.227513
aaI189
aa(lp1091
I1
a(lp1092
F0.251282
aaI195
aa(lp1093
I1
a(lp1094
F0.259259
aaI243
aa(lp1095
I1
a(lp1096
F0.316872
aaI243
aa(lp1097
I1
a(lp1098
F0.365759
aaI257
aa(lp1099
I1
a(lp1100
F0.401042
aaI192
aa(lp1101
I1
a(lp1102
F0.276074
aaI163
aaa(lp1103
S'scaffold25113_cov199'
p1104
aS'scaffold6911_cov202'
p1105
aa(lp1106
S'scaffold14550_cov277'
p1107
aS'scaffold1760_cov210'
p1108
aa(lp1109
S'scaffold40132_cov484'
p1110
aS'scaffold7849_cov260'
p1111
a(lp1112
I1
a(lp1113
F0.435088
aaI285
aaa(lp1114
S'scaffold19757_cov388'
p1115
aS'scaffold1999_cov166'
p1116
aa(lp1117
S'scaffold3845_cov316'
p1118
aS'scaffold3342_cov163'
p1119
aa(lp1120
S'scaffold1058_cov270'
p1121
aS'scaffold8732_cov275'
p1122
a(lp1123
I1
a(lp1124
F0.0
aaI128
aa(lp1125
I1
a(lp1126
F0.0
aaI100
aaa(lp1127
S'scaffold3674_cov258'
p1128
aS'scaffold12700_cov150'
p1129
aa(lp1130
S'scaffold34052_cov286'
p1131
aS'scaffold2311_cov232'
p1132
a(lp1133
I1
a(lp1134
F0.598039
aaI408
aa(lp1135
I1
a(lp1136
F0.379397
aaI398
aa(lp1137
I1
a(lp1138
F0.471125
aaI329
aaa(lp1139
S'scaffold13470_cov212'
p1140
aS'scaffold10396_cov149'
p1141
aa(lp1142
S'scaffold7198_cov282'
p1143
aS'scaffold3310_cov167'
p1144
a(lp1145
I1
a(lp1146
F0.0
aaI218
aa(lp1147
I1
a(lp1148
F0.482517
aaI286
aa(lp1149
I1
a(lp1150
F0.244565
aaI184
aa(lp1151
I1
a(lp1152
F0.255682
aaI176
aa(lp1153
I1
a(lp1154
F0.255682
aaI176
aa(lp1155
I1
a(lp1156
F0.494118
aaI255
aa(lp1157
I1
a(lp1158
F0.233333
aaI210
aaa(lp1159
S'scaffold29092_cov411'
p1160
aS'scaffold3158_cov165'
p1161
aa(lp1162
S'scaffold5141_cov149'
p1163
aS'scaffold4981_cov255'
p1164
a(lp1165
I1
a(lp1166
F0.321101
aaI218
aa(lp1167
I1
a(lp1168
F0.426667
aaI225
aa(lp1169
I1
a(lp1170
F0.466135
aaI251
aaa(lp1171
S'scaffold35134_cov241'
p1172
aS'scaffold1798_cov239'
p1173
a(lp1174
I1
a(lp1175
F0.232955
aaI176
aa(lp1176
I1
a(lp1177
F0.232955
aaI176
aa(lp1178
I1
a(lp1179
F0.234286
aaI175
aa(lp1180
I1
a(lp1181
F0.273684
aaI190
aa(lp1182
I1
a(lp1183
F0.5625
aaI304
aa(lp1184
I1
a(lp1185
F0.202564
aaI390
aaa(lp1186
S'scaffold9518_cov247'
p1187
aS'scaffold1141_cov217'
p1188
a(lp1189
I1
a(lp1190
F0.360515
aaI233
aa(lp1191
I1
a(lp1192
F0.398406
aaI251
aa(lp1193
I1
a(lp1194
F0.339056
aaI233
aa(lp1195
I1
a(lp1196
F0.330472
aaI233
aa(lp1197
I1
a(lp1198
F0.205298
aaI302
aa(lp1199
I1
a(lp1200
F0.443686
aaI293
aa(lp1201
I1
a(lp1202
F0.450704
aaI284
aa(lp1203
I1
a(lp1204
F0.263736
aaI273
aa(lp1205
I1
a(lp1206
F0.38961
aaI231
aa(lp1207
I1
a(lp1208
F0.391003
aaI289
aa(lp1209
I1
a(lp1210
F0.339806
aaI206
aa(lp1211
I1
a(lp1212
F0.495298
aaI319
aa(lp1213
I1
a(lp1214
F0.28821
aaI229
aaa(lp1215
S'scaffold11665_cov274'
p1216
aS'scaffold4220_cov209'
p1217
a(lp1218
I1
a(lp1219
F0.224242
aaI165
aa(lp1220
I1
a(lp1221
F0.238095
aaI168
aa(lp1222
I1
a(lp1223
F0.244186
aaI172
aa(lp1224
I1
a(lp1225
F0.368217
aaI258
aa(lp1226
I1
a(lp1227
F0.362205
aaI254
aa(lp1228
I1
a(lp1229
F0.226316
aaI190
aa(lp1230
I1
a(lp1231
F0.234973
aaI183
aa(lp1232
I1
a(lp1233
F0.240642
aaI187
aa(lp1234
I1
a(lp1235
F0.0
aaI179
aa(lp1236
I1
a(lp1237
F0.478548
aaI303
aaa(lp1238
S'scaffold50233_cov936'
p1239
aS'scaffold4673_cov163'
p1240
aa(lp1241
S'scaffold52004_cov305'
p1242
aS'scaffold11324_cov225'
p1243
a(lp1244
I1
a(lp1245
F0.319588
aaI194
aa(lp1246
I1
a(lp1247
F0.204082
aaI196
aa(lp1248
I1
a(lp1249
F0.200935
aaI214
aa(lp1250
I1
a(lp1251
F0.240566
aaI212
aa(lp1252
I1
a(lp1253
F0.227488
aaI211
aa(lp1254
I1
a(lp1255
F0.274336
aaI226
aaa(lp1256
S'scaffold11923_cov205'
p1257
aS'scaffold34893_cov219'
p1258
a(lp1259
I1
a(lp1260
F0.25
aaI16
aa(lp1261
I1
a(lp1262
F0.0
aaI58
aaa(lp1263
S'scaffold9550_cov156'
p1264
aS'scaffold3486_cov238'
p1265
aa(lp1266
S'scaffold2251_cov300'
p1267
aS'scaffold5494_cov202'
p1268
a(lp1269
I1
a(lp1270
F0.520505
aaI317
aa(lp1271
I1
a(lp1272
F0.390947
aaI243
aa(lp1273
I1
a(lp1274
F0.399209
aaI253
aa(lp1275
I1
a(lp1276
F0.331754
aaI211
aa(lp1277
I1
a(lp1278
F0.25
aaI196
aa(lp1279
I1
a(lp1280
F0.276243
aaI181
aa(lp1281
I1
a(lp1282
F0.274854
aaI171
aa(lp1283
I1
a(lp1284
F0.288235
aaI170
aa(lp1285
I1
a(lp1286
F0.268041
aaI194
aa(lp1287
I1
a(lp1288
F0.502203
aaI227
aa(lp1289
I1
a(lp1290
F0.486486
aaI259
aaa(lp1291
S'scaffold10174_cov324'
p1292
aS'scaffold10173_cov150'
p1293
aa(lp1294
S'scaffold13712_cov247'
p1295
aS'scaffold3898_cov165'
p1296
a(lp1297
I1
a(lp1298
F0.263804
aaI163
aa(lp1299
I1
a(lp1300
F0.203947
aaI152
aaa(lp1301
S'scaffold3444_cov244'
p1302
aS'scaffold2301_cov209'
p1303
a(lp1304
I1
a(lp1305
F0.276018
aaI221
aa(lp1306
I1
a(lp1307
F0.30198
aaI202
aa(lp1308
I1
a(lp1309
F0.314721
aaI197
aa(lp1310
I1
a(lp1311
F0.324786
aaI234
aa(lp1312
I1
a(lp1313
F0.407609
aaI184
aa(lp1314
I1
a(lp1315
F0.351598
aaI219
aa(lp1316
I1
a(lp1317
F0.389831
aaI236
aaa(lp1318
S'scaffold1073_cov267'
p1319
aS'scaffold11614_cov255'
p1320
a(lp1321
I1
a(lp1322
F0.2
aaI185
aa(lp1323
I1
a(lp1324
F0.244131
aaI213
aa(lp1325
I1
a(lp1326
F0.237443
aaI219
aa(lp1327
I1
a(lp1328
F0.289157
aaI249
aa(lp1329
I1
a(lp1330
F0.283333
aaI240
aa(lp1331
I1
a(lp1332
F0.278481
aaI237
aa(lp1333
I1
a(lp1334
F0.263393
aaI224
aa(lp1335
I1
a(lp1336
F0.246231
aaI199
aa(lp1337
I1
a(lp1338
F0.252525
aaI198
aa(lp1339
I1
a(lp1340
F0.608844
aaI294
aa(lp1341
I1
a(lp1342
F0.634409
aaI186
aa(lp1343
I1
a(lp1344
F0.204678
aaI171
aa(lp1345
I1
a(lp1346
F0.486928
aaI306
aaa(lp1347
S'scaffold205_cov231'
p1348
aS'scaffold1655_cov200'
p1349
a(lp1350
I1
a(lp1351
F0.276243
aaI181
aa(lp1352
I1
a(lp1353
F0.207101
aaI169
aa(lp1354
I1
a(lp1355
F0.353175
aaI252
aa(lp1356
I1
a(lp1357
F0.0
aaI150
aa(lp1358
I1
a(lp1359
F0.251534
aaI163
aaa(lp1360
S'scaffold743_cov228'
p1361
aS'scaffold1746_cov212'
p1362
a(lp1363
I1
a(lp1364
F0.2891
aaI211
aa(lp1365
I1
a(lp1366
F0.27193
aaI228
aa(lp1367
I1
a(lp1368
F0.275109
aaI229
aa(lp1369
I1
a(lp1370
F0.318725
aaI251
aa(lp1371
I1
a(lp1372
F0.326271
aaI236
aa(lp1373
I1
a(lp1374
F0.377778
aaI225
aa(lp1375
I1
a(lp1376
F0.317708
aaI192
aa(lp1377
I1
a(lp1378
F0.248705
aaI193
aa(lp1379
I1
a(lp1380
F0.287081
aaI209
aa(lp1381
I1
a(lp1382
F0.279188
aaI197
aa(lp1383
I1
a(lp1384
F0.2657
aaI207
aa(lp1385
I1
a(lp1386
F0.253456
aaI217
aa(lp1387
I1
a(lp1388
F0.271375
aaI269
aa(lp1389
I1
a(lp1390
F0.233945
aaI218
aa(lp1391
I1
a(lp1392
F0.235023
aaI217
aa(lp1393
I1
a(lp1394
F0.238318
aaI214
aa(lp1395
I1
a(lp1396
F0.418605
aaI258
aa(lp1397
I1
a(lp1398
F0.428571
aaI259
aa(lp1399
I1
a(lp1400
F0.443223
aaI273
aa(lp1401
I1
a(lp1402
F0.428016
aaI257
aa(lp1403
I1
a(lp1404
F0.387387
aaI222
aa(lp1405
I1
a(lp1406
F0.25641
aaI156
aa(lp1407
I1
a(lp1408
F0.356618
aaI272
aa(lp1409
I1
a(lp1410
F0.208791
aaI182
aa(lp1411
I1
a(lp1412
F0.295918
aaI196
aa(lp1413
I1
a(lp1414
F0.221574
aaI343
aa(lp1415
I1
a(lp1416
F0.285294
aaI340
aa(lp1417
I1
a(lp1418
F0.260073
aaI273
aa(lp1419
I1
a(lp1420
F0.746777
aaI1086
aa(lp1421
I1
a(lp1422
F0.326203
aaI561
aa(lp1423
I1
a(lp1424
F0.212318
aaI617
aa(lp1425
I1
a(lp1426
F0.201939
aaI619
aa(lp1427
I1
a(lp1428
F0.228426
aaI394
aaa(lp1429
S'scaffold12547_cov300'
p1430
aS'scaffold2376_cov165'
p1431
a(lp1432
I1
a(lp1433
F0.382759
aaI290
aa(lp1434
I1
a(lp1435
F0.25
aaI220
aa(lp1436
I1
a(lp1437
F0.309623
aaI239
aa(lp1438
I1
a(lp1439
F0.308411
aaI214
aa(lp1440
I1
a(lp1441
F0.294686
aaI207
aa(lp1442
I1
a(lp1443
F0.399254
aaI268
aa(lp1444
I1
a(lp1445
F0.40404
aaI297
aa(lp1446
I1
a(lp1447
F0.438163
aaI283
aa(lp1448
I1
a(lp1449
F0.430894
aaI246
aa(lp1450
I1
a(lp1451
F0.428571
aaI238
aa(lp1452
I1
a(lp1453
F0.422131
aaI244
aa(lp1454
I1
a(lp1455
F0.280374
aaI214
aa(lp1456
I1
a(lp1457
F0.273684
aaI190
aa(lp1458
I1
a(lp1459
F0.245902
aaI183
aa(lp1460
I1
a(lp1461
F0.273438
aaI256
aaa(lp1462
S'scaffold34780_cov223'
p1463
aS'scaffold2666_cov188'
p1464
aa(lp1465
S'scaffold7855_cov227'
p1466
aS'scaffold642_cov217'
p1467
a(lp1468
I1
a(lp1469
F0.231132
aaI212
aa(lp1470
I1
a(lp1471
F0.47351
aaI302
aa(lp1472
I1
a(lp1473
F0.239631
aaI217
aa(lp1474
I1
a(lp1475
F0.270742
aaI229
aa(lp1476
I1
a(lp1477
F0.28125
aaI224
aa(lp1478
I1
a(lp1479
F0.323671
aaI207
aa(lp1480
I1
a(lp1481
F0.455556
aaI270
aa(lp1482
I1
a(lp1483
F0.460993
aaI282
aa(lp1484
I1
a(lp1485
F0.496124
aaI258
aa(lp1486
I1
a(lp1487
F0.314433
aaI194
aa(lp1488
I1
a(lp1489
F0.41453
aaI234
aa(lp1490
I1
a(lp1491
F0.488889
aaI180
aa(lp1492
I1
a(lp1493
F0.505102
aaI196
aa(lp1494
I1
a(lp1495
F0.46087
aaI230
aa(lp1496
I1
a(lp1497
F0.306306
aaI111
aaa(lp1498
S'scaffold2395_cov243'
p1499
aS'scaffold3285_cov233'
p1500
a(lp1501
I1
a(lp1502
F0.276699
aaI206
aa(lp1503
I1
a(lp1504
F0.206522
aaI184
aa(lp1505
I1
a(lp1506
F0.447368
aaI266
aa(lp1507
I1
a(lp1508
F0.277108
aaI249
aa(lp1509
I1
a(lp1510
F0.496667
aaI300
aa(lp1511
I1
a(lp1512
F0.0
aaI160
aa(lp1513
I1
a(lp1514
F0.295082
aaI122
aaa(lp1515
S'scaffold19797_cov164'
p1516
aS'scaffold6112_cov148'
p1517
aa(lp1518
S'scaffold534_cov297'
p1519
aS'scaffold532_cov244'
p1520
aa(lp1521
S'scaffold7912_cov254'
p1522
aS'scaffold22036_cov148'
p1523
aa(lp1524
S'scaffold5249_cov206'
p1525
aS'scaffold4631_cov169'
p1526
a(lp1527
I1
a(lp1528
F0.33617
aaI235
aa(lp1529
I1
a(lp1530
F0.276995
aaI213
aa(lp1531
I1
a(lp1532
F0.327103
aaI214
aa(lp1533
I1
a(lp1534
F0.416084
aaI286
aa(lp1535
I1
a(lp1536
F0.409483
aaI232
aa(lp1537
I1
a(lp1538
F0.441176
aaI238
aa(lp1539
I1
a(lp1540
F0.244019
aaI209
aa(lp1541
I1
a(lp1542
F0.221429
aaI140
aa(lp1543
I1
a(lp1544
F0.427119
aaI295
aa(lp1545
I1
a(lp1546
F0.386139
aaI202
aa(lp1547
I1
a(lp1548
F0.450216
aaI231
aa(lp1549
I1
a(lp1550
F0.216931
aaI189
aa(lp1551
I1
a(lp1552
F0.20625
aaI160
aaa(lp1553
S'scaffold30714_cov262'
p1554
aS'scaffold40802_cov284'
p1555
aa(lp1556
S'scaffold3201_cov239'
p1557
aS'scaffold1948_cov236'
p1558
aa(lp1559
S'scaffold6504_cov303'
p1560
aS'scaffold32879_cov158'
p1561
aa(lp1562
S'scaffold1636_cov295'
p1563
aS'scaffold1637_cov206'
p1564
a(lp1565
I1
a(lp1566
F0.4
aaI270
aa(lp1567
I1
a(lp1568
F0.359447
aaI217
aa(lp1569
I1
a(lp1570
F0.321101
aaI218
aa(lp1571
I1
a(lp1572
F0.295455
aaI176
aa(lp1573
I1
a(lp1574
F0.259494
aaI158
aa(lp1575
I1
a(lp1576
F0.262821
aaI156
aa(lp1577
I1
a(lp1578
F0.348066
aaI181
aa(lp1579
I1
a(lp1580
F0.223404
aaI188
aa(lp1581
I1
a(lp1582
F0.365759
aaI257
aa(lp1583
I1
a(lp1584
F0.355
aaI200
aa(lp1585
I1
a(lp1586
F0.364929
aaI211
aaa(lp1587
S'scaffold17188_cov256'
p1588
aS'scaffold6575_cov192'
p1589
a(lp1590
I1
a(lp1591
F0.265537
aaI177
aa(lp1592
I1
a(lp1593
F0.210811
aaI185
aa(lp1594
I1
a(lp1595
F0.205742
aaI209
aa(lp1596
I1
a(lp1597
F0.290749
aaI227
aa(lp1598
I1
a(lp1599
F0.316964
aaI224
aa(lp1600
I1
a(lp1601
F0.359649
aaI228
aa(lp1602
I1
a(lp1603
F0.387387
aaI222
aa(lp1604
I1
a(lp1605
F0.233184
aaI223
aa(lp1606
I1
a(lp1607
F0.233051
aaI236
aa(lp1608
I1
a(lp1609
F0.295082
aaI183
aa(lp1610
I1
a(lp1611
F0.282723
aaI191
aa(lp1612
I1
a(lp1613
F0.335025
aaI197
aa(lp1614
I1
a(lp1615
F0.345794
aaI214
aa(lp1616
I1
a(lp1617
F0.320574
aaI209
aa(lp1618
I1
a(lp1619
F0.331731
aaI208
aa(lp1620
I1
a(lp1621
F0.340206
aaI194
aa(lp1622
I1
a(lp1623
F0.311828
aaI186
aa(lp1624
I1
a(lp1625
F0.288889
aaI180
aa(lp1626
I1
a(lp1627
F0.293785
aaI177
aa(lp1628
I1
a(lp1629
F0.316327
aaI196
aa(lp1630
I1
a(lp1631
F0.293194
aaI191
aa(lp1632
I1
a(lp1633
F0.252577
aaI194
aaa(lp1634
S'scaffold13565_cov263'
p1635
aS'scaffold25159_cov143'
p1636
aa(lp1637
S'scaffold3033_cov182'
p1638
aS'scaffold2254_cov207'
p1639
aa(lp1640
S'scaffold19777_cov232'
p1641
aS'scaffold4838_cov202'
p1642
aa(lp1643
S'scaffold5160_cov248'
p1644
aS'scaffold35969_cov266'
p1645
aa(lp1646
S'scaffold21079_cov185'
p1647
aS'scaffold34580_cov232'
p1648
aa(lp1649
S'scaffold11307_cov229'
p1650
aS'scaffold6551_cov161'
p1651
a(lp1652
I1
a(lp1653
F0.322034
aaI236
aaa(lp1654
S'scaffold34240_cov291'
p1655
aS'scaffold6227_cov210'
p1656
a(lp1657
I1
a(lp1658
F0.431535
aaI241
aa(lp1659
I1
a(lp1660
F0.304545
aaI220
aaa(lp1661
S'scaffold1520_cov232'
p1662
aS'scaffold5829_cov226'
p1663
aa(lp1664
S'scaffold7998_cov239'
p1665
aS'scaffold34786_cov228'
p1666
a(lp1667
I1
a(lp1668
F0.335714
aaI280
aa(lp1669
I1
a(lp1670
F0.402597
aaI231
aa(lp1671
I1
a(lp1672
F0.345238
aaI252
aa(lp1673
I1
a(lp1674
F0.435897
aaI312
aa(lp1675
I1
a(lp1676
F0.312
aaI250
aa(lp1677
I1
a(lp1678
F0.226804
aaI194
aa(lp1679
I1
a(lp1680
F0.232323
aaI198
aa(lp1681
I1
a(lp1682
F0.23445
aaI209
aa(lp1683
I1
a(lp1684
F0.206278
aaI223
aa(lp1685
I1
a(lp1686
F0.52
aaI300
aa(lp1687
I1
a(lp1688
F0.405063
aaI237
aa(lp1689
I1
a(lp1690
F0.211921
aaI151
aa(lp1691
I1
a(lp1692
F0.346341
aaI205
aa(lp1693
I1
a(lp1694
F0.0
aaI118
aaa(lp1695
S'scaffold2764_cov248'
p1696
aS'scaffold35902_cov179'
p1697
a(lp1698
I1
a(lp1699
F0.692308
aaI13
aa(lp1700
I1
a(lp1701
F0.0
aaI8
aa(lp1702
I1
a(lp1703
F0.0
aaI7
aa(lp1704
I1
a(lp1705
F0.0
aaI14
aa(lp1706
I1
a(lp1707
F0.766667
aaI30
aa(lp1708
I1
a(lp1709
F0.0
aaI6
aa(lp1710
I1
a(lp1711
F0.0
aaI6
aa(lp1712
I1
a(lp1713
F0.0
aaI6
aa(lp1714
I1
a(lp1715
F0.0
aaI4
aa(lp1716
I1
a(lp1717
F0.0
aaI4
aa(lp1718
I1
a(lp1719
F0.0
aaI3
aa(lp1720
I1
a(lp1721
F0.0
aaI3
aa(lp1722
I1
a(lp1723
F0.0
aaI27
aa(lp1724
I1
a(lp1725
F0.0
aaI40
aa(lp1726
I1
a(lp1727
F0.0
aaI38
aa(lp1728
I1
a(lp1729
F0.0
aaI8
aa(lp1730
I1
a(lp1731
F0.0
aaI77
aa(lp1732
I1
a(lp1733
F0.0
aaI24
aa(lp1734
I1
a(lp1735
F0.0
aaI29
aa(lp1736
I1
a(lp1737
F0.310345
aaI29
aa(lp1738
I1
a(lp1739
F0.0
aaI19
aa(lp1740
I1
a(lp1741
F0.0
aaI19
aa(lp1742
I1
a(lp1743
F0.0
aaI19
aa(lp1744
I1
a(lp1745
F0.0
aaI43
aa(lp1746
I1
a(lp1747
F0.0
aaI72
aa(lp1748
I1
a(lp1749
F0.0
aaI87
aaa(lp1750
S'scaffold4870_cov219'
p1751
aS'scaffold7504_cov226'
p1752
aa(lp1753
S'scaffold5560_cov257'
p1754
aS'scaffold8732_cov275'
p1755
a(lp1756
I1
a(lp1757
F0.0
aaI128
aa(lp1758
I1
a(lp1759
F0.0
aaI47
aa(lp1760
I1
a(lp1761
F0.0
aaI119
aaa(lp1762
S'scaffold6035_cov288'
p1763
aS'scaffold1952_cov217'
p1764
aa(lp1765
S'scaffold2015_cov427'
p1766
aS'scaffold843_cov157'
p1767
aa(lp1768
S'scaffold16937_cov241'
p1769
aS'scaffold1798_cov239'
p1770
aa(lp1771
S'scaffold1047_cov391'
p1772
aS'scaffold1999_cov166'
p1773
aa(lp1774
S'scaffold2018_cov229'
p1775
aS'scaffold3622_cov247'
p1776
a(lp1777
I1
a(lp1778
F0.47486
aaI358
aa(lp1779
I1
a(lp1780
F0.444444
aaI315
aa(lp1781
I1
a(lp1782
F0.458333
aaI312
aa(lp1783
I1
a(lp1784
F0.440972
aaI288
aaa(lp1785
S'scaffold48640_cov294'
p1786
aS'scaffold10308_cov219'
p1787
aa(lp1788
S'scaffold3282_cov224'
p1789
aS'scaffold35925_cov172'
p1790
a(lp1791
I1
a(lp1792
F0.258929
aaI224
aa(lp1793
I1
a(lp1794
F0.284264
aaI197
aa(lp1795
I1
a(lp1796
F0.284091
aaI176
aa(lp1797
I1
a(lp1798
F0.377682
aaI233
aa(lp1799
I1
a(lp1800
F0.373913
aaI230
aa(lp1801
I1
a(lp1802
F0.218182
aaI220
aa(lp1803
I1
a(lp1804
F0.466403
aaI253
aa(lp1805
I1
a(lp1806
F0.47549
aaI204
aa(lp1807
I1
a(lp1808
F0.420213
aaI188
aa(lp1809
I1
a(lp1810
F0.396985
aaI199
aa(lp1811
I1
a(lp1812
F0.203947
aaI152
aa(lp1813
I1
a(lp1814
F0.0
aaI237
aa(lp1815
I1
a(lp1816
F0.214286
aaI462
aa(lp1817
I1
a(lp1818
F0.222222
aaI207
aaa(lp1819
S'scaffold14007_cov270'
p1820
aS'scaffold181_cov231'
p1821
a(lp1822
I1
a(lp1823
F0.265403
aaI211
aa(lp1824
I1
a(lp1825
F0.290598
aaI234
aa(lp1826
I1
a(lp1827
F0.30131
aaI229
aa(lp1828
I1
a(lp1829
F0.312775
aaI227
aa(lp1830
I1
a(lp1831
F0.492366
aaI262
aa(lp1832
I1
a(lp1833
F0.477444
aaI266
aa(lp1834
I1
a(lp1835
F0.264706
aaI204
aa(lp1836
I1
a(lp1837
F0.297561
aaI205
aa(lp1838
I1
a(lp1839
F0.215596
aaI218
aa(lp1840
I1
a(lp1841
F0.220513
aaI195
aa(lp1842
I1
a(lp1843
F0.400966
aaI207
aa(lp1844
I1
a(lp1845
F0.331551
aaI187
aa(lp1846
I1
a(lp1847
F0.22
aaI150
aa(lp1848
I1
a(lp1849
F0.302198
aaI182
aa(lp1850
I1
a(lp1851
F0.279188
aaI197
aa(lp1852
I1
a(lp1853
F0.298507
aaI201
aa(lp1854
I1
a(lp1855
F0.327935
aaI247
aa(lp1856
I1
a(lp1857
F0.212963
aaI216
aa(lp1858
I1
a(lp1859
F0.237113
aaI194
aa(lp1860
I1
a(lp1861
F0.237113
aaI194
aaa(lp1862
S'scaffold5495_cov293'
p1863
aS'scaffold42388_cov305'
p1864
aa(lp1865
S'scaffold2836_cov225'
p1866
aS'scaffold4074_cov180'
p1867
a(lp1868
I1
a(lp1869
F0.313901
aaI223
aa(lp1870
I1
a(lp1871
F0.295
aaI200
aa(lp1872
I1
a(lp1873
F0.299492
aaI197
aa(lp1874
I1
a(lp1875
F0.291457
aaI199
aa(lp1876
I1
a(lp1877
F0.321429
aaI168
aa(lp1878
I1
a(lp1879
F0.246696
aaI227
aa(lp1880
I1
a(lp1881
F0.246305
aaI203
aa(lp1882
I1
a(lp1883
F0.531365
aaI271
aa(lp1884
I1
a(lp1885
F0.229167
aaI96
aa(lp1886
I1
a(lp1887
F0.211538
aaI104
aa(lp1888
I1
a(lp1889
F0.284672
aaI137
aa(lp1890
I1
a(lp1891
F0.301887
aaI159
aa(lp1892
I1
a(lp1893
F0.284848
aaI165
aa(lp1894
I1
a(lp1895
F0.346154
aaI52
aaa(lp1896
S'scaffold8201_cov210'
p1897
aS'scaffold487_cov180'
p1898
a(lp1899
I1
a(lp1900
F0.263473
aaI167
aa(lp1901
I1
a(lp1902
F0.238095
aaI168
aaa(lp1903
S'scaffold8280_cov208'
p1904
aS'scaffold18434_cov227'
p1905
a(lp1906
I1
a(lp1907
F0.869565
aaI690
aaa(lp1908
S'scaffold8291_cov270'
p1909
aS'scaffold6880_cov163'
p1910
aa(lp1911
S'scaffold3436_cov196'
p1912
aS'scaffold1629_cov253'
p1913
a(lp1914
I1
a(lp1915
F0.283505
aaI194
aa(lp1916
I1
a(lp1917
F0.282609
aaI184
aa(lp1918
I1
a(lp1919
F0.386047
aaI215
aaa(lp1920
S'scaffold5242_cov262'
p1921
aS'scaffold35822_cov215'
p1922
a(lp1923
I1
a(lp1924
F0.0
aaI196
aa(lp1925
I1
a(lp1926
F0.438486
aaI317
aa(lp1927
I1
a(lp1928
F0.265
aaI200
aa(lp1929
I1
a(lp1930
F0.328502
aaI207
aa(lp1931
I1
a(lp1932
F0.285714
aaI224
aa(lp1933
I1
a(lp1934
F0.26087
aaI207
aa(lp1935
I1
a(lp1936
F0.481481
aaI324
aa(lp1937
I1
a(lp1938
F0.22488
aaI209
aaa(lp1939
S'scaffold34455_cov418'
p1940
aS'scaffold34968_cov196'
p1941
a(lp1942
I1
a(lp1943
F0.575301
aaI332
aa(lp1944
I1
a(lp1945
F0.329635
aaI631
aaa(lp1946
S'scaffold7259_cov286'
p1947
aS'scaffold1969_cov172'
p1948
a(lp1949
I1
a(lp1950
F0.214286
aaI224
aa(lp1951
I1
a(lp1952
F0.231111
aaI225
aa(lp1953
I1
a(lp1954
F0.358586
aaI198
aa(lp1955
I1
a(lp1956
F0.390135
aaI223
aa(lp1957
I1
a(lp1958
F0.2657
aaI207
aaa(lp1959
S'scaffold585_cov234'
p1960
aS'scaffold44578_cov315'
p1961
aa(lp1962
S'scaffold16517_cov275'
p1963
aS'scaffold1106_cov224'
p1964
a(lp1965
I1
a(lp1966
F0.321429
aaI224
aa(lp1967
I1
a(lp1968
F0.266968
aaI221
aa(lp1969
I1
a(lp1970
F0.283843
aaI229
aa(lp1971
I1
a(lp1972
F0.240642
aaI187
aa(lp1973
I1
a(lp1974
F0.29717
aaI212
aa(lp1975
I1
a(lp1976
F0.275
aaI200
aa(lp1977
I1
a(lp1978
F0.28877
aaI187
aa(lp1979
I1
a(lp1980
F0.31016
aaI187
aa(lp1981
I1
a(lp1982
F0.373786
aaI206
aa(lp1983
I1
a(lp1984
F0.0
aaI235
aa(lp1985
I1
a(lp1986
F0.251101
aaI227
aa(lp1987
I1
a(lp1988
F0.261905
aaI210
aa(lp1989
I1
a(lp1990
F0.241706
aaI211
aa(lp1991
I1
a(lp1992
F0.286325
aaI234
aa(lp1993
I1
a(lp1994
F0.278689
aaI244
aa(lp1995
I1
a(lp1996
F0.478873
aaI284
aa(lp1997
I1
a(lp1998
F0.527397
aaI292
aa(lp1999
I1
a(lp2000
F0.5
aaI272
aaa(lp2001
S'scaffold6196_cov437'
p2002
aS'scaffold343_cov157'
p2003
a(lp2004
I1
a(lp2005
F0.609065
aaI353
aa(lp2006
I1
a(lp2007
F0.37415
aaI294
aa(lp2008
I1
a(lp2009
F0.408784
aaI296
aa(lp2010
I1
a(lp2011
F0.421222
aaI311
aa(lp2012
I1
a(lp2013
F0.606965
aaI402
aa(lp2014
I1
a(lp2015
F0.433846
aaI325
aa(lp2016
I1
a(lp2017
F0.491166
aaI283
aa(lp2018
I1
a(lp2019
F0.3
aaI210
aa(lp2020
I1
a(lp2021
F0.360324
aaI247
aa(lp2022
I1
a(lp2023
F0.514377
aaI313
aa(lp2024
I1
a(lp2025
F0.297189
aaI249
aa(lp2026
I1
a(lp2027
F0.446721
aaI244
aa(lp2028
I1
a(lp2029
F0.325688
aaI218
aa(lp2030
I1
a(lp2031
F0.722443
aaI1261
aa(lp2032
I1
a(lp2033
F0.201087
aaI184
aaa(lp2034
S'scaffold1559_cov231'
p2035
aS'scaffold204_cov205'
p2036
a(lp2037
I1
a(lp2038
F0.452145
aaI303
aa(lp2039
I1
a(lp2040
F0.534161
aaI322
aaa(lp2041
S'scaffold6911_cov202'
p2042
aS'scaffold4867_cov158'
p2043
aa(lp2044
S'scaffold9574_cov228'
p2045
aS'scaffold2246_cov240'
p2046
a(lp2047
I1
a(lp2048
F0.283673
aaI490
aa(lp2049
I1
a(lp2050
F0.25098
aaI255
aa(lp2051
I1
a(lp2052
F0.2875
aaI240
aa(lp2053
I1
a(lp2054
F0.302521
aaI238
aa(lp2055
I1
a(lp2056
F0.235616
aaI365
aa(lp2057
I1
a(lp2058
F0.583514
aaI461
aa(lp2059
I1
a(lp2060
F0.503401
aaI294
aa(lp2061
I1
a(lp2062
F0.239186
aaI393
aa(lp2063
I1
a(lp2064
F0.363868
aaI393
aa(lp2065
I1
a(lp2066
F0.507599
aaI329
aa(lp2067
I1
a(lp2068
F0.52648
aaI321
aaa(lp2069
S'scaffold3194_cov316'
p2070
aS'scaffold12171_cov160'
p2071
aa(lp2072
S'scaffold30714_cov262'
p2073
aS'scaffold3621_cov266'
p2074
aa(lp2075
S'scaffold1041_cov212'
p2076
aS'scaffold6560_cov168'
p2077
a(lp2078
I1
a(lp2079
F0.278607
aaI201
aa(lp2080
I1
a(lp2081
F0.225641
aaI195
aaa(lp2082
S'scaffold25510_cov231'
p2083
aS'scaffold8365_cov240'
p2084
aa(lp2085
S'scaffold28262_cov431'
p2086
aS'scaffold343_cov157'
p2087
aa(lp2088
S'scaffold4790_cov191'
p2089
aS'scaffold33895_cov180'
p2090
aa(lp2091
S'scaffold3824_cov240'
p2092
aS'scaffold5144_cov205'
p2093
a(lp2094
I1
a(lp2095
F0.222222
aaI207
aaa(lp2096
S'scaffold8081_cov244'
p2097
aS'scaffold34811_cov176'
p2098
a(lp2099
I1
a(lp2100
F0.440945
aaI254
aa(lp2101
I1
a(lp2102
F0.348178
aaI247
aa(lp2103
I1
a(lp2104
F0.338983
aaI236
aa(lp2105
I1
a(lp2106
F0.292887
aaI239
aa(lp2107
I1
a(lp2108
F0.507692
aaI325
aa(lp2109
I1
a(lp2110
F0.488449
aaI303
aa(lp2111
I1
a(lp2112
F0.453125
aaI256
aa(lp2113
I1
a(lp2114
F0.385281
aaI231
aaa(lp2115
S'scaffold10_cov225'
p2116
aS'scaffold2901_cov252'
p2117
a(lp2118
I1
a(lp2119
F0.358974
aaI234
aa(lp2120
I1
a(lp2121
F0.325581
aaI215
aa(lp2122
I1
a(lp2123
F0.242718
aaI206
aaa(lp2124
S'scaffold849_cov247'
p2125
aS'scaffold1253_cov168'
p2126
a(lp2127
I1
a(lp2128
F0.362869
aaI237
aa(lp2129
I1
a(lp2130
F0.355556
aaI225
aa(lp2131
I1
a(lp2132
F0.396552
aaI232
aa(lp2133
I1
a(lp2134
F0.288136
aaI236
aa(lp2135
I1
a(lp2136
F0.294372
aaI231
aa(lp2137
I1
a(lp2138
F0.262443
aaI221
aa(lp2139
I1
a(lp2140
F0.285
aaI200
aa(lp2141
I1
a(lp2142
F0.33195
aaI241
aa(lp2143
I1
a(lp2144
F0.208333
aaI192
aa(lp2145
I1
a(lp2146
F0.281553
aaI206
aa(lp2147
I1
a(lp2148
F0.209607
aaI229
aaa(lp2149
S'scaffold3590_cov237'
p2150
aS'scaffold34183_cov209'
p2151
aa(lp2152
S'scaffold6964_cov214'
p2153
aS'scaffold1655_cov200'
p2154
a(lp2155
I1
a(lp2156
F0.348485
aaI264
aa(lp2157
I1
a(lp2158
F0.263959
aaI394
aa(lp2159
I1
a(lp2160
F0.286957
aaI345
aa(lp2161
I1
a(lp2162
F0.309524
aaI378
aa(lp2163
I1
a(lp2164
F0.308743
aaI366
aaa(lp2165
S'scaffold6177_cov155'
p2166
aS'scaffold33647_cov137'
p2167
aa(lp2168
S'scaffold41363_cov389'
p2169
aS'scaffold3342_cov163'
p2170
aa(lp2171
S'scaffold5058_cov197'
p2172
aS'scaffold4464_cov185'
p2173
a(lp2174
I1
a(lp2175
F0.308108
aaI185
aa(lp2176
I1
a(lp2177
F0.279412
aaI204
aa(lp2178
I1
a(lp2179
F0.201149
aaI174
aa(lp2180
I1
a(lp2181
F0.399123
aaI228
aa(lp2182
I1
a(lp2183
F0.363636
aaI242
aaa(lp2184
S'scaffold35824_cov247'
p2185
aS'scaffold3010_cov208'
p2186
a(lp2187
I1
a(lp2188
F0.438438
aaI333
aa(lp2189
I1
a(lp2190
F0.447811
aaI297
aa(lp2191
I1
a(lp2192
F0.278075
aaI187
aa(lp2193
I1
a(lp2194
F0.288136
aaI177
aa(lp2195
I1
a(lp2196
F0.408304
aaI289
aa(lp2197
I1
a(lp2198
F0.418773
aaI277
aa(lp2199
I1
a(lp2200
F0.429104
aaI268
aa(lp2201
I1
a(lp2202
F0.456274
aaI263
aa(lp2203
I1
a(lp2204
F0.40991
aaI222
aa(lp2205
I1
a(lp2206
F0.388646
aaI229
aa(lp2207
I1
a(lp2208
F0.361345
aaI238
aa(lp2209
I1
a(lp2210
F0.369919
aaI246
aa(lp2211
I1
a(lp2212
F0.368889
aaI225
aa(lp2213
I1
a(lp2214
F0.360731
aaI219
aa(lp2215
I1
a(lp2216
F0.277533
aaI227
aa(lp2217
I1
a(lp2218
F0.248889
aaI225
aa(lp2219
I1
a(lp2220
F0.236842
aaI190
aa(lp2221
I1
a(lp2222
F0.24359
aaI234
aa(lp2223
I1
a(lp2224
F0.489451
aaI237
aa(lp2225
I1
a(lp2226
F0.533569
aaI283
aa(lp2227
I1
a(lp2228
F0.25641
aaI195
aa(lp2229
I1
a(lp2230
F0.262032
aaI187
aa(lp2231
I1
a(lp2232
F0.25
aaI188
aa(lp2233
I1
a(lp2234
F0.281915
aaI188
aa(lp2235
I1
a(lp2236
F0.299065
aaI214
aa(lp2237
I1
a(lp2238
F0.331797
aaI217
aa(lp2239
I1
a(lp2240
F0.24186
aaI215
aaa(lp2241
S'scaffold3485_cov257'
p2242
aS'scaffold5461_cov213'
p2243
a(lp2244
I1
a(lp2245
F0.324873
aaI197
aa(lp2246
I1
a(lp2247
F0.308511
aaI188
aa(lp2248
I1
a(lp2249
F0.350254
aaI197
aa(lp2250
I1
a(lp2251
F0.450172
aaI291
aa(lp2252
I1
a(lp2253
F0.227488
aaI211
aa(lp2254
I1
a(lp2255
F0.229167
aaI240
aa(lp2256
I1
a(lp2257
F0.504098
aaI244
aa(lp2258
I1
a(lp2259
F0.488722
aaI266
aa(lp2260
I1
a(lp2261
F0.486692
aaI263
aa(lp2262
I1
a(lp2263
F0.247573
aaI206
aa(lp2264
I1
a(lp2265
F0.210526
aaI190
aa(lp2266
I1
a(lp2267
F0.357143
aaI238
aa(lp2268
I1
a(lp2269
F0.378151
aaI238
aa(lp2270
I1
a(lp2271
F0.38326
aaI227
aa(lp2272
I1
a(lp2273
F0.356808
aaI213
aa(lp2274
I1
a(lp2275
F0.391473
aaI258
aa(lp2276
I1
a(lp2277
F0.310345
aaI203
aa(lp2278
I1
a(lp2279
F0.330233
aaI215
aaa(lp2280
S'scaffold5523_cov227'
p2281
aS'scaffold3428_cov197'
p2282
a(lp2283
I1
a(lp2284
F0.213198
aaI197
aaa(lp2285
S'scaffold1436_cov280'
p2286
aS'scaffold11878_cov196'
p2287
a(lp2288
I1
a(lp2289
F0.392086
aaI278
aa(lp2290
I1
a(lp2291
F0.346939
aaI245
aa(lp2292
I1
a(lp2293
F0.223464
aaI179
aa(lp2294
I1
a(lp2295
F0.259459
aaI185
aa(lp2296
I1
a(lp2297
F0.490706
aaI269
aa(lp2298
I1
a(lp2299
F0.259887
aaI177
aaa(lp2300
S'scaffold16909_cov171'
p2301
aS'scaffold10939_cov235'
p2302
a(lp2303
I1
a(lp2304
F0.459091
aaI220
aaa(lp2305
S'scaffold34992_cov298'
p2306
aS'scaffold428_cov197'
p2307
a(lp2308
I1
a(lp2309
F0.75
aaI60
aa(lp2310
I1
a(lp2311
F0.737705
aaI61
aa(lp2312
I1
a(lp2313
F0.708333
aaI72
aa(lp2314
I1
a(lp2315
F0.716216
aaI74
aa(lp2316
I1
a(lp2317
F0.684211
aaI76
aa(lp2318
I1
a(lp2319
F0.567164
aaI67
aa(lp2320
I1
a(lp2321
F0.706897
aaI58
aa(lp2322
I1
a(lp2323
F0.784615
aaI65
aa(lp2324
I1
a(lp2325
F0.529412
aaI34
aa(lp2326
I1
a(lp2327
F0.666667
aaI45
aa(lp2328
I1
a(lp2329
F0.856287
aaI167
aa(lp2330
I1
a(lp2331
F0.0
aaI107
aaa(lp2332
S'scaffold5271_cov299'
p2333
aS'scaffold5221_cov193'
p2334
aa(lp2335
S'scaffold5976_cov266'
p2336
aS'scaffold3325_cov214'
p2337
a(lp2338
I1
a(lp2339
F0.240223
aaI179
aa(lp2340
I1
a(lp2341
F0.24537
aaI216
aa(lp2342
I1
a(lp2343
F0.225641
aaI195
aa(lp2344
I1
a(lp2345
F0.206897
aaI203
aaa(lp2346
S'scaffold6403_cov387'
p2347
aS'scaffold1999_cov166'
p2348
a(lp2349
I1
a(lp2350
F0.2657
aaI207
aa(lp2351
I1
a(lp2352
F0.384615
aaI325
aa(lp2353
I1
a(lp2354
F0.294606
aaI241
aa(lp2355
I1
a(lp2356
F0.444444
aaI216
aa(lp2357
I1
a(lp2358
F0.205405
aaI185
aa(lp2359
I1
a(lp2360
F0.214286
aaI182
aa(lp2361
I1
a(lp2362
F0.466667
aaI285
aa(lp2363
I1
a(lp2364
F0.354167
aaI192
aaa(lp2365
S'scaffold854_cov247'
p2366
aS'scaffold9044_cov264'
p2367
a(lp2368
I1
a(lp2369
F0.502924
aaI342
aa(lp2370
I1
a(lp2371
F0.546053
aaI304
aa(lp2372
I1
a(lp2373
F0.549342
aaI304
aa(lp2374
I1
a(lp2375
F0.522184
aaI293
aaa(lp2376
S'scaffold8469_cov191'
p2377
aS'scaffold34868_cov282'
p2378
aa(lp2379
S'scaffold29217_cov317'
p2380
aS'scaffold1412_cov235'
p2381
aa(lp2382
S'scaffold8573_cov422'
p2383
aS'scaffold5917_cov146'
p2384
aa(lp2385
S'scaffold3680_cov185'
p2386
aS'scaffold10673_cov201'
p2387
a(lp2388
I1
a(lp2389
F0.234568
aaI243
aa(lp2390
I1
a(lp2391
F0.262136
aaI206
aa(lp2392
I1
a(lp2393
F0.213115
aaI183
aa(lp2394
I1
a(lp2395
F0.294737
aaI190
aaa(lp2396
S'scaffold5708_cov422'
p2397
aS'scaffold5917_cov146'
p2398
aa(lp2399
S'scaffold869_cov236'
p2400
aS'scaffold35051_cov180'
p2401
a(lp2402
I1
a(lp2403
F0.212121
aaI198
aa(lp2404
I1
a(lp2405
F0.220513
aaI195
aa(lp2406
I1
a(lp2407
F0.265957
aaI188
aaa(lp2408
S'scaffold5700_cov293'
p2409
aS'scaffold5813_cov245'
p2410
aa(lp2411
S'scaffold4573_cov200'
p2412
aS'scaffold9482_cov230'
p2413
a(lp2414
I1
a(lp2415
F0.330275
aaI327
aa(lp2416
I1
a(lp2417
F0.265766
aaI222
aa(lp2418
I1
a(lp2419
F0.400922
aaI217
aa(lp2420
I1
a(lp2421
F0.368159
aaI201
aa(lp2422
I1
a(lp2423
F0.346535
aaI202
aa(lp2424
I1
a(lp2425
F0.379487
aaI195
aa(lp2426
I1
a(lp2427
F0.401042
aaI192
aa(lp2428
I1
a(lp2429
F0.226415
aaI212
aa(lp2430
I1
a(lp2431
F0.240506
aaI237
aa(lp2432
I1
a(lp2433
F0.316667
aaI240
aaa(lp2434
S'scaffold36090_cov308'
p2435
aS'scaffold4008_cov147'
p2436
a(lp2437
I1
a(lp2438
F0.449339
aaI227
aa(lp2439
I1
a(lp2440
F0.284644
aaI267
aa(lp2441
I1
a(lp2442
F0.246809
aaI235
aa(lp2443
I1
a(lp2444
F0.413636
aaI220
aaa(lp2445
S'scaffold38236_cov294'
p2446
aS'scaffold12700_cov150'
p2447
aa(lp2448
S'scaffold10361_cov204'
p2449
aS'scaffold11037_cov149'
p2450
aa(lp2451
S'scaffold22541_cov161'
p2452
aS'scaffold6820_cov173'
p2453
aa(lp2454
S'scaffold1081_cov253'
p2455
aS'scaffold1083_cov222'
p2456
a(lp2457
I1
a(lp2458
F0.318471
aaI157
aa(lp2459
I1
a(lp2460
F0.266667
aaI165
aa(lp2461
I1
a(lp2462
F0.425532
aaI235
aa(lp2463
I1
a(lp2464
F0.430233
aaI258
aa(lp2465
I1
a(lp2466
F0.458333
aaI240
aa(lp2467
I1
a(lp2468
F0.356223
aaI233
aa(lp2469
I1
a(lp2470
F0.370833
aaI240
aa(lp2471
I1
a(lp2472
F0.233333
aaI210
aa(lp2473
I1
a(lp2474
F0.4
aaI255
aa(lp2475
I1
a(lp2476
F0.432
aaI250
aa(lp2477
I1
a(lp2478
F0.230047
aaI213
aa(lp2479
I1
a(lp2480
F0.253521
aaI213
aa(lp2481
I1
a(lp2482
F0.223256
aaI215
aa(lp2483
I1
a(lp2484
F0.476744
aaI258
aa(lp2485
I1
a(lp2486
F0.25
aaI220
aa(lp2487
I1
a(lp2488
F0.246512
aaI215
aa(lp2489
I1
a(lp2490
F0.519231
aaI312
aaa(lp2491
S'scaffold1911_cov231'
p2492
aS'scaffold2955_cov235'
p2493
a(lp2494
I1
a(lp2495
F0.273292
aaI161
aa(lp2496
I1
a(lp2497
F0.380435
aaI184
aa(lp2498
I1
a(lp2499
F0.374429
aaI219
aa(lp2500
I1
a(lp2501
F0.376147
aaI218
aa(lp2502
I1
a(lp2503
F0.344186
aaI215
aa(lp2504
I1
a(lp2505
F0.361233
aaI227
aa(lp2506
I1
a(lp2507
F0.295567
aaI203
aa(lp2508
I1
a(lp2509
F0.328829
aaI222
aa(lp2510
I1
a(lp2511
F0.304545
aaI220
aa(lp2512
I1
a(lp2513
F0.302752
aaI218
aaa(lp2514
S'scaffold709_cov247'
p2515
aS'scaffold5394_cov155'
p2516
aa(lp2517
S'scaffold4184_cov249'
p2518
aS'scaffold2531_cov161'
p2519
aa(lp2520
S'scaffold2596_cov234'
p2521
aS'scaffold1898_cov190'
p2522
a(lp2523
I1
a(lp2524
F0.308176
aaI318
aa(lp2525
I1
a(lp2526
F0.210526
aaI190
aa(lp2527
I1
a(lp2528
F0.381526
aaI249
aa(lp2529
I1
a(lp2530
F0.304878
aaI246
aa(lp2531
I1
a(lp2532
F0.333333
aaI237
aa(lp2533
I1
a(lp2534
F0.358025
aaI243
aa(lp2535
I1
a(lp2536
F0.277056
aaI231
aa(lp2537
I1
a(lp2538
F0.235602
aaI191
aa(lp2539
I1
a(lp2540
F0.287736
aaI212
aa(lp2541
I1
a(lp2542
F0.210784
aaI204
aaa(lp2543
S'scaffold6422_cov190'
p2544
aS'scaffold14276_cov161'
p2545
aa(lp2546
S'scaffold6461_cov208'
p2547
aS'scaffold10232_cov153'
p2548
a(lp2549
I1
a(lp2550
F0.428571
aaI266
aa(lp2551
I1
a(lp2552
F0.472924
aaI277
aa(lp2553
I1
a(lp2554
F0.251337
aaI374
aa(lp2555
I1
a(lp2556
F0.358779
aaI393
aa(lp2557
I1
a(lp2558
F0.419948
aaI381
aa(lp2559
I1
a(lp2560
F0.517572
aaI313
aaa(lp2561
S'scaffold3709_cov220'
p2562
aS'scaffold9550_cov156'
p2563
aa(lp2564
S'scaffold1435_cov176'
p2565
aS'scaffold7695_cov182'
p2566
a(lp2567
I1
a(lp2568
F0.274194
aaI186
aaa(lp2569
S'scaffold20444_cov436'
p2570
aS'scaffold13149_cov173'
p2571
a(lp2572
I1
a(lp2573
F0.465839
aaI322
aa(lp2574
I1
a(lp2575
F0.432886
aaI298
aa(lp2576
I1
a(lp2577
F0.408759
aaI274
aa(lp2578
I1
a(lp2579
F0.25
aaI200
aa(lp2580
I1
a(lp2581
F0.242604
aaI169
aa(lp2582
I1
a(lp2583
F0.281609
aaI174
aaa(lp2584
S'scaffold9528_cov287'
p2585
aS'scaffold13440_cov161'
p2586
a(lp2587
I1
a(lp2588
F0.243902
aaI164
aaa(lp2589
S'scaffold3054_cov300'
p2590
aS'scaffold9545_cov229'
p2591
aa(lp2592
S'scaffold7135_cov385'
p2593
aS'scaffold2547_cov148'
p2594
aa(lp2595
S'scaffold4093_cov203'
p2596
aS'scaffold15331_cov173'
p2597
aa(lp2598
S'scaffold4879_cov249'
p2599
aS'scaffold916_cov197'
p2600
aa(lp2601
S'scaffold441_cov213'
p2602
aS'scaffold3541_cov180'
p2603
aa(lp2604
S'scaffold6945_cov182'
p2605
aS'scaffold3075_cov156'
p2606
aa(lp2607
S'scaffold2691_cov437'
p2608
aS'scaffold843_cov157'
p2609
aa(lp2610
S'scaffold6744_cov389'
p2611
aS'scaffold54_cov186'
p2612
aa(lp2613
S'scaffold11228_cov232'
p2614
aS'scaffold14602_cov161'
p2615
a(lp2616
I1
a(lp2617
F0.358333
aaI240
aa(lp2618
I1
a(lp2619
F0.221154
aaI208
aa(lp2620
I1
a(lp2621
F0.21
aaI200
aaa(lp2622
S'scaffold36852_cov305'
p2623
aS'scaffold4188_cov191'
p2624
aa(lp2625
S'scaffold915_cov207'
p2626
aS'scaffold914_cov157'
p2627
a(lp2628
I1
a(lp2629
F0.366667
aaI240
aa(lp2630
I1
a(lp2631
F0.644847
aaI718
aa(lp2632
I1
a(lp2633
F0.385799
aaI845
aa(lp2634
I1
a(lp2635
F0.393346
aaI511
aa(lp2636
I1
a(lp2637
F0.265625
aaI192
aa(lp2638
I1
a(lp2639
F0.292079
aaI202
aaa(lp2640
S'scaffold663_cov256'
p2641
aS'scaffold29908_cov147'
p2642
aa(lp2643
S'scaffold1561_cov271'
p2644
aS'scaffold1811_cov234'
p2645
a(lp2646
I1
a(lp2647
F0.207729
aaI207
aa(lp2648
I1
a(lp2649
F0.232759
aaI232
aa(lp2650
I1
a(lp2651
F0.202614
aaI153
aa(lp2652
I1
a(lp2653
F0.403433
aaI233
aa(lp2654
I1
a(lp2655
F0.253333
aaI225
aa(lp2656
I1
a(lp2657
F0.318386
aaI223
aa(lp2658
I1
a(lp2659
F0.304933
aaI223
aa(lp2660
I1
a(lp2661
F0.4
aaI270
aa(lp2662
I1
a(lp2663
F0.235023
aaI217
aa(lp2664
I1
a(lp2665
F0.219388
aaI196
aa(lp2666
I1
a(lp2667
F0.206731
aaI208
aa(lp2668
I1
a(lp2669
F0.283988
aaI331
aa(lp2670
I1
a(lp2671
F0.289199
aaI287
aa(lp2672
I1
a(lp2673
F0.246305
aaI203
aa(lp2674
I1
a(lp2675
F0.243902
aaI205
aa(lp2676
I1
a(lp2677
F0.23348
aaI227
aa(lp2678
I1
a(lp2679
F0.225225
aaI222
aa(lp2680
I1
a(lp2681
F0.252381
aaI210
aa(lp2682
I1
a(lp2683
F0.315534
aaI206
aa(lp2684
I1
a(lp2685
F0.268817
aaI279
aaa(lp2686
S'scaffold279_cov300'
p2687
aS'scaffold888_cov152'
p2688
a(lp2689
I1
a(lp2690
F0.244
aaI250
aaa(lp2691
S'scaffold35026_cov310'
p2692
aS'scaffold288_cov182'
p2693
a(lp2694
I1
a(lp2695
F0.459677
aaI248
aa(lp2696
I1
a(lp2697
F0.231527
aaI203
aa(lp2698
I1
a(lp2699
F0.265
aaI200
aa(lp2700
I1
a(lp2701
F0.291304
aaI230
aa(lp2702
I1
a(lp2703
F0.316872
aaI243
aa(lp2704
I1
a(lp2705
F0.333333
aaI252
aa(lp2706
I1
a(lp2707
F0.281915
aaI188
aa(lp2708
I1
a(lp2709
F0.278302
aaI212
aa(lp2710
I1
a(lp2711
F0.533981
aaI412
aa(lp2712
I1
a(lp2713
F0.307692
aaI52
aa(lp2714
I1
a(lp2715
F0.224719
aaI178
aa(lp2716
I1
a(lp2717
F0.205556
aaI180
aa(lp2718
I1
a(lp2719
F0.225275
aaI182
aa(lp2720
I1
a(lp2721
F0.234375
aaI192
aaa(lp2722
S'scaffold9204_cov285'
p2723
aS'scaffold2497_cov220'
p2724
a(lp2725
I1
a(lp2726
F0.455882
aaI272
aaa(lp2727
S'scaffold47223_cov305'
p2728
aS'scaffold428_cov197'
p2729
aa(lp2730
S'scaffold1226_cov199'
p2731
aS'scaffold3246_cov212'
p2732
a(lp2733
I1
a(lp2734
F0.236111
aaI216
aa(lp2735
I1
a(lp2736
F0.349515
aaI206
aa(lp2737
I1
a(lp2738
F0.374101
aaI278
aa(lp2739
I1
a(lp2740
F0.28777
aaI139
aa(lp2741
I1
a(lp2742
F0.311828
aaI186
aa(lp2743
I1
a(lp2744
F0.237805
aaI164
aaa(lp2745
S'scaffold17142_cov215'
p2746
aS'scaffold35222_cov195'
p2747
a(lp2748
I1
a(lp2749
F0.271186
aaI177
aa(lp2750
I1
a(lp2751
F0.339901
aaI203
aa(lp2752
I1
a(lp2753
F0.322957
aaI257
aa(lp2754
I1
a(lp2755
F0.27686
aaI242
aa(lp2756
I1
a(lp2757
F0.495455
aaI220
aaa(lp2758
S'scaffold35800_cov215'
p2759
aS'scaffold7468_cov213'
p2760
a(lp2761
I1
a(lp2762
F0.331492
aaI181
aa(lp2763
I1
a(lp2764
F0.327778
aaI180
aa(lp2765
I1
a(lp2766
F0.284024
aaI169
aa(lp2767
I1
a(lp2768
F0.218009
aaI211
aa(lp2769
I1
a(lp2770
F0.220096
aaI209
aa(lp2771
I1
a(lp2772
F0.236967
aaI211
aa(lp2773
I1
a(lp2774
F0.255208
aaI192
aa(lp2775
I1
a(lp2776
F0.231959
aaI194
aa(lp2777
I1
a(lp2778
F0.22449
aaI196
aa(lp2779
I1
a(lp2780
F0.27451
aaI204
aa(lp2781
I1
a(lp2782
F0.306452
aaI186
aa(lp2783
I1
a(lp2784
F0.295238
aaI210
aa(lp2785
I1
a(lp2786
F0.349057
aaI212
aa(lp2787
I1
a(lp2788
F0.375587
aaI213
aa(lp2789
I1
a(lp2790
F0.215686
aaI204
aa(lp2791
I1
a(lp2792
F0.247059
aaI170
aa(lp2793
I1
a(lp2794
F0.248366
aaI153
aa(lp2795
I1
a(lp2796
F0.260417
aaI192
aa(lp2797
I1
a(lp2798
F0.255814
aaI172
aa(lp2799
I1
a(lp2800
F0.232804
aaI189
aa(lp2801
I1
a(lp2802
F0.235294
aaI187
aa(lp2803
I1
a(lp2804
F0.292419
aaI277
aa(lp2805
I1
a(lp2806
F0.275862
aaI203
aa(lp2807
I1
a(lp2808
F0.258883
aaI197
aa(lp2809
I1
a(lp2810
F0.334764
aaI233
aa(lp2811
I1
a(lp2812
F0.364754
aaI244
aa(lp2813
I1
a(lp2814
F0.333333
aaI222
aa(lp2815
I1
a(lp2816
F0.242574
aaI202
aa(lp2817
I1
a(lp2818
F0.243781
aaI201
aa(lp2819
I1
a(lp2820
F0.243781
aaI201
aa(lp2821
I1
a(lp2822
F0.267677
aaI198
aa(lp2823
I1
a(lp2824
F0.367089
aaI237
aa(lp2825
I1
a(lp2826
F0.292237
aaI219
aa(lp2827
I1
a(lp2828
F0.273504
aaI234
aa(lp2829
I1
a(lp2830
F0.278008
aaI241
aaa(lp2831
S'scaffold50853_cov294'
p2832
aS'scaffold4382_cov182'
p2833
a(lp2834
I1
a(lp2835
F0.293269
aaI208
aa(lp2836
I1
a(lp2837
F0.289474
aaI266
aa(lp2838
I1
a(lp2839
F0.286853
aaI251
aa(lp2840
I1
a(lp2841
F0.299595
aaI247
aaa(lp2842
S'scaffold6035_cov288'
p2843
aS'scaffold8301_cov160'
p2844
aa(lp2845
S'scaffold33985_cov263'
p2846
aS'scaffold383_cov198'
p2847
a(lp2848
I1
a(lp2849
F0.209581
aaI167
aa(lp2850
I1
a(lp2851
F0.395918
aaI245
aa(lp2852
I1
a(lp2853
F0.245283
aaI212
aa(lp2854
I1
a(lp2855
F0.309701
aaI268
aa(lp2856
I1
a(lp2857
F0.316279
aaI215
aa(lp2858
I1
a(lp2859
F0.5
aaI302
aa(lp2860
I1
a(lp2861
F0.221106
aaI199
aa(lp2862
I1
a(lp2863
F0.237624
aaI202
aa(lp2864
I1
a(lp2865
F0.24537
aaI216
aa(lp2866
I1
a(lp2867
F0.253521
aaI213
aa(lp2868
I1
a(lp2869
F0.274882
aaI211
aa(lp2870
I1
a(lp2871
F0.372727
aaI220
aa(lp2872
I1
a(lp2873
F0.217391
aaI207
aa(lp2874
I1
a(lp2875
F0.286325
aaI234
aa(lp2876
I1
a(lp2877
F0.313559
aaI236
aa(lp2878
I1
a(lp2879
F0.298387
aaI248
aa(lp2880
I1
a(lp2881
F0.367816
aaI261
aa(lp2882
I1
a(lp2883
F0.277778
aaI234
aa(lp2884
I1
a(lp2885
F0.206897
aaI203
aa(lp2886
I1
a(lp2887
F0.232044
aaI181
aa(lp2888
I1
a(lp2889
F0.365639
aaI227
aa(lp2890
I1
a(lp2891
F0.33945
aaI218
aa(lp2892
I1
a(lp2893
F0.283654
aaI208
aa(lp2894
I1
a(lp2895
F0.280952
aaI210
aa(lp2896
I1
a(lp2897
F0.305677
aaI229
aa(lp2898
I1
a(lp2899
F0.257576
aaI198
aa(lp2900
I1
a(lp2901
F0.271277
aaI188
aa(lp2902
I1
a(lp2903
F0.284916
aaI179
aa(lp2904
I1
a(lp2905
F0.200893
aaI224
aa(lp2906
I1
a(lp2907
F0.211712
aaI222
aa(lp2908
I1
a(lp2909
F0.378092
aaI283
aaa(lp2910
S'scaffold51910_cov463'
p2911
aS'scaffold3158_cov165'
p2912
aa(lp2913
S'scaffold1343_cov240'
p2914
aS'scaffold219_cov217'
p2915
a(lp2916
I1
a(lp2917
F0.286385
aaI213
aa(lp2918
I1
a(lp2919
F0.478431
aaI255
aa(lp2920
I1
a(lp2921
F0.509158
aaI273
aa(lp2922
I1
a(lp2923
F0.489627
aaI241
aa(lp2924
I1
a(lp2925
F0.303867
aaI181
aa(lp2926
I1
a(lp2927
F0.302789
aaI251
aa(lp2928
I1
a(lp2929
F0.269406
aaI219
aa(lp2930
I1
a(lp2931
F0.2875
aaI240
aa(lp2932
I1
a(lp2933
F0.379592
aaI245
aa(lp2934
I1
a(lp2935
F0.552795
aaI322
aa(lp2936
I1
a(lp2937
F0.502959
aaI338
aa(lp2938
I1
a(lp2939
F0.751623
aaI616
aa(lp2940
I1
a(lp2941
F0.645309
aaI437
aa(lp2942
I1
a(lp2943
F0.894526
aaI1498
aa(lp2944
I1
a(lp2945
F0.222672
aaI247
aaa(lp2946
S'scaffold12570_cov377'
p2947
aS'scaffold1045_cov153'
p2948
aa(lp2949
S'scaffold10585_cov239'
p2950
aS'scaffold14002_cov262'
p2951
a(lp2952
I1
a(lp2953
F0.451064
aaI235
aa(lp2954
I1
a(lp2955
F0.410909
aaI275
aa(lp2956
I1
a(lp2957
F0.474265
aaI272
aaa(lp2958
S'scaffold12136_cov215'
p2959
aS'scaffold5344_cov146'
p2960
a(lp2961
I1
a(lp2962
F0.60733
aaI191
aa(lp2963
I1
a(lp2964
F0.423077
aaI234
aa(lp2965
I1
a(lp2966
F0.482877
aaI292
aaa(lp2967
S'scaffold7758_cov177'
p2968
aS'scaffold34054_cov214'
p2969
a(lp2970
I1
a(lp2971
F0.255556
aaI180
aa(lp2972
I1
a(lp2973
F0.260116
aaI173
aa(lp2974
I1
a(lp2975
F0.263682
aaI201
aaa(lp2976
S'scaffold2323_cov224'
p2977
aS'scaffold11669_cov179'
p2978
a(lp2979
I1
a(lp2980
F0.252809
aaI178
aaa(lp2981
S'scaffold7526_cov240'
p2982
aS'scaffold8195_cov213'
p2983
a(lp2984
I1
a(lp2985
F0.421456
aaI261
aa(lp2986
I1
a(lp2987
F0.394958
aaI238
aa(lp2988
I1
a(lp2989
F0.408511
aaI235
aa(lp2990
I1
a(lp2991
F0.33871
aaI124
aa(lp2992
I1
a(lp2993
F0.22093
aaI172
aa(lp2994
I1
a(lp2995
F0.323077
aaI260
aa(lp2996
I1
a(lp2997
F0.508772
aaI285
aaa(lp2998
S'scaffold5645_cov270'
p2999
aS'scaffold8590_cov218'
p3000
aa(lp3001
S'scaffold50320_cov305'
p3002
aS'scaffold1792_cov186'
p3003
aa(lp3004
S'scaffold10366_cov326'
p3005
aS'scaffold17512_cov158'
p3006
aa(lp3007
S'scaffold6871_cov206'
p3008
aS'scaffold10121_cov202'
p3009
aa(lp3010
S'scaffold9918_cov286'
p3011
aS'scaffold3310_cov167'
p3012
a(lp3013
I1
a(lp3014
F0.254902
aaI204
aa(lp3015
I1
a(lp3016
F0.29064
aaI203
aa(lp3017
I1
a(lp3018
F0.25
aaI204
aa(lp3019
I1
a(lp3020
F0.257282
aaI206
aa(lp3021
I1
a(lp3022
F0.0
aaI103
aa(lp3023
I1
a(lp3024
F0.270142
aaI422
aaa(lp3025
S'scaffold2942_cov228'
p3026
aS'scaffold18738_cov241'
p3027
aa(lp3028
S'scaffold10654_cov169'
p3029
aS'scaffold5155_cov170'
p3030
a(lp3031
I1
a(lp3032
F0.270588
aaI170
aa(lp3033
I1
a(lp3034
F0.337165
aaI261
aa(lp3035
I1
a(lp3036
F0.296296
aaI216
aa(lp3037
I1
a(lp3038
F0.303167
aaI221
aa(lp3039
I1
a(lp3040
F0.390728
aaI151
aaa(lp3041
S'scaffold16272_cov418'
p3042
aS'scaffold343_cov157'
p3043
aa(lp3044
S'scaffold3956_cov265'
p3045
aS'scaffold4654_cov204'
p3046
a(lp3047
I1
a(lp3048
F0.269231
aaI208
aa(lp3049
I1
a(lp3050
F0.305556
aaI180
aa(lp3051
I1
a(lp3052
F0.252809
aaI178
aa(lp3053
I1
a(lp3054
F0.22335
aaI197
aa(lp3055
I1
a(lp3056
F0.402655
aaI226
aa(lp3057
I1
a(lp3058
F0.355263
aaI228
aaasS'up'
p3059
(lp3060
(lp3061
g6
ag7
a(lp3062
I1
a(lp3063
F0.487705
aaI244
aa(lp3064
I1
a(lp3065
F0.2
aaI180
aa(lp3066
I1
a(lp3067
F0.453441
aaI247
aa(lp3068
I1
a(lp3069
F0.355
aaI200
aa(lp3070
I1
a(lp3071
F0.274611
aaI193
aa(lp3072
I1
a(lp3073
F0.295775
aaI213
aa(lp3074
I1
a(lp3075
F0.389439
aaI303
aa(lp3076
I1
a(lp3077
F0.335025
aaI197
aaa(lp3078
g9
ag10
a(lp3079
I1
a(lp3080
F0.34981
aaI263
aa(lp3081
I1
a(lp3082
F0.341709
aaI199
aa(lp3083
I1
a(lp3084
F0.347619
aaI210
aa(lp3085
I1
a(lp3086
F0.203008
aaI532
aa(lp3087
I1
a(lp3088
F0.273148
aaI216
aa(lp3089
I1
a(lp3090
F0.212121
aaI198
aa(lp3091
I1
a(lp3092
F0.303279
aaI244
aa(lp3093
I1
a(lp3094
F0.375405
aaI309
aa(lp3095
I1
a(lp3096
F0.433213
aaI277
aa(lp3097
I1
a(lp3098
F0.390152
aaI264
aa(lp3099
I1
a(lp3100
F0.334661
aaI251
aa(lp3101
I1
a(lp3102
F0.255507
aaI227
aa(lp3103
I1
a(lp3104
F0.247826
aaI230
aa(lp3105
I1
a(lp3106
F0.286853
aaI251
aa(lp3107
I1
a(lp3108
F0.402516
aaI318
aa(lp3109
I1
a(lp3110
F0.40625
aaI224
aa(lp3111
I1
a(lp3112
F0.443089
aaI246
aa(lp3113
I1
a(lp3114
F0.262976
aaI289
aa(lp3115
I1
a(lp3116
F0.282209
aaI326
aa(lp3117
I1
a(lp3118
F0.302632
aaI304
aa(lp3119
I1
a(lp3120
F0.321656
aaI314
aa(lp3121
I1
a(lp3122
F0.358209
aaI268
aa(lp3123
I1
a(lp3124
F0.334459
aaI296
aa(lp3125
I1
a(lp3126
F0.289286
aaI280
aa(lp3127
I1
a(lp3128
F0.273585
aaI212
aa(lp3129
I1
a(lp3130
F0.440678
aaI236
aa(lp3131
I1
a(lp3132
F0.384
aaI250
aa(lp3133
I1
a(lp3134
F0.210826
aaI351
aa(lp3135
I1
a(lp3136
F0.352273
aaI352
aaa(lp3137
g16
ag17
a(lp3138
I1
a(lp3139
F0.381148
aaI244
aa(lp3140
I1
a(lp3141
F0.353175
aaI252
aaa(lp3142
g19
ag20
aa(lp3143
g26
ag27
a(lp3144
I1
a(lp3145
F0.488294
aaI299
aa(lp3146
I1
a(lp3147
F0.523985
aaI271
aaa(lp3148
g37
ag38
a(lp3149
I1
a(lp3150
F0.334821
aaI224
aa(lp3151
I1
a(lp3152
F0.347368
aaI190
aa(lp3153
I1
a(lp3154
F0.369338
aaI287
aaa(lp3155
g54
ag55
aa(lp3156
g57
ag58
aa(lp3157
g62
ag63
a(lp3158
I1
a(lp3159
F0.486486
aaI296
aa(lp3160
I1
a(lp3161
F0.53937
aaI254
aa(lp3162
I1
a(lp3163
F0.481781
aaI247
aa(lp3164
I1
a(lp3165
F0.270531
aaI207
aa(lp3166
I1
a(lp3167
F0.246512
aaI215
aa(lp3168
I1
a(lp3169
F0.320388
aaI206
aa(lp3170
I1
a(lp3171
F0.302885
aaI208
aa(lp3172
I1
a(lp3173
F0.381818
aaI220
aa(lp3174
I1
a(lp3175
F0.380074
aaI271
aa(lp3176
I1
a(lp3177
F0.428571
aaI308
aa(lp3178
I1
a(lp3179
F0.32971
aaI276
aa(lp3180
I1
a(lp3181
F0.437037
aaI270
aa(lp3182
I1
a(lp3183
F0.369668
aaI211
aaa(lp3184
g79
ag80
aa(lp3185
g82
ag83
aa(lp3186
g97
ag98
a(lp3187
I1
a(lp3188
F0.503597
aaI278
aa(lp3189
I1
a(lp3190
F0.490323
aaI310
aa(lp3191
I1
a(lp3192
F0.433692
aaI279
aa(lp3193
I1
a(lp3194
F0.453532
aaI269
aa(lp3195
I1
a(lp3196
F0.310204
aaI245
aa(lp3197
I1
a(lp3198
F0.542424
aaI330
aa(lp3199
I1
a(lp3200
F0.320755
aaI212
aa(lp3201
I1
a(lp3202
F0.301587
aaI189
aa(lp3203
I1
a(lp3204
F0.410448
aaI268
aa(lp3205
I1
a(lp3206
F0.419708
aaI274
aa(lp3207
I1
a(lp3208
F0.438163
aaI283
aa(lp3209
I1
a(lp3210
F0.383513
aaI279
aa(lp3211
I1
a(lp3212
F0.380074
aaI271
aa(lp3213
I1
a(lp3214
F0.348315
aaI267
aa(lp3215
I1
a(lp3216
F0.305785
aaI242
aaa(lp3217
g100
ag101
aa(lp3218
g111
ag112
aa(lp3219
g114
ag115
aa(lp3220
g127
ag128
aa(lp3221
g130
ag131
a(lp3222
I1
a(lp3223
F0.278261
aaI230
aa(lp3224
I1
a(lp3225
F0.357143
aaI210
aa(lp3226
I1
a(lp3227
F0.290672
aaI461
aa(lp3228
I1
a(lp3229
F0.310782
aaI473
aa(lp3230
I1
a(lp3231
F0.463504
aaI274
aa(lp3232
I1
a(lp3233
F0.495017
aaI301
aa(lp3234
I1
a(lp3235
F0.360731
aaI219
aaa(lp3236
g147
ag148
a(lp3237
I1
a(lp3238
F0.315789
aaI228
aa(lp3239
I1
a(lp3240
F0.367925
aaI212
aa(lp3241
I1
a(lp3242
F0.445736
aaI258
aaa(lp3243
g172
ag173
aa(lp3244
g175
ag176
a(lp3245
I1
a(lp3246
F0.348018
aaI227
aaa(lp3247
g178
ag179
aa(lp3248
g181
ag182
a(lp3249
I1
a(lp3250
F0.490196
aaI306
aa(lp3251
I1
a(lp3252
F0.365019
aaI263
aa(lp3253
I1
a(lp3254
F0.358491
aaI265
aa(lp3255
I1
a(lp3256
F0.423729
aaI295
aa(lp3257
I1
a(lp3258
F0.44127
aaI315
aa(lp3259
I1
a(lp3260
F0.471098
aaI346
aa(lp3261
I1
a(lp3262
F0.351351
aaI185
aa(lp3263
I1
a(lp3264
F0.368687
aaI198
aa(lp3265
I1
a(lp3266
F0.224299
aaI214
aa(lp3267
I1
a(lp3268
F0.29
aaI200
aa(lp3269
I1
a(lp3270
F0.461538
aaI312
aa(lp3271
I1
a(lp3272
F0.240741
aaI216
aa(lp3273
I1
a(lp3274
F0.464286
aaI252
aa(lp3275
I1
a(lp3276
F0.200717
aaI279
aa(lp3277
I1
a(lp3278
F0.214286
aaI294
aa(lp3279
I1
a(lp3280
F0.503906
aaI256
aa(lp3281
I1
a(lp3282
F0.25969
aaI258
aaa(lp3283
g184
ag185
aa(lp3284
g187
ag188
aa(lp3285
g190
ag191
a(lp3286
I1
a(lp3287
F0.417355
aaI242
aa(lp3288
I1
a(lp3289
F0.262009
aaI229
aa(lp3290
I1
a(lp3291
F0.20398
aaI201
aa(lp3292
I1
a(lp3293
F0.219048
aaI210
aa(lp3294
I1
a(lp3295
F0.267857
aaI224
aa(lp3296
I1
a(lp3297
F0.479233
aaI313
aa(lp3298
I1
a(lp3299
F0.498525
aaI339
aa(lp3300
I1
a(lp3301
F0.488024
aaI334
aa(lp3302
I1
a(lp3303
F0.503597
aaI278
aa(lp3304
I1
a(lp3305
F0.477707
aaI314
aa(lp3306
I1
a(lp3307
F0.340426
aaI235
aa(lp3308
I1
a(lp3309
F0.343612
aaI227
aa(lp3310
I1
a(lp3311
F0.329609
aaI179
aa(lp3312
I1
a(lp3313
F0.27933
aaI179
aa(lp3314
I1
a(lp3315
F0.272727
aaI55
aaa(lp3316
g193
ag194
a(lp3317
I1
a(lp3318
F0.488673
aaI309
aa(lp3319
I1
a(lp3320
F0.393443
aaI244
aa(lp3321
I1
a(lp3322
F0.374408
aaI211
aa(lp3323
I1
a(lp3324
F0.294416
aaI197
aa(lp3325
I1
a(lp3326
F0.21118
aaI161
aa(lp3327
I1
a(lp3328
F0.311005
aaI209
aa(lp3329
I1
a(lp3330
F0.204762
aaI210
aa(lp3331
I1
a(lp3332
F0.26009
aaI223
aa(lp3333
I1
a(lp3334
F0.217617
aaI193
aaa(lp3335
g210
ag211
a(lp3336
I1
a(lp3337
F0.313433
aaI268
aa(lp3338
I1
a(lp3339
F0.295203
aaI271
aa(lp3340
I1
a(lp3341
F0.298113
aaI265
aa(lp3342
I1
a(lp3343
F0.333333
aaI267
aa(lp3344
I1
a(lp3345
F0.547445
aaI274
aa(lp3346
I1
a(lp3347
F0.288557
aaI201
aa(lp3348
I1
a(lp3349
F0.374486
aaI243
aa(lp3350
I1
a(lp3351
F0.412955
aaI247
aa(lp3352
I1
a(lp3353
F0.507463
aaI268
aaa(lp3354
g235
ag236
a(lp3355
I1
a(lp3356
F0.352941
aaI238
aa(lp3357
I1
a(lp3358
F0.245989
aaI187
aaa(lp3359
g238
ag239
a(lp3360
I1
a(lp3361
F0.336449
aaI214
aa(lp3362
I1
a(lp3363
F0.261538
aaI195
aa(lp3364
I1
a(lp3365
F0.442308
aaI312
aa(lp3366
I1
a(lp3367
F0.45993
aaI287
aa(lp3368
I1
a(lp3369
F0.504348
aaI230
aa(lp3370
I1
a(lp3371
F0.488889
aaI225
aa(lp3372
I1
a(lp3373
F0.433526
aaI173
aa(lp3374
I1
a(lp3375
F0.293023
aaI215
aa(lp3376
I1
a(lp3377
F0.318182
aaI220
aa(lp3378
I1
a(lp3379
F0.393204
aaI206
aa(lp3380
I1
a(lp3381
F0.369811
aaI265
aa(lp3382
I1
a(lp3383
F0.366667
aaI210
aa(lp3384
I1
a(lp3385
F0.284314
aaI204
aa(lp3386
I1
a(lp3387
F0.221311
aaI244
aa(lp3388
I1
a(lp3389
F0.22093
aaI172
aa(lp3390
I1
a(lp3391
F0.219512
aaI164
aa(lp3392
I1
a(lp3393
F0.203593
aaI167
aa(lp3394
I1
a(lp3395
F0.383966
aaI237
aa(lp3396
I1
a(lp3397
F0.416357
aaI269
aa(lp3398
I1
a(lp3399
F0.496454
aaI282
aa(lp3400
I1
a(lp3401
F0.482301
aaI226
aaa(lp3402
g267
ag268
aa(lp3403
g276
ag277
aa(lp3404
g279
ag280
a(lp3405
I1
a(lp3406
F0.410029
aaI339
aa(lp3407
I1
a(lp3408
F0.201149
aaI174
aa(lp3409
I1
a(lp3410
F0.315271
aaI203
aaa(lp3411
g348
ag349
aa(lp3412
g357
ag358
a(lp3413
I1
a(lp3414
F0.322275
aaI211
aa(lp3415
I1
a(lp3416
F0.342593
aaI216
aa(lp3417
I1
a(lp3418
F0.354701
aaI234
aa(lp3419
I1
a(lp3420
F0.401674
aaI239
aa(lp3421
I1
a(lp3422
F0.475138
aaI181
aa(lp3423
I1
a(lp3424
F0.243478
aaI230
aa(lp3425
I1
a(lp3426
F0.416667
aaI276
aa(lp3427
I1
a(lp3428
F0.559172
aaI338
aa(lp3429
I1
a(lp3430
F0.397554
aaI327
aa(lp3431
I1
a(lp3432
F0.207792
aaI308
aa(lp3433
I1
a(lp3434
F0.503937
aaI254
aa(lp3435
I1
a(lp3436
F0.542373
aaI295
aa(lp3437
I1
a(lp3438
F0.42029
aaI276
aa(lp3439
I1
a(lp3440
F0.418118
aaI287
aa(lp3441
I1
a(lp3442
F0.38255
aaI298
aaa(lp3443
g372
ag373
aa(lp3444
g403
ag404
a(lp3445
I1
a(lp3446
F0.238579
aaI197
aa(lp3447
I1
a(lp3448
F0.26
aaI200
aa(lp3449
I1
a(lp3450
F0.256158
aaI203
aa(lp3451
I1
a(lp3452
F0.0
aaI207
aa(lp3453
I1
a(lp3454
F0.297872
aaI188
aa(lp3455
I1
a(lp3456
F0.296703
aaI182
aa(lp3457
I1
a(lp3458
F0.277778
aaI198
aa(lp3459
I1
a(lp3460
F0.29064
aaI203
aa(lp3461
I1
a(lp3462
F0.318408
aaI201
aa(lp3463
I1
a(lp3464
F0.272727
aaI220
aa(lp3465
I1
a(lp3466
F0.253807
aaI197
aa(lp3467
I1
a(lp3468
F0.267677
aaI198
aa(lp3469
I1
a(lp3470
F0.256545
aaI191
aa(lp3471
I1
a(lp3472
F0.247368
aaI190
aa(lp3473
I1
a(lp3474
F0.505338
aaI281
aaa(lp3475
g464
ag465
a(lp3476
I1
a(lp3477
F0.382514
aaI183
aa(lp3478
I1
a(lp3479
F0.287554
aaI233
aa(lp3480
I1
a(lp3481
F0.493056
aaI288
aaa(lp3482
g467
ag468
a(lp3483
I1
a(lp3484
F0.285714
aaI189
aaa(lp3485
g478
ag479
a(lp3486
I1
a(lp3487
F0.323944
aaI213
aaa(lp3488
g497
ag498
aa(lp3489
g508
ag509
aa(lp3490
g511
ag512
a(lp3491
I1
a(lp3492
F0.52027
aaI296
aa(lp3493
I1
a(lp3494
F0.580128
aaI312
aa(lp3495
I1
a(lp3496
F0.390845
aaI284
aaa(lp3497
g518
ag519
a(lp3498
I1
a(lp3499
F0.270115
aaI174
aaa(lp3500
g521
ag522
aa(lp3501
g524
ag525
aa(lp3502
g529
ag530
a(lp3503
I1
a(lp3504
F0.214724
aaI163
aaa(lp3505
g534
ag535
aa(lp3506
g537
ag538
aa(lp3507
g540
ag541
a(lp3508
I1
a(lp3509
F0.508591
aaI291
aaa(lp3510
g551
ag552
a(lp3511
I1
a(lp3512
F0.202479
aaI242
aa(lp3513
I1
a(lp3514
F0.444444
aaI279
aa(lp3515
I1
a(lp3516
F0.413655
aaI249
aa(lp3517
I1
a(lp3518
F0.439815
aaI216
aa(lp3519
I1
a(lp3520
F0.401961
aaI204
aa(lp3521
I1
a(lp3522
F0.380952
aaI294
aa(lp3523
I1
a(lp3524
F0.580175
aaI343
aa(lp3525
I1
a(lp3526
F0.397015
aaI335
aa(lp3527
I1
a(lp3528
F0.207386
aaI352
aa(lp3529
I1
a(lp3530
F0.566572
aaI353
aa(lp3531
I1
a(lp3532
F0.248485
aaI165
aa(lp3533
I1
a(lp3534
F0.252688
aaI186
aa(lp3535
I1
a(lp3536
F0.212291
aaI179
aaa(lp3537
g558
ag559
aa(lp3538
g565
ag566
aa(lp3539
g568
ag569
aa(lp3540
g571
ag572
a(lp3541
I1
a(lp3542
F0.364583
aaI288
aa(lp3543
I1
a(lp3544
F0.355805
aaI267
aa(lp3545
I1
a(lp3546
F0.398438
aaI256
aa(lp3547
I1
a(lp3548
F0.362903
aaI248
aa(lp3549
I1
a(lp3550
F0.463636
aaI330
aa(lp3551
I1
a(lp3552
F0.258197
aaI244
aa(lp3553
I1
a(lp3554
F0.270936
aaI203
aa(lp3555
I1
a(lp3556
F0.210191
aaI157
aa(lp3557
I1
a(lp3558
F0.406593
aaI273
aa(lp3559
I1
a(lp3560
F0.426621
aaI293
aa(lp3561
I1
a(lp3562
F0.445578
aaI294
aaa(lp3563
g580
ag581
aa(lp3564
g583
ag584
aa(lp3565
g592
ag593
a(lp3566
I1
a(lp3567
F0.269036
aaI197
aa(lp3568
I1
a(lp3569
F0.521552
aaI232
aa(lp3570
I1
a(lp3571
F0.420233
aaI257
aa(lp3572
I1
a(lp3573
F0.360656
aaI244
aa(lp3574
I1
a(lp3575
F0.357724
aaI246
aa(lp3576
I1
a(lp3577
F0.354839
aaI248
aa(lp3578
I1
a(lp3579
F0.364754
aaI244
aa(lp3580
I1
a(lp3581
F0.327189
aaI217
aa(lp3582
I1
a(lp3583
F0.315556
aaI225
aa(lp3584
I1
a(lp3585
F0.457516
aaI306
aa(lp3586
I1
a(lp3587
F0.362903
aaI248
aa(lp3588
I1
a(lp3589
F0.470588
aaI238
aa(lp3590
I1
a(lp3591
F0.269962
aaI263
aa(lp3592
I1
a(lp3593
F0.382671
aaI277
aa(lp3594
I1
a(lp3595
F0.48289
aaI263
aa(lp3596
I1
a(lp3597
F0.47557
aaI307
aa(lp3598
I1
a(lp3599
F0.205517
aaI725
aa(lp3600
I1
a(lp3601
F0.385542
aaI249
aa(lp3602
I1
a(lp3603
F0.210317
aaI252
aaa(lp3604
g601
ag602
aa(lp3605
g614
ag615
a(lp3606
I1
a(lp3607
F0.304833
aaI269
aa(lp3608
I1
a(lp3609
F0.288
aaI250
aa(lp3610
I1
a(lp3611
F0.227273
aaI176
aa(lp3612
I1
a(lp3613
F0.365714
aaI175
aa(lp3614
I1
a(lp3615
F0.345455
aaI165
aa(lp3616
I1
a(lp3617
F0.34
aaI200
aa(lp3618
I1
a(lp3619
F0.376471
aaI255
aa(lp3620
I1
a(lp3621
F0.53125
aaI256
aa(lp3622
I1
a(lp3623
F0.31441
aaI229
aa(lp3624
I1
a(lp3625
F0.494949
aaI297
aa(lp3626
I1
a(lp3627
F0.313008
aaI246
aa(lp3628
I1
a(lp3629
F0.360902
aaI266
aa(lp3630
I1
a(lp3631
F0.417355
aaI242
aa(lp3632
I1
a(lp3633
F0.429185
aaI233
aa(lp3634
I1
a(lp3635
F0.316384
aaI177
aa(lp3636
I1
a(lp3637
F0.329412
aaI170
aa(lp3638
I1
a(lp3639
F0.306011
aaI183
aa(lp3640
I1
a(lp3641
F0.361345
aaI238
aa(lp3642
I1
a(lp3643
F0.409091
aaI286
aa(lp3644
I1
a(lp3645
F0.469799
aaI298
aa(lp3646
I1
a(lp3647
F0.294416
aaI197
aa(lp3648
I1
a(lp3649
F0.291667
aaI192
aaa(lp3650
g617
ag618
aa(lp3651
g620
ag621
a(lp3652
I1
a(lp3653
F0.406475
aaI278
aa(lp3654
I1
a(lp3655
F0.317797
aaI236
aa(lp3656
I1
a(lp3657
F0.305556
aaI180
aa(lp3658
I1
a(lp3659
F0.348018
aaI227
aa(lp3660
I1
a(lp3661
F0.284404
aaI218
aa(lp3662
I1
a(lp3663
F0.281818
aaI220
aa(lp3664
I1
a(lp3665
F0.442675
aaI314
aa(lp3666
I1
a(lp3667
F0.465455
aaI275
aa(lp3668
I1
a(lp3669
F0.34629
aaI283
aa(lp3670
I1
a(lp3671
F0.388679
aaI265
aa(lp3672
I1
a(lp3673
F0.363265
aaI245
aa(lp3674
I1
a(lp3675
F0.349558
aaI226
aa(lp3676
I1
a(lp3677
F0.346491
aaI228
aaa(lp3678
g661
ag662
a(lp3679
I1
a(lp3680
F0.418519
aaI270
aa(lp3681
I1
a(lp3682
F0.412162
aaI296
aa(lp3683
I1
a(lp3684
F0.266781
aaI581
aa(lp3685
I1
a(lp3686
F0.264605
aaI582
aa(lp3687
I1
a(lp3688
F0.463196
aaI557
aa(lp3689
I1
a(lp3690
F0.33758
aaI314
aa(lp3691
I1
a(lp3692
F0.289575
aaI259
aa(lp3693
I1
a(lp3694
F0.236301
aaI292
aa(lp3695
I1
a(lp3696
F0.289286
aaI280
aa(lp3697
I1
a(lp3698
F0.555957
aaI277
aaa(lp3699
g680
ag681
a(lp3700
I1
a(lp3701
F0.214674
aaI368
aa(lp3702
I1
a(lp3703
F0.212598
aaI381
aa(lp3704
I1
a(lp3705
F0.313869
aaI411
aaa(lp3706
g685
ag686
a(lp3707
I1
a(lp3708
F0.410959
aaI219
aa(lp3709
I1
a(lp3710
F0.223301
aaI206
aaa(lp3711
g688
ag689
a(lp3712
I1
a(lp3713
F0.325991
aaI227
aa(lp3714
I1
a(lp3715
F0.483221
aaI298
aa(lp3716
I1
a(lp3717
F0.417969
aaI256
aa(lp3718
I1
a(lp3719
F0.372951
aaI244
aa(lp3720
I1
a(lp3721
F0.411043
aaI163
aaa(lp3722
g691
ag692
aa(lp3723
g694
ag695
aa(lp3724
g703
ag704
aa(lp3725
g706
ag707
aa(lp3726
g717
ag718
a(lp3727
I1
a(lp3728
F0.508591
aaI291
aa(lp3729
I1
a(lp3730
F0.465798
aaI307
aa(lp3731
I1
a(lp3732
F0.45515
aaI301
aa(lp3733
I1
a(lp3734
F0.428571
aaI287
aa(lp3735
I1
a(lp3736
F0.292453
aaI212
aa(lp3737
I1
a(lp3738
F0.3875
aaI240
aaa(lp3739
g736
ag737
a(lp3740
I1
a(lp3741
F0.333333
aaI246
aa(lp3742
I1
a(lp3743
F0.450355
aaI282
aa(lp3744
I1
a(lp3745
F0.402174
aaI276
aa(lp3746
I1
a(lp3747
F0.360656
aaI244
aa(lp3748
I1
a(lp3749
F0.38403
aaI263
aa(lp3750
I1
a(lp3751
F0.388889
aaI270
aa(lp3752
I1
a(lp3753
F0.4
aaI265
aa(lp3754
I1
a(lp3755
F0.270916
aaI251
aa(lp3756
I1
a(lp3757
F0.258373
aaI209
aa(lp3758
I1
a(lp3759
F0.27907
aaI215
aaa(lp3760
g739
ag740
a(lp3761
I1
a(lp3762
F0.269388
aaI245
aa(lp3763
I1
a(lp3764
F0.477912
aaI249
aa(lp3765
I1
a(lp3766
F0.386454
aaI251
aa(lp3767
I1
a(lp3768
F0.346154
aaI234
aa(lp3769
I1
a(lp3770
F0.496552
aaI290
aaa(lp3771
g742
ag743
aa(lp3772
g747
ag748
aa(lp3773
g750
ag751
aa(lp3774
g753
ag754
a(lp3775
I1
a(lp3776
F0.370968
aaI248
aa(lp3777
I1
a(lp3778
F0.383721
aaI258
aa(lp3779
I1
a(lp3780
F0.390909
aaI220
aa(lp3781
I1
a(lp3782
F0.401709
aaI234
aa(lp3783
I1
a(lp3784
F0.423077
aaI234
aa(lp3785
I1
a(lp3786
F0.378788
aaI198
aa(lp3787
I1
a(lp3788
F0.35
aaI180
aaa(lp3789
g760
ag761
a(lp3790
I1
a(lp3791
F0.211031
aaI417
aaa(lp3792
g763
ag764
aa(lp3793
g766
ag767
a(lp3794
I1
a(lp3795
F0.418006
aaI311
aa(lp3796
I1
a(lp3797
F0.462329
aaI292
aa(lp3798
I1
a(lp3799
F0.506024
aaI249
aaa(lp3800
g769
ag770
aa(lp3801
g772
ag773
aa(lp3802
g781
ag782
a(lp3803
I1
a(lp3804
F0.297794
aaI272
aa(lp3805
I1
a(lp3806
F0.406639
aaI241
aa(lp3807
I1
a(lp3808
F0.313433
aaI201
aa(lp3809
I1
a(lp3810
F0.402857
aaI350
aa(lp3811
I1
a(lp3812
F0.481928
aaI249
aa(lp3813
I1
a(lp3814
F0.484252
aaI254
aa(lp3815
I1
a(lp3816
F0.416988
aaI259
aa(lp3817
I1
a(lp3818
F0.484642
aaI293
aa(lp3819
I1
a(lp3820
F0.396
aaI250
aa(lp3821
I1
a(lp3822
F0.401747
aaI229
aa(lp3823
I1
a(lp3824
F0.503846
aaI260
aa(lp3825
I1
a(lp3826
F0.327511
aaI229
aa(lp3827
I1
a(lp3828
F0.324201
aaI219
aa(lp3829
I1
a(lp3830
F0.228856
aaI201
aa(lp3831
I1
a(lp3832
F0.418182
aaI220
aa(lp3833
I1
a(lp3834
F0.408867
aaI203
aa(lp3835
I1
a(lp3836
F0.328467
aaI137
aaa(lp3837
g788
ag789
a(lp3838
I1
a(lp3839
F0.356846
aaI241
aa(lp3840
I1
a(lp3841
F0.424603
aaI252
aaa(lp3842
g795
ag796
a(lp3843
I1
a(lp3844
F0.27381
aaI168
aa(lp3845
I1
a(lp3846
F0.260465
aaI215
aa(lp3847
I1
a(lp3848
F0.255924
aaI211
aa(lp3849
I1
a(lp3850
F0.26087
aaI207
aa(lp3851
I1
a(lp3852
F0.289562
aaI297
aa(lp3853
I1
a(lp3854
F0.337017
aaI181
aa(lp3855
I1
a(lp3856
F0.40367
aaI218
aa(lp3857
I1
a(lp3858
F0.335227
aaI176
aa(lp3859
I1
a(lp3860
F0.388889
aaI180
aa(lp3861
I1
a(lp3862
F0.370518
aaI251
aa(lp3863
I1
a(lp3864
F0.479495
aaI317
aa(lp3865
I1
a(lp3866
F0.367347
aaI196
aa(lp3867
I1
a(lp3868
F0.430279
aaI251
aa(lp3869
I1
a(lp3870
F0.214286
aaI182
aa(lp3871
I1
a(lp3872
F0.267442
aaI258
aa(lp3873
I1
a(lp3874
F0.275591
aaI254
aa(lp3875
I1
a(lp3876
F0.322314
aaI242
aa(lp3877
I1
a(lp3878
F0.234375
aaI192
aa(lp3879
I1
a(lp3880
F0.284264
aaI197
aa(lp3881
I1
a(lp3882
F0.297872
aaI188
aa(lp3883
I1
a(lp3884
F0.47205
aaI322
aa(lp3885
I1
a(lp3886
F0.326203
aaI187
aa(lp3887
I1
a(lp3888
F0.454849
aaI299
aa(lp3889
I1
a(lp3890
F0.419231
aaI260
aa(lp3891
I1
a(lp3892
F0.3861
aaI259
aa(lp3893
I1
a(lp3894
F0.333333
aaI240
aa(lp3895
I1
a(lp3896
F0.381443
aaI194
aa(lp3897
I1
a(lp3898
F0.208738
aaI206
aa(lp3899
I1
a(lp3900
F0.297414
aaI232
aa(lp3901
I1
a(lp3902
F0.351852
aaI216
aa(lp3903
I1
a(lp3904
F0.340314
aaI191
aa(lp3905
I1
a(lp3906
F0.417021
aaI235
aa(lp3907
I1
a(lp3908
F0.324742
aaI194
aa(lp3909
I1
a(lp3910
F0.349462
aaI186
aa(lp3911
I1
a(lp3912
F0.327778
aaI180
aa(lp3913
I1
a(lp3914
F0.377593
aaI241
aa(lp3915
I1
a(lp3916
F0.381974
aaI233
aa(lp3917
I1
a(lp3918
F0.205882
aaI170
aa(lp3919
I1
a(lp3920
F0.245098
aaI204
aa(lp3921
I1
a(lp3922
F0.278027
aaI223
aaa(lp3923
g816
ag817
a(lp3924
I1
a(lp3925
F0.324818
aaI274
aa(lp3926
I1
a(lp3927
F0.378723
aaI235
aa(lp3928
I1
a(lp3929
F0.505155
aaI291
aa(lp3930
I1
a(lp3931
F0.412451
aaI257
aa(lp3932
I1
a(lp3933
F0.315353
aaI241
aa(lp3934
I1
a(lp3935
F0.303846
aaI260
aa(lp3936
I1
a(lp3937
F0.382114
aaI246
aa(lp3938
I1
a(lp3939
F0.341108
aaI343
aa(lp3940
I1
a(lp3941
F0.4
aaI250
aa(lp3942
I1
a(lp3943
F0.422764
aaI246
aa(lp3944
I1
a(lp3945
F0.579661
aaI295
aaa(lp3946
g825
ag826
a(lp3947
I1
a(lp3948
F0.45098
aaI255
aa(lp3949
I1
a(lp3950
F0.425287
aaI261
aa(lp3951
I1
a(lp3952
F0.497925
aaI241
aa(lp3953
I1
a(lp3954
F0.518219
aaI247
aa(lp3955
I1
a(lp3956
F0.481605
aaI299
aa(lp3957
I1
a(lp3958
F0.542955
aaI291
aaa(lp3959
g828
ag829
aa(lp3960
g831
ag832
a(lp3961
I1
a(lp3962
F0.439462
aaI223
aa(lp3963
I1
a(lp3964
F0.474359
aaI312
aa(lp3965
I1
a(lp3966
F0.464539
aaI282
aa(lp3967
I1
a(lp3968
F0.472622
aaI347
aa(lp3969
I1
a(lp3970
F0.257895
aaI190
aa(lp3971
I1
a(lp3972
F0.291845
aaI233
aa(lp3973
I1
a(lp3974
F0.345238
aaI252
aaa(lp3975
g834
ag835
aa(lp3976
g837
ag838
a(lp3977
I1
a(lp3978
F0.274262
aaI237
aaa(lp3979
g844
ag845
a(lp3980
I1
a(lp3981
F0.308057
aaI211
aa(lp3982
I1
a(lp3983
F0.438662
aaI269
aa(lp3984
I1
a(lp3985
F0.394872
aaI195
aa(lp3986
I1
a(lp3987
F0.407895
aaI228
aa(lp3988
I1
a(lp3989
F0.768362
aaI708
aa(lp3990
I1
a(lp3991
F0.295652
aaI230
aa(lp3992
I1
a(lp3993
F0.27551
aaI196
aa(lp3994
I1
a(lp3995
F0.316667
aaI240
aa(lp3996
I1
a(lp3997
F0.384615
aaI260
aa(lp3998
I1
a(lp3999
F0.474074
aaI270
aa(lp4000
I1
a(lp4001
F0.366516
aaI221
aa(lp4002
I1
a(lp4003
F0.0
aaI186
aa(lp4004
I1
a(lp4005
F0.218905
aaI201
aa(lp4006
I1
a(lp4007
F0.2375
aaI160
aa(lp4008
I1
a(lp4009
F0.242268
aaI194
aa(lp4010
I1
a(lp4011
F0.26601
aaI203
aa(lp4012
I1
a(lp4013
F0.268041
aaI194
aa(lp4014
I1
a(lp4015
F0.465753
aaI292
aaa(lp4016
g855
ag856
a(lp4017
I1
a(lp4018
F0.590323
aaI310
aa(lp4019
I1
a(lp4020
F0.447802
aaI364
aaa(lp4021
g858
ag859
aa(lp4022
g861
ag862
aa(lp4023
g894
ag895
a(lp4024
I1
a(lp4025
F0.463668
aaI289
aa(lp4026
I1
a(lp4027
F0.400735
aaI272
aa(lp4028
I1
a(lp4029
F0.302222
aaI225
aa(lp4030
I1
a(lp4031
F0.277273
aaI220
aa(lp4032
I1
a(lp4033
F0.340909
aaI220
aa(lp4034
I1
a(lp4035
F0.312796
aaI211
aa(lp4036
I1
a(lp4037
F0.475983
aaI229
aa(lp4038
I1
a(lp4039
F0.25
aaI208
aaa(lp4040
g899
ag900
aa(lp4041
g906
ag907
aa(lp4042
g915
ag916
aa(lp4043
g924
ag925
aa(lp4044
g927
ag928
a(lp4045
I1
a(lp4046
F0.35814
aaI215
aa(lp4047
I1
a(lp4048
F0.509804
aaI306
aa(lp4049
I1
a(lp4050
F0.443366
aaI309
aa(lp4051
I1
a(lp4052
F0.351852
aaI216
aa(lp4053
I1
a(lp4054
F0.242775
aaI173
aaa(lp4055
g930
ag931
aa(lp4056
g933
ag934
a(lp4057
I1
a(lp4058
F0.466216
aaI296
aa(lp4059
I1
a(lp4060
F0.404412
aaI272
aa(lp4061
I1
a(lp4062
F0.55802
aaI586
aa(lp4063
I1
a(lp4064
F0.766193
aaI633
aa(lp4065
I1
a(lp4066
F0.358466
aaI756
aaa(lp4067
g938
ag939
aa(lp4068
g941
ag942
a(lp4069
I1
a(lp4070
F0.359551
aaI178
aa(lp4071
I1
a(lp4072
F0.357143
aaI238
aa(lp4073
I1
a(lp4074
F0.457143
aaI280
aaa(lp4075
g980
ag981
a(lp4076
I1
a(lp4077
F0.218447
aaI206
aaa(lp4078
g983
ag984
a(lp4079
I1
a(lp4080
F0.38914
aaI221
aa(lp4081
I1
a(lp4082
F0.4
aaI220
aa(lp4083
I1
a(lp4084
F0.321101
aaI218
aa(lp4085
I1
a(lp4086
F0.348624
aaI218
aa(lp4087
I1
a(lp4088
F0.323651
aaI241
aa(lp4089
I1
a(lp4090
F0.313043
aaI230
aa(lp4091
I1
a(lp4092
F0.30131
aaI229
aa(lp4093
I1
a(lp4094
F0.297778
aaI225
aa(lp4095
I1
a(lp4096
F0.277512
aaI209
aa(lp4097
I1
a(lp4098
F0.289474
aaI228
aa(lp4099
I1
a(lp4100
F0.213115
aaI183
aa(lp4101
I1
a(lp4102
F0.465909
aaI264
aa(lp4103
I1
a(lp4104
F0.483471
aaI242
aa(lp4105
I1
a(lp4106
F0.24424
aaI217
aa(lp4107
I1
a(lp4108
F0.3125
aaI240
aa(lp4109
I1
a(lp4110
F0.215054
aaI186
aa(lp4111
I1
a(lp4112
F0.312217
aaI221
aa(lp4113
I1
a(lp4114
F0.474048
aaI289
aa(lp4115
I1
a(lp4116
F0.28
aaI200
aa(lp4117
I1
a(lp4118
F0.231132
aaI212
aa(lp4119
I1
a(lp4120
F0.210526
aaI209
aa(lp4121
I1
a(lp4122
F0.216749
aaI203
aa(lp4123
I1
a(lp4124
F0.258621
aaI174
aa(lp4125
I1
a(lp4126
F0.243655
aaI197
aa(lp4127
I1
a(lp4128
F0.278302
aaI212
aa(lp4129
I1
a(lp4130
F0.341667
aaI240
aa(lp4131
I1
a(lp4132
F0.421456
aaI261
aa(lp4133
I1
a(lp4134
F0.411552
aaI277
aa(lp4135
I1
a(lp4136
F0.398496
aaI266
aa(lp4137
I1
a(lp4138
F0.397887
aaI284
aa(lp4139
I1
a(lp4140
F0.4
aaI290
aa(lp4141
I1
a(lp4142
F0.325581
aaI215
aa(lp4143
I1
a(lp4144
F0.320513
aaI234
aa(lp4145
I1
a(lp4146
F0.317597
aaI233
aa(lp4147
I1
a(lp4148
F0.241379
aaI203
aa(lp4149
I1
a(lp4150
F0.215686
aaI204
aa(lp4151
I1
a(lp4152
F0.46281
aaI242
aa(lp4153
I1
a(lp4154
F0.360976
aaI205
aa(lp4155
I1
a(lp4156
F0.400844
aaI237
aa(lp4157
I1
a(lp4158
F0.427966
aaI236
aa(lp4159
I1
a(lp4160
F0.480519
aaI231
aa(lp4161
I1
a(lp4162
F0.355805
aaI267
aa(lp4163
I1
a(lp4164
F0.373494
aaI249
aa(lp4165
I1
a(lp4166
F0.366255
aaI243
aa(lp4167
I1
a(lp4168
F0.210811
aaI185
aa(lp4169
I1
a(lp4170
F0.241379
aaI174
aa(lp4171
I1
a(lp4172
F0.302703
aaI185
aa(lp4173
I1
a(lp4174
F0.295082
aaI183
aa(lp4175
I1
a(lp4176
F0.299465
aaI187
aa(lp4177
I1
a(lp4178
F0.43083
aaI253
aa(lp4179
I1
a(lp4180
F0.478102
aaI274
aa(lp4181
I1
a(lp4182
F0.462745
aaI255
aa(lp4183
I1
a(lp4184
F0.300971
aaI206
aa(lp4185
I1
a(lp4186
F0.371747
aaI269
aa(lp4187
I1
a(lp4188
F0.0
aaI209
aa(lp4189
I1
a(lp4190
F0.446809
aaI282
aa(lp4191
I1
a(lp4192
F0.24
aaI150
aa(lp4193
I1
a(lp4194
F0.385965
aaI228
aa(lp4195
I1
a(lp4196
F0.460145
aaI276
aa(lp4197
I1
a(lp4198
F0.370504
aaI278
aaa(lp4199
g988
ag989
aa(lp4200
g991
ag992
aa(lp4201
g994
ag995
aa(lp4202
g997
ag998
aa(lp4203
g1002
ag1003
aa(lp4204
g1005
ag1006
a(lp4205
I1
a(lp4206
F0.0
aaI178
aa(lp4207
I1
a(lp4208
F0.356784
aaI199
aa(lp4209
I1
a(lp4210
F0.357143
aaI210
aa(lp4211
I1
a(lp4212
F0.221154
aaI208
aa(lp4213
I1
a(lp4214
F0.231481
aaI216
aa(lp4215
I1
a(lp4216
F0.324022
aaI179
aa(lp4217
I1
a(lp4218
F0.240838
aaI191
aaa(lp4219
g1012
ag1013
a(lp4220
I1
a(lp4221
F0.443114
aaI334
aaa(lp4222
g1015
ag1016
aa(lp4223
g1018
ag1019
a(lp4224
I1
a(lp4225
F0.28744
aaI414
aa(lp4226
I1
a(lp4227
F0.284038
aaI426
aa(lp4228
I1
a(lp4229
F0.270784
aaI421
aa(lp4230
I1
a(lp4231
F0.290094
aaI424
aaa(lp4232
g1067
ag1068
a(lp4233
I1
a(lp4234
F0.333333
aaI153
aa(lp4235
I1
a(lp4236
F0.234818
aaI247
aa(lp4237
I1
a(lp4238
F0.35102
aaI245
aa(lp4239
I1
a(lp4240
F0.511719
aaI256
aa(lp4241
I1
a(lp4242
F0.545455
aaI286
aa(lp4243
I1
a(lp4244
F0.203593
aaI167
aa(lp4245
I1
a(lp4246
F0.410811
aaI370
aa(lp4247
I1
a(lp4248
F0.251064
aaI235
aa(lp4249
I1
a(lp4250
F0.245833
aaI240
aa(lp4251
I1
a(lp4252
F0.230769
aaI260
aa(lp4253
I1
a(lp4254
F0.230392
aaI204
aa(lp4255
I1
a(lp4256
F0.242857
aaI210
aaa(lp4257
g1070
ag1071
aa(lp4258
g1073
ag1074
a(lp4259
I1
a(lp4260
F0.263158
aaI209
aa(lp4261
I1
a(lp4262
F0.28934
aaI197
aa(lp4263
I1
a(lp4264
F0.294737
aaI190
aa(lp4265
I1
a(lp4266
F0.282828
aaI198
aa(lp4267
I1
a(lp4268
F0.202247
aaI178
aa(lp4269
I1
a(lp4270
F0.2
aaI180
aa(lp4271
I1
a(lp4272
F0.298319
aaI238
aaa(lp4273
g1076
ag1077
aa(lp4274
g1081
ag1082
a(lp4275
I1
a(lp4276
F0.435115
aaI262
aa(lp4277
I1
a(lp4278
F0.483636
aaI275
aa(lp4279
I1
a(lp4280
F0.422594
aaI239
aa(lp4281
I1
a(lp4282
F0.507553
aaI331
aa(lp4283
I1
a(lp4284
F0.458084
aaI334
aa(lp4285
I1
a(lp4286
F0.425926
aaI270
aa(lp4287
I1
a(lp4288
F0.25
aaI216
aa(lp4289
I1
a(lp4290
F0.205479
aaI219
aa(lp4291
I1
a(lp4292
F0.211538
aaI208
aa(lp4293
I1
a(lp4294
F0.2
aaI205
aa(lp4295
I1
a(lp4296
F0.466019
aaI206
aa(lp4297
I1
a(lp4298
F0.290816
aaI196
aa(lp4299
I1
a(lp4300
F0.457547
aaI212
aa(lp4301
I1
a(lp4302
F0.274038
aaI208
aa(lp4303
I1
a(lp4304
F0.452381
aaI252
aa(lp4305
I1
a(lp4306
F0.353191
aaI235
aa(lp4307
I1
a(lp4308
F0.23125
aaI160
aa(lp4309
I1
a(lp4310
F0.283951
aaI243
aa(lp4311
I1
a(lp4312
F0.318966
aaI232
aaa(lp4313
g1104
ag1105
aa(lp4314
g1107
ag1108
aa(lp4315
g1110
ag1111
aa(lp4316
g1115
ag1116
aa(lp4317
g1118
ag1119
aa(lp4318
g1121
ag1122
a(lp4319
I1
a(lp4320
F0.387931
aaI232
aa(lp4321
I1
a(lp4322
F0.375
aaI232
aa(lp4323
I1
a(lp4324
F0.366255
aaI243
aa(lp4325
I1
a(lp4326
F0.361446
aaI249
aa(lp4327
I1
a(lp4328
F0.433884
aaI242
aa(lp4329
I1
a(lp4330
F0.456204
aaI274
aa(lp4331
I1
a(lp4332
F0.258537
aaI205
aa(lp4333
I1
a(lp4334
F0.420635
aaI252
aa(lp4335
I1
a(lp4336
F0.474916
aaI299
aa(lp4337
I1
a(lp4338
F0.439252
aaI321
aa(lp4339
I1
a(lp4340
F0.347826
aaI207
aaa(lp4341
g1128
ag1129
a(lp4342
I1
a(lp4343
F0.477551
aaI245
aa(lp4344
I1
a(lp4345
F0.507645
aaI327
aa(lp4346
I1
a(lp4347
F0.443223
aaI273
aa(lp4348
I1
a(lp4349
F0.331858
aaI226
aa(lp4350
I1
a(lp4351
F0.313953
aaI172
aaa(lp4352
g1131
ag1132
a(lp4353
I1
a(lp4354
F0.0
aaI182
aa(lp4355
I1
a(lp4356
F0.511029
aaI272
aaa(lp4357
g1140
ag1141
a(lp4358
I1
a(lp4359
F0.28821
aaI229
aa(lp4360
I1
a(lp4361
F0.314554
aaI213
aa(lp4362
I1
a(lp4363
F0.317757
aaI214
aa(lp4364
I1
a(lp4365
F0.28436
aaI211
aa(lp4366
I1
a(lp4367
F0.361446
aaI249
aa(lp4368
I1
a(lp4369
F0.391459
aaI281
aa(lp4370
I1
a(lp4371
F0.392157
aaI510
aa(lp4372
I1
a(lp4373
F0.574519
aaI416
aa(lp4374
I1
a(lp4375
F0.30735
aaI449
aa(lp4376
I1
a(lp4377
F0.426087
aaI230
aaa(lp4378
g1143
ag1144
aa(lp4379
g1160
ag1161
aa(lp4380
g1163
ag1164
aa(lp4381
g1172
ag1173
a(lp4382
I1
a(lp4383
F0.3829
aaI269
aaa(lp4384
g1187
ag1188
aa(lp4385
g1216
ag1217
aa(lp4386
g1239
ag1240
aa(lp4387
g1242
ag1243
aa(lp4388
g1257
ag1258
a(lp4389
I1
a(lp4390
F0.522727
aaI264
aa(lp4391
I1
a(lp4392
F0.272251
aaI191
aa(lp4393
I1
a(lp4394
F0.43299
aaI291
aa(lp4395
I1
a(lp4396
F0.474576
aaI295
aa(lp4397
I1
a(lp4398
F0.367925
aaI212
aa(lp4399
I1
a(lp4400
F0.449438
aaI267
aa(lp4401
I1
a(lp4402
F0.434959
aaI246
aa(lp4403
I1
a(lp4404
F0.411215
aaI214
aa(lp4405
I1
a(lp4406
F0.383085
aaI201
aa(lp4407
I1
a(lp4408
F0.419453
aaI329
aa(lp4409
I1
a(lp4410
F0.364486
aaI214
aa(lp4411
I1
a(lp4412
F0.372671
aaI161
aa(lp4413
I1
a(lp4414
F0.24
aaI225
aa(lp4415
I1
a(lp4416
F0.232653
aaI245
aa(lp4417
I1
a(lp4418
F0.287313
aaI268
aa(lp4419
I1
a(lp4420
F0.301527
aaI262
aa(lp4421
I1
a(lp4422
F0.280952
aaI210
aa(lp4423
I1
a(lp4424
F0.378505
aaI214
aaa(lp4425
g1264
ag1265
aa(lp4426
g1267
ag1268
a(lp4427
I1
a(lp4428
F0.0
aaI22
aa(lp4429
I1
a(lp4430
F0.44
aaI250
aa(lp4431
I1
a(lp4432
F0.430962
aaI239
aa(lp4433
I1
a(lp4434
F0.513308
aaI263
aa(lp4435
I1
a(lp4436
F0.460993
aaI282
aa(lp4437
I1
a(lp4438
F0.512821
aaI273
aa(lp4439
I1
a(lp4440
F0.477663
aaI291
aa(lp4441
I1
a(lp4442
F0.314286
aaI245
aa(lp4443
I1
a(lp4444
F0.379032
aaI248
aa(lp4445
I1
a(lp4446
F0.534426
aaI305
aa(lp4447
I1
a(lp4448
F0.460674
aaI267
aa(lp4449
I1
a(lp4450
F0.292035
aaI226
aa(lp4451
I1
a(lp4452
F0.284553
aaI246
aa(lp4453
I1
a(lp4454
F0.256158
aaI203
aa(lp4455
I1
a(lp4456
F0.48415
aaI347
aa(lp4457
I1
a(lp4458
F0.521341
aaI328
aa(lp4459
I1
a(lp4460
F0.478125
aaI320
aa(lp4461
I1
a(lp4462
F0.464151
aaI265
aa(lp4463
I1
a(lp4464
F0.460938
aaI256
aaa(lp4465
g1292
ag1293
aa(lp4466
g1295
ag1296
a(lp4467
I1
a(lp4468
F0.438095
aaI210
aa(lp4469
I1
a(lp4470
F0.398907
aaI183
aa(lp4471
I1
a(lp4472
F0.471831
aaI284
aa(lp4473
I1
a(lp4474
F0.364929
aaI211
aa(lp4475
I1
a(lp4476
F0.273292
aaI161
aa(lp4477
I1
a(lp4478
F0.448276
aaI232
aa(lp4479
I1
a(lp4480
F0.492366
aaI262
aa(lp4481
I1
a(lp4482
F0.341772
aaI237
aa(lp4483
I1
a(lp4484
F0.416309
aaI233
aa(lp4485
I1
a(lp4486
F0.490706
aaI269
aaa(lp4487
g1302
ag1303
a(lp4488
I1
a(lp4489
F0.263158
aaI209
aa(lp4490
I1
a(lp4491
F0.440273
aaI293
aa(lp4492
I1
a(lp4493
F0.282927
aaI205
aa(lp4494
I1
a(lp4495
F0.330508
aaI236
aa(lp4496
I1
a(lp4497
F0.498208
aaI279
aa(lp4498
I1
a(lp4499
F0.36194
aaI268
aa(lp4500
I1
a(lp4501
F0.490854
aaI328
aa(lp4502
I1
a(lp4503
F0.378855
aaI227
aa(lp4504
I1
a(lp4505
F0.396887
aaI257
aaa(lp4506
g1319
ag1320
a(lp4507
I1
a(lp4508
F0.541516
aaI277
aa(lp4509
I1
a(lp4510
F0.430769
aaI390
aa(lp4511
I1
a(lp4512
F0.450751
aaI599
aa(lp4513
I1
a(lp4514
F0.348416
aaI442
aa(lp4515
I1
a(lp4516
F0.284382
aaI429
aa(lp4517
I1
a(lp4518
F0.347193
aaI481
aa(lp4519
I1
a(lp4520
F0.36971
aaI449
aa(lp4521
I1
a(lp4522
F0.48
aaI275
aa(lp4523
I1
a(lp4524
F0.549839
aaI311
aaa(lp4525
g1348
ag1349
a(lp4526
I1
a(lp4527
F0.498069
aaI259
aa(lp4528
I1
a(lp4529
F0.378505
aaI214
aa(lp4530
I1
a(lp4531
F0.0
aaI189
aa(lp4532
I1
a(lp4533
F0.304762
aaI210
aa(lp4534
I1
a(lp4535
F0.424908
aaI273
aaa(lp4536
g1361
ag1362
a(lp4537
I1
a(lp4538
F0.46988
aaI332
aa(lp4539
I1
a(lp4540
F0.452381
aaI336
aa(lp4541
I1
a(lp4542
F0.484472
aaI322
aa(lp4543
I1
a(lp4544
F0.518272
aaI301
aa(lp4545
I1
a(lp4546
F0.215054
aaI186
aa(lp4547
I1
a(lp4548
F0.253886
aaI193
aa(lp4549
I1
a(lp4550
F0.314136
aaI191
aa(lp4551
I1
a(lp4552
F0.319767
aaI172
aa(lp4553
I1
a(lp4554
F0.253968
aaI189
aa(lp4555
I1
a(lp4556
F0.414226
aaI239
aa(lp4557
I1
a(lp4558
F0.442446
aaI278
aa(lp4559
I1
a(lp4560
F0.303483
aaI201
aa(lp4561
I1
a(lp4562
F0.269565
aaI230
aa(lp4563
I1
a(lp4564
F0.329843
aaI191
aa(lp4565
I1
a(lp4566
F0.37156
aaI218
aa(lp4567
I1
a(lp4568
F0.513699
aaI292
aa(lp4569
I1
a(lp4570
F0.317181
aaI227
aa(lp4571
I1
a(lp4572
F0.375
aaI216
aa(lp4573
I1
a(lp4574
F0.346154
aaI208
aa(lp4575
I1
a(lp4576
F0.351598
aaI219
aa(lp4577
I1
a(lp4578
F0.328767
aaI219
aa(lp4579
I1
a(lp4580
F0.203209
aaI187
aa(lp4581
I1
a(lp4582
F0.202128
aaI188
aa(lp4583
I1
a(lp4584
F0.262931
aaI232
aa(lp4585
I1
a(lp4586
F0.0
aaI92
aa(lp4587
I1
a(lp4588
F0.285714
aaI161
aa(lp4589
I1
a(lp4590
F0.29697
aaI165
aa(lp4591
I1
a(lp4592
F0.358871
aaI248
aa(lp4593
I1
a(lp4594
F0.29148
aaI223
aa(lp4595
I1
a(lp4596
F0.418519
aaI270
aa(lp4597
I1
a(lp4598
F0.389313
aaI262
aa(lp4599
I1
a(lp4600
F0.42029
aaI207
aa(lp4601
I1
a(lp4602
F0.371429
aaI210
aa(lp4603
I1
a(lp4604
F0.484252
aaI254
aa(lp4605
I1
a(lp4606
F0.501931
aaI259
aa(lp4607
I1
a(lp4608
F0.536496
aaI274
aa(lp4609
I1
a(lp4610
F0.507143
aaI280
aa(lp4611
I1
a(lp4612
F0.423077
aaI260
aa(lp4613
I1
a(lp4614
F0.455285
aaI246
aa(lp4615
I1
a(lp4616
F0.496212
aaI264
aa(lp4617
I1
a(lp4618
F0.477444
aaI266
aa(lp4619
I1
a(lp4620
F0.443983
aaI241
aa(lp4621
I1
a(lp4622
F0.257426
aaI202
aa(lp4623
I1
a(lp4624
F0.263158
aaI209
aa(lp4625
I1
a(lp4626
F0.325203
aaI246
aa(lp4627
I1
a(lp4628
F0.228155
aaI206
aa(lp4629
I1
a(lp4630
F0.355469
aaI256
aa(lp4631
I1
a(lp4632
F0.357724
aaI246
aa(lp4633
I1
a(lp4634
F0.367188
aaI256
aaa(lp4635
g1430
ag1431
aa(lp4636
g1463
ag1464
a(lp4637
I1
a(lp4638
F0.466667
aaI285
aa(lp4639
I1
a(lp4640
F0.33617
aaI235
aa(lp4641
I1
a(lp4642
F0.348178
aaI247
aa(lp4643
I1
a(lp4644
F0.355634
aaI284
aa(lp4645
I1
a(lp4646
F0.268571
aaI175
aa(lp4647
I1
a(lp4648
F0.316583
aaI199
aa(lp4649
I1
a(lp4650
F0.421233
aaI292
aaa(lp4651
g1466
ag1467
a(lp4652
I1
a(lp4653
F0.516
aaI250
aa(lp4654
I1
a(lp4655
F0.565972
aaI288
aa(lp4656
I1
a(lp4657
F0.419355
aaI217
aa(lp4658
I1
a(lp4659
F0.453642
aaI302
aa(lp4660
I1
a(lp4661
F0.25731
aaI171
aa(lp4662
I1
a(lp4663
F0.252632
aaI190
aa(lp4664
I1
a(lp4665
F0.265625
aaI192
aa(lp4666
I1
a(lp4667
F0.592593
aaI324
aa(lp4668
I1
a(lp4669
F0.769231
aaI559
aa(lp4670
I1
a(lp4671
F0.27551
aaI196
aa(lp4672
I1
a(lp4673
F0.254054
aaI185
aa(lp4674
I1
a(lp4675
F0.215909
aaI176
aa(lp4676
I1
a(lp4677
F0.222222
aaI180
aa(lp4678
I1
a(lp4679
F0.238739
aaI222
aaa(lp4680
g1499
ag1500
a(lp4681
I1
a(lp4682
F0.459016
aaI305
aa(lp4683
I1
a(lp4684
F0.404844
aaI289
aa(lp4685
I1
a(lp4686
F0.483333
aaI300
aa(lp4687
I1
a(lp4688
F0.376984
aaI252
aa(lp4689
I1
a(lp4690
F0.240506
aaI158
aa(lp4691
I1
a(lp4692
F0.268293
aaI205
aa(lp4693
I1
a(lp4694
F0.459184
aaI196
aa(lp4695
I1
a(lp4696
F0.370044
aaI227
aa(lp4697
I1
a(lp4698
F0.438298
aaI235
aa(lp4699
I1
a(lp4700
F0.459459
aaI148
aa(lp4701
I1
a(lp4702
F0.385246
aaI244
aaa(lp4703
g1516
ag1517
aa(lp4704
g1519
ag1520
aa(lp4705
g1522
ag1523
aa(lp4706
g1525
ag1526
a(lp4707
I1
a(lp4708
F0.466431
aaI283
aa(lp4709
I1
a(lp4710
F0.322129
aaI357
aa(lp4711
I1
a(lp4712
F0.272727
aaI330
aa(lp4713
I1
a(lp4714
F0.393013
aaI229
aa(lp4715
I1
a(lp4716
F0.480769
aaI260
aa(lp4717
I1
a(lp4718
F0.432203
aaI236
aa(lp4719
I1
a(lp4720
F0.503546
aaI282
aa(lp4721
I1
a(lp4722
F0.283019
aaI159
aa(lp4723
I1
a(lp4724
F0.0
aaI194
aa(lp4725
I1
a(lp4726
F0.0
aaI194
aa(lp4727
I1
a(lp4728
F0.464435
aaI239
aa(lp4729
I1
a(lp4730
F0.314136
aaI191
aa(lp4731
I1
a(lp4732
F0.367568
aaI185
aa(lp4733
I1
a(lp4734
F0.346821
aaI173
aaa(lp4735
g1554
ag1555
aa(lp4736
g1557
ag1558
a(lp4737
I1
a(lp4738
F0.498339
aaI301
aa(lp4739
I1
a(lp4740
F0.39759
aaI249
aa(lp4741
I1
a(lp4742
F0.402542
aaI236
aa(lp4743
I1
a(lp4744
F0.537705
aaI305
aa(lp4745
I1
a(lp4746
F0.531532
aaI333
aa(lp4747
I1
a(lp4748
F0.272251
aaI191
aa(lp4749
I1
a(lp4750
F0.322581
aaI217
aa(lp4751
I1
a(lp4752
F0.31694
aaI183
aa(lp4753
I1
a(lp4754
F0.322404
aaI183
aa(lp4755
I1
a(lp4756
F0.350785
aaI191
aa(lp4757
I1
a(lp4758
F0.408451
aaI284
aa(lp4759
I1
a(lp4760
F0.409091
aaI242
aa(lp4761
I1
a(lp4762
F0.455738
aaI305
aaa(lp4763
g1560
ag1561
aa(lp4764
g1563
ag1564
aa(lp4765
g1588
ag1589
a(lp4766
I1
a(lp4767
F0.425287
aaI261
aa(lp4768
I1
a(lp4769
F0.282723
aaI191
aa(lp4770
I1
a(lp4771
F0.385366
aaI205
aa(lp4772
I1
a(lp4773
F0.297297
aaI185
aa(lp4774
I1
a(lp4775
F0.376
aaI250
aa(lp4776
I1
a(lp4777
F0.345972
aaI211
aa(lp4778
I1
a(lp4779
F0.425606
aaI289
aa(lp4780
I1
a(lp4781
F0.405109
aaI274
aa(lp4782
I1
a(lp4783
F0.477912
aaI249
aa(lp4784
I1
a(lp4785
F0.336585
aaI205
aa(lp4786
I1
a(lp4787
F0.25
aaI196
aa(lp4788
I1
a(lp4789
F0.300926
aaI216
aa(lp4790
I1
a(lp4791
F0.244792
aaI192
aa(lp4792
I1
a(lp4793
F0.30137
aaI219
aa(lp4794
I1
a(lp4795
F0.350943
aaI265
aa(lp4796
I1
a(lp4797
F0.277228
aaI202
aa(lp4798
I1
a(lp4799
F0.393162
aaI234
aa(lp4800
I1
a(lp4801
F0.447917
aaI288
aa(lp4802
I1
a(lp4803
F0.465021
aaI243
aa(lp4804
I1
a(lp4805
F0.59673
aaI367
aa(lp4806
I1
a(lp4807
F0.353659
aaI246
aaa(lp4808
g1635
ag1636
a(lp4809
I1
a(lp4810
F0.269058
aaI223
aa(lp4811
I1
a(lp4812
F0.347985
aaI273
aaa(lp4813
g1638
ag1639
a(lp4814
I1
a(lp4815
F0.215686
aaI153
aa(lp4816
I1
a(lp4817
F0.305085
aaI177
aa(lp4818
I1
a(lp4819
F0.286517
aaI178
aa(lp4820
I1
a(lp4821
F0.389091
aaI275
aa(lp4822
I1
a(lp4823
F0.405738
aaI244
aa(lp4824
I1
a(lp4825
F0.496835
aaI316
aaa(lp4826
g1641
ag1642
aa(lp4827
g1644
ag1645
a(lp4828
I1
a(lp4829
F0.219388
aaI196
aa(lp4830
I1
a(lp4831
F0.243243
aaI185
aa(lp4832
I1
a(lp4833
F0.201117
aaI179
aa(lp4834
I1
a(lp4835
F0.449664
aaI298
aa(lp4836
I1
a(lp4837
F0.493976
aaI332
aa(lp4838
I1
a(lp4839
F0.335052
aaI194
aa(lp4840
I1
a(lp4841
F0.351759
aaI199
aa(lp4842
I1
a(lp4843
F0.423237
aaI241
aa(lp4844
I1
a(lp4845
F0.385965
aaI228
aaa(lp4846
g1647
ag1648
aa(lp4847
g1650
ag1651
a(lp4848
I1
a(lp4849
F0.280423
aaI189
aaa(lp4850
g1655
ag1656
a(lp4851
I1
a(lp4852
F0.472789
aaI294
aaa(lp4853
g1662
ag1663
a(lp4854
I1
a(lp4855
F0.264591
aaI257
aa(lp4856
I1
a(lp4857
F0.671875
aaI64
aa(lp4858
I1
a(lp4859
F0.809091
aaI110
aa(lp4860
I1
a(lp4861
F0.845238
aaI168
aaa(lp4862
g1665
ag1666
a(lp4863
I1
a(lp4864
F0.422581
aaI310
aa(lp4865
I1
a(lp4866
F0.224242
aaI165
aa(lp4867
I1
a(lp4868
F0.272727
aaI275
aa(lp4869
I1
a(lp4870
F0.413127
aaI259
aa(lp4871
I1
a(lp4872
F0.448413
aaI252
aa(lp4873
I1
a(lp4874
F0.265306
aaI196
aa(lp4875
I1
a(lp4876
F0.335013
aaI397
aa(lp4877
I1
a(lp4878
F0.352041
aaI196
aa(lp4879
I1
a(lp4880
F0.4625
aaI240
aa(lp4881
I1
a(lp4882
F0.395833
aaI288
aa(lp4883
I1
a(lp4884
F0.438462
aaI260
aa(lp4885
I1
a(lp4886
F0.462406
aaI266
aa(lp4887
I1
a(lp4888
F0.420875
aaI297
aa(lp4889
I1
a(lp4890
F0.45509
aaI334
aa(lp4891
I1
a(lp4892
F0.383495
aaI206
aa(lp4893
I1
a(lp4894
F0.270588
aaI170
aa(lp4895
I1
a(lp4896
F0.222772
aaI202
aaa(lp4897
g1696
ag1697
a(lp4898
I1
a(lp4899
F0.389961
aaI259
aa(lp4900
I1
a(lp4901
F0.277056
aaI231
aa(lp4902
I1
a(lp4903
F0.248908
aaI229
aa(lp4904
I1
a(lp4905
F0.327014
aaI211
aa(lp4906
I1
a(lp4907
F0.294737
aaI190
aa(lp4908
I1
a(lp4909
F0.360324
aaI247
aa(lp4910
I1
a(lp4911
F0.371901
aaI242
aa(lp4912
I1
a(lp4913
F0.466667
aaI300
aa(lp4914
I1
a(lp4915
F0.387234
aaI235
aa(lp4916
I1
a(lp4917
F0.585455
aaI275
aa(lp4918
I1
a(lp4919
F0.450893
aaI224
aa(lp4920
I1
a(lp4921
F0.457265
aaI234
aaa(lp4922
g1751
ag1752
a(lp4923
I1
a(lp4924
F0.236948
aaI249
aa(lp4925
I1
a(lp4926
F0.260504
aaI238
aa(lp4927
I1
a(lp4928
F0.0
aaI173
aaa(lp4929
g1754
ag1755
a(lp4930
I1
a(lp4931
F0.485804
aaI317
aa(lp4932
I1
a(lp4933
F0.466887
aaI302
aa(lp4934
I1
a(lp4935
F0.480702
aaI285
aa(lp4936
I1
a(lp4937
F0.343324
aaI367
aa(lp4938
I1
a(lp4939
F0.322709
aaI251
aa(lp4940
I1
a(lp4941
F0.32636
aaI239
aa(lp4942
I1
a(lp4943
F0.513043
aaI345
aa(lp4944
I1
a(lp4945
F0.418675
aaI332
aa(lp4946
I1
a(lp4947
F0.450311
aaI322
aa(lp4948
I1
a(lp4949
F0.413223
aaI242
aa(lp4950
I1
a(lp4951
F0.470199
aaI302
aa(lp4952
I1
a(lp4953
F0.608939
aaI358
aaa(lp4954
g1763
ag1764
a(lp4955
I1
a(lp4956
F0.382789
aaI337
aaa(lp4957
g1766
ag1767
aa(lp4958
g1769
ag1770
aa(lp4959
g1772
ag1773
aa(lp4960
g1775
ag1776
a(lp4961
I1
a(lp4962
F0.228571
aaI175
aaa(lp4963
g1786
ag1787
aa(lp4964
g1789
ag1790
a(lp4965
I1
a(lp4966
F0.327801
aaI482
aa(lp4967
I1
a(lp4968
F0.312639
aaI451
aa(lp4969
I1
a(lp4970
F0.404669
aaI257
aa(lp4971
I1
a(lp4972
F0.350649
aaI231
aa(lp4973
I1
a(lp4974
F0.639456
aaI441
aa(lp4975
I1
a(lp4976
F0.233236
aaI343
aa(lp4977
I1
a(lp4978
F0.380556
aaI360
aa(lp4979
I1
a(lp4980
F0.413919
aaI273
aa(lp4981
I1
a(lp4982
F0.424603
aaI252
aa(lp4983
I1
a(lp4984
F0.284065
aaI433
aaa(lp4985
g1820
ag1821
a(lp4986
I1
a(lp4987
F0.369668
aaI211
aa(lp4988
I1
a(lp4989
F0.345622
aaI217
aa(lp4990
I1
a(lp4991
F0.311404
aaI228
aa(lp4992
I1
a(lp4993
F0.347619
aaI210
aa(lp4994
I1
a(lp4995
F0.33935
aaI277
aa(lp4996
I1
a(lp4997
F0.387665
aaI227
aa(lp4998
I1
a(lp4999
F0.381323
aaI257
aa(lp5000
I1
a(lp5001
F0.372
aaI250
aa(lp5002
I1
a(lp5003
F0.446686
aaI347
aa(lp5004
I1
a(lp5005
F0.391667
aaI240
aa(lp5006
I1
a(lp5007
F0.366255
aaI243
aa(lp5008
I1
a(lp5009
F0.378601
aaI243
aa(lp5010
I1
a(lp5011
F0.413793
aaI261
aa(lp5012
I1
a(lp5013
F0.448148
aaI270
aa(lp5014
I1
a(lp5015
F0.321608
aaI199
aa(lp5016
I1
a(lp5017
F0.300926
aaI216
aa(lp5018
I1
a(lp5019
F0.315789
aaI209
aa(lp5020
I1
a(lp5021
F0.471429
aaI280
aa(lp5022
I1
a(lp5023
F0.446429
aaI280
aa(lp5024
I1
a(lp5025
F0.334764
aaI233
aa(lp5026
I1
a(lp5027
F0.409091
aaI242
aa(lp5028
I1
a(lp5029
F0.320675
aaI237
aa(lp5030
I1
a(lp5031
F0.508523
aaI352
aa(lp5032
I1
a(lp5033
F0.413284
aaI271
aa(lp5034
I1
a(lp5035
F0.299559
aaI227
aa(lp5036
I1
a(lp5037
F0.312236
aaI237
aa(lp5038
I1
a(lp5039
F0.273913
aaI230
aa(lp5040
I1
a(lp5041
F0.260355
aaI169
aa(lp5042
I1
a(lp5043
F0.55137
aaI292
aaa(lp5044
g1863
ag1864
aa(lp5045
g1866
ag1867
aa(lp5046
g1897
ag1898
aa(lp5047
g1904
ag1905
a(lp5048
I1
a(lp5049
F0.282511
aaI223
aa(lp5050
I1
a(lp5051
F0.419608
aaI255
aaa(lp5052
g1909
ag1910
a(lp5053
I1
a(lp5054
F0.37218
aaI266
aa(lp5055
I1
a(lp5056
F0.404332
aaI277
aa(lp5057
I1
a(lp5058
F0.378378
aaI259
aa(lp5059
I1
a(lp5060
F0.383929
aaI224
aa(lp5061
I1
a(lp5062
F0.377193
aaI228
aa(lp5063
I1
a(lp5064
F0.416667
aaI228
aaa(lp5065
g1912
ag1913
a(lp5066
I1
a(lp5067
F0.374532
aaI267
aa(lp5068
I1
a(lp5069
F0.379699
aaI266
aa(lp5070
I1
a(lp5071
F0.352941
aaI238
aa(lp5072
I1
a(lp5073
F0.49481
aaI289
aaa(lp5074
g1921
ag1922
a(lp5075
I1
a(lp5076
F0.446009
aaI213
aa(lp5077
I1
a(lp5078
F0.358696
aaI184
aa(lp5079
I1
a(lp5080
F0.280822
aaI146
aa(lp5081
I1
a(lp5082
F0.285714
aaI189
aa(lp5083
I1
a(lp5084
F0.338542
aaI192
aa(lp5085
I1
a(lp5086
F0.328042
aaI189
aa(lp5087
I1
a(lp5088
F0.379032
aaI248
aa(lp5089
I1
a(lp5090
F0.429104
aaI268
aa(lp5091
I1
a(lp5092
F0.378995
aaI219
aa(lp5093
I1
a(lp5094
F0.292929
aaI198
aa(lp5095
I1
a(lp5096
F0.460967
aaI269
aa(lp5097
I1
a(lp5098
F0.435252
aaI278
aa(lp5099
I1
a(lp5100
F0.0
aaI186
aa(lp5101
I1
a(lp5102
F0.267327
aaI202
aa(lp5103
I1
a(lp5104
F0.304348
aaI207
aa(lp5105
I1
a(lp5106
F0.335
aaI200
aa(lp5107
I1
a(lp5108
F0.417431
aaI218
aa(lp5109
I1
a(lp5110
F0.25
aaI204
aa(lp5111
I1
a(lp5112
F0.228155
aaI206
aa(lp5113
I1
a(lp5114
F0.233945
aaI218
aa(lp5115
I1
a(lp5116
F0.333333
aaI264
aa(lp5117
I1
a(lp5118
F0.218884
aaI233
aa(lp5119
I1
a(lp5120
F0.496575
aaI292
aa(lp5121
I1
a(lp5122
F0.469565
aaI230
aa(lp5123
I1
a(lp5124
F0.363636
aaI242
aa(lp5125
I1
a(lp5126
F0.286364
aaI220
aa(lp5127
I1
a(lp5128
F0.343949
aaI157
aa(lp5129
I1
a(lp5130
F0.238342
aaI193
aa(lp5131
I1
a(lp5132
F0.313808
aaI239
aa(lp5133
I1
a(lp5134
F0.3125
aaI224
aa(lp5135
I1
a(lp5136
F0.447368
aaI266
aa(lp5137
I1
a(lp5138
F0.464151
aaI265
aa(lp5139
I1
a(lp5140
F0.434615
aaI260
aa(lp5141
I1
a(lp5142
F0.45
aaI300
aa(lp5143
I1
a(lp5144
F0.427632
aaI304
aa(lp5145
I1
a(lp5146
F0.392157
aaI255
aa(lp5147
I1
a(lp5148
F0.247059
aaI170
aaa(lp5149
g1940
ag1941
a(lp5150
I1
a(lp5151
F0.361305
aaI429
aa(lp5152
I1
a(lp5153
F0.298211
aaI503
aaa(lp5154
g1947
ag1948
a(lp5155
I1
a(lp5156
F0.32684
aaI462
aa(lp5157
I1
a(lp5158
F0.490323
aaI310
aaa(lp5159
g1960
ag1961
aa(lp5160
g1963
ag1964
aa(lp5161
g2002
ag2003
aa(lp5162
g2035
ag2036
a(lp5163
I1
a(lp5164
F0.269388
aaI245
aa(lp5165
I1
a(lp5166
F0.445344
aaI247
aa(lp5167
I1
a(lp5168
F0.304348
aaI207
aa(lp5169
I1
a(lp5170
F0.3
aaI200
aa(lp5171
I1
a(lp5172
F0.446667
aaI300
aa(lp5173
I1
a(lp5174
F0.451049
aaI286
aa(lp5175
I1
a(lp5176
F0.45993
aaI287
aa(lp5177
I1
a(lp5178
F0.341584
aaI202
aa(lp5179
I1
a(lp5180
F0.477419
aaI310
aa(lp5181
I1
a(lp5182
F0.455696
aaI316
aa(lp5183
I1
a(lp5184
F0.327511
aaI229
aa(lp5185
I1
a(lp5186
F0.313131
aaI198
aa(lp5187
I1
a(lp5188
F0.253731
aaI201
aa(lp5189
I1
a(lp5190
F0.26009
aaI223
aa(lp5191
I1
a(lp5192
F0.274038
aaI208
aa(lp5193
I1
a(lp5194
F0.324219
aaI256
aa(lp5195
I1
a(lp5196
F0.33463
aaI257
aa(lp5197
I1
a(lp5198
F0.314516
aaI248
aa(lp5199
I1
a(lp5200
F0.315385
aaI260
aa(lp5201
I1
a(lp5202
F0.247899
aaI238
aa(lp5203
I1
a(lp5204
F0.231441
aaI229
aa(lp5205
I1
a(lp5206
F0.26484
aaI219
aaa(lp5207
g2042
ag2043
a(lp5208
I1
a(lp5209
F0.440613
aaI261
aa(lp5210
I1
a(lp5211
F0.279621
aaI211
aaa(lp5212
g2045
ag2046
aa(lp5213
g2070
ag2071
aa(lp5214
g2073
ag2074
a(lp5215
I1
a(lp5216
F0.227723
aaI303
aa(lp5217
I1
a(lp5218
F0.21519
aaI316
aa(lp5219
I1
a(lp5220
F0.203488
aaI344
aaa(lp5221
g2076
ag2077
aa(lp5222
g2083
ag2084
aa(lp5223
g2086
ag2087
aa(lp5224
g2089
ag2090
a(lp5225
I1
a(lp5226
F0.233419
aaI1161
aa(lp5227
I1
a(lp5228
F0.385013
aaI387
aa(lp5229
I1
a(lp5230
F0.33871
aaI186
aa(lp5231
I1
a(lp5232
F0.21608
aaI199
aa(lp5233
I1
a(lp5234
F0.42
aaI250
aa(lp5235
I1
a(lp5236
F0.261803
aaI466
aaa(lp5237
g2092
ag2093
a(lp5238
I1
a(lp5239
F0.477178
aaI241
aa(lp5240
I1
a(lp5241
F0.488372
aaI301
aa(lp5242
I1
a(lp5243
F0.434783
aaI253
aa(lp5244
I1
a(lp5245
F0.439689
aaI257
aa(lp5246
I1
a(lp5247
F0.401606
aaI249
aa(lp5248
I1
a(lp5249
F0.364807
aaI233
aa(lp5250
I1
a(lp5251
F0.485246
aaI305
aa(lp5252
I1
a(lp5253
F0.5
aaI310
aa(lp5254
I1
a(lp5255
F0.288136
aaI236
aa(lp5256
I1
a(lp5257
F0.326613
aaI248
aa(lp5258
I1
a(lp5259
F0.360153
aaI261
aa(lp5260
I1
a(lp5261
F0.256637
aaI226
aa(lp5262
I1
a(lp5263
F0.208333
aaI216
aa(lp5264
I1
a(lp5265
F0.369919
aaI246
aa(lp5266
I1
a(lp5267
F0.263393
aaI224
aa(lp5268
I1
a(lp5269
F0.360169
aaI236
aa(lp5270
I1
a(lp5271
F0.437008
aaI254
aa(lp5272
I1
a(lp5273
F0.240506
aaI158
aaa(lp5274
g2097
ag2098
a(lp5275
I1
a(lp5276
F0.253659
aaI205
aaa(lp5277
g2116
ag2117
a(lp5278
I1
a(lp5279
F0.439815
aaI216
aa(lp5280
I1
a(lp5281
F0.356164
aaI292
aa(lp5282
I1
a(lp5283
F0.381818
aaI275
aaa(lp5284
g2125
ag2126
aa(lp5285
g2150
ag2151
a(lp5286
I1
a(lp5287
F0.6
aaI30
aa(lp5288
I1
a(lp5289
F0.361702
aaI282
aa(lp5290
I1
a(lp5291
F0.340426
aaI188
aa(lp5292
I1
a(lp5293
F0.29798
aaI198
aa(lp5294
I1
a(lp5295
F0.29
aaI200
aa(lp5296
I1
a(lp5297
F0.25
aaI200
aa(lp5298
I1
a(lp5299
F0.251256
aaI199
aa(lp5300
I1
a(lp5301
F0.208531
aaI211
aa(lp5302
I1
a(lp5303
F0.227488
aaI211
aa(lp5304
I1
a(lp5305
F0.422442
aaI303
aa(lp5306
I1
a(lp5307
F0.428571
aaI273
aa(lp5308
I1
a(lp5309
F0.484496
aaI258
aaa(lp5310
g2153
ag2154
a(lp5311
I1
a(lp5312
F0.325203
aaI246
aa(lp5313
I1
a(lp5314
F0.333333
aaI249
aa(lp5315
I1
a(lp5316
F0.368852
aaI244
aa(lp5317
I1
a(lp5318
F0.408072
aaI223
aa(lp5319
I1
a(lp5320
F0.275
aaI200
aa(lp5321
I1
a(lp5322
F0.290155
aaI193
aa(lp5323
I1
a(lp5324
F0.287958
aaI191
aa(lp5325
I1
a(lp5326
F0.305085
aaI177
aa(lp5327
I1
a(lp5328
F0.304569
aaI197
aa(lp5329
I1
a(lp5330
F0.414847
aaI229
aa(lp5331
I1
a(lp5332
F0.458678
aaI242
aa(lp5333
I1
a(lp5334
F0.214286
aaI182
aaa(lp5335
g2166
ag2167
a(lp5336
I1
a(lp5337
F0.426923
aaI260
aa(lp5338
I1
a(lp5339
F0.252475
aaI202
aaa(lp5340
g2169
ag2170
aa(lp5341
g2172
ag2173
a(lp5342
I1
a(lp5343
F0.205479
aaI146
aa(lp5344
I1
a(lp5345
F0.20202
aaI198
aaa(lp5346
g2185
ag2186
aa(lp5347
g2242
ag2243
a(lp5348
I1
a(lp5349
F0.247788
aaI226
aa(lp5350
I1
a(lp5351
F0.209877
aaI162
aa(lp5352
I1
a(lp5353
F0.423488
aaI281
aa(lp5354
I1
a(lp5355
F0.484568
aaI324
aa(lp5356
I1
a(lp5357
F0.460568
aaI317
aa(lp5358
I1
a(lp5359
F0.44898
aaI294
aa(lp5360
I1
a(lp5361
F0.40146
aaI274
aa(lp5362
I1
a(lp5363
F0.477419
aaI310
aa(lp5364
I1
a(lp5365
F0.453061
aaI245
aa(lp5366
I1
a(lp5367
F0.377049
aaI244
aa(lp5368
I1
a(lp5369
F0.376
aaI250
aa(lp5370
I1
a(lp5371
F0.448718
aaI234
aa(lp5372
I1
a(lp5373
F0.460251
aaI239
aa(lp5374
I1
a(lp5375
F0.505929
aaI253
aa(lp5376
I1
a(lp5377
F0.448669
aaI263
aa(lp5378
I1
a(lp5379
F0.442688
aaI253
aa(lp5380
I1
a(lp5381
F0.333333
aaI261
aa(lp5382
I1
a(lp5383
F0.252404
aaI416
aa(lp5384
I1
a(lp5385
F0.301176
aaI425
aa(lp5386
I1
a(lp5387
F0.270202
aaI396
aa(lp5388
I1
a(lp5389
F0.385366
aaI205
aa(lp5390
I1
a(lp5391
F0.244565
aaI184
aa(lp5392
I1
a(lp5393
F0.221698
aaI212
aa(lp5394
I1
a(lp5395
F0.270642
aaI218
aa(lp5396
I1
a(lp5397
F0.255
aaI200
aa(lp5398
I1
a(lp5399
F0.292576
aaI229
aa(lp5400
I1
a(lp5401
F0.274678
aaI233
aa(lp5402
I1
a(lp5403
F0.213592
aaI206
aa(lp5404
I1
a(lp5405
F0.225641
aaI195
aa(lp5406
I1
a(lp5407
F0.302632
aaI228
aa(lp5408
I1
a(lp5409
F0.314655
aaI232
aa(lp5410
I1
a(lp5411
F0.282178
aaI202
aa(lp5412
I1
a(lp5413
F0.282828
aaI198
aa(lp5414
I1
a(lp5415
F0.364532
aaI203
aa(lp5416
I1
a(lp5417
F0.47144
aaI1243
aa(lp5418
I1
a(lp5419
F0.330317
aaI221
aa(lp5420
I1
a(lp5421
F0.291866
aaI209
aa(lp5422
I1
a(lp5423
F0.231132
aaI212
aa(lp5424
I1
a(lp5425
F0.335
aaI200
aa(lp5426
I1
a(lp5427
F0.268722
aaI227
aa(lp5428
I1
a(lp5429
F0.25
aaI224
aaa(lp5430
g2281
ag2282
a(lp5431
I1
a(lp5432
F0.300412
aaI243
aa(lp5433
I1
a(lp5434
F0.0
aaI251
aa(lp5435
I1
a(lp5436
F0.264574
aaI223
aa(lp5437
I1
a(lp5438
F0.267658
aaI269
aa(lp5439
I1
a(lp5440
F0.377049
aaI244
aa(lp5441
I1
a(lp5442
F0.2875
aaI240
aa(lp5443
I1
a(lp5444
F0.371681
aaI226
aa(lp5445
I1
a(lp5446
F0.333333
aaI222
aa(lp5447
I1
a(lp5448
F0.367021
aaI188
aa(lp5449
I1
a(lp5450
F0.445312
aaI256
aa(lp5451
I1
a(lp5452
F0.465385
aaI260
aa(lp5453
I1
a(lp5454
F0.534351
aaI262
aa(lp5455
I1
a(lp5456
F0.539877
aaI326
aa(lp5457
I1
a(lp5458
F0.498168
aaI273
aa(lp5459
I1
a(lp5460
F0.524715
aaI263
aa(lp5461
I1
a(lp5462
F0.478125
aaI320
aa(lp5463
I1
a(lp5464
F0.464516
aaI310
aa(lp5465
I1
a(lp5466
F0.367347
aaI245
aa(lp5467
I1
a(lp5468
F0.431373
aaI204
aa(lp5469
I1
a(lp5470
F0.47331
aaI281
aa(lp5471
I1
a(lp5472
F0.222798
aaI193
aa(lp5473
I1
a(lp5474
F0.470356
aaI253
aa(lp5475
I1
a(lp5476
F0.458678
aaI242
aa(lp5477
I1
a(lp5478
F0.393365
aaI211
aa(lp5479
I1
a(lp5480
F0.46875
aaI256
aa(lp5481
I1
a(lp5482
F0.426877
aaI253
aa(lp5483
I1
a(lp5484
F0.45749
aaI247
aa(lp5485
I1
a(lp5486
F0.482759
aaI290
aa(lp5487
I1
a(lp5488
F0.28125
aaI192
aa(lp5489
I1
a(lp5490
F0.241758
aaI182
aa(lp5491
I1
a(lp5492
F0.241935
aaI186
aa(lp5493
I1
a(lp5494
F0.254237
aaI177
aa(lp5495
I1
a(lp5496
F0.27957
aaI186
aa(lp5497
I1
a(lp5498
F0.289773
aaI176
aa(lp5499
I1
a(lp5500
F0.280899
aaI178
aa(lp5501
I1
a(lp5502
F0.228571
aaI175
aa(lp5503
I1
a(lp5504
F0.227273
aaI176
aa(lp5505
I1
a(lp5506
F0.289773
aaI176
aa(lp5507
I1
a(lp5508
F0.287356
aaI174
aa(lp5509
I1
a(lp5510
F0.256098
aaI164
aa(lp5511
I1
a(lp5512
F0.234568
aaI162
aaa(lp5513
g2286
ag2287
aa(lp5514
g2301
ag2302
aa(lp5515
g2306
ag2307
a(lp5516
I1
a(lp5517
F0.548822
aaI297
aa(lp5518
I1
a(lp5519
F0.527473
aaI273
aaa(lp5520
g2333
ag2334
aa(lp5521
g2336
ag2337
a(lp5522
I1
a(lp5523
F0.429688
aaI256
aa(lp5524
I1
a(lp5525
F0.502262
aaI221
aa(lp5526
I1
a(lp5527
F0.462121
aaI264
aa(lp5528
I1
a(lp5529
F0.271111
aaI225
aa(lp5530
I1
a(lp5531
F0.285047
aaI214
aa(lp5532
I1
a(lp5533
F0.416084
aaI286
aaa(lp5534
g2347
ag2348
aa(lp5535
g2366
ag2367
a(lp5536
I1
a(lp5537
F0.439331
aaI239
aa(lp5538
I1
a(lp5539
F0.314136
aaI191
aa(lp5540
I1
a(lp5541
F0.310881
aaI193
aa(lp5542
I1
a(lp5543
F0.221622
aaI185
aa(lp5544
I1
a(lp5545
F0.444444
aaI198
aa(lp5546
I1
a(lp5547
F0.0
aaI92
aa(lp5548
I1
a(lp5549
F0.364964
aaI137
aa(lp5550
I1
a(lp5551
F0.355072
aaI138
aa(lp5552
I1
a(lp5553
F0.340176
aaI341
aa(lp5554
I1
a(lp5555
F0.205128
aaI234
aa(lp5556
I1
a(lp5557
F0.224215
aaI223
aa(lp5558
I1
a(lp5559
F0.363636
aaI209
aa(lp5560
I1
a(lp5561
F0.333333
aaI216
aaa(lp5562
g2377
ag2378
aa(lp5563
g2380
ag2381
aa(lp5564
g2383
ag2384
a(lp5565
I1
a(lp5566
F0.367171
aaI463
aaa(lp5567
g2386
ag2387
a(lp5568
I1
a(lp5569
F0.343348
aaI233
aa(lp5570
I1
a(lp5571
F0.392157
aaI255
aa(lp5572
I1
a(lp5573
F0.354369
aaI206
aa(lp5574
I1
a(lp5575
F0.386792
aaI212
aa(lp5576
I1
a(lp5577
F0.206349
aaI189
aa(lp5578
I1
a(lp5579
F0.208738
aaI206
aa(lp5580
I1
a(lp5581
F0.207373
aaI217
aa(lp5582
I1
a(lp5583
F0.235577
aaI208
aa(lp5584
I1
a(lp5585
F0.502008
aaI249
aaa(lp5586
g2397
ag2398
a(lp5587
I1
a(lp5588
F0.678663
aaI389
aaa(lp5589
g2400
ag2401
aa(lp5590
g2409
ag2410
aa(lp5591
g2412
ag2413
a(lp5592
I1
a(lp5593
F0.207254
aaI193
aa(lp5594
I1
a(lp5595
F0.368984
aaI187
aa(lp5596
I1
a(lp5597
F0.346341
aaI205
aa(lp5598
I1
a(lp5599
F0.350962
aaI208
aa(lp5600
I1
a(lp5601
F0.233831
aaI201
aa(lp5602
I1
a(lp5603
F0.449045
aaI314
aa(lp5604
I1
a(lp5605
F0.461794
aaI301
aa(lp5606
I1
a(lp5607
F0.481605
aaI299
aa(lp5608
I1
a(lp5609
F0.411765
aaI272
aa(lp5610
I1
a(lp5611
F0.339483
aaI271
aaa(lp5612
g2435
ag2436
aa(lp5613
g2446
ag2447
aa(lp5614
g2449
ag2450
a(lp5615
I1
a(lp5616
F0.313953
aaI258
aa(lp5617
I1
a(lp5618
F0.229885
aaI174
aa(lp5619
I1
a(lp5620
F0.213836
aaI159
aaa(lp5621
g2452
ag2453
a(lp5622
I1
a(lp5623
F0.216901
aaI355
aaa(lp5624
g2455
ag2456
aa(lp5625
g2492
ag2493
aa(lp5626
g2515
ag2516
a(lp5627
I1
a(lp5628
F0.524138
aaI290
aa(lp5629
I1
a(lp5630
F0.491909
aaI309
aa(lp5631
I1
a(lp5632
F0.411523
aaI243
aa(lp5633
I1
a(lp5634
F0.304124
aaI194
aaa(lp5635
g2518
ag2519
aa(lp5636
g2521
ag2522
aa(lp5637
g2544
ag2545
a(lp5638
I1
a(lp5639
F0.586957
aaI276
aa(lp5640
I1
a(lp5641
F0.373977
aaI2444
aaa(lp5642
g2547
ag2548
a(lp5643
I1
a(lp5644
F0.354978
aaI231
aa(lp5645
I1
a(lp5646
F0.507143
aaI280
aa(lp5647
I1
a(lp5648
F0.22381
aaI210
aa(lp5649
I1
a(lp5650
F0.315789
aaI209
aa(lp5651
I1
a(lp5652
F0.318841
aaI207
aa(lp5653
I1
a(lp5654
F0.325991
aaI227
aa(lp5655
I1
a(lp5656
F0.522556
aaI266
aaa(lp5657
g2562
ag2563
aa(lp5658
g2565
ag2566
a(lp5659
I1
a(lp5660
F0.36255
aaI251
aa(lp5661
I1
a(lp5662
F0.444444
aaI279
aa(lp5663
I1
a(lp5664
F0.446809
aaI282
aa(lp5665
I1
a(lp5666
F0.455224
aaI268
aa(lp5667
I1
a(lp5668
F0.249123
aaI285
aaa(lp5669
g2570
ag2571
aa(lp5670
g2585
ag2586
aa(lp5671
g2590
ag2591
aa(lp5672
g2593
ag2594
aa(lp5673
g2596
ag2597
a(lp5674
I1
a(lp5675
F0.346667
aaI225
aa(lp5676
I1
a(lp5677
F0.319328
aaI238
aa(lp5678
I1
a(lp5679
F0.317972
aaI217
aa(lp5680
I1
a(lp5681
F0.227488
aaI211
aa(lp5682
I1
a(lp5683
F0.396985
aaI199
aa(lp5684
I1
a(lp5685
F0.351351
aaI185
aa(lp5686
I1
a(lp5687
F0.274112
aaI197
aa(lp5688
I1
a(lp5689
F0.220833
aaI240
aa(lp5690
I1
a(lp5691
F0.330049
aaI203
aa(lp5692
I1
a(lp5693
F0.304124
aaI194
aa(lp5694
I1
a(lp5695
F0.313131
aaI198
aa(lp5696
I1
a(lp5697
F0.271493
aaI221
aa(lp5698
I1
a(lp5699
F0.31
aaI200
aa(lp5700
I1
a(lp5701
F0.297297
aaI185
aa(lp5702
I1
a(lp5703
F0.246914
aaI162
aa(lp5704
I1
a(lp5705
F0.44186
aaI301
aaa(lp5706
g2599
ag2600
a(lp5707
I1
a(lp5708
F0.226415
aaI159
aa(lp5709
I1
a(lp5710
F0.314516
aaI248
aa(lp5711
I1
a(lp5712
F0.292605
aaI311
aaa(lp5713
g2602
ag2603
aa(lp5714
g2605
ag2606
a(lp5715
I1
a(lp5716
F0.220588
aaI136
aa(lp5717
I1
a(lp5718
F0.257642
aaI229
aaa(lp5719
g2608
ag2609
aa(lp5720
g2611
ag2612
aa(lp5721
g2614
ag2615
a(lp5722
I1
a(lp5723
F0.238938
aaI226
aa(lp5724
I1
a(lp5725
F0.561086
aaI221
aa(lp5726
I1
a(lp5727
F0.222857
aaI175
aa(lp5728
I1
a(lp5729
F0.415771
aaI279
aa(lp5730
I1
a(lp5731
F0.351254
aaI279
aa(lp5732
I1
a(lp5733
F0.309701
aaI268
aa(lp5734
I1
a(lp5735
F0.460568
aaI317
aa(lp5736
I1
a(lp5737
F0.4375
aaI240
aa(lp5738
I1
a(lp5739
F0.469828
aaI232
aa(lp5740
I1
a(lp5741
F0.431111
aaI225
aa(lp5742
I1
a(lp5743
F0.340541
aaI185
aa(lp5744
I1
a(lp5745
F0.371134
aaI194
aa(lp5746
I1
a(lp5747
F0.358744
aaI223
aa(lp5748
I1
a(lp5749
F0.327273
aaI220
aa(lp5750
I1
a(lp5751
F0.287081
aaI209
aa(lp5752
I1
a(lp5753
F0.279793
aaI193
aa(lp5754
I1
a(lp5755
F0.217391
aaI184
aa(lp5756
I1
a(lp5757
F0.255172
aaI145
aaa(lp5758
g2623
ag2624
aa(lp5759
g2626
ag2627
a(lp5760
I1
a(lp5761
F0.434211
aaI304
aa(lp5762
I1
a(lp5763
F0.212963
aaI216
aa(lp5764
I1
a(lp5765
F0.390845
aaI284
aa(lp5766
I1
a(lp5767
F0.262222
aaI225
aa(lp5768
I1
a(lp5769
F0.290749
aaI227
aa(lp5770
I1
a(lp5771
F0.281938
aaI227
aa(lp5772
I1
a(lp5773
F0.255906
aaI254
aaa(lp5774
g2641
ag2642
a(lp5775
I1
a(lp5776
F0.45122
aaI246
aa(lp5777
I1
a(lp5778
F0.208511
aaI235
aa(lp5779
I1
a(lp5780
F0.252033
aaI246
aa(lp5781
I1
a(lp5782
F0.305221
aaI249
aa(lp5783
I1
a(lp5784
F0.370213
aaI235
aaa(lp5785
g2644
ag2645
a(lp5786
I1
a(lp5787
F0.30102
aaI196
aa(lp5788
I1
a(lp5789
F0.512535
aaI359
aa(lp5790
I1
a(lp5791
F0.492401
aaI329
aa(lp5792
I1
a(lp5793
F0.52069
aaI290
aa(lp5794
I1
a(lp5795
F0.5
aaI296
aa(lp5796
I1
a(lp5797
F0.460432
aaI278
aa(lp5798
I1
a(lp5799
F0.435811
aaI296
aa(lp5800
I1
a(lp5801
F0.430605
aaI281
aa(lp5802
I1
a(lp5803
F0.517007
aaI294
aa(lp5804
I1
a(lp5805
F0.482085
aaI307
aa(lp5806
I1
a(lp5807
F0.429688
aaI256
aa(lp5808
I1
a(lp5809
F0.470149
aaI268
aa(lp5810
I1
a(lp5811
F0.452888
aaI329
aa(lp5812
I1
a(lp5813
F0.363636
aaI264
aa(lp5814
I1
a(lp5815
F0.535032
aaI314
aa(lp5816
I1
a(lp5817
F0.385714
aaI280
aa(lp5818
I1
a(lp5819
F0.329949
aaI197
aa(lp5820
I1
a(lp5821
F0.511864
aaI295
aa(lp5822
I1
a(lp5823
F0.337302
aaI252
aa(lp5824
I1
a(lp5825
F0.475
aaI320
aa(lp5826
I1
a(lp5827
F0.47351
aaI302
aa(lp5828
I1
a(lp5829
F0.52901
aaI293
aa(lp5830
I1
a(lp5831
F0.476667
aaI300
aa(lp5832
I1
a(lp5833
F0.493056
aaI288
aa(lp5834
I1
a(lp5835
F0.405109
aaI274
aa(lp5836
I1
a(lp5837
F0.460317
aaI315
aa(lp5838
I1
a(lp5839
F0.239766
aaI171
aaa(lp5840
g2687
ag2688
a(lp5841
I1
a(lp5842
F0.261959
aaI439
aa(lp5843
I1
a(lp5844
F0.221289
aaI357
aa(lp5845
I1
a(lp5846
F0.435443
aaI395
aa(lp5847
I1
a(lp5848
F0.371501
aaI393
aaa(lp5849
g2692
ag2693
a(lp5850
I1
a(lp5851
F0.256198
aaI242
aa(lp5852
I1
a(lp5853
F0.237705
aaI244
aa(lp5854
I1
a(lp5855
F0.223404
aaI188
aa(lp5856
I1
a(lp5857
F0.228261
aaI184
aa(lp5858
I1
a(lp5859
F0.251337
aaI187
aa(lp5860
I1
a(lp5861
F0.353488
aaI215
aa(lp5862
I1
a(lp5863
F0.4
aaI210
aa(lp5864
I1
a(lp5865
F0.342697
aaI178
aa(lp5866
I1
a(lp5867
F0.32
aaI175
aa(lp5868
I1
a(lp5869
F0.316583
aaI199
aa(lp5870
I1
a(lp5871
F0.467681
aaI263
aa(lp5872
I1
a(lp5873
F0.288043
aaI184
aa(lp5874
I1
a(lp5875
F0.374545
aaI275
aa(lp5876
I1
a(lp5877
F0.361022
aaI313
aa(lp5878
I1
a(lp5879
F0.393782
aaI193
aa(lp5880
I1
a(lp5881
F0.360465
aaI172
aa(lp5882
I1
a(lp5883
F0.449324
aaI296
aa(lp5884
I1
a(lp5885
F0.437736
aaI265
aa(lp5886
I1
a(lp5887
F0.453731
aaI335
aa(lp5888
I1
a(lp5889
F0.426282
aaI312
aa(lp5890
I1
a(lp5891
F0.468013
aaI297
aaa(lp5892
g2723
ag2724
aa(lp5893
g2728
ag2729
aa(lp5894
g2731
ag2732
a(lp5895
I1
a(lp5896
F0.294372
aaI231
aa(lp5897
I1
a(lp5898
F0.374449
aaI227
aa(lp5899
I1
a(lp5900
F0.3375
aaI240
aa(lp5901
I1
a(lp5902
F0.332046
aaI259
aa(lp5903
I1
a(lp5904
F0.501754
aaI285
aa(lp5905
I1
a(lp5906
F0.487805
aaI287
aa(lp5907
I1
a(lp5908
F0.207792
aaI231
aaa(lp5909
g2746
ag2747
aa(lp5910
g2759
ag2760
a(lp5911
I1
a(lp5912
F0.779494
aaI712
aa(lp5913
I1
a(lp5914
F0.343015
aaI723
aa(lp5915
I1
a(lp5916
F0.320197
aaI203
aa(lp5917
I1
a(lp5918
F0.339286
aaI280
aa(lp5919
I1
a(lp5920
F0.251429
aaI175
aa(lp5921
I1
a(lp5922
F0.323944
aaI213
aa(lp5923
I1
a(lp5924
F0.435897
aaI234
aa(lp5925
I1
a(lp5926
F0.815745
aaI597
aa(lp5927
I1
a(lp5928
F0.778672
aaI497
aa(lp5929
I1
a(lp5930
F0.2749
aaI251
aa(lp5931
I1
a(lp5932
F0.3361
aaI241
aa(lp5933
I1
a(lp5934
F0.305677
aaI229
aa(lp5935
I1
a(lp5936
F0.292683
aaI246
aa(lp5937
I1
a(lp5938
F0.451957
aaI281
aa(lp5939
I1
a(lp5940
F0.443662
aaI284
aa(lp5941
I1
a(lp5942
F0.34
aaI250
aa(lp5943
I1
a(lp5944
F0.314741
aaI251
aa(lp5945
I1
a(lp5946
F0.492308
aaI325
aa(lp5947
I1
a(lp5948
F0.330357
aaI224
aaa(lp5949
g2832
ag2833
aa(lp5950
g2843
ag2844
a(lp5951
I1
a(lp5952
F0.256484
aaI347
aaa(lp5953
g2846
ag2847
aa(lp5954
g2911
ag2912
aa(lp5955
g2914
ag2915
a(lp5956
I1
a(lp5957
F0.515337
aaI489
aa(lp5958
I1
a(lp5959
F0.513393
aaI224
aa(lp5960
I1
a(lp5961
F0.265537
aaI177
aa(lp5962
I1
a(lp5963
F0.359551
aaI356
aa(lp5964
I1
a(lp5965
F0.454861
aaI288
aa(lp5966
I1
a(lp5967
F0.30303
aaI132
aa(lp5968
I1
a(lp5969
F0.417582
aaI273
aa(lp5970
I1
a(lp5971
F0.279476
aaI229
aaa(lp5972
g2947
ag2948
aa(lp5973
g2950
ag2951
a(lp5974
I1
a(lp5975
F0.230392
aaI204
aa(lp5976
I1
a(lp5977
F0.206897
aaI203
aaa(lp5978
g2959
ag2960
a(lp5979
I1
a(lp5980
F0.437956
aaI274
aa(lp5981
I1
a(lp5982
F0.472924
aaI277
aa(lp5983
I1
a(lp5984
F0.0
aaI239
aa(lp5985
I1
a(lp5986
F0.459016
aaI305
aa(lp5987
I1
a(lp5988
F0.403571
aaI280
aa(lp5989
I1
a(lp5990
F0.40613
aaI261
aa(lp5991
I1
a(lp5992
F0.484099
aaI283
aa(lp5993
I1
a(lp5994
F0.46371
aaI248
aaa(lp5995
g2968
ag2969
aa(lp5996
g2977
ag2978
aa(lp5997
g2982
ag2983
a(lp5998
I1
a(lp5999
F0.33
aaI200
aaa(lp6000
g2999
ag3000
a(lp6001
I1
a(lp6002
F0.456522
aaI322
aa(lp6003
I1
a(lp6004
F0.504823
aaI311
aa(lp6005
I1
a(lp6006
F0.488449
aaI303
aa(lp6007
I1
a(lp6008
F0.460714
aaI280
aa(lp6009
I1
a(lp6010
F0.459649
aaI285
aaa(lp6011
g3002
ag3003
aa(lp6012
g3005
ag3006
aa(lp6013
g3008
ag3009
a(lp6014
I1
a(lp6015
F0.39834
aaI241
aa(lp6016
I1
a(lp6017
F0.346341
aaI205
aa(lp6018
I1
a(lp6019
F0.3
aaI190
aaa(lp6020
g3011
ag3012
aa(lp6021
g3026
ag3027
aa(lp6022
g3029
ag3030
aa(lp6023
g3042
ag3043
aa(lp6024
g3045
ag3046
aassS'diploids'
p6025
(dp6026
g3
(lp6027
(lp6028
S'scaffold2688_cov189'
p6029
aS'scaffold4386_cov298'
p6030
aa(lp6031
S'scaffold11291_cov250'
p6032
aS'scaffold3627_cov265'
p6033
a(lp6034
I1
a(lp6035
F0.304688
aaI256
aa(lp6036
I1
a(lp6037
F0.274611
aaI193
aa(lp6038
I1
a(lp6039
F0.266304
aaI184
aa(lp6040
I1
a(lp6041
F0.245902
aaI183
aa(lp6042
I1
a(lp6043
F0.268571
aaI175
aa(lp6044
I1
a(lp6045
F0.418605
aaI258
aa(lp6046
I1
a(lp6047
F0.557491
aaI287
aa(lp6048
I1
a(lp6049
F0.484375
aaI320
aa(lp6050
I1
a(lp6051
F0.438944
aaI303
aa(lp6052
I1
a(lp6053
F0.393939
aaI264
aa(lp6054
I1
a(lp6055
F0.428571
aaI252
aa(lp6056
I1
a(lp6057
F0.240196
aaI204
aaa(lp6058
S'scaffold1708_cov257'
p6059
aS'scaffold2991_cov233'
p6060
a(lp6061
I1
a(lp6062
F0.396154
aaI260
aa(lp6063
I1
a(lp6064
F0.469388
aaI294
aa(lp6065
I1
a(lp6066
F0.445183
aaI301
aa(lp6067
I1
a(lp6068
F0.316583
aaI199
aa(lp6069
I1
a(lp6070
F0.354839
aaI217
aa(lp6071
I1
a(lp6072
F0.408511
aaI235
aa(lp6073
I1
a(lp6074
F0.5
aaI244
aa(lp6075
I1
a(lp6076
F0.536364
aaI330
aa(lp6077
I1
a(lp6078
F0.331839
aaI223
aa(lp6079
I1
a(lp6080
F0.486339
aaI366
aa(lp6081
I1
a(lp6082
F0.40636
aaI283
aa(lp6083
I1
a(lp6084
F0.353211
aaI218
aa(lp6085
I1
a(lp6086
F0.237374
aaI198
aa(lp6087
I1
a(lp6088
F0.453782
aaI238
aa(lp6089
I1
a(lp6090
F0.421818
aaI275
aa(lp6091
I1
a(lp6092
F0.22
aaI200
aa(lp6093
I1
a(lp6094
F0.236364
aaI220
aaa(lp6095
S'scaffold4798_cov206'
p6096
aS'scaffold8289_cov180'
p6097
a(lp6098
I1
a(lp6099
F0.51746
aaI315
aa(lp6100
I1
a(lp6101
F0.337349
aaI249
aa(lp6102
I1
a(lp6103
F0.402878
aaI278
aa(lp6104
I1
a(lp6105
F0.234568
aaI324
aaa(lp6106
S'scaffold47935_cov305'
p6107
aS'scaffold774_cov229'
p6108
aa(lp6109
S'scaffold1469_cov209'
p6110
aS'scaffold3829_cov235'
p6111
a(lp6112
I1
a(lp6113
F0.419162
aaI334
aa(lp6114
I1
a(lp6115
F0.204188
aaI382
aaa(lp6116
S'scaffold3994_cov307'
p6117
aS'scaffold78_cov298'
p6118
aa(lp6119
S'scaffold19250_cov205'
p6120
aS'scaffold8056_cov196'
p6121
a(lp6122
I1
a(lp6123
F0.225275
aaI182
aaa(lp6124
S'scaffold499_cov259'
p6125
aS'scaffold8360_cov206'
p6126
a(lp6127
I1
a(lp6128
F0.313953
aaI258
aa(lp6129
I1
a(lp6130
F0.252294
aaI218
aa(lp6131
I1
a(lp6132
F0.316406
aaI256
aa(lp6133
I1
a(lp6134
F0.230337
aaI178
aa(lp6135
I1
a(lp6136
F0.20339
aaI177
aa(lp6137
I1
a(lp6138
F0.213018
aaI169
aa(lp6139
I1
a(lp6140
F0.201031
aaI194
aaa(lp6141
S'scaffold11346_cov240'
p6142
aS'scaffold7912_cov254'
p6143
a(lp6144
I1
a(lp6145
F0.429719
aaI249
aa(lp6146
I1
a(lp6147
F0.441606
aaI274
aa(lp6148
I1
a(lp6149
F0.433213
aaI277
aa(lp6150
I1
a(lp6151
F0.403448
aaI290
aa(lp6152
I1
a(lp6153
F0.332
aaI250
aa(lp6154
I1
a(lp6155
F0.209184
aaI196
aa(lp6156
I1
a(lp6157
F0.350649
aaI231
aa(lp6158
I1
a(lp6159
F0.324324
aaI222
aa(lp6160
I1
a(lp6161
F0.32906
aaI234
aa(lp6162
I1
a(lp6163
F0.336585
aaI205
aa(lp6164
I1
a(lp6165
F0.242857
aaI210
aa(lp6166
I1
a(lp6167
F0.266667
aaI225
aa(lp6168
I1
a(lp6169
F0.487273
aaI275
aaa(lp6170
S'scaffold2747_cov252'
p6171
aS'scaffold35860_cov272'
p6172
a(lp6173
I1
a(lp6174
F0.435331
aaI317
aaa(lp6175
S'scaffold1766_cov198'
p6176
aS'scaffold607_cov179'
p6177
aa(lp6178
S'scaffold15165_cov249'
p6179
aS'scaffold35835_cov299'
p6180
aa(lp6181
S'scaffold51278_cov326'
p6182
aS'scaffold965_cov205'
p6183
a(lp6184
I1
a(lp6185
F0.362869
aaI237
aa(lp6186
I1
a(lp6187
F0.298507
aaI201
aaa(lp6188
S'scaffold12689_cov256'
p6189
aS'scaffold7460_cov152'
p6190
aa(lp6191
S'scaffold2175_cov210'
p6192
aS'scaffold3666_cov227'
p6193
aa(lp6194
S'scaffold10188_cov228'
p6195
aS'scaffold1228_cov289'
p6196
aa(lp6197
S'scaffold16908_cov201'
p6198
aS'scaffold4051_cov206'
p6199
a(lp6200
I1
a(lp6201
F0.302632
aaI152
aa(lp6202
I1
a(lp6203
F0.399194
aaI248
aa(lp6204
I1
a(lp6205
F0.345622
aaI217
aaa(lp6206
S'scaffold27882_cov209'
p6207
aS'scaffold36175_cov226'
p6208
aa(lp6209
S'scaffold11428_cov295'
p6210
aS'scaffold42512_cov294'
p6211
aa(lp6212
S'scaffold3083_cov378'
p6213
aS'scaffold34652_cov210'
p6214
a(lp6215
I1
a(lp6216
F0.2
aaI170
aa(lp6217
I1
a(lp6218
F0.3125
aaI208
aa(lp6219
I1
a(lp6220
F0.273438
aaI256
aa(lp6221
I1
a(lp6222
F0.267206
aaI247
aa(lp6223
I1
a(lp6224
F0.247525
aaI202
aa(lp6225
I1
a(lp6226
F0.204678
aaI171
aaa(lp6227
S'scaffold3813_cov275'
p6228
aS'scaffold6764_cov231'
p6229
a(lp6230
I1
a(lp6231
F0.307377
aaI244
aa(lp6232
I1
a(lp6233
F0.360324
aaI247
aa(lp6234
I1
a(lp6235
F0.371179
aaI229
aa(lp6236
I1
a(lp6237
F0.458042
aaI286
aa(lp6238
I1
a(lp6239
F0.253589
aaI209
aa(lp6240
I1
a(lp6241
F0.419014
aaI284
aa(lp6242
I1
a(lp6243
F0.514851
aaI303
aa(lp6244
I1
a(lp6245
F0.479167
aaI288
aa(lp6246
I1
a(lp6247
F0.294393
aaI214
aa(lp6248
I1
a(lp6249
F0.271429
aaI210
aa(lp6250
I1
a(lp6251
F0.345528
aaI246
aa(lp6252
I1
a(lp6253
F0.317597
aaI233
aa(lp6254
I1
a(lp6255
F0.424028
aaI283
aaa(lp6256
S'scaffold16317_cov210'
p6257
aS'scaffold6713_cov225'
p6258
a(lp6259
I1
a(lp6260
F0.292887
aaI239
aa(lp6261
I1
a(lp6262
F0.280612
aaI196
aa(lp6263
I1
a(lp6264
F0.4
aaI200
aa(lp6265
I1
a(lp6266
F0.430556
aaI216
aa(lp6267
I1
a(lp6268
F0.404878
aaI205
aa(lp6269
I1
a(lp6270
F0.449045
aaI314
aaa(lp6271
S'scaffold2105_cov193'
p6272
aS'scaffold4704_cov190'
p6273
a(lp6274
I1
a(lp6275
F0.411483
aaI209
aaa(lp6276
S'scaffold19913_cov154'
p6277
aS'scaffold35508_cov210'
p6278
aa(lp6279
S'scaffold34240_cov291'
p6280
aS'scaffold43247_cov305'
p6281
aa(lp6282
S'scaffold34969_cov237'
p6283
aS'scaffold5373_cov204'
p6284
a(lp6285
I1
a(lp6286
F0.292308
aaI195
aa(lp6287
I1
a(lp6288
F0.37931
aaI261
aa(lp6289
I1
a(lp6290
F0.482201
aaI309
aa(lp6291
I1
a(lp6292
F0.340136
aaI294
aa(lp6293
I1
a(lp6294
F0.310469
aaI277
aa(lp6295
I1
a(lp6296
F0.335689
aaI283
aa(lp6297
I1
a(lp6298
F0.32618
aaI233
aa(lp6299
I1
a(lp6300
F0.299065
aaI214
aa(lp6301
I1
a(lp6302
F0.292373
aaI236
aa(lp6303
I1
a(lp6304
F0.275194
aaI258
aaa(lp6305
S'scaffold2155_cov181'
p6306
aS'scaffold54209_cov305'
p6307
aa(lp6308
S'scaffold12582_cov223'
p6309
aS'scaffold3805_cov206'
p6310
a(lp6311
I1
a(lp6312
F0.308824
aaI272
aa(lp6313
I1
a(lp6314
F0.294776
aaI268
aa(lp6315
I1
a(lp6316
F0.478873
aaI284
aa(lp6317
I1
a(lp6318
F0.472222
aaI288
aa(lp6319
I1
a(lp6320
F0.26601
aaI203
aa(lp6321
I1
a(lp6322
F0.311024
aaI254
aa(lp6323
I1
a(lp6324
F0.236287
aaI237
aa(lp6325
I1
a(lp6326
F0.251101
aaI227
aa(lp6327
I1
a(lp6328
F0.289362
aaI235
aaa(lp6329
S'scaffold625_cov187'
p6330
aS'scaffold8957_cov170'
p6331
a(lp6332
I1
a(lp6333
F0.284946
aaI186
aa(lp6334
I1
a(lp6335
F0.221053
aaI190
aa(lp6336
I1
a(lp6337
F0.278261
aaI230
aa(lp6338
I1
a(lp6339
F0.236967
aaI211
aa(lp6340
I1
a(lp6341
F0.411348
aaI282
aa(lp6342
I1
a(lp6343
F0.458204
aaI323
aa(lp6344
I1
a(lp6345
F0.519868
aaI302
aa(lp6346
I1
a(lp6347
F0.371324
aaI272
aa(lp6348
I1
a(lp6349
F0.349315
aaI292
aa(lp6350
I1
a(lp6351
F0.329897
aaI291
aa(lp6352
I1
a(lp6353
F0.327338
aaI278
aa(lp6354
I1
a(lp6355
F0.314079
aaI277
aa(lp6356
I1
a(lp6357
F0.315175
aaI257
aa(lp6358
I1
a(lp6359
F0.322581
aaI186
aa(lp6360
I1
a(lp6361
F0.26455
aaI189
aa(lp6362
I1
a(lp6363
F0.281407
aaI199
aa(lp6364
I1
a(lp6365
F0.256545
aaI191
aaa(lp6366
S'scaffold1488_cov177'
p6367
aS'scaffold7765_cov174'
p6368
a(lp6369
I1
a(lp6370
F0.33526
aaI173
aa(lp6371
I1
a(lp6372
F0.379121
aaI182
aa(lp6373
I1
a(lp6374
F0.378788
aaI198
aa(lp6375
I1
a(lp6376
F0.373786
aaI206
aa(lp6377
I1
a(lp6378
F0.380734
aaI218
aa(lp6379
I1
a(lp6380
F0.390351
aaI228
aa(lp6381
I1
a(lp6382
F0.242236
aaI161
aaa(lp6383
S'scaffold23025_cov260'
p6384
aS'scaffold34181_cov257'
p6385
a(lp6386
I1
a(lp6387
F0.482394
aaI284
aa(lp6388
I1
a(lp6389
F0.498452
aaI323
aa(lp6390
I1
a(lp6391
F0.48495
aaI299
aa(lp6392
I1
a(lp6393
F0.479554
aaI269
aa(lp6394
I1
a(lp6395
F0.448718
aaI234
aa(lp6396
I1
a(lp6397
F0.466667
aaI270
aa(lp6398
I1
a(lp6399
F0.443089
aaI246
aa(lp6400
I1
a(lp6401
F0.528814
aaI295
aa(lp6402
I1
a(lp6403
F0.509579
aaI261
aa(lp6404
I1
a(lp6405
F0.429167
aaI240
aa(lp6406
I1
a(lp6407
F0.334677
aaI248
aa(lp6408
I1
a(lp6409
F0.340206
aaI194
aa(lp6410
I1
a(lp6411
F0.366667
aaI210
aa(lp6412
I1
a(lp6413
F0.374449
aaI227
aa(lp6414
I1
a(lp6415
F0.418251
aaI263
aa(lp6416
I1
a(lp6417
F0.407643
aaI157
aaa(lp6418
S'scaffold12541_cov206'
p6419
aS'scaffold1867_cov235'
p6420
a(lp6421
I1
a(lp6422
F0.321429
aaI224
aa(lp6423
I1
a(lp6424
F0.509677
aaI310
aaa(lp6425
S'scaffold417_cov219'
p6426
aS'scaffold7776_cov261'
p6427
a(lp6428
I1
a(lp6429
F0.329114
aaI237
aa(lp6430
I1
a(lp6431
F0.375566
aaI221
aa(lp6432
I1
a(lp6433
F0.368254
aaI315
aa(lp6434
I1
a(lp6435
F0.429185
aaI233
aa(lp6436
I1
a(lp6437
F0.417293
aaI266
aa(lp6438
I1
a(lp6439
F0.253456
aaI217
aa(lp6440
I1
a(lp6441
F0.414286
aaI210
aa(lp6442
I1
a(lp6443
F0.317647
aaI170
aa(lp6444
I1
a(lp6445
F0.319588
aaI194
aa(lp6446
I1
a(lp6447
F0.316832
aaI202
aa(lp6448
I1
a(lp6449
F0.292237
aaI219
aa(lp6450
I1
a(lp6451
F0.286996
aaI223
aa(lp6452
I1
a(lp6453
F0.392694
aaI219
aa(lp6454
I1
a(lp6455
F0.318182
aaI198
aa(lp6456
I1
a(lp6457
F0.294416
aaI197
aa(lp6458
I1
a(lp6459
F0.254464
aaI224
aa(lp6460
I1
a(lp6461
F0.304167
aaI240
aa(lp6462
I1
a(lp6463
F0.370044
aaI227
aa(lp6464
I1
a(lp6465
F0.240642
aaI187
aa(lp6466
I1
a(lp6467
F0.327586
aaI174
aa(lp6468
I1
a(lp6469
F0.296296
aaI162
aa(lp6470
I1
a(lp6471
F0.410959
aaI219
aa(lp6472
I1
a(lp6473
F0.384058
aaI276
aa(lp6474
I1
a(lp6475
F0.512195
aaI246
aa(lp6476
I1
a(lp6477
F0.50813
aaI246
aa(lp6478
I1
a(lp6479
F0.320225
aaI178
aaa(lp6480
S'scaffold3425_cov288'
p6481
aS'scaffold4454_cov228'
p6482
a(lp6483
I1
a(lp6484
F0.519164
aaI287
aa(lp6485
I1
a(lp6486
F0.303965
aaI227
aa(lp6487
I1
a(lp6488
F0.327869
aaI183
aa(lp6489
I1
a(lp6490
F0.234884
aaI430
aa(lp6491
I1
a(lp6492
F0.320917
aaI349
aa(lp6493
I1
a(lp6494
F0.713193
aaI523
aa(lp6495
I1
a(lp6496
F0.207493
aaI347
aa(lp6497
I1
a(lp6498
F0.200957
aaI209
aaa(lp6499
S'scaffold3656_cov164'
p6500
aS'scaffold7174_cov157'
p6501
a(lp6502
I1
a(lp6503
F0.290909
aaI220
aa(lp6504
I1
a(lp6505
F0.2891
aaI211
aa(lp6506
I1
a(lp6507
F0.253807
aaI197
aa(lp6508
I1
a(lp6509
F0.209424
aaI191
aa(lp6510
I1
a(lp6511
F0.213904
aaI187
aaa(lp6512
S'scaffold114_cov204'
p6513
aS'scaffold12391_cov201'
p6514
a(lp6515
I1
a(lp6516
F0.441696
aaI283
aaa(lp6517
S'scaffold14835_cov172'
p6518
aS'scaffold3075_cov156'
p6519
aa(lp6520
S'scaffold1507_cov164'
p6521
aS'scaffold34923_cov148'
p6522
a(lp6523
I1
a(lp6524
F0.36036
aaI222
aaa(lp6525
S'scaffold13021_cov287'
p6526
aS'scaffold3989_cov265'
p6527
a(lp6528
I1
a(lp6529
F0.310185
aaI216
aa(lp6530
I1
a(lp6531
F0.509259
aaI324
aa(lp6532
I1
a(lp6533
F0.51711
aaI263
aa(lp6534
I1
a(lp6535
F0.496032
aaI252
aaa(lp6536
S'scaffold2864_cov140'
p6537
aS'scaffold6319_cov169'
p6538
a(lp6539
I1
a(lp6540
F0.305556
aaI216
aaa(lp6541
S'scaffold2759_cov181'
p6542
aS'scaffold8772_cov153'
p6543
aa(lp6544
S'scaffold4391_cov207'
p6545
aS'scaffold9452_cov208'
p6546
a(lp6547
I1
a(lp6548
F0.305
aaI200
aa(lp6549
I1
a(lp6550
F0.303867
aaI181
aa(lp6551
I1
a(lp6552
F0.2
aaI170
aa(lp6553
I1
a(lp6554
F0.473118
aaI279
aa(lp6555
I1
a(lp6556
F0.363363
aaI333
aaa(lp6557
S'scaffold1208_cov229'
p6558
aS'scaffold1508_cov264'
p6559
a(lp6560
I1
a(lp6561
F0.493464
aaI306
aa(lp6562
I1
a(lp6563
F0.430657
aaI274
aa(lp6564
I1
a(lp6565
F0.411321
aaI265
aa(lp6566
I1
a(lp6567
F0.392453
aaI265
aa(lp6568
I1
a(lp6569
F0.5
aaI208
aaa(lp6570
S'scaffold11822_cov236'
p6571
aS'scaffold34659_cov215'
p6572
a(lp6573
I1
a(lp6574
F0.354545
aaI220
aa(lp6575
I1
a(lp6576
F0.27619
aaI210
aa(lp6577
I1
a(lp6578
F0.274882
aaI211
aa(lp6579
I1
a(lp6580
F0.340081
aaI247
aa(lp6581
I1
a(lp6582
F0.347826
aaI253
aa(lp6583
I1
a(lp6584
F0.416404
aaI317
aa(lp6585
I1
a(lp6586
F0.298429
aaI191
aa(lp6587
I1
a(lp6588
F0.310881
aaI193
aa(lp6589
I1
a(lp6590
F0.328767
aaI219
aa(lp6591
I1
a(lp6592
F0.441472
aaI299
aa(lp6593
I1
a(lp6594
F0.369668
aaI211
aa(lp6595
I1
a(lp6596
F0.426295
aaI251
aaa(lp6597
S'scaffold4643_cov233'
p6598
aS'scaffold7882_cov228'
p6599
a(lp6600
I1
a(lp6601
F0.277311
aaI357
aa(lp6602
I1
a(lp6603
F0.273438
aaI384
aa(lp6604
I1
a(lp6605
F0.533569
aaI283
aaa(lp6606
S'scaffold2260_cov157'
p6607
aS'scaffold23025_cov260'
p6608
aa(lp6609
S'scaffold6544_cov240'
p6610
aS'scaffold8921_cov268'
p6611
a(lp6612
I1
a(lp6613
F0.534202
aaI307
aa(lp6614
I1
a(lp6615
F0.470817
aaI257
aa(lp6616
I1
a(lp6617
F0.534483
aaI348
aa(lp6618
I1
a(lp6619
F0.369295
aaI241
aa(lp6620
I1
a(lp6621
F0.369898
aaI392
aa(lp6622
I1
a(lp6623
F0.272506
aaI411
aaa(lp6624
S'scaffold35079_cov288'
p6625
aS'scaffold35849_cov287'
p6626
a(lp6627
I1
a(lp6628
F0.227027
aaI185
aa(lp6629
I1
a(lp6630
F0.579767
aaI257
aa(lp6631
I1
a(lp6632
F0.44586
aaI314
aa(lp6633
I1
a(lp6634
F0.457447
aaI282
aa(lp6635
I1
a(lp6636
F0.445087
aaI346
aa(lp6637
I1
a(lp6638
F0.485207
aaI169
aa(lp6639
I1
a(lp6640
F0.508197
aaI244
aa(lp6641
I1
a(lp6642
F0.466887
aaI302
aa(lp6643
I1
a(lp6644
F0.360465
aaI258
aa(lp6645
I1
a(lp6646
F0.564103
aaI273
aa(lp6647
I1
a(lp6648
F0.34507
aaI284
aa(lp6649
I1
a(lp6650
F0.343629
aaI259
aa(lp6651
I1
a(lp6652
F0.498221
aaI281
aa(lp6653
I1
a(lp6654
F0.381166
aaI223
aa(lp6655
I1
a(lp6656
F0.438247
aaI251
aa(lp6657
I1
a(lp6658
F0.442446
aaI278
aa(lp6659
I1
a(lp6660
F0.449275
aaI276
aa(lp6661
I1
a(lp6662
F0.477352
aaI287
aa(lp6663
I1
a(lp6664
F0.538721
aaI297
aa(lp6665
I1
a(lp6666
F0.528239
aaI301
aa(lp6667
I1
a(lp6668
F0.460481
aaI291
aa(lp6669
I1
a(lp6670
F0.498361
aaI305
aa(lp6671
I1
a(lp6672
F0.504823
aaI311
aa(lp6673
I1
a(lp6674
F0.442509
aaI287
aa(lp6675
I1
a(lp6676
F0.4791
aaI311
aa(lp6677
I1
a(lp6678
F0.592334
aaI287
aa(lp6679
I1
a(lp6680
F0.457875
aaI273
aa(lp6681
I1
a(lp6682
F0.25
aaI196
aaa(lp6683
S'scaffold11990_cov204'
p6684
aS'scaffold15595_cov207'
p6685
aa(lp6686
S'scaffold1512_cov178'
p6687
aS'scaffold7068_cov172'
p6688
a(lp6689
I1
a(lp6690
F0.308642
aaI243
aaa(lp6691
S'scaffold13758_cov189'
p6692
aS'scaffold7307_cov224'
p6693
a(lp6694
I1
a(lp6695
F0.288889
aaI180
aa(lp6696
I1
a(lp6697
F0.239766
aaI171
aa(lp6698
I1
a(lp6699
F0.414286
aaI210
aa(lp6700
I1
a(lp6701
F0.453271
aaI214
aa(lp6702
I1
a(lp6703
F0.44898
aaI245
aa(lp6704
I1
a(lp6705
F0.498069
aaI259
aa(lp6706
I1
a(lp6707
F0.438596
aaI228
aa(lp6708
I1
a(lp6709
F0.429825
aaI228
aa(lp6710
I1
a(lp6711
F0.470833
aaI240
aa(lp6712
I1
a(lp6713
F0.504132
aaI242
aa(lp6714
I1
a(lp6715
F0.482143
aaI224
aa(lp6716
I1
a(lp6717
F0.453125
aaI192
aa(lp6718
I1
a(lp6719
F0.82314
aaI605
aaa(lp6720
S'scaffold292_cov203'
p6721
aS'scaffold4488_cov207'
p6722
aa(lp6723
S'scaffold11481_cov169'
p6724
aS'scaffold21751_cov240'
p6725
a(lp6726
I1
a(lp6727
F0.251613
aaI155
aa(lp6728
I1
a(lp6729
F0.28866
aaI194
aa(lp6730
I1
a(lp6731
F0.234043
aaI188
aa(lp6732
I1
a(lp6733
F0.228571
aaI175
aa(lp6734
I1
a(lp6735
F0.29717
aaI212
aa(lp6736
I1
a(lp6737
F0.360731
aaI219
aa(lp6738
I1
a(lp6739
F0.383178
aaI214
aa(lp6740
I1
a(lp6741
F0.379147
aaI211
aa(lp6742
I1
a(lp6743
F0.364486
aaI214
aa(lp6744
I1
a(lp6745
F0.372093
aaI215
aa(lp6746
I1
a(lp6747
F0.382775
aaI209
aa(lp6748
I1
a(lp6749
F0.380952
aaI210
aa(lp6750
I1
a(lp6751
F0.393701
aaI254
aa(lp6752
I1
a(lp6753
F0.294686
aaI207
aa(lp6754
I1
a(lp6755
F0.277228
aaI202
aa(lp6756
I1
a(lp6757
F0.267606
aaI213
aa(lp6758
I1
a(lp6759
F0.266355
aaI214
aa(lp6760
I1
a(lp6761
F0.283784
aaI222
aa(lp6762
I1
a(lp6763
F0.219895
aaI191
aa(lp6764
I1
a(lp6765
F0.297297
aaI185
aa(lp6766
I1
a(lp6767
F0.217949
aaI156
aa(lp6768
I1
a(lp6769
F0.220994
aaI181
aa(lp6770
I1
a(lp6771
F0.229885
aaI174
aa(lp6772
I1
a(lp6773
F0.22807
aaI171
aa(lp6774
I1
a(lp6775
F0.277778
aaI162
aa(lp6776
I1
a(lp6777
F0.404669
aaI257
aa(lp6778
I1
a(lp6779
F0.459459
aaI296
aa(lp6780
I1
a(lp6781
F0.457338
aaI293
aa(lp6782
I1
a(lp6783
F0.352941
aaI187
aaa(lp6784
S'scaffold11838_cov280'
p6785
aS'scaffold3183_cov273'
p6786
a(lp6787
I1
a(lp6788
F0.266234
aaI154
aa(lp6789
I1
a(lp6790
F0.223684
aaI152
aa(lp6791
I1
a(lp6792
F0.447964
aaI221
aaa(lp6793
S'scaffold39652_cov294'
p6794
aS'scaffold6762_cov212'
p6795
aa(lp6796
S'scaffold2115_cov223'
p6797
aS'scaffold4466_cov187'
p6798
aa(lp6799
S'scaffold4640_cov176'
p6800
aS'scaffold6032_cov173'
p6801
a(lp6802
I1
a(lp6803
F0.461818
aaI275
aa(lp6804
I1
a(lp6805
F0.398406
aaI251
aa(lp6806
I1
a(lp6807
F0.466667
aaI300
aa(lp6808
I1
a(lp6809
F0.345794
aaI214
aa(lp6810
I1
a(lp6811
F0.334842
aaI221
aa(lp6812
I1
a(lp6813
F0.350649
aaI231
aa(lp6814
I1
a(lp6815
F0.346774
aaI248
aa(lp6816
I1
a(lp6817
F0.347826
aaI253
aa(lp6818
I1
a(lp6819
F0.341176
aaI255
aa(lp6820
I1
a(lp6821
F0.283843
aaI229
aa(lp6822
I1
a(lp6823
F0.306383
aaI235
aa(lp6824
I1
a(lp6825
F0.29661
aaI236
aa(lp6826
I1
a(lp6827
F0.221698
aaI212
aa(lp6828
I1
a(lp6829
F0.218543
aaI151
aa(lp6830
I1
a(lp6831
F0.275229
aaI218
aaa(lp6832
S'scaffold6144_cov377'
p6833
aS'scaffold6254_cov268'
p6834
aa(lp6835
S'scaffold35739_cov310'
p6836
aS'scaffold36798_cov326'
p6837
aa(lp6838
S'scaffold11329_cov238'
p6839
aS'scaffold3410_cov258'
p6840
a(lp6841
I1
a(lp6842
F0.478764
aaI259
aa(lp6843
I1
a(lp6844
F0.408907
aaI247
aa(lp6845
I1
a(lp6846
F0.369863
aaI292
aa(lp6847
I1
a(lp6848
F0.388316
aaI291
aa(lp6849
I1
a(lp6850
F0.482639
aaI288
aa(lp6851
I1
a(lp6852
F0.52901
aaI293
aa(lp6853
I1
a(lp6854
F0.330357
aaI224
aa(lp6855
I1
a(lp6856
F0.374468
aaI235
aa(lp6857
I1
a(lp6858
F0.481356
aaI295
aa(lp6859
I1
a(lp6860
F0.391586
aaI309
aa(lp6861
I1
a(lp6862
F0.375776
aaI322
aa(lp6863
I1
a(lp6864
F0.40597
aaI335
aa(lp6865
I1
a(lp6866
F0.455782
aaI294
aa(lp6867
I1
a(lp6868
F0.348936
aaI235
aa(lp6869
I1
a(lp6870
F0.331878
aaI229
aa(lp6871
I1
a(lp6872
F0.362069
aaI232
aa(lp6873
I1
a(lp6874
F0.363229
aaI223
aaa(lp6875
S'scaffold1134_cov233'
p6876
aS'scaffold9743_cov237'
p6877
aa(lp6878
S'scaffold22748_cov150'
p6879
aS'scaffold2939_cov159'
p6880
aa(lp6881
S'scaffold16898_cov268'
p6882
aS'scaffold42181_cov294'
p6883
aa(lp6884
S'scaffold662_cov282'
p6885
aS'scaffold663_cov256'
p6886
a(lp6887
I1
a(lp6888
F0.454248
aaI306
aa(lp6889
I1
a(lp6890
F0.27897
aaI233
aa(lp6891
I1
a(lp6892
F0.40678
aaI295
aa(lp6893
I1
a(lp6894
F0.498127
aaI267
aa(lp6895
I1
a(lp6896
F0.339286
aaI168
aa(lp6897
I1
a(lp6898
F0.369159
aaI214
aa(lp6899
I1
a(lp6900
F0.384615
aaI260
aa(lp6901
I1
a(lp6902
F0.373541
aaI257
aag5781
ag5783
a(lp6903
I1
a(lp6904
F0.238938
aaI226
aa(lp6905
I1
a(lp6906
F0.261905
aaI210
aa(lp6907
I1
a(lp6908
F0.454545
aaI297
aa(lp6909
I1
a(lp6910
F0.490798
aaI326
aa(lp6911
I1
a(lp6912
F0.33
aaI200
aa(lp6913
I1
a(lp6914
F0.508418
aaI297
aa(lp6915
I1
a(lp6916
F0.53871
aaI310
aa(lp6917
I1
a(lp6918
F0.535714
aaI280
aa(lp6919
I1
a(lp6920
F0.413386
aaI254
aa(lp6921
I1
a(lp6922
F0.349398
aaI249
aa(lp6923
I1
a(lp6924
F0.292793
aaI222
aa(lp6925
I1
a(lp6926
F0.30888
aaI259
aa(lp6927
I1
a(lp6928
F0.26087
aaI207
aa(lp6929
I1
a(lp6930
F0.353712
aaI229
aa(lp6931
I1
a(lp6932
F0.453271
aaI214
aa(lp6933
I1
a(lp6934
F0.342995
aaI207
aa(lp6935
I1
a(lp6936
F0.44206
aaI233
aa(lp6937
I1
a(lp6938
F0.795918
aaI686
aa(lp6939
I1
a(lp6940
F0.645714
aaI350
aa(lp6941
I1
a(lp6942
F0.685567
aaI388
aa(lp6943
I1
a(lp6944
F0.465116
aaI215
aaa(lp6945
S'scaffold7242_cov266'
p6946
aS'scaffold7661_cov288'
p6947
aa(lp6948
S'scaffold12609_cov286'
p6949
aS'scaffold3427_cov261'
p6950
aa(lp6951
S'scaffold2730_cov266'
p6952
aS'scaffold3415_cov306'
p6953
a(lp6954
I1
a(lp6955
F0.201878
aaI213
aa(lp6956
I1
a(lp6957
F0.365759
aaI257
aa(lp6958
I1
a(lp6959
F0.382114
aaI246
aa(lp6960
I1
a(lp6961
F0.357934
aaI271
aaa(lp6962
S'scaffold10988_cov149'
p6963
aS'scaffold5533_cov227'
p6964
aa(lp6965
S'scaffold2688_cov189'
p6966
aS'scaffold34993_cov283'
p6967
a(lp6968
I1
a(lp6969
F0.411765
aaI272
aa(lp6970
I1
a(lp6971
F0.406542
aaI214
aa(lp6972
I1
a(lp6973
F0.391111
aaI225
aa(lp6974
I1
a(lp6975
F0.363208
aaI212
aa(lp6976
I1
a(lp6977
F0.336134
aaI238
aaa(lp6978
S'scaffold14801_cov267'
p6979
aS'scaffold4703_cov265'
p6980
a(lp6981
I1
a(lp6982
F0.401826
aaI219
aa(lp6983
I1
a(lp6984
F0.46696
aaI227
aa(lp6985
I1
a(lp6986
F0.485507
aaI276
aa(lp6987
I1
a(lp6988
F0.510067
aaI298
aa(lp6989
I1
a(lp6990
F0.365079
aaI252
aa(lp6991
I1
a(lp6992
F0.387352
aaI253
aa(lp6993
I1
a(lp6994
F0.484848
aaI297
aa(lp6995
I1
a(lp6996
F0.331683
aaI202
aa(lp6997
I1
a(lp6998
F0.507353
aaI272
aaa(lp6999
S'scaffold15715_cov311'
p7000
aS'scaffold34618_cov281'
p7001
aa(lp7002
S'scaffold978_cov183'
p7003
aS'scaffold979_cov154'
p7004
aa(lp7005
S'scaffold35711_cov297'
p7006
aS'scaffold6027_cov281'
p7007
a(lp7008
I1
a(lp7009
F0.536585
aaI328
aa(lp7010
I1
a(lp7011
F0.293233
aaI266
aa(lp7012
I1
a(lp7013
F0.29845
aaI258
aa(lp7014
I1
a(lp7015
F0.26749
aaI243
aa(lp7016
I1
a(lp7017
F0.347107
aaI242
aa(lp7018
I1
a(lp7019
F0.391304
aaI253
aa(lp7020
I1
a(lp7021
F0.41358
aaI324
aa(lp7022
I1
a(lp7023
F0.498575
aaI351
aa(lp7024
I1
a(lp7025
F0.501401
aaI357
aa(lp7026
I1
a(lp7027
F0.536977
aaI311
aa(lp7028
I1
a(lp7029
F0.512422
aaI322
aa(lp7030
I1
a(lp7031
F0.358268
aaI254
aa(lp7032
I1
a(lp7033
F0.330909
aaI275
aa(lp7034
I1
a(lp7035
F0.467836
aaI342
aa(lp7036
I1
a(lp7037
F0.341564
aaI243
aa(lp7038
I1
a(lp7039
F0.358333
aaI240
aa(lp7040
I1
a(lp7041
F0.532258
aaI310
aa(lp7042
I1
a(lp7043
F0.513274
aaI339
aa(lp7044
I1
a(lp7045
F0.496753
aaI308
aa(lp7046
I1
a(lp7047
F0.506667
aaI300
aa(lp7048
I1
a(lp7049
F0.496429
aaI280
aa(lp7050
I1
a(lp7051
F0.482315
aaI311
aa(lp7052
I1
a(lp7053
F0.402214
aaI271
aa(lp7054
I1
a(lp7055
F0.392226
aaI283
aa(lp7056
I1
a(lp7057
F0.406015
aaI133
aa(lp7058
I1
a(lp7059
F0.424242
aaI297
aa(lp7060
I1
a(lp7061
F0.473282
aaI262
aa(lp7062
I1
a(lp7063
F0.501718
aaI291
aa(lp7064
I1
a(lp7065
F0.514851
aaI303
aa(lp7066
I1
a(lp7067
F0.540453
aaI309
aa(lp7068
I1
a(lp7069
F0.49848
aaI329
aa(lp7070
I1
a(lp7071
F0.495082
aaI305
aa(lp7072
I1
a(lp7073
F0.366935
aaI248
aa(lp7074
I1
a(lp7075
F0.46831
aaI284
aa(lp7076
I1
a(lp7077
F0.485915
aaI284
aa(lp7078
I1
a(lp7079
F0.493103
aaI290
aa(lp7080
I1
a(lp7081
F0.48
aaI300
aaa(lp7082
S'scaffold33716_cov277'
p7083
aS'scaffold58_cov215'
p7084
a(lp7085
I1
a(lp7086
F0.373737
aaI198
aa(lp7087
I1
a(lp7088
F0.335135
aaI185
aa(lp7089
I1
a(lp7090
F0.346341
aaI205
aa(lp7091
I1
a(lp7092
F0.347032
aaI219
aaa(lp7093
S'scaffold3562_cov182'
p7094
aS'scaffold7038_cov214'
p7095
a(lp7096
I1
a(lp7097
F0.222222
aaI171
aa(lp7098
I1
a(lp7099
F0.248869
aaI221
aa(lp7100
I1
a(lp7101
F0.347826
aaI230
aa(lp7102
I1
a(lp7103
F0.260223
aaI269
aa(lp7104
I1
a(lp7105
F0.306122
aaI196
aa(lp7106
I1
a(lp7107
F0.348837
aaI172
aaa(lp7108
S'scaffold4451_cov223'
p7109
aS'scaffold53889_cov315'
p7110
aa(lp7111
S'scaffold36011_cov302'
p7112
aS'scaffold40654_cov315'
p7113
aa(lp7114
S'scaffold2554_cov143'
p7115
aS'scaffold5205_cov172'
p7116
aa(lp7117
S'scaffold2328_cov197'
p7118
aS'scaffold8399_cov190'
p7119
aa(lp7120
S'scaffold5502_cov291'
p7121
aS'scaffold7790_cov228'
p7122
a(lp7123
I1
a(lp7124
F0.419753
aaI243
aa(lp7125
I1
a(lp7126
F0.0
aaI173
aa(lp7127
I1
a(lp7128
F0.0
aaI139
aa(lp7129
I1
a(lp7130
F0.264045
aaI178
aa(lp7131
I1
a(lp7132
F0.26776
aaI183
aa(lp7133
I1
a(lp7134
F0.268041
aaI194
aa(lp7135
I1
a(lp7136
F0.259434
aaI212
aa(lp7137
I1
a(lp7138
F0.433566
aaI286
aa(lp7139
I1
a(lp7140
F0.444867
aaI263
aa(lp7141
I1
a(lp7142
F0.458042
aaI286
aaa(lp7143
S'scaffold10657_cov306'
p7144
aS'scaffold4178_cov282'
p7145
aa(lp7146
S'scaffold38603_cov305'
p7147
aS'scaffold7912_cov254'
p7148
a(lp7149
I1
a(lp7150
F0.396887
aaI257
aa(lp7151
I1
a(lp7152
F0.38
aaI250
aa(lp7153
I1
a(lp7154
F0.419708
aaI274
aaa(lp7155
S'scaffold10029_cov156'
p7156
aS'scaffold34854_cov183'
p7157
a(lp7158
I1
a(lp7159
F0.623554
aaI951
aa(lp7160
I1
a(lp7161
F0.330357
aaI224
aaa(lp7162
S'scaffold10400_cov191'
p7163
aS'scaffold674_cov219'
p7164
a(lp7165
I1
a(lp7166
F0.395437
aaI263
aa(lp7167
I1
a(lp7168
F0.222222
aaI189
aa(lp7169
I1
a(lp7170
F0.266667
aaI210
aa(lp7171
I1
a(lp7172
F0.271429
aaI210
aa(lp7173
I1
a(lp7174
F0.283105
aaI219
aa(lp7175
I1
a(lp7176
F0.252525
aaI198
aa(lp7177
I1
a(lp7178
F0.231638
aaI177
aa(lp7179
I1
a(lp7180
F0.438356
aaI219
aa(lp7181
I1
a(lp7182
F0.512097
aaI248
aa(lp7183
I1
a(lp7184
F0.227273
aaI198
aa(lp7185
I1
a(lp7186
F0.258706
aaI201
aa(lp7187
I1
a(lp7188
F0.233161
aaI193
aa(lp7189
I1
a(lp7190
F0.341912
aaI272
aaa(lp7191
S'scaffold2246_cov240'
p7192
aS'scaffold4949_cov266'
p7193
a(lp7194
I1
a(lp7195
F0.54902
aaI306
aaa(lp7196
S'scaffold4654_cov204'
p7197
aS'scaffold6978_cov264'
p7198
a(lp7199
I1
a(lp7200
F0.228155
aaI206
aa(lp7201
I1
a(lp7202
F0.283721
aaI215
aa(lp7203
I1
a(lp7204
F0.263158
aaI209
aa(lp7205
I1
a(lp7206
F0.3
aaI230
aa(lp7207
I1
a(lp7208
F0.352941
aaI238
aa(lp7209
I1
a(lp7210
F0.352941
aaI238
aa(lp7211
I1
a(lp7212
F0.340426
aaI235
aa(lp7213
I1
a(lp7214
F0.548043
aaI281
aa(lp7215
I1
a(lp7216
F0.463768
aaI345
aa(lp7217
I1
a(lp7218
F0.4375
aaI304
aa(lp7219
I1
a(lp7220
F0.23301
aaI206
aag3047
a(lp7221
I1
a(lp7222
F0.270936
aaI203
aaa(lp7223
S'scaffold1042_cov233'
p7224
aS'scaffold20788_cov116'
p7225
aa(lp7226
S'scaffold13364_cov176'
p7227
aS'scaffold13641_cov196'
p7228
a(lp7229
I1
a(lp7230
F0.248826
aaI213
aa(lp7231
I1
a(lp7232
F0.352713
aaI258
aa(lp7233
I1
a(lp7234
F0.212963
aaI216
aaa(lp7235
S'scaffold2659_cov200'
p7236
aS'scaffold7260_cov230'
p7237
aa(lp7238
S'scaffold3194_cov316'
p7239
aS'scaffold3195_cov270'
p7240
a(lp7241
I1
a(lp7242
F0.317829
aaI258
aa(lp7243
I1
a(lp7244
F0.337079
aaI267
aa(lp7245
I1
a(lp7246
F0.348754
aaI281
aa(lp7247
I1
a(lp7248
F0.518771
aaI293
aa(lp7249
I1
a(lp7250
F0.502941
aaI340
aa(lp7251
I1
a(lp7252
F0.458453
aaI349
aa(lp7253
I1
a(lp7254
F0.455882
aaI272
aaa(lp7255
S'scaffold14897_cov267'
p7256
aS'scaffold5330_cov257'
p7257
aa(lp7258
S'scaffold1044_cov225'
p7259
aS'scaffold21510_cov192'
p7260
a(lp7261
I1
a(lp7262
F0.248927
aaI233
aa(lp7263
I1
a(lp7264
F0.207048
aaI227
aa(lp7265
I1
a(lp7266
F0.218009
aaI211
aa(lp7267
I1
a(lp7268
F0.247788
aaI226
aa(lp7269
I1
a(lp7270
F0.251121
aaI223
aa(lp7271
I1
a(lp7272
F0.360784
aaI255
aaa(lp7273
S'scaffold10547_cov289'
p7274
aS'scaffold11428_cov295'
p7275
a(lp7276
I1
a(lp7277
F0.423581
aaI229
aa(lp7278
I1
a(lp7279
F0.438596
aaI285
aa(lp7280
I1
a(lp7281
F0.435714
aaI280
aa(lp7282
I1
a(lp7283
F0.416667
aaI300
aa(lp7284
I1
a(lp7285
F0.308901
aaI191
aa(lp7286
I1
a(lp7287
F0.474006
aaI327
aa(lp7288
I1
a(lp7289
F0.487179
aaI273
aa(lp7290
I1
a(lp7291
F0.463668
aaI289
aa(lp7292
I1
a(lp7293
F0.488722
aaI266
aa(lp7294
I1
a(lp7295
F0.377451
aaI204
aaa(lp7296
S'scaffold3671_cov181'
p7297
aS'scaffold9505_cov197'
p7298
a(lp7299
I1
a(lp7300
F0.742593
aaI540
aaa(lp7301
S'scaffold3188_cov246'
p7302
aS'scaffold36473_cov268'
p7303
a(lp7304
I1
a(lp7305
F0.430712
aaI267
aa(lp7306
I1
a(lp7307
F0.417544
aaI285
aa(lp7308
I1
a(lp7309
F0.366972
aaI218
aa(lp7310
I1
a(lp7311
F0.376068
aaI234
aa(lp7312
I1
a(lp7313
F0.415686
aaI255
aa(lp7314
I1
a(lp7315
F0.449664
aaI298
aa(lp7316
I1
a(lp7317
F0.544118
aaI272
aa(lp7318
I1
a(lp7319
F0.37785
aaI307
aa(lp7320
I1
a(lp7321
F0.455172
aaI290
aaa(lp7322
S'scaffold5690_cov178'
p7323
aS'scaffold8992_cov141'
p7324
a(lp7325
I1
a(lp7326
F0.273684
aaI190
aa(lp7327
I1
a(lp7328
F0.338462
aaI260
aa(lp7329
I1
a(lp7330
F0.251232
aaI203
aa(lp7331
I1
a(lp7332
F0.240196
aaI204
aaa(lp7333
S'scaffold1795_cov197'
p7334
aS'scaffold3646_cov176'
p7335
aa(lp7336
S'scaffold35739_cov310'
p7337
aS'scaffold9147_cov314'
p7338
aa(lp7339
S'scaffold10089_cov244'
p7340
aS'scaffold11805_cov225'
p7341
a(lp7342
I1
a(lp7343
F0.447653
aaI277
aa(lp7344
I1
a(lp7345
F0.391111
aaI225
aa(lp7346
I1
a(lp7347
F0.357895
aaI190
aaa(lp7348
S'scaffold19598_cov155'
p7349
aS'scaffold3188_cov246'
p7350
aa(lp7351
S'scaffold4966_cov298'
p7352
aS'scaffold5238_cov294'
p7353
a(lp7354
I1
a(lp7355
F0.366987
aaI1248
aa(lp7356
I1
a(lp7357
F0.385246
aaI488
aa(lp7358
I1
a(lp7359
F0.391837
aaI490
aa(lp7360
I1
a(lp7361
F0.360759
aaI474
aaa(lp7362
S'scaffold314_cov314'
p7363
aS'scaffold315_cov308'
p7364
a(lp7365
I1
a(lp7366
F0.367521
aaI468
aa(lp7367
I1
a(lp7368
F0.383984
aaI487
aa(lp7369
I1
a(lp7370
F0.405622
aaI498
aa(lp7371
I1
a(lp7372
F0.586022
aaI558
aa(lp7373
I1
a(lp7374
F0.444444
aaI477
aa(lp7375
I1
a(lp7376
F0.228487
aaI337
aa(lp7377
I1
a(lp7378
F0.260776
aaI464
aa(lp7379
I1
a(lp7380
F0.427621
aaI601
aaa(lp7381
S'scaffold31451_cov239'
p7382
aS'scaffold644_cov199'
p7383
a(lp7384
I1
a(lp7385
F0.259887
aaI177
aa(lp7386
I1
a(lp7387
F0.374468
aaI235
aaa(lp7388
S'scaffold3062_cov254'
p7389
aS'scaffold34957_cov248'
p7390
a(lp7391
I1
a(lp7392
F0.0
aaI160
aa(lp7393
I1
a(lp7394
F0.32
aaI225
aa(lp7395
I1
a(lp7396
F0.0
aaI217
aaa(lp7397
S'scaffold18214_cov222'
p7398
aS'scaffold3250_cov209'
p7399
aa(lp7400
S'scaffold12737_cov227'
p7401
aS'scaffold5303_cov242'
p7402
a(lp7403
I1
a(lp7404
F0.408669
aaI323
aa(lp7405
I1
a(lp7406
F0.266094
aaI233
aa(lp7407
I1
a(lp7408
F0.27897
aaI233
aa(lp7409
I1
a(lp7410
F0.231132
aaI212
aa(lp7411
I1
a(lp7412
F0.210526
aaI209
aa(lp7413
I1
a(lp7414
F0.229947
aaI187
aa(lp7415
I1
a(lp7416
F0.328638
aaI213
aa(lp7417
I1
a(lp7418
F0.401639
aaI244
aa(lp7419
I1
a(lp7420
F0.453968
aaI315
aa(lp7421
I1
a(lp7422
F0.451064
aaI235
aa(lp7423
I1
a(lp7424
F0.351931
aaI233
aa(lp7425
I1
a(lp7426
F0.505017
aaI299
aa(lp7427
I1
a(lp7428
F0.308
aaI250
aa(lp7429
I1
a(lp7430
F0.317073
aaI246
aaa(lp7431
S'scaffold3227_cov180'
p7432
aS'scaffold3367_cov255'
p7433
a(lp7434
I1
a(lp7435
F0.443609
aaI266
aa(lp7436
I1
a(lp7437
F0.464935
aaI385
aa(lp7438
I1
a(lp7439
F0.557185
aaI341
aaa(lp7440
S'scaffold4452_cov272'
p7441
aS'scaffold7051_cov276'
p7442
a(lp7443
I1
a(lp7444
F0.496622
aaI296
aaa(lp7445
S'scaffold10520_cov256'
p7446
aS'scaffold4734_cov186'
p7447
a(lp7448
I1
a(lp7449
F0.485477
aaI241
aa(lp7450
I1
a(lp7451
F0.539326
aaI267
aa(lp7452
I1
a(lp7453
F0.414634
aaI287
aa(lp7454
I1
a(lp7455
F0.244828
aaI290
aaa(lp7456
S'scaffold4548_cov238'
p7457
aS'scaffold8091_cov211'
p7458
a(lp7459
I1
a(lp7460
F0.200935
aaI214
aa(lp7461
I1
a(lp7462
F0.381356
aaI236
aa(lp7463
I1
a(lp7464
F0.348921
aaI278
aa(lp7465
I1
a(lp7466
F0.352113
aaI284
aaa(lp7467
S'scaffold305_cov293'
p7468
aS'scaffold437_cov301'
p7469
a(lp7470
I1
a(lp7471
F0.492958
aaI71
aa(lp7472
I1
a(lp7473
F0.277108
aaI83
aa(lp7474
I1
a(lp7475
F0.300752
aaI133
aaa(lp7476
S'scaffold6221_cov149'
p7477
aS'scaffold902_cov223'
p7478
a(lp7479
I1
a(lp7480
F0.0
aaI154
aa(lp7481
I1
a(lp7482
F0.215789
aaI190
aa(lp7483
I1
a(lp7484
F0.208333
aaI192
aa(lp7485
I1
a(lp7486
F0.207207
aaI111
aaa(lp7487
S'scaffold12881_cov242'
p7488
aS'scaffold36279_cov207'
p7489
a(lp7490
I1
a(lp7491
F0.284916
aaI179
aa(lp7492
I1
a(lp7493
F0.335079
aaI191
aa(lp7494
I1
a(lp7495
F0.204188
aaI191
aa(lp7496
I1
a(lp7497
F0.428571
aaI259
aa(lp7498
I1
a(lp7499
F0.324201
aaI219
aa(lp7500
I1
a(lp7501
F0.341346
aaI208
aa(lp7502
I1
a(lp7503
F0.342105
aaI190
aa(lp7504
I1
a(lp7505
F0.431452
aaI248
aa(lp7506
I1
a(lp7507
F0.294872
aaI234
aa(lp7508
I1
a(lp7509
F0.341667
aaI240
aa(lp7510
I1
a(lp7511
F0.453125
aaI256
aaa(lp7512
S'scaffold34753_cov325'
p7513
aS'scaffold78_cov298'
p7514
a(lp7515
I1
a(lp7516
F0.503106
aaI322
aaa(lp7517
S'scaffold34809_cov225'
p7518
aS'scaffold34892_cov211'
p7519
aa(lp7520
S'scaffold10411_cov164'
p7521
aS'scaffold36055_cov189'
p7522
a(lp7523
I1
a(lp7524
F0.401639
aaI244
aa(lp7525
I1
a(lp7526
F0.440678
aaI295
aaa(lp7527
S'scaffold1228_cov289'
p7528
aS'scaffold294_cov265'
p7529
a(lp7530
I1
a(lp7531
F0.495238
aaI315
aa(lp7532
I1
a(lp7533
F0.396624
aaI237
aa(lp7534
I1
a(lp7535
F0.267327
aaI202
aa(lp7536
I1
a(lp7537
F0.313364
aaI217
aa(lp7538
I1
a(lp7539
F0.311111
aaI180
aa(lp7540
I1
a(lp7541
F0.248447
aaI161
aa(lp7542
I1
a(lp7543
F0.346154
aaI104
aa(lp7544
I1
a(lp7545
F0.400778
aaI257
aa(lp7546
I1
a(lp7547
F0.281746
aaI252
aa(lp7548
I1
a(lp7549
F0.243028
aaI251
aaasg3059
(lp7550
(lp7551
g6029
ag6030
a(lp7552
I1
a(lp7553
F0.512903
aaI310
aa(lp7554
I1
a(lp7555
F0.315315
aaI222
aaa(lp7556
g6032
ag6033
a(lp7557
I1
a(lp7558
F0.253589
aaI209
aa(lp7559
I1
a(lp7560
F0.380952
aaI252
aa(lp7561
I1
a(lp7562
F0.311005
aaI209
aa(lp7563
I1
a(lp7564
F0.326829
aaI205
aa(lp7565
I1
a(lp7566
F0.520833
aaI288
aa(lp7567
I1
a(lp7568
F0.399083
aaI218
aa(lp7569
I1
a(lp7570
F0.395
aaI200
aa(lp7571
I1
a(lp7572
F0.380435
aaI184
aaa(lp7573
g6059
ag6060
a(lp7574
I1
a(lp7575
F0.239631
aaI217
aa(lp7576
I1
a(lp7577
F0.260465
aaI215
aa(lp7578
I1
a(lp7579
F0.347107
aaI242
aa(lp7580
I1
a(lp7581
F0.292373
aaI236
aa(lp7582
I1
a(lp7583
F0.417625
aaI261
aa(lp7584
I1
a(lp7585
F0.464
aaI250
aa(lp7586
I1
a(lp7587
F0.370213
aaI235
aa(lp7588
I1
a(lp7589
F0.3
aaI220
aaa(lp7590
g6096
ag6097
a(lp7591
I1
a(lp7592
F0.262136
aaI206
aa(lp7593
I1
a(lp7594
F0.261538
aaI195
aa(lp7595
I1
a(lp7596
F0.287234
aaI188
aa(lp7597
I1
a(lp7598
F0.413043
aaI276
aa(lp7599
I1
a(lp7600
F0.296804
aaI219
aa(lp7601
I1
a(lp7602
F0.310044
aaI229
aaa(lp7603
g6107
ag6108
aa(lp7604
g6110
ag6111
a(lp7605
I1
a(lp7606
F0.21164
aaI189
aa(lp7607
I1
a(lp7608
F0.21466
aaI191
aa(lp7609
I1
a(lp7610
F0.420863
aaI278
aa(lp7611
I1
a(lp7612
F0.309942
aaI171
aa(lp7613
I1
a(lp7614
F0.327485
aaI171
aa(lp7615
I1
a(lp7616
F0.312236
aaI237
aa(lp7617
I1
a(lp7618
F0.374468
aaI235
aaa(lp7619
g6117
ag6118
aa(lp7620
g6120
ag6121
aa(lp7621
g6125
ag6126
aa(lp7622
g6142
ag6143
aa(lp7623
g6171
ag6172
a(lp7624
I1
a(lp7625
F0.467532
aaI308
aaa(lp7626
g6176
ag6177
a(lp7627
I1
a(lp7628
F0.0
aaI235
aa(lp7629
I1
a(lp7630
F0.275401
aaI374
aa(lp7631
I1
a(lp7632
F0.410156
aaI256
aa(lp7633
I1
a(lp7634
F0.293023
aaI215
aaa(lp7635
g6179
ag6180
aa(lp7636
g6182
ag6183
aa(lp7637
g6189
ag6190
aa(lp7638
g6192
ag6193
aa(lp7639
g6195
ag6196
aa(lp7640
g6198
ag6199
aa(lp7641
g6207
ag6208
aa(lp7642
g6210
ag6211
aa(lp7643
g6213
ag6214
aa(lp7644
g6228
ag6229
a(lp7645
I1
a(lp7646
F0.290476
aaI210
aa(lp7647
I1
a(lp7648
F0.333333
aaI204
aa(lp7649
I1
a(lp7650
F0.315534
aaI206
aa(lp7651
I1
a(lp7652
F0.221374
aaI393
aa(lp7653
I1
a(lp7654
F0.450151
aaI331
aa(lp7655
I1
a(lp7656
F0.461794
aaI301
aaa(lp7657
g6257
ag6258
a(lp7658
I1
a(lp7659
F0.276243
aaI181
aa(lp7660
I1
a(lp7661
F0.299465
aaI187
aa(lp7662
I1
a(lp7663
F0.311321
aaI212
aa(lp7664
I1
a(lp7665
F0.345455
aaI220
aa(lp7666
I1
a(lp7667
F0.322727
aaI220
aa(lp7668
I1
a(lp7669
F0.265306
aaI196
aa(lp7670
I1
a(lp7671
F0.302198
aaI182
aa(lp7672
I1
a(lp7673
F0.298913
aaI184
aa(lp7674
I1
a(lp7675
F0.298343
aaI181
aaa(lp7676
g6272
ag6273
aa(lp7677
g6277
ag6278
aa(lp7678
g6280
ag6281
aa(lp7679
g6283
ag6284
a(lp7680
I1
a(lp7681
F0.411268
aaI355
aa(lp7682
I1
a(lp7683
F0.47079
aaI291
aa(lp7684
I1
a(lp7685
F0.352941
aaI255
aa(lp7686
I1
a(lp7687
F0.32567
aaI261
aa(lp7688
I1
a(lp7689
F0.257235
aaI311
aa(lp7690
I1
a(lp7691
F0.224422
aaI303
aa(lp7692
I1
a(lp7693
F0.368613
aaI274
aa(lp7694
I1
a(lp7695
F0.463878
aaI263
aaa(lp7696
g6306
ag6307
a(lp7697
I1
a(lp7698
F0.381166
aaI223
aa(lp7699
I1
a(lp7700
F0.361502
aaI213
aa(lp7701
I1
a(lp7702
F0.356481
aaI216
aaa(lp7703
g6309
ag6310
a(lp7704
I1
a(lp7705
F0.300971
aaI206
aa(lp7706
I1
a(lp7707
F0.295082
aaI183
aaa(lp7708
g6330
ag6331
a(lp7709
I1
a(lp7710
F0.216266
aaI541
aa(lp7711
I1
a(lp7712
F0.345133
aaI226
aa(lp7713
I1
a(lp7714
F0.333333
aaI201
aaa(lp7715
g6367
ag6368
a(lp7716
I1
a(lp7717
F0.289256
aaI242
aa(lp7718
I1
a(lp7719
F0.256757
aaI222
aa(lp7720
I1
a(lp7721
F0.227679
aaI224
aa(lp7722
I1
a(lp7723
F0.368984
aaI187
aaa(lp7724
g6384
ag6385
aa(lp7725
g6419
ag6420
a(lp7726
I1
a(lp7727
F0.40991
aaI222
aa(lp7728
I1
a(lp7729
F0.374517
aaI259
aa(lp7730
I1
a(lp7731
F0.371429
aaI210
aa(lp7732
I1
a(lp7733
F0.38326
aaI227
aa(lp7734
I1
a(lp7735
F0.592068
aaI353
aa(lp7736
I1
a(lp7737
F0.229008
aaI393
aaa(lp7738
g6426
ag6427
a(lp7739
I1
a(lp7740
F0.261682
aaI107
aa(lp7741
I1
a(lp7742
F0.2827
aaI237
aa(lp7743
I1
a(lp7744
F0.268519
aaI216
aa(lp7745
I1
a(lp7746
F0.202312
aaI173
aa(lp7747
I1
a(lp7748
F0.368201
aaI239
aa(lp7749
I1
a(lp7750
F0.293413
aaI167
aa(lp7751
I1
a(lp7752
F0.285714
aaI168
aa(lp7753
I1
a(lp7754
F0.27907
aaI172
aa(lp7755
I1
a(lp7756
F0.237333
aaI375
aa(lp7757
I1
a(lp7758
F0.411602
aaI362
aa(lp7759
I1
a(lp7760
F0.354839
aaI217
aaa(lp7761
g6481
ag6482
aa(lp7762
g6500
ag6501
aa(lp7763
g6513
ag6514
a(lp7764
I1
a(lp7765
F0.233129
aaI163
aa(lp7766
I1
a(lp7767
F0.233129
aaI163
aa(lp7768
I1
a(lp7769
F0.2375
aaI160
aa(lp7770
I1
a(lp7771
F0.240385
aaI208
aa(lp7772
I1
a(lp7773
F0.215962
aaI213
aa(lp7774
I1
a(lp7775
F0.461818
aaI275
aa(lp7776
I1
a(lp7777
F0.320513
aaI234
aa(lp7778
I1
a(lp7779
F0.30102
aaI196
aaa(lp7780
g6518
ag6519
a(lp7781
I1
a(lp7782
F0.633684
aaI475
aaa(lp7783
g6521
ag6522
aa(lp7784
g6526
ag6527
aa(lp7785
g6537
ag6538
aa(lp7786
g6542
ag6543
aa(lp7787
g6545
ag6546
aa(lp7788
g6558
ag6559
a(lp7789
I1
a(lp7790
F0.363014
aaI292
aa(lp7791
I1
a(lp7792
F0.378109
aaI201
aaa(lp7793
g6571
ag6572
a(lp7794
I1
a(lp7795
F0.256831
aaI183
aa(lp7796
I1
a(lp7797
F0.301075
aaI186
aa(lp7798
I1
a(lp7799
F0.343137
aaI204
aa(lp7800
I1
a(lp7801
F0.337838
aaI222
aa(lp7802
I1
a(lp7803
F0.504
aaI250
aa(lp7804
I1
a(lp7805
F0.429603
aaI277
aa(lp7806
I1
a(lp7807
F0.245902
aaI183
aa(lp7808
I1
a(lp7809
F0.353659
aaI246
aa(lp7810
I1
a(lp7811
F0.458167
aaI251
aa(lp7812
I1
a(lp7813
F0.535714
aaI196
aa(lp7814
I1
a(lp7815
F0.518692
aaI214
aa(lp7816
I1
a(lp7817
F0.460145
aaI276
aa(lp7818
I1
a(lp7819
F0.36
aaI250
aa(lp7820
I1
a(lp7821
F0.369919
aaI246
aa(lp7822
I1
a(lp7823
F0.439863
aaI291
aa(lp7824
I1
a(lp7825
F0.360515
aaI233
aa(lp7826
I1
a(lp7827
F0.371324
aaI272
aa(lp7828
I1
a(lp7829
F0.255208
aaI192
aa(lp7830
I1
a(lp7831
F0.285714
aaI203
aaa(lp7832
g6598
ag6599
a(lp7833
I1
a(lp7834
F0.286325
aaI234
aa(lp7835
I1
a(lp7836
F0.436533
aaI323
aa(lp7837
I1
a(lp7838
F0.376384
aaI271
aa(lp7839
I1
a(lp7840
F0.406375
aaI251
aa(lp7841
I1
a(lp7842
F0.43299
aaI291
aa(lp7843
I1
a(lp7844
F0.465704
aaI277
aa(lp7845
I1
a(lp7846
F0.477509
aaI289
aa(lp7847
I1
a(lp7848
F0.338462
aaI260
aa(lp7849
I1
a(lp7850
F0.2
aaI195
aa(lp7851
I1
a(lp7852
F0.247368
aaI190
aa(lp7853
I1
a(lp7854
F0.246073
aaI191
aa(lp7855
I1
a(lp7856
F0.395604
aaI182
aa(lp7857
I1
a(lp7858
F0.392241
aaI232
aaa(lp7859
g6607
ag6608
aa(lp7860
g6610
ag6611
a(lp7861
I1
a(lp7862
F0.40458
aaI262
aa(lp7863
I1
a(lp7864
F0.457912
aaI297
aaa(lp7865
g6625
ag6626
a(lp7866
I1
a(lp7867
F0.501859
aaI269
aa(lp7868
I1
a(lp7869
F0.506579
aaI304
aa(lp7870
I1
a(lp7871
F0.216912
aaI272
aaa(lp7872
g6684
ag6685
a(lp7873
I1
a(lp7874
F0.526316
aaI285
aa(lp7875
I1
a(lp7876
F0.442177
aaI294
aa(lp7877
I1
a(lp7878
F0.292035
aaI226
aaa(lp7879
g6687
ag6688
aa(lp7880
g6692
ag6693
a(lp7881
I1
a(lp7882
F0.221622
aaI185
aa(lp7883
I1
a(lp7884
F0.220238
aaI168
aa(lp7885
I1
a(lp7886
F0.245714
aaI175
aa(lp7887
I1
a(lp7888
F0.247368
aaI190
aa(lp7889
I1
a(lp7890
F0.291005
aaI189
aa(lp7891
I1
a(lp7892
F0.410526
aaI285
aa(lp7893
I1
a(lp7894
F0.38
aaI250
aa(lp7895
I1
a(lp7896
F0.445378
aaI238
aa(lp7897
I1
a(lp7898
F0.456067
aaI239
aa(lp7899
I1
a(lp7900
F0.380734
aaI218
aa(lp7901
I1
a(lp7902
F0.437288
aaI295
aa(lp7903
I1
a(lp7904
F0.350598
aaI251
aa(lp7905
I1
a(lp7906
F0.0
aaI207
aa(lp7907
I1
a(lp7908
F0.49789
aaI237
aa(lp7909
I1
a(lp7910
F0.406844
aaI263
aa(lp7911
I1
a(lp7912
F0.371901
aaI242
aa(lp7913
I1
a(lp7914
F0.293103
aaI232
aaa(lp7915
g6721
ag6722
a(lp7916
I1
a(lp7917
F0.221622
aaI185
aaa(lp7918
g6724
ag6725
a(lp7919
I1
a(lp7920
F0.264865
aaI185
aa(lp7921
I1
a(lp7922
F0.285047
aaI214
aa(lp7923
I1
a(lp7924
F0.484375
aaI256
aa(lp7925
I1
a(lp7926
F0.470588
aaI238
aa(lp7927
I1
a(lp7928
F0.463415
aaI246
aa(lp7929
I1
a(lp7930
F0.442553
aaI235
aa(lp7931
I1
a(lp7932
F0.419643
aaI224
aa(lp7933
I1
a(lp7934
F0.413462
aaI208
aa(lp7935
I1
a(lp7936
F0.456621
aaI219
aa(lp7937
I1
a(lp7938
F0.471111
aaI225
aa(lp7939
I1
a(lp7940
F0.495726
aaI234
aa(lp7941
I1
a(lp7942
F0.488889
aaI225
aa(lp7943
I1
a(lp7944
F0.477273
aaI220
aa(lp7945
I1
a(lp7946
F0.441315
aaI213
aa(lp7947
I1
a(lp7948
F0.287234
aaI188
aa(lp7949
I1
a(lp7950
F0.313514
aaI185
aa(lp7951
I1
a(lp7952
F0.313609
aaI169
aa(lp7953
I1
a(lp7954
F0.323171
aaI164
aa(lp7955
I1
a(lp7956
F0.296774
aaI155
aa(lp7957
I1
a(lp7958
F0.26875
aaI160
aa(lp7959
I1
a(lp7960
F0.292517
aaI147
aa(lp7961
I1
a(lp7962
F0.273381
aaI139
aa(lp7963
I1
a(lp7964
F0.270677
aaI133
aa(lp7965
I1
a(lp7966
F0.232394
aaI142
aa(lp7967
I1
a(lp7968
F0.311628
aaI215
aa(lp7969
I1
a(lp7970
F0.296804
aaI219
aa(lp7971
I1
a(lp7972
F0.238095
aaI210
aa(lp7973
I1
a(lp7974
F0.228155
aaI206
aa(lp7975
I1
a(lp7976
F0.209184
aaI196
aa(lp7977
I1
a(lp7978
F0.260274
aaI219
aa(lp7979
I1
a(lp7980
F0.276316
aaI228
aa(lp7981
I1
a(lp7982
F0.315789
aaI228
aa(lp7983
I1
a(lp7984
F0.314159
aaI226
aa(lp7985
I1
a(lp7986
F0.308696
aaI230
aa(lp7987
I1
a(lp7988
F0.306034
aaI232
aa(lp7989
I1
a(lp7990
F0.265
aaI200
aa(lp7991
I1
a(lp7992
F0.247475
aaI198
aa(lp7993
I1
a(lp7994
F0.341991
aaI231
aa(lp7995
I1
a(lp7996
F0.333333
aaI225
aa(lp7997
I1
a(lp7998
F0.329897
aaI194
aa(lp7999
I1
a(lp8000
F0.34466
aaI206
aa(lp8001
I1
a(lp8002
F0.302564
aaI195
aa(lp8003
I1
a(lp8004
F0.286432
aaI199
aa(lp8005
I1
a(lp8006
F0.241935
aaI186
aa(lp8007
I1
a(lp8008
F0.315789
aaI171
aa(lp8009
I1
a(lp8010
F0.223529
aaI170
aa(lp8011
I1
a(lp8012
F0.350254
aaI197
aa(lp8013
I1
a(lp8014
F0.414634
aaI205
aa(lp8015
I1
a(lp8016
F0.371728
aaI191
aa(lp8017
I1
a(lp8018
F0.34252
aaI254
aa(lp8019
I1
a(lp8020
F0.360515
aaI233
aa(lp8021
I1
a(lp8022
F0.316279
aaI215
aa(lp8023
I1
a(lp8024
F0.285047
aaI214
aa(lp8025
I1
a(lp8026
F0.28169
aaI213
aa(lp8027
I1
a(lp8028
F0.323651
aaI241
aa(lp8029
I1
a(lp8030
F0.248756
aaI201
aa(lp8031
I1
a(lp8032
F0.261905
aaI210
aaa(lp8033
g6785
ag6786
a(lp8034
I1
a(lp8035
F0.314721
aaI197
aaa(lp8036
g6794
ag6795
aa(lp8037
g6797
ag6798
a(lp8038
I1
a(lp8039
F0.325103
aaI243
aa(lp8040
I1
a(lp8041
F0.34981
aaI263
aa(lp8042
I1
a(lp8043
F0.350877
aaI171
aaa(lp8044
g6800
ag6801
aa(lp8045
g6833
ag6834
aa(lp8046
g6836
ag6837
aa(lp8047
g6839
ag6840
a(lp8048
I1
a(lp8049
F0.324786
aaI234
aa(lp8050
I1
a(lp8051
F0.211382
aaI246
aa(lp8052
I1
a(lp8053
F0.271552
aaI232
aa(lp8054
I1
a(lp8055
F0.323009
aaI226
aa(lp8056
I1
a(lp8057
F0.300847
aaI236
aa(lp8058
I1
a(lp8059
F0.285714
aaI224
aa(lp8060
I1
a(lp8061
F0.361702
aaI235
aa(lp8062
I1
a(lp8063
F0.343096
aaI239
aa(lp8064
I1
a(lp8065
F0.353712
aaI229
aa(lp8066
I1
a(lp8067
F0.278388
aaI273
aa(lp8068
I1
a(lp8069
F0.27881
aaI269
aa(lp8070
I1
a(lp8071
F0.415254
aaI236
aa(lp8072
I1
a(lp8073
F0.354701
aaI234
aa(lp8074
I1
a(lp8075
F0.29064
aaI203
aa(lp8076
I1
a(lp8077
F0.304569
aaI197
aa(lp8078
I1
a(lp8079
F0.425926
aaI270
aa(lp8080
I1
a(lp8081
F0.453532
aaI269
aa(lp8082
I1
a(lp8083
F0.259574
aaI235
aa(lp8084
I1
a(lp8085
F0.34749
aaI259
aaa(lp8086
g6876
ag6877
a(lp8087
I1
a(lp8088
F0.43662
aaI284
aa(lp8089
I1
a(lp8090
F0.456274
aaI263
aa(lp8091
I1
a(lp8092
F0.465649
aaI262
aa(lp8093
I1
a(lp8094
F0.413127
aaI259
aa(lp8095
I1
a(lp8096
F0.405204
aaI269
aa(lp8097
I1
a(lp8098
F0.296089
aaI179
aa(lp8099
I1
a(lp8100
F0.496377
aaI276
aa(lp8101
I1
a(lp8102
F0.378378
aaI259
aa(lp8103
I1
a(lp8104
F0.526316
aaI190
aa(lp8105
I1
a(lp8106
F0.481229
aaI293
aa(lp8107
I1
a(lp8108
F0.379085
aaI306
aa(lp8109
I1
a(lp8110
F0.245714
aaI175
aa(lp8111
I1
a(lp8112
F0.290476
aaI210
aa(lp8113
I1
a(lp8114
F0.274854
aaI171
aa(lp8115
I1
a(lp8116
F0.27673
aaI159
aa(lp8117
I1
a(lp8118
F0.306818
aaI176
aa(lp8119
I1
a(lp8120
F0.295082
aaI183
aa(lp8121
I1
a(lp8122
F0.256983
aaI179
aa(lp8123
I1
a(lp8124
F0.261364
aaI176
aaa(lp8125
g6879
ag6880
aa(lp8126
g6882
ag6883
aa(lp8127
g6885
ag6886
a(lp8128
I1
a(lp8129
F0.45977
aaI348
aa(lp8130
I1
a(lp8131
F0.433447
aaI293
aa(lp8132
I1
a(lp8133
F0.45098
aaI306
aa(lp8134
I1
a(lp8135
F0.545151
aaI299
aa(lp8136
I1
a(lp8137
F0.409091
aaI264
aa(lp8138
I1
a(lp8139
F0.37963
aaI216
aa(lp8140
I1
a(lp8141
F0.272727
aaI220
aa(lp8142
I1
a(lp8143
F0.495798
aaI238
aa(lp8144
I1
a(lp8145
F0.368182
aaI220
aa(lp8146
I1
a(lp8147
F0.298246
aaI171
aa(lp8148
I1
a(lp8149
F0.392713
aaI247
aa(lp8150
I1
a(lp8151
F0.383929
aaI224
aa(lp8152
I1
a(lp8153
F0.38843
aaI242
aaa(lp8154
g6946
ag6947
a(lp8155
I1
a(lp8156
F0.2827
aaI237
aa(lp8157
I1
a(lp8158
F0.41637
aaI281
aa(lp8159
I1
a(lp8160
F0.347826
aaI322
aa(lp8161
I1
a(lp8162
F0.295213
aaI376
aa(lp8163
I1
a(lp8164
F0.259067
aaI386
aa(lp8165
I1
a(lp8166
F0.336471
aaI425
aaa(lp8167
g6949
ag6950
a(lp8168
I1
a(lp8169
F0.451299
aaI308
aa(lp8170
I1
a(lp8171
F0.46332
aaI259
aa(lp8172
I1
a(lp8173
F0.497696
aaI217
aa(lp8174
I1
a(lp8175
F0.426573
aaI286
aa(lp8176
I1
a(lp8177
F0.459283
aaI307
aa(lp8178
I1
a(lp8179
F0.440789
aaI304
aa(lp8180
I1
a(lp8181
F0.479839
aaI248
aaa(lp8182
g6952
ag6953
aa(lp8183
g6963
ag6964
a(lp8184
I1
a(lp8185
F0.318182
aaI242
aa(lp8186
I1
a(lp8187
F0.3125
aaI112
aa(lp8188
I1
a(lp8189
F0.494662
aaI281
aa(lp8190
I1
a(lp8191
F0.336493
aaI211
aa(lp8192
I1
a(lp8193
F0.395918
aaI245
aa(lp8194
I1
a(lp8195
F0.393701
aaI254
aa(lp8196
I1
a(lp8197
F0.367521
aaI234
aa(lp8198
I1
a(lp8199
F0.208738
aaI206
aa(lp8200
I1
a(lp8201
F0.377778
aaI180
aaa(lp8202
g6966
ag6967
aa(lp8203
g6979
ag6980
a(lp8204
I1
a(lp8205
F0.457338
aaI293
aa(lp8206
I1
a(lp8207
F0.466667
aaI300
aa(lp8208
I1
a(lp8209
F0.47351
aaI302
aaa(lp8210
g7000
ag7001
aa(lp8211
g7003
ag7004
a(lp8212
I1
a(lp8213
F0.262626
aaI198
aa(lp8214
I1
a(lp8215
F0.320197
aaI203
aaa(lp8216
g7006
ag7007
a(lp8217
I1
a(lp8218
F0.282511
aaI223
aa(lp8219
I1
a(lp8220
F0.54902
aaI306
aa(lp8221
I1
a(lp8222
F0.552288
aaI306
aa(lp8223
I1
a(lp8224
F0.546358
aaI302
aa(lp8225
I1
a(lp8226
F0.540268
aaI298
aa(lp8227
I1
a(lp8228
F0.533546
aaI313
aa(lp8229
I1
a(lp8230
F0.527586
aaI290
aa(lp8231
I1
a(lp8232
F0.32598
aaI408
aaa(lp8233
g7083
ag7084
aa(lp8234
g7094
ag7095
a(lp8235
I1
a(lp8236
F0.394636
aaI261
aa(lp8237
I1
a(lp8238
F0.317949
aaI195
aa(lp8239
I1
a(lp8240
F0.227778
aaI180
aa(lp8241
I1
a(lp8242
F0.231959
aaI194
aa(lp8243
I1
a(lp8244
F0.487179
aaI312
aa(lp8245
I1
a(lp8246
F0.285068
aaI221
aa(lp8247
I1
a(lp8248
F0.446043
aaI278
aa(lp8249
I1
a(lp8250
F0.22
aaI200
aa(lp8251
I1
a(lp8252
F0.39823
aaI226
aa(lp8253
I1
a(lp8254
F0.367713
aaI223
aa(lp8255
I1
a(lp8256
F0.341772
aaI237
aaa(lp8257
g7109
ag7110
aa(lp8258
g7112
ag7113
aa(lp8259
g7115
ag7116
aa(lp8260
g7118
ag7119
a(lp8261
I1
a(lp8262
F0.314465
aaI159
aa(lp8263
I1
a(lp8264
F0.325
aaI160
aa(lp8265
I1
a(lp8266
F0.46087
aaI230
aa(lp8267
I1
a(lp8268
F0.435556
aaI225
aa(lp8269
I1
a(lp8270
F0.436123
aaI227
aa(lp8271
I1
a(lp8272
F0.449153
aaI236
aa(lp8273
I1
a(lp8274
F0.451477
aaI237
aa(lp8275
I1
a(lp8276
F0.229299
aaI157
aa(lp8277
I1
a(lp8278
F0.0
aaI177
aa(lp8279
I1
a(lp8280
F0.224599
aaI187
aa(lp8281
I1
a(lp8282
F0.414747
aaI217
aa(lp8283
I1
a(lp8284
F0.788679
aaI530
aaa(lp8285
g7121
ag7122
aa(lp8286
g7144
ag7145
aa(lp8287
g7147
ag7148
aa(lp8288
g7156
ag7157
aa(lp8289
g7163
ag7164
a(lp8290
I1
a(lp8291
F0.223108
aaI251
aa(lp8292
I1
a(lp8293
F0.333333
aaI189
aa(lp8294
I1
a(lp8295
F0.316742
aaI221
aa(lp8296
I1
a(lp8297
F0.323144
aaI229
aa(lp8298
I1
a(lp8299
F0.451957
aaI281
aa(lp8300
I1
a(lp8301
F0.382514
aaI183
aa(lp8302
I1
a(lp8303
F0.303191
aaI188
aa(lp8304
I1
a(lp8305
F0.247253
aaI182
aa(lp8306
I1
a(lp8307
F0.287582
aaI153
aa(lp8308
I1
a(lp8309
F0.467811
aaI233
aa(lp8310
I1
a(lp8311
F0.307692
aaI208
aa(lp8312
I1
a(lp8313
F0.316038
aaI212
aa(lp8314
I1
a(lp8315
F0.313559
aaI118
aa(lp8316
I1
a(lp8317
F0.320755
aaI159
aa(lp8318
I1
a(lp8319
F0.328767
aaI219
aa(lp8320
I1
a(lp8321
F0.422594
aaI239
aa(lp8322
I1
a(lp8323
F0.524194
aaI248
aa(lp8324
I1
a(lp8325
F0.482906
aaI234
aa(lp8326
I1
a(lp8327
F0.411067
aaI253
aa(lp8328
I1
a(lp8329
F0.480315
aaI254
aa(lp8330
I1
a(lp8331
F0.461187
aaI219
aa(lp8332
I1
a(lp8333
F0.407942
aaI277
aa(lp8334
I1
a(lp8335
F0.416084
aaI286
aa(lp8336
I1
a(lp8337
F0.434028
aaI288
aa(lp8338
I1
a(lp8339
F0.456835
aaI278
aa(lp8340
I1
a(lp8341
F0.361991
aaI221
aa(lp8342
I1
a(lp8343
F0.4
aaI245
aa(lp8344
I1
a(lp8345
F0.288889
aaI180
aa(lp8346
I1
a(lp8347
F0.258427
aaI178
aaa(lp8348
g7192
ag7193
aa(lp8349
g7197
ag7198
a(lp8350
I1
a(lp8351
F0.480427
aaI281
aa(lp8352
I1
a(lp8353
F0.494983
aaI299
aa(lp8354
I1
a(lp8355
F0.439863
aaI291
aa(lp8356
I1
a(lp8357
F0.634761
aaI397
aa(lp8358
I1
a(lp8359
F0.348259
aaI201
aa(lp8360
I1
a(lp8361
F0.546341
aaI205
aa(lp8362
I1
a(lp8363
F0.451104
aaI317
aaa(lp8364
g7224
ag7225
a(lp8365
I1
a(lp8366
F0.492114
aaI317
aa(lp8367
I1
a(lp8368
F0.340611
aaI229
aaa(lp8369
g7227
ag7228
a(lp8370
I1
a(lp8371
F0.284404
aaI218
aaa(lp8372
g7236
ag7237
a(lp8373
I1
a(lp8374
F0.25
aaI216
aa(lp8375
I1
a(lp8376
F0.453659
aaI205
aa(lp8377
I1
a(lp8378
F0.335766
aaI274
aaa(lp8379
g7239
ag7240
a(lp8380
I1
a(lp8381
F0.521569
aaI255
aa(lp8382
I1
a(lp8383
F0.468278
aaI331
aa(lp8384
I1
a(lp8385
F0.419255
aaI322
aaa(lp8386
g7256
ag7257
a(lp8387
I1
a(lp8388
F0.412338
aaI308
aaa(lp8389
g7259
ag7260
aa(lp8390
g7274
ag7275
a(lp8391
I1
a(lp8392
F0.509934
aaI302
aaa(lp8393
g7297
ag7298
a(lp8394
I1
a(lp8395
F0.234637
aaI179
aa(lp8396
I1
a(lp8397
F0.285714
aaI182
aa(lp8398
I1
a(lp8399
F0.303665
aaI191
aa(lp8400
I1
a(lp8401
F0.309392
aaI181
aa(lp8402
I1
a(lp8403
F0.311475
aaI183
aa(lp8404
I1
a(lp8405
F0.304348
aaI184
aa(lp8406
I1
a(lp8407
F0.34188
aaI234
aa(lp8408
I1
a(lp8409
F0.322115
aaI208
aa(lp8410
I1
a(lp8411
F0.325
aaI200
aaa(lp8412
g7302
ag7303
a(lp8413
I1
a(lp8414
F0.341564
aaI243
aa(lp8415
I1
a(lp8416
F0.321429
aaI224
aa(lp8417
I1
a(lp8418
F0.223636
aaI550
aa(lp8419
I1
a(lp8420
F0.723447
aaI499
aa(lp8421
I1
a(lp8422
F0.723108
aaI502
aa(lp8423
I1
a(lp8424
F0.701525
aaI459
aa(lp8425
I1
a(lp8426
F0.23176
aaI466
aa(lp8427
I1
a(lp8428
F0.327628
aaI409
aaa(lp8429
g7323
ag7324
aa(lp8430
g7334
ag7335
a(lp8431
I1
a(lp8432
F0.284946
aaI186
aa(lp8433
I1
a(lp8434
F0.205882
aaI204
aa(lp8435
I1
a(lp8436
F0.285078
aaI449
aa(lp8437
I1
a(lp8438
F0.235294
aaI187
aaa(lp8439
g7337
ag7338
aa(lp8440
g7340
ag7341
a(lp8441
I1
a(lp8442
F0.434921
aaI315
aa(lp8443
I1
a(lp8444
F0.400685
aaI292
aa(lp8445
I1
a(lp8446
F0.257403
aaI439
aa(lp8447
I1
a(lp8448
F0.515152
aaI297
aa(lp8449
I1
a(lp8450
F0.382353
aaI272
aa(lp8451
I1
a(lp8452
F0.5
aaI308
aa(lp8453
I1
a(lp8454
F0.488024
aaI334
aa(lp8455
I1
a(lp8456
F0.362694
aaI193
aaa(lp8457
g7349
ag7350
aa(lp8458
g7352
ag7353
a(lp8459
I1
a(lp8460
F0.285714
aaI378
aaa(lp8461
g7363
ag7364
aa(lp8462
g7382
ag7383
a(lp8463
I1
a(lp8464
F0.439344
aaI305
aaa(lp8465
g7389
ag7390
a(lp8466
I1
a(lp8467
F0.226744
aaI172
aaa(lp8468
g7398
ag7399
a(lp8469
I1
a(lp8470
F0.451104
aaI317
aa(lp8471
I1
a(lp8472
F0.404682
aaI299
aa(lp8473
I1
a(lp8474
F0.269767
aaI215
aa(lp8475
I1
a(lp8476
F0.258216
aaI213
aa(lp8477
I1
a(lp8478
F0.265217
aaI230
aaa(lp8479
g7401
ag7402
a(lp8480
I1
a(lp8481
F0.491228
aaI342
aa(lp8482
I1
a(lp8483
F0.501706
aaI293
aa(lp8484
I1
a(lp8485
F0.424528
aaI318
aa(lp8486
I1
a(lp8487
F0.418398
aaI337
aa(lp8488
I1
a(lp8489
F0.424615
aaI325
aa(lp8490
I1
a(lp8491
F0.434251
aaI327
aa(lp8492
I1
a(lp8493
F0.221277
aaI235
aa(lp8494
I1
a(lp8495
F0.255924
aaI211
aa(lp8496
I1
a(lp8497
F0.235556
aaI225
aa(lp8498
I1
a(lp8499
F0.338095
aaI210
aa(lp8500
I1
a(lp8501
F0.283843
aaI229
aa(lp8502
I1
a(lp8503
F0.297872
aaI235
aa(lp8504
I1
a(lp8505
F0.266376
aaI229
aa(lp8506
I1
a(lp8507
F0.231481
aaI216
aa(lp8508
I1
a(lp8509
F0.353712
aaI229
aa(lp8510
I1
a(lp8511
F0.35514
aaI214
aa(lp8512
I1
a(lp8513
F0.401786
aaI224
aa(lp8514
I1
a(lp8515
F0.203125
aaI256
aaa(lp8516
g7432
ag7433
a(lp8517
I1
a(lp8518
F0.310458
aaI306
aaa(lp8519
g7441
ag7442
a(lp8520
I1
a(lp8521
F0.471429
aaI280
aaa(lp8522
g7446
ag7447
a(lp8523
I1
a(lp8524
F0.245098
aaI204
aaa(lp8525
g7457
ag7458
a(lp8526
I1
a(lp8527
F0.342105
aaI190
aa(lp8528
I1
a(lp8529
F0.243902
aaI164
aa(lp8530
I1
a(lp8531
F0.541139
aaI316
aa(lp8532
I1
a(lp8533
F0.35743
aaI249
aa(lp8534
I1
a(lp8535
F0.444882
aaI254
aaa(lp8536
g7468
ag7469
aa(lp8537
g7477
ag7478
a(lp8538
I1
a(lp8539
F0.364486
aaI214
aa(lp8540
I1
a(lp8541
F0.321608
aaI199
aa(lp8542
I1
a(lp8543
F0.32
aaI200
aa(lp8544
I1
a(lp8545
F0.316583
aaI199
aa(lp8546
I1
a(lp8547
F0.30622
aaI209
aa(lp8548
I1
a(lp8549
F0.306122
aaI196
aa(lp8550
I1
a(lp8551
F0.297872
aaI188
aa(lp8552
I1
a(lp8553
F0.256684
aaI187
aa(lp8554
I1
a(lp8555
F0.25
aaI180
aaa(lp8556
g7488
ag7489
aa(lp8557
g7513
ag7514
a(lp8558
I1
a(lp8559
F0.229692
aaI357
aaa(lp8560
g7518
ag7519
a(lp8561
I1
a(lp8562
F0.427419
aaI248
aa(lp8563
I1
a(lp8564
F0.463333
aaI300
aa(lp8565
I1
a(lp8566
F0.489865
aaI296
aa(lp8567
I1
a(lp8568
F0.453061
aaI245
aa(lp8569
I1
a(lp8570
F0.419087
aaI241
aa(lp8571
I1
a(lp8572
F0.388646
aaI229
aa(lp8573
I1
a(lp8574
F0.364929
aaI211
aa(lp8575
I1
a(lp8576
F0.446721
aaI244
aa(lp8577
I1
a(lp8578
F0.464844
aaI256
aa(lp8579
I1
a(lp8580
F0.462687
aaI268
aa(lp8581
I1
a(lp8582
F0.321267
aaI221
aa(lp8583
I1
a(lp8584
F0.206897
aaI203
aaa(lp8585
g7521
ag7522
aa(lp8586
g7528
ag7529
aass.