(dp0
S'triploids'
p1
(dp2
S'down'
p3
(lp4
(lp5
S'scaffold34413_cov63'
p6
aS'scaffold2285_cov92'
p7
aa(lp8
S'scaffold6010_cov62'
p9
aS'scaffold6032_cov86'
p10
a(lp11
I1
a(lp12
F0.0
aaI9
aa(lp13
I1
a(lp14
F0.0
aaI12
aa(lp15
I1
a(lp16
F0.0
aaI7
aa(lp17
I1
a(lp18
F0.0
aaI9
aa(lp19
I1
a(lp20
F0.666667
aaI12
aa(lp21
I1
a(lp22
F0.333333
aaI12
aa(lp23
I1
a(lp24
F0.0
aaI14
aa(lp25
I2
a(lp26
F0.6
aF0.4
aaI10
aa(lp27
I1
a(lp28
F0.0
aaI4
aa(lp29
I1
a(lp30
F0.0
aaI2
aa(lp31
I1
a(lp32
F0.0
aaI3
aa(lp33
I1
a(lp34
F0.0
aaI7
aa(lp35
I1
a(lp36
F0.0
aaI5
aa(lp37
I1
a(lp38
F0.0
aaI15
aa(lp39
I1
a(lp40
F0.0
aaI10
aa(lp41
I1
a(lp42
F0.0
aaI10
aa(lp43
I1
a(lp44
F0.0
aaI4
aa(lp45
I1
a(lp46
F0.0
aaI4
aaa(lp47
S'scaffold14_cov100'
p48
aS'scaffold8499_cov57'
p49
aa(lp50
S'scaffold37470_cov151'
p51
aS'scaffold23346_cov53'
p52
aa(lp53
S'scaffold19386_cov101'
p54
aS'scaffold34060_cov96'
p55
a(lp56
I1
a(lp57
F0.375
aaI16
aa(lp58
I1
a(lp59
F0.4
aaI15
aa(lp60
I1
a(lp61
F0.571429
aaI14
aa(lp62
I1
a(lp63
F0.615385
aaI13
aa(lp64
I1
a(lp65
F0.333333
aaI12
aa(lp66
I1
a(lp67
F0.466667
aaI15
aa(lp68
I1
a(lp69
F0.461538
aaI13
aa(lp70
I1
a(lp71
F0.5
aaI16
aa(lp72
I1
a(lp73
F0.533333
aaI15
aa(lp74
I1
a(lp75
F0.428571
aaI14
aa(lp76
I1
a(lp77
F0.5
aaI12
aa(lp78
I1
a(lp79
F0.4
aaI10
aa(lp80
I1
a(lp81
F0.277778
aaI18
aa(lp82
I1
a(lp83
F0.277778
aaI18
aaa(lp84
S'scaffold20051_cov88'
p85
aS'scaffold16801_cov94'
p86
a(lp87
I1
a(lp88
F0.25
aaI12
aa(lp89
I1
a(lp90
F0.0
aaI10
aaa(lp91
S'scaffold32_cov80'
p92
aS'scaffold9366_cov65'
p93
a(lp94
I1
a(lp95
F0.0
aaI9
aaa(lp96
S'scaffold5664_cov97'
p97
aS'scaffold8637_cov48'
p98
aa(lp99
S'scaffold9935_cov102'
p100
aS'scaffold15216_cov95'
p101
aa(lp102
S'scaffold42461_cov100'
p103
aS'scaffold7156_cov63'
p104
a(lp105
I1
a(lp106
F0.666667
aaI3
aaa(lp107
S'scaffold7846_cov55'
p108
aS'scaffold37339_cov109'
p109
a(lp110
I1
a(lp111
F0.0
aaI5
aa(lp112
I1
a(lp113
F0.0
aaI5
aa(lp114
I1
a(lp115
F0.0
aaI2
aa(lp116
I1
a(lp117
F0.3
aaI20
aa(lp118
I1
a(lp119
F0.875
aaI8
aaa(lp120
S'scaffold3621_cov101'
p121
aS'scaffold3183_cov139'
p122
aa(lp123
S'scaffold18737_cov72'
p124
aS'scaffold38243_cov111'
p125
a(lp126
I1
a(lp127
F0.0
aaI26
aa(lp128
I1
a(lp129
F0.388889
aaI18
aa(lp130
I1
a(lp131
F0.307692
aaI13
aa(lp132
I1
a(lp133
F0.333333
aaI6
aa(lp134
I1
a(lp135
F0.333333
aaI6
aa(lp136
I1
a(lp137
F0.285714
aaI14
aaa(lp138
S'scaffold5119_cov50'
p139
aS'scaffold5118_cov85'
p140
a(lp141
I1
a(lp142
F0.0
aaI2
aa(lp143
I1
a(lp144
F0.0
aaI3
aa(lp145
I1
a(lp146
F0.0
aaI3
aa(lp147
I1
a(lp148
F0.0
aaI3
aa(lp149
I1
a(lp150
F0.0
aaI5
aa(lp151
I1
a(lp152
F0.25
aaI8
aa(lp153
I1
a(lp154
F0.6
aaI15
aa(lp155
I1
a(lp156
F0.0
aaI8
aa(lp157
I1
a(lp158
F0.0
aaI3
aa(lp159
I1
a(lp160
F0.4
aaI5
aa(lp161
I1
a(lp162
F0.555556
aaI9
aa(lp163
I1
a(lp164
F0.555556
aaI9
aaa(lp165
S'scaffold174_cov95'
p166
aS'scaffold1036_cov100'
p167
a(lp168
I1
a(lp169
F0.333333
aaI9
aa(lp170
I1
a(lp171
F0.444444
aaI9
aaa(lp172
S'scaffold37758_cov123'
p173
aS'scaffold878_cov66'
p174
a(lp175
I1
a(lp176
F0.55
aaI20
aa(lp177
I1
a(lp178
F0.428571
aaI21
aa(lp179
I1
a(lp180
F0.4
aaI10
aaa(lp181
S'scaffold2212_cov51'
p182
aS'scaffold8360_cov69'
p183
a(lp184
I1
a(lp185
F0.0
aaI2
aa(lp186
I1
a(lp187
F0.0
aaI2
aa(lp188
I1
a(lp189
F0.0
aaI2
aa(lp190
I1
a(lp191
F0.0
aaI9
aa(lp192
I1
a(lp193
F0.0
aaI8
aa(lp194
I1
a(lp195
F0.0
aaI9
aaa(lp196
S'scaffold11244_cov56'
p197
aS'scaffold7401_cov60'
p198
a(lp199
I1
a(lp200
F0.0
aaI5
aa(lp201
I1
a(lp202
F0.0
aaI2
aa(lp203
I1
a(lp204
F0.0
aaI5
aa(lp205
I1
a(lp206
F0.0
aaI2
aa(lp207
I1
a(lp208
F0.0
aaI2
aa(lp209
I1
a(lp210
F0.0
aaI2
aa(lp211
I1
a(lp212
F0.0
aaI2
aaa(lp213
S'scaffold687_cov68'
p214
aS'scaffold5823_cov93'
p215
aa(lp216
S'scaffold26402_cov46'
p217
aS'scaffold26400_cov107'
p218
a(lp219
I1
a(lp220
F0.0
aaI9
aaa(lp221
S'scaffold28921_cov145'
p222
aS'scaffold41142_cov161'
p223
aa(lp224
S'scaffold5328_cov53'
p225
aS'scaffold5663_cov69'
p226
a(lp227
I1
a(lp228
F0.296296
aaI54
aa(lp229
I1
a(lp230
F0.0
aaI18
aa(lp231
I1
a(lp232
F0.0
aaI9
aa(lp233
I1
a(lp234
F0.0
aaI7
aa(lp235
I1
a(lp236
F0.0
aaI9
aa(lp237
I1
a(lp238
F0.0
aaI7
aaa(lp239
S'scaffold497_cov71'
p240
aS'scaffold35984_cov60'
p241
a(lp242
I1
a(lp243
F0.0
aaI8
aa(lp244
I1
a(lp245
F0.0
aaI15
aa(lp246
I1
a(lp247
F0.0
aaI9
aa(lp248
I1
a(lp249
F0.636364
aaI11
aa(lp250
I1
a(lp251
F0.272727
aaI11
aa(lp252
I1
a(lp253
F0.333333
aaI9
aa(lp254
I1
a(lp255
F0.4
aaI5
aa(lp256
I1
a(lp257
F0.4
aaI5
aaa(lp258
S'scaffold772_cov56'
p259
aS'scaffold1537_cov77'
p260
a(lp261
I2
a(lp262
F0.222222
aF0.222222
aaI9
aa(lp263
I1
a(lp264
F0.307692
aaI13
aa(lp265
I1
a(lp266
F0.230769
aaI13
aa(lp267
I1
a(lp268
F0.47619
aaI21
aa(lp269
I1
a(lp270
F0.4
aaI20
aa(lp271
I1
a(lp272
F0.277778
aaI18
aa(lp273
I1
a(lp274
F0.2
aaI15
aaa(lp275
S'scaffold1673_cov68'
p276
aS'scaffold1672_cov57'
p277
a(lp278
I1
a(lp279
F0.0
aaI2
aa(lp280
I1
a(lp281
F0.0
aaI2
aa(lp282
I1
a(lp283
F0.0
aaI2
aa(lp284
I1
a(lp285
F0.0
aaI2
aa(lp286
I1
a(lp287
F0.75
aaI4
aaa(lp288
S'scaffold35008_cov71'
p289
aS'scaffold617_cov62'
p290
a(lp291
I1
a(lp292
F0.0
aaI2
aa(lp293
I1
a(lp294
F0.0
aaI2
aa(lp295
I1
a(lp296
F0.0
aaI2
aa(lp297
I1
a(lp298
F0.0
aaI3
aa(lp299
I1
a(lp300
F0.0
aaI9
aaa(lp301
S'scaffold846_cov98'
p302
aS'scaffold13232_cov62'
p303
aa(lp304
S'scaffold16656_cov56'
p305
aS'scaffold1461_cov54'
p306
a(lp307
I1
a(lp308
F0.307692
aaI13
aaa(lp309
S'scaffold12036_cov77'
p310
aS'scaffold2530_cov71'
p311
a(lp312
I1
a(lp313
F0.5
aaI14
aa(lp314
I1
a(lp315
F0.5
aaI14
aa(lp316
I1
a(lp317
F0.5
aaI14
aaa(lp318
S'scaffold33286_cov88'
p319
aS'scaffold10537_cov54'
p320
aa(lp321
S'scaffold3719_cov93'
p322
aS'scaffold28403_cov55'
p323
a(lp324
I1
a(lp325
F0.368421
aaI19
aa(lp326
I1
a(lp327
F0.388889
aaI18
aa(lp328
I1
a(lp329
F0.294118
aaI17
aa(lp330
I1
a(lp331
F0.25
aaI16
aa(lp332
I1
a(lp333
F0.25
aaI16
aaa(lp334
S'scaffold20937_cov59'
p335
aS'scaffold7528_cov114'
p336
aa(lp337
S'scaffold19259_cov55'
p338
aS'scaffold16506_cov55'
p339
aa(lp340
S'scaffold46292_cov180'
p341
aS'scaffold44255_cov165'
p342
aa(lp343
S'scaffold1561_cov50'
p344
aS'scaffold1981_cov53'
p345
a(lp346
I1
a(lp347
F0.5
aaI4
aa(lp348
I1
a(lp349
F0.666667
aaI6
aa(lp350
I1
a(lp351
F0.666667
aaI6
aa(lp352
I1
a(lp353
F0.285714
aaI14
aa(lp354
I1
a(lp355
F0.285714
aaI14
aa(lp356
I1
a(lp357
F0.5625
aaI16
aa(lp358
I1
a(lp359
F0.6
aaI15
aaa(lp360
S'scaffold5211_cov57'
p361
aS'scaffold7470_cov77'
p362
aa(lp363
S'scaffold57_cov62'
p364
aS'scaffold10002_cov126'
p365
aa(lp366
S'scaffold13919_cov66'
p367
aS'scaffold7244_cov53'
p368
aa(lp369
S'scaffold2317_cov61'
p370
aS'scaffold40182_cov165'
p371
aa(lp372
S'scaffold24311_cov69'
p373
aS'scaffold138_cov63'
p374
a(lp375
I2
a(lp376
F0.428571
aF0.5
aaI14
aa(lp377
I1
a(lp378
F0.625
aaI24
aa(lp379
I1
a(lp380
F0.428571
aaI7
aa(lp381
I1
a(lp382
F0.428571
aaI7
aa(lp383
I1
a(lp384
F0.0
aaI16
aa(lp385
I1
a(lp386
F0.375
aaI8
aa(lp387
I1
a(lp388
F0.333333
aaI9
aaa(lp389
S'scaffold9133_cov84'
p390
aS'scaffold507_cov73'
p391
aa(lp392
S'scaffold11587_cov65'
p393
aS'scaffold3118_cov72'
p394
aa(lp395
S'scaffold3771_cov131'
p396
aS'scaffold487_cov56'
p397
aa(lp398
S'scaffold2592_cov100'
p399
aS'scaffold466_cov101'
p400
aa(lp401
S'scaffold4668_cov92'
p402
aS'scaffold35981_cov85'
p403
a(lp404
I1
a(lp405
F0.0
aaI2
aaa(lp406
S'scaffold5700_cov54'
p407
aS'scaffold13336_cov75'
p408
aa(lp409
S'scaffold1671_cov114'
p410
aS'scaffold16650_cov62'
p411
aa(lp412
S'scaffold5768_cov48'
p413
aS'scaffold23308_cov74'
p414
a(lp415
I1
a(lp416
F0.0
aaI2
aa(lp417
I1
a(lp418
F0.0
aaI2
aa(lp419
I1
a(lp420
F0.0
aaI2
aa(lp421
I1
a(lp422
F0.0
aaI2
aaa(lp423
S'scaffold36821_cov56'
p424
aS'scaffold17489_cov70'
p425
aa(lp426
S'scaffold6606_cov160'
p427
aS'scaffold36583_cov64'
p428
aa(lp429
S'scaffold2786_cov74'
p430
aS'scaffold2945_cov79'
p431
a(lp432
I1
a(lp433
F0.0
aaI7
aa(lp434
I1
a(lp435
F0.0
aaI11
aa(lp436
I1
a(lp437
F0.0
aaI12
aa(lp438
I1
a(lp439
F0.0
aaI7
aa(lp440
I1
a(lp441
F0.0
aaI10
aa(lp442
I1
a(lp443
F0.0
aaI5
aa(lp444
I1
a(lp445
F0.0
aaI9
aa(lp446
I1
a(lp447
F0.0
aaI5
aa(lp448
I1
a(lp449
F0.0
aaI5
aaa(lp450
S'scaffold7573_cov53'
p451
aS'scaffold7572_cov84'
p452
a(lp453
I1
a(lp454
F0.571429
aaI14
aa(lp455
I1
a(lp456
F0.666667
aaI12
aa(lp457
I1
a(lp458
F0.714286
aaI7
aa(lp459
I1
a(lp460
F0.0
aaI4
aa(lp461
I1
a(lp462
F0.727273
aaI11
aa(lp463
I1
a(lp464
F0.25
aaI20
aaa(lp465
S'scaffold713_cov67'
p466
aS'scaffold15659_cov85'
p467
a(lp468
I1
a(lp469
F0.0
aaI8
aa(lp470
I1
a(lp471
F0.0
aaI8
aa(lp472
I1
a(lp473
F0.0
aaI9
aa(lp474
I1
a(lp475
F0.30303
aaI33
aa(lp476
I1
a(lp477
F0.208333
aaI24
aaa(lp478
S'scaffold27913_cov149'
p479
aS'scaffold565_cov58'
p480
aa(lp481
S'scaffold1828_cov67'
p482
aS'scaffold608_cov87'
p483
a(lp484
I1
a(lp485
F0.0
aaI2
aaa(lp486
S'scaffold3646_cov69'
p487
aS'scaffold10188_cov85'
p488
a(lp489
I1
a(lp490
F0.0
aaI12
aa(lp491
I1
a(lp492
F0.0
aaI5
aa(lp493
I1
a(lp494
F0.0
aaI3
aa(lp495
I1
a(lp496
F0.0
aaI4
aa(lp497
I1
a(lp498
F0.0
aaI5
aa(lp499
I1
a(lp500
F0.0
aaI9
aa(lp501
I1
a(lp502
F0.0
aaI11
aa(lp503
I1
a(lp504
F0.0
aaI11
aa(lp505
I1
a(lp506
F0.0
aaI13
aa(lp507
I1
a(lp508
F0.0
aaI13
aaa(lp509
S'scaffold2393_cov71'
p510
aS'scaffold1040_cov63'
p511
aa(lp512
S'scaffold6640_cov57'
p513
aS'scaffold15420_cov62'
p514
aa(lp515
S'scaffold14528_cov78'
p516
aS'scaffold7703_cov52'
p517
a(lp518
I1
a(lp519
F0.0
aaI11
aa(lp520
I2
a(lp521
F0.5
aF0.5
aaI4
aaa(lp522
S'scaffold35197_cov159'
p523
aS'scaffold1670_cov61'
p524
aa(lp525
S'scaffold3247_cov88'
p526
aS'scaffold33782_cov98'
p527
a(lp528
I1
a(lp529
F0.8
aaI5
aa(lp530
I1
a(lp531
F0.0
aaI6
aa(lp532
I1
a(lp533
F0.0
aaI8
aa(lp534
I1
a(lp535
F0.0
aaI9
aa(lp536
I1
a(lp537
F0.0
aaI11
aa(lp538
I1
a(lp539
F0.0
aaI7
aa(lp540
I1
a(lp541
F0.0
aaI10
aa(lp542
I1
a(lp543
F0.0
aaI9
aa(lp544
I1
a(lp545
F0.0
aaI9
aa(lp546
I1
a(lp547
F0.0
aaI10
aa(lp548
I1
a(lp549
F0.0
aaI10
aa(lp550
I1
a(lp551
F0.0
aaI4
aa(lp552
I1
a(lp553
F0.0
aaI7
aa(lp554
I1
a(lp555
F0.428571
aaI7
aa(lp556
I1
a(lp557
F0.0
aaI15
aa(lp558
I1
a(lp559
F0.5
aaI12
aa(lp560
I1
a(lp561
F0.5
aaI14
aa(lp562
I1
a(lp563
F0.0
aaI13
aa(lp564
I1
a(lp565
F0.411765
aaI17
aa(lp566
I1
a(lp567
F0.461538
aaI13
aa(lp568
I1
a(lp569
F0.555556
aaI18
aa(lp570
I1
a(lp571
F0.428571
aaI14
aa(lp572
I1
a(lp573
F0.285714
aaI21
aa(lp574
I1
a(lp575
F0.277778
aaI18
aa(lp576
I1
a(lp577
F0.388889
aaI18
aa(lp578
I1
a(lp579
F0.5
aaI14
aa(lp580
I1
a(lp581
F0.411765
aaI17
aa(lp582
I1
a(lp583
F0.571429
aaI21
aa(lp584
I1
a(lp585
F0.3
aaI20
aa(lp586
I1
a(lp587
F0.315789
aaI19
aa(lp588
I1
a(lp589
F0.470588
aaI17
aa(lp590
I1
a(lp591
F0.5625
aaI16
aa(lp592
I1
a(lp593
F0.5
aaI18
aa(lp594
I1
a(lp595
F0.666667
aaI18
aa(lp596
I1
a(lp597
F0.666667
aaI18
aa(lp598
I1
a(lp599
F0.333333
aaI21
aa(lp600
I1
a(lp601
F0.307692
aaI13
aa(lp602
I1
a(lp603
F0.3
aaI10
aa(lp604
I1
a(lp605
F0.529412
aaI17
aa(lp606
I1
a(lp607
F0.363636
aaI11
aaa(lp608
S'scaffold33702_cov55'
p609
aS'scaffold1281_cov80'
p610
a(lp611
I1
a(lp612
F0.266667
aaI15
aa(lp613
I1
a(lp614
F0.25
aaI16
aa(lp615
I1
a(lp616
F0.0
aaI7
aa(lp617
I1
a(lp618
F0.0
aaI7
aa(lp619
I1
a(lp620
F0.285714
aaI7
aa(lp621
I1
a(lp622
F0.25
aaI8
aa(lp623
I1
a(lp624
F0.333333
aaI9
aa(lp625
I1
a(lp626
F0.2
aaI15
aa(lp627
I1
a(lp628
F0.2
aaI15
aa(lp629
I1
a(lp630
F0.222222
aaI9
aa(lp631
I1
a(lp632
F0.214286
aaI14
aa(lp633
I1
a(lp634
F0.230769
aaI13
aa(lp635
I1
a(lp636
F0.266667
aaI15
aa(lp637
I1
a(lp638
F0.0
aaI9
aa(lp639
I1
a(lp640
F0.0
aaI8
aa(lp641
I1
a(lp642
F0.0
aaI2
aa(lp643
I1
a(lp644
F0.0
aaI2
aaa(lp645
S'scaffold866_cov53'
p646
aS'scaffold4034_cov67'
p647
aa(lp648
S'scaffold34231_cov91'
p649
aS'scaffold39009_cov103'
p650
aa(lp651
S'scaffold35_cov50'
p652
aS'scaffold34360_cov143'
p653
aa(lp654
S'scaffold4544_cov85'
p655
aS'scaffold30472_cov70'
p656
aa(lp657
S'scaffold5777_cov82'
p658
aS'scaffold6784_cov56'
p659
aa(lp660
S'scaffold23743_cov66'
p661
aS'scaffold10910_cov53'
p662
aa(lp663
S'scaffold15690_cov108'
p664
aS'scaffold36775_cov68'
p665
a(lp666
I1
a(lp667
F0.363636
aaI11
aa(lp668
I1
a(lp669
F0.611111
aaI18
aa(lp670
I1
a(lp671
F0.285714
aaI7
aa(lp672
I1
a(lp673
F0.285714
aaI7
aa(lp674
I1
a(lp675
F0.285714
aaI7
aa(lp676
I1
a(lp677
F0.357143
aaI14
aa(lp678
I1
a(lp679
F0.2
aaI15
aa(lp680
I1
a(lp681
F0.357143
aaI14
aa(lp682
I1
a(lp683
F0.428571
aaI14
aa(lp684
I1
a(lp685
F0.307692
aaI13
aa(lp686
I1
a(lp687
F0.615385
aaI26
aa(lp688
I1
a(lp689
F0.2
aaI15
aa(lp690
I1
a(lp691
F0.2
aaI15
aa(lp692
I1
a(lp693
F0.230769
aaI13
aa(lp694
I1
a(lp695
F0.235294
aaI17
aa(lp696
I1
a(lp697
F0.2
aaI15
aa(lp698
I1
a(lp699
F0.230769
aaI13
aa(lp700
I1
a(lp701
F0.5
aaI24
aa(lp702
I1
a(lp703
F0.294118
aaI17
aa(lp704
I1
a(lp705
F0.5625
aaI16
aa(lp706
I1
a(lp707
F0.333333
aaI9
aa(lp708
I1
a(lp709
F0.333333
aaI9
aa(lp710
I1
a(lp711
F0.428571
aaI14
aaa(lp712
S'scaffold7217_cov99'
p713
aS'scaffold35970_cov109'
p714
a(lp715
I1
a(lp716
F0.45
aaI20
aa(lp717
I1
a(lp718
F0.454545
aaI11
aa(lp719
I1
a(lp720
F0.3
aaI10
aa(lp721
I1
a(lp722
F0.625
aaI8
aa(lp723
I1
a(lp724
F0.0
aaI8
aa(lp725
I1
a(lp726
F0.555556
aaI9
aa(lp727
I1
a(lp728
F0.285714
aaI7
aaa(lp729
S'scaffold7766_cov56'
p730
aS'scaffold8073_cov71'
p731
aa(lp732
S'scaffold1201_cov53'
p733
aS'scaffold8487_cov70'
p734
aa(lp735
S'scaffold1740_cov88'
p736
aS'scaffold19477_cov64'
p737
a(lp738
I1
a(lp739
F0.285714
aaI7
aa(lp740
I1
a(lp741
F0.25
aaI12
aa(lp742
I1
a(lp743
F0.2
aaI10
aa(lp744
I1
a(lp745
F0.222222
aaI9
aa(lp746
I1
a(lp747
F0.3
aaI10
aa(lp748
I1
a(lp749
F0.375
aaI8
aa(lp750
I1
a(lp751
F0.3
aaI10
aa(lp752
I1
a(lp753
F0.222222
aaI9
aa(lp754
I1
a(lp755
F0.2
aaI10
aa(lp756
I1
a(lp757
F0.222222
aaI9
aa(lp758
I1
a(lp759
F0.285714
aaI7
aa(lp760
I1
a(lp761
F0.25
aaI8
aa(lp762
I1
a(lp763
F0.333333
aaI6
aa(lp764
I1
a(lp765
F0.333333
aaI6
aa(lp766
I1
a(lp767
F0.4
aaI5
aa(lp768
I1
a(lp769
F0.333333
aaI6
aa(lp770
I1
a(lp771
F0.285714
aaI7
aa(lp772
I1
a(lp773
F0.363636
aaI11
aa(lp774
I1
a(lp775
F0.4375
aaI16
aaa(lp776
S'scaffold6317_cov51'
p777
aS'scaffold874_cov68'
p778
aa(lp779
S'scaffold3440_cov56'
p780
aS'scaffold582_cov57'
p781
a(lp782
I1
a(lp783
F0.0
aaI2
aa(lp784
I1
a(lp785
F0.0
aaI2
aa(lp786
I1
a(lp787
F0.0
aaI8
aaa(lp788
S'scaffold2946_cov99'
p789
aS'scaffold8059_cov49'
p790
a(lp791
I1
a(lp792
F0.2
aaI10
aa(lp793
I1
a(lp794
F0.2
aaI10
aa(lp795
I1
a(lp796
F0.0
aaI11
aaa(lp797
S'scaffold7406_cov97'
p798
aS'scaffold4048_cov55'
p799
aa(lp800
S'scaffold10506_cov79'
p801
aS'scaffold5498_cov103'
p802
a(lp803
I1
a(lp804
F1.0
aaI5
aa(lp805
I1
a(lp806
F0.0
aaI6
aa(lp807
I1
a(lp808
F0.0
aaI6
aa(lp809
I1
a(lp810
F0.0
aaI8
aa(lp811
I1
a(lp812
F0.0
aaI10
aa(lp813
I1
a(lp814
F0.4
aaI5
aa(lp815
I1
a(lp816
F0.333333
aaI6
aa(lp817
I1
a(lp818
F0.428571
aaI7
aaa(lp819
S'scaffold5487_cov69'
p820
aS'scaffold7228_cov62'
p821
aa(lp822
S'scaffold11518_cov107'
p823
aS'scaffold11517_cov58'
p824
aa(lp825
S'scaffold11140_cov73'
p826
aS'scaffold5096_cov57'
p827
aa(lp828
S'scaffold7575_cov56'
p829
aS'scaffold7234_cov93'
p830
aa(lp831
S'scaffold1774_cov51'
p832
aS'scaffold707_cov65'
p833
a(lp834
I1
a(lp835
F0.0
aaI2
aa(lp836
I1
a(lp837
F0.0
aaI2
aa(lp838
I1
a(lp839
F0.0
aaI2
aa(lp840
I1
a(lp841
F0.0
aaI2
aa(lp842
I1
a(lp843
F0.333333
aaI6
aa(lp844
I1
a(lp845
F0.333333
aaI6
aa(lp846
I1
a(lp847
F0.461538
aaI13
aa(lp848
I1
a(lp849
F0.529412
aaI17
aaa(lp850
S'scaffold1943_cov61'
p851
aS'scaffold10758_cov137'
p852
aa(lp853
S'scaffold23544_cov102'
p854
aS'scaffold6429_cov65'
p855
a(lp856
I1
a(lp857
F0.0
aaI10
aa(lp858
I1
a(lp859
F0.0
aaI8
aaa(lp860
S'scaffold36297_cov113'
p861
aS'scaffold35963_cov95'
p862
a(lp863
I1
a(lp864
F0.0
aaI13
aa(lp865
I1
a(lp866
F0.333333
aaI12
aa(lp867
I1
a(lp868
F0.2
aaI10
aa(lp869
I1
a(lp870
F0.0
aaI3
aa(lp871
I1
a(lp872
F0.0
aaI3
aa(lp873
I1
a(lp874
F0.25
aaI12
aa(lp875
I1
a(lp876
F0.413793
aaI29
aa(lp877
I1
a(lp878
F0.44
aaI25
aa(lp879
I1
a(lp880
F0.8125
aaI16
aa(lp881
I1
a(lp882
F0.0
aaI4
aa(lp883
I1
a(lp884
F0.0
aaI3
aa(lp885
I1
a(lp886
F0.0
aaI2
aa(lp887
I1
a(lp888
F0.0
aaI2
aa(lp889
I1
a(lp890
F0.0
aaI9
aa(lp891
I1
a(lp892
F0.0
aaI8
aa(lp893
I1
a(lp894
F0.0
aaI6
aa(lp895
I1
a(lp896
F0.0
aaI6
aa(lp897
I1
a(lp898
F0.0
aaI3
aa(lp899
I1
a(lp900
F0.0
aaI3
aa(lp901
I1
a(lp902
F0.0
aaI2
aaa(lp903
S'scaffold22301_cov147'
p904
aS'scaffold28236_cov103'
p905
aa(lp906
S'scaffold2248_cov58'
p907
aS'scaffold16639_cov75'
p908
aa(lp909
S'scaffold33612_cov72'
p910
aS'scaffold29903_cov123'
p911
aa(lp912
S'scaffold21922_cov80'
p913
aS'scaffold34278_cov88'
p914
a(lp915
I1
a(lp916
F0.230769
aaI13
aa(lp917
I1
a(lp918
F0.333333
aaI6
aa(lp919
I1
a(lp920
F0.0
aaI6
aa(lp921
I1
a(lp922
F0.0
aaI19
aa(lp923
I1
a(lp924
F0.375
aaI8
aa(lp925
I1
a(lp926
F0.5
aaI18
aa(lp927
I1
a(lp928
F0.0
aaI23
aa(lp929
I1
a(lp930
F0.714286
aaI14
aa(lp931
I1
a(lp932
F0.0
aaI7
aa(lp933
I1
a(lp934
F0.0
aaI8
aa(lp935
I1
a(lp936
F0.0
aaI7
aa(lp937
I1
a(lp938
F0.0
aaI9
aa(lp939
I1
a(lp940
F0.5
aaI10
aa(lp941
I1
a(lp942
F0.0
aaI11
aa(lp943
I1
a(lp944
F0.416667
aaI12
aa(lp945
I2
a(lp946
F0.4
aF0.5
aaI10
aa(lp947
I1
a(lp948
F0.5
aaI10
aa(lp949
I1
a(lp950
F0.833333
aaI6
aa(lp951
I1
a(lp952
F0.454545
aaI11
aa(lp953
I1
a(lp954
F0.2
aaI15
aa(lp955
I2
a(lp956
F0.4
aF0.6
aaI10
aaa(lp957
S'scaffold9543_cov100'
p958
aS'scaffold11533_cov113'
p959
a(lp960
I1
a(lp961
F0.0
aaI14
aa(lp962
I1
a(lp963
F0.636364
aaI11
aa(lp964
I1
a(lp965
F0.6
aaI10
aa(lp966
I1
a(lp967
F0.555556
aaI9
aa(lp968
I1
a(lp969
F0.266667
aaI15
aaa(lp970
S'scaffold34199_cov83'
p971
aS'scaffold886_cov63'
p972
a(lp973
I1
a(lp974
F0.0
aaI3
aa(lp975
I1
a(lp976
F0.0
aaI4
aa(lp977
I1
a(lp978
F0.0
aaI4
aa(lp979
I1
a(lp980
F0.0
aaI4
aa(lp981
I1
a(lp982
F0.0
aaI5
aa(lp983
I1
a(lp984
F0.0
aaI5
aa(lp985
I1
a(lp986
F0.0
aaI3
aa(lp987
I1
a(lp988
F0.0
aaI2
aa(lp989
I1
a(lp990
F0.0
aaI6
aa(lp991
I1
a(lp992
F0.0
aaI2
aa(lp993
I1
a(lp994
F0.0
aaI3
aa(lp995
I1
a(lp996
F0.0
aaI2
aa(lp997
I1
a(lp998
F0.0
aaI5
aa(lp999
I1
a(lp1000
F0.0
aaI3
aa(lp1001
I1
a(lp1002
F0.0
aaI6
aaa(lp1003
S'scaffold827_cov76'
p1004
aS'scaffold3365_cov65'
p1005
a(lp1006
I1
a(lp1007
F0.6
aaI5
aa(lp1008
I1
a(lp1009
F0.0
aaI5
aa(lp1010
I1
a(lp1011
F0.0
aaI3
aaa(lp1012
S'scaffold8638_cov55'
p1013
aS'scaffold7200_cov64'
p1014
a(lp1015
I1
a(lp1016
F0.375
aaI8
aa(lp1017
I1
a(lp1018
F0.375
aaI8
aa(lp1019
I1
a(lp1020
F0.428571
aaI7
aa(lp1021
I1
a(lp1022
F0.4
aaI15
aa(lp1023
I1
a(lp1024
F0.6
aaI15
aa(lp1025
I1
a(lp1026
F0.0
aaI2
aa(lp1027
I1
a(lp1028
F0.538462
aaI13
aaa(lp1029
S'scaffold3303_cov130'
p1030
aS'scaffold4478_cov57'
p1031
a(lp1032
I1
a(lp1033
F0.357143
aaI14
aa(lp1034
I1
a(lp1035
F0.315789
aaI19
aaa(lp1036
S'scaffold8021_cov59'
p1037
aS'scaffold1455_cov53'
p1038
a(lp1039
I1
a(lp1040
F0.538462
aaI13
aa(lp1041
I1
a(lp1042
F0.0
aaI10
aa(lp1043
I1
a(lp1044
F0.222222
aaI9
aa(lp1045
I1
a(lp1046
F0.333333
aaI9
aa(lp1047
I1
a(lp1048
F0.3
aaI10
aa(lp1049
I1
a(lp1050
F0.25
aaI12
aa(lp1051
I1
a(lp1052
F0.470588
aaI17
aa(lp1053
I1
a(lp1054
F0.272727
aaI11
aa(lp1055
I1
a(lp1056
F0.230769
aaI13
aa(lp1057
I1
a(lp1058
F0.342419
aaI2348
aa(lp1059
I1
a(lp1060
F0.0
aaI1414
aaa(lp1061
S'scaffold6478_cov57'
p1062
aS'scaffold16314_cov97'
p1063
aa(lp1064
S'scaffold3443_cov80'
p1065
aS'scaffold2211_cov55'
p1066
a(lp1067
I1
a(lp1068
F0.333333
aaI30
aa(lp1069
I1
a(lp1070
F0.25
aaI8
aa(lp1071
I1
a(lp1072
F0.272727
aaI11
aa(lp1073
I1
a(lp1074
F0.272727
aaI11
aa(lp1075
I1
a(lp1076
F0.272727
aaI11
aa(lp1077
I1
a(lp1078
F0.230769
aaI13
aa(lp1079
I1
a(lp1080
F0.307692
aaI13
aa(lp1081
I1
a(lp1082
F0.333333
aaI12
aa(lp1083
I1
a(lp1084
F0.230769
aaI13
aaa(lp1085
S'scaffold36789_cov57'
p1086
aS'scaffold7965_cov102'
p1087
a(lp1088
I1
a(lp1089
F0.333333
aaI12
aa(lp1090
I1
a(lp1091
F0.384615
aaI13
aa(lp1092
I1
a(lp1093
F0.454545
aaI11
aa(lp1094
I1
a(lp1095
F0.6
aaI10
aa(lp1096
I1
a(lp1097
F0.4
aaI10
aa(lp1098
I1
a(lp1099
F0.4
aaI10
aa(lp1100
I1
a(lp1101
F0.818182
aaI11
aaa(lp1102
S'scaffold3742_cov92'
p1103
aS'scaffold33263_cov56'
p1104
a(lp1105
I1
a(lp1106
F0.0
aaI2
aa(lp1107
I1
a(lp1108
F0.0
aaI2
aa(lp1109
I1
a(lp1110
F0.0
aaI2
aa(lp1111
I1
a(lp1112
F0.0
aaI2
aa(lp1113
I1
a(lp1114
F0.0
aaI2
aa(lp1115
I1
a(lp1116
F0.0
aaI2
aa(lp1117
I1
a(lp1118
F0.0
aaI2
aa(lp1119
I1
a(lp1120
F0.0
aaI2
aaa(lp1121
S'scaffold5955_cov136'
p1122
aS'scaffold13833_cov52'
p1123
aa(lp1124
S'scaffold35021_cov83'
p1125
aS'scaffold43367_cov115'
p1126
aa(lp1127
S'scaffold9707_cov86'
p1128
aS'scaffold2016_cov55'
p1129
a(lp1130
I1
a(lp1131
F0.0
aaI12
aa(lp1132
I1
a(lp1133
F0.25
aaI12
aa(lp1134
I1
a(lp1135
F0.307692
aaI13
aa(lp1136
I1
a(lp1137
F0.307692
aaI13
aaa(lp1138
S'scaffold8082_cov74'
p1139
aS'scaffold12811_cov99'
p1140
a(lp1141
I1
a(lp1142
F0.0
aaI2
aa(lp1143
I1
a(lp1144
F0.0
aaI2
aa(lp1145
I1
a(lp1146
F0.0
aaI2
aa(lp1147
I1
a(lp1148
F0.0
aaI2
aa(lp1149
I1
a(lp1150
F0.666667
aaI3
aaa(lp1151
S'scaffold161_cov85'
p1152
aS'scaffold6173_cov81'
p1153
aa(lp1154
S'scaffold10735_cov120'
p1155
aS'scaffold15562_cov57'
p1156
a(lp1157
I1
a(lp1158
F0.0
aaI9
aa(lp1159
I1
a(lp1160
F0.2
aaI10
aa(lp1161
I1
a(lp1162
F0.444444
aaI9
aaa(lp1163
S'scaffold5970_cov74'
p1164
aS'scaffold12766_cov71'
p1165
aa(lp1166
S'scaffold20490_cov67'
p1167
aS'scaffold767_cov66'
p1168
a(lp1169
I1
a(lp1170
F0.0
aaI2
aa(lp1171
I1
a(lp1172
F0.25
aaI16
aa(lp1173
I1
a(lp1174
F0.266667
aaI15
aa(lp1175
I1
a(lp1176
F0.833333
aaI6
aa(lp1177
I1
a(lp1178
F0.875
aaI8
aa(lp1179
I1
a(lp1180
F0.285714
aaI7
aaa(lp1181
S'scaffold14430_cov83'
p1182
aS'scaffold24509_cov66'
p1183
a(lp1184
I1
a(lp1185
F0.0
aaI8
aa(lp1186
I1
a(lp1187
F0.0
aaI6
aa(lp1188
I1
a(lp1189
F0.0
aaI5
aa(lp1190
I1
a(lp1191
F0.285714
aaI7
aa(lp1192
I1
a(lp1193
F0.25
aaI8
aaa(lp1194
S'scaffold17734_cov54'
p1195
aS'scaffold4093_cov55'
p1196
a(lp1197
I1
a(lp1198
F0.0
aaI3
aa(lp1199
I1
a(lp1200
F0.214286
aaI14
aa(lp1201
I1
a(lp1202
F0.25
aaI12
aa(lp1203
I1
a(lp1204
F0.0
aaI12
aa(lp1205
I1
a(lp1206
F0.375
aaI8
aaa(lp1207
S'scaffold4097_cov96'
p1208
aS'scaffold1525_cov58'
p1209
a(lp1210
I1
a(lp1211
F0.2
aaI10
aa(lp1212
I1
a(lp1213
F0.0
aaI10
aa(lp1214
I1
a(lp1215
F0.0
aaI8
aa(lp1216
I1
a(lp1217
F0.222222
aaI9
aa(lp1218
I1
a(lp1219
F0.578947
aaI38
aaa(lp1220
S'scaffold1651_cov81'
p1221
aS'scaffold2084_cov95'
p1222
a(lp1223
I1
a(lp1224
F0.538462
aaI13
aa(lp1225
I1
a(lp1226
F0.333333
aaI12
aa(lp1227
I1
a(lp1228
F0.0
aaI12
aa(lp1229
I1
a(lp1230
F0.333333
aaI12
aa(lp1231
I1
a(lp1232
F0.5
aaI18
aa(lp1233
I1
a(lp1234
F0.444444
aaI18
aa(lp1235
I1
a(lp1236
F0.307692
aaI26
aa(lp1237
I1
a(lp1238
F0.666667
aaI27
aa(lp1239
I1
a(lp1240
F0.384615
aaI26
aa(lp1241
I1
a(lp1242
F0.4
aaI10
aa(lp1243
I1
a(lp1244
F0.517241
aaI29
aa(lp1245
I1
a(lp1246
F0.233333
aaI30
aa(lp1247
I1
a(lp1248
F0.208333
aaI24
aaa(lp1249
S'scaffold33949_cov53'
p1250
aS'scaffold55_cov132'
p1251
aa(lp1252
S'scaffold21076_cov99'
p1253
aS'scaffold8059_cov49'
p1254
aa(lp1255
S'scaffold35940_cov79'
p1256
aS'scaffold5213_cov135'
p1257
a(lp1258
I1
a(lp1259
F0.346154
aaI26
aaa(lp1260
S'scaffold34175_cov92'
p1261
aS'scaffold35057_cov143'
p1262
a(lp1263
I1
a(lp1264
F0.230769
aaI13
aa(lp1265
I1
a(lp1266
F0.230769
aaI13
aa(lp1267
I1
a(lp1268
F0.375
aaI8
aaa(lp1269
S'scaffold9871_cov55'
p1270
aS'scaffold3224_cov53'
p1271
a(lp1272
I1
a(lp1273
F0.375
aaI8
aaa(lp1274
S'scaffold1390_cov116'
p1275
aS'scaffold4621_cov57'
p1276
a(lp1277
I1
a(lp1278
F0.769231
aaI13
aa(lp1279
I1
a(lp1280
F0.333333
aaI15
aa(lp1281
I1
a(lp1282
F0.333333
aaI15
aa(lp1283
I1
a(lp1284
F0.307692
aaI13
aa(lp1285
I1
a(lp1286
F0.333333
aaI6
aa(lp1287
I1
a(lp1288
F0.222222
aaI9
aaa(lp1289
S'scaffold34270_cov89'
p1290
aS'scaffold5071_cov113'
p1291
aa(lp1292
S'scaffold311_cov53'
p1293
aS'scaffold16119_cov63'
p1294
aa(lp1295
S'scaffold1680_cov53'
p1296
aS'scaffold79_cov102'
p1297
aa(lp1298
S'scaffold5587_cov95'
p1299
aS'scaffold6763_cov50'
p1300
aa(lp1301
S'scaffold1156_cov80'
p1302
aS'scaffold6497_cov85'
p1303
a(lp1304
I1
a(lp1305
F0.0
aaI5
aa(lp1306
I1
a(lp1307
F0.0
aaI8
aa(lp1308
I1
a(lp1309
F0.222222
aaI9
aa(lp1310
I1
a(lp1311
F0.25
aaI8
aa(lp1312
I1
a(lp1313
F0.0
aaI7
aa(lp1314
I1
a(lp1315
F0.75
aaI8
aa(lp1316
I1
a(lp1317
F0.714286
aaI7
aa(lp1318
I1
a(lp1319
F0.75
aaI8
aa(lp1320
I1
a(lp1321
F0.384615
aaI13
aa(lp1322
I1
a(lp1323
F0.357143
aaI14
aa(lp1324
I1
a(lp1325
F0.384615
aaI13
aa(lp1326
I1
a(lp1327
F0.416667
aaI12
aa(lp1328
I1
a(lp1329
F0.5
aaI14
aa(lp1330
I1
a(lp1331
F0.222222
aaI9
aa(lp1332
I1
a(lp1333
F0.222222
aaI9
aa(lp1334
I1
a(lp1335
F0.25
aaI8
aa(lp1336
I1
a(lp1337
F0.75
aaI8
aa(lp1338
I1
a(lp1339
F0.222222
aaI9
aa(lp1340
I1
a(lp1341
F0.0
aaI13
aa(lp1342
I1
a(lp1343
F0.0
aaI6
aa(lp1344
I1
a(lp1345
F0.0
aaI5
aa(lp1346
I1
a(lp1347
F0.0
aaI6
aa(lp1348
I1
a(lp1349
F0.266667
aaI15
aa(lp1350
I1
a(lp1351
F0.0
aaI4
aa(lp1352
I1
a(lp1353
F0.0
aaI7
aa(lp1354
I1
a(lp1355
F0.0
aaI6
aa(lp1356
I1
a(lp1357
F0.0
aaI7
aa(lp1358
I1
a(lp1359
F0.0
aaI7
aa(lp1360
I1
a(lp1361
F0.4
aaI15
aaa(lp1362
S'scaffold1379_cov53'
p1363
aS'scaffold5161_cov62'
p1364
aa(lp1365
S'scaffold154_cov94'
p1366
aS'scaffold3622_cov63'
p1367
aa(lp1368
S'scaffold8496_cov75'
p1369
aS'scaffold10687_cov51'
p1370
a(lp1371
I1
a(lp1372
F0.277778
aaI18
aaa(lp1373
S'scaffold20541_cov54'
p1374
aS'scaffold5962_cov96'
p1375
a(lp1376
I1
a(lp1377
F0.25
aaI12
aa(lp1378
I1
a(lp1379
F0.363636
aaI11
aa(lp1380
I1
a(lp1381
F0.25
aaI12
aa(lp1382
I1
a(lp1383
F0.3
aaI10
aa(lp1384
I1
a(lp1385
F0.266667
aaI15
aa(lp1386
I1
a(lp1387
F0.3125
aaI16
aa(lp1388
I1
a(lp1389
F0.368421
aaI19
aa(lp1390
I1
a(lp1391
F0.380952
aaI21
aa(lp1392
I1
a(lp1393
F0.368421
aaI19
aa(lp1394
I1
a(lp1395
F0.333333
aaI21
aa(lp1396
I1
a(lp1397
F0.3
aaI20
aa(lp1398
I1
a(lp1399
F0.3
aaI20
aa(lp1400
I1
a(lp1401
F0.25
aaI12
aa(lp1402
I1
a(lp1403
F0.4
aaI20
aaa(lp1404
S'scaffold19950_cov56'
p1405
aS'scaffold8908_cov58'
p1406
aa(lp1407
S'scaffold2412_cov121'
p1408
aS'scaffold37060_cov73'
p1409
a(lp1410
I1
a(lp1411
F0.2
aaI10
aa(lp1412
I1
a(lp1413
F0.285714
aaI7
aa(lp1414
I1
a(lp1415
F0.0
aaI11
aaa(lp1416
S'scaffold33587_cov72'
p1417
aS'scaffold3966_cov89'
p1418
a(lp1419
I1
a(lp1420
F0.0
aaI7
aa(lp1421
I1
a(lp1422
F0.0
aaI3
aa(lp1423
I1
a(lp1424
F0.0
aaI5
aa(lp1425
I1
a(lp1426
F0.0
aaI5
aa(lp1427
I1
a(lp1428
F0.0
aaI5
aa(lp1429
I1
a(lp1430
F0.0
aaI2
aaa(lp1431
S'scaffold4278_cov90'
p1432
aS'scaffold12774_cov55'
p1433
a(lp1434
I1
a(lp1435
F0.333333
aaI12
aa(lp1436
I1
a(lp1437
F0.357143
aaI14
aa(lp1438
I1
a(lp1439
F0.363636
aaI11
aa(lp1440
I1
a(lp1441
F0.333333
aaI12
aa(lp1442
I1
a(lp1443
F0.222222
aaI9
aa(lp1444
I1
a(lp1445
F0.222222
aaI9
aaa(lp1446
S'scaffold9445_cov50'
p1447
aS'scaffold101_cov106'
p1448
a(lp1449
I1
a(lp1450
F0.0
aaI14
aaa(lp1451
S'scaffold3254_cov78'
p1452
aS'scaffold1402_cov78'
p1453
a(lp1454
I1
a(lp1455
F0.333333
aaI9
aa(lp1456
I1
a(lp1457
F0.333333
aaI9
aa(lp1458
I1
a(lp1459
F0.5
aaI8
aa(lp1460
I1
a(lp1461
F0.357143
aaI14
aa(lp1462
I1
a(lp1463
F0.6
aaI10
aa(lp1464
I1
a(lp1465
F0.538462
aaI13
aa(lp1466
I1
a(lp1467
F0.466667
aaI15
aa(lp1468
I1
a(lp1469
F0.529412
aaI17
aa(lp1470
I1
a(lp1471
F0.0
aaI12
aa(lp1472
I1
a(lp1473
F0.0
aaI12
aa(lp1474
I1
a(lp1475
F0.294118
aaI17
aa(lp1476
I1
a(lp1477
F0.230769
aaI13
aa(lp1478
I1
a(lp1479
F0.333333
aaI9
aa(lp1480
I1
a(lp1481
F0.428571
aaI7
aa(lp1482
I1
a(lp1483
F0.0
aaI18
aa(lp1484
I1
a(lp1485
F0.277778
aaI18
aa(lp1486
I1
a(lp1487
F0.44
aaI25
aa(lp1488
I1
a(lp1489
F0.266667
aaI15
aa(lp1490
I1
a(lp1491
F0.818182
aaI11
aa(lp1492
I1
a(lp1493
F0.272727
aaI11
aa(lp1494
I1
a(lp1495
F0.0
aaI4
aa(lp1496
I1
a(lp1497
F0.0
aaI4
aa(lp1498
I1
a(lp1499
F0.0
aaI5
aa(lp1500
I1
a(lp1501
F0.2
aaI15
aa(lp1502
I1
a(lp1503
F0.0
aaI8
aa(lp1504
I1
a(lp1505
F0.0
aaI12
aa(lp1506
I1
a(lp1507
F0.0
aaI4
aa(lp1508
I1
a(lp1509
F0.0
aaI5
aaa(lp1510
S'scaffold5262_cov49'
p1511
aS'scaffold15918_cov54'
p1512
aa(lp1513
S'scaffold2853_cov69'
p1514
aS'scaffold12329_cov67'
p1515
aa(lp1516
S'scaffold1554_cov54'
p1517
aS'scaffold7086_cov54'
p1518
aa(lp1519
S'scaffold4147_cov76'
p1520
aS'scaffold36003_cov57'
p1521
aa(lp1522
S'scaffold2637_cov103'
p1523
aS'scaffold3877_cov78'
p1524
a(lp1525
I1
a(lp1526
F0.0
aaI3
aa(lp1527
I1
a(lp1528
F0.0
aaI7
aaa(lp1529
S'scaffold4701_cov56'
p1530
aS'scaffold42399_cov165'
p1531
aa(lp1532
S'scaffold3937_cov54'
p1533
aS'scaffold19063_cov80'
p1534
aa(lp1535
S'scaffold36022_cov58'
p1536
aS'scaffold35995_cov87'
p1537
a(lp1538
I1
a(lp1539
F0.6
aaI5
aa(lp1540
I1
a(lp1541
F0.6
aaI5
aa(lp1542
I1
a(lp1543
F0.357143
aaI14
aa(lp1544
I1
a(lp1545
F0.285714
aaI14
aa(lp1546
I1
a(lp1547
F0.230769
aaI13
aa(lp1548
I1
a(lp1549
F0.444444
aaI9
aa(lp1550
I1
a(lp1551
F0.0
aaI11
aa(lp1552
I1
a(lp1553
F0.0
aaI15
aa(lp1554
I1
a(lp1555
F0.0
aaI3
aa(lp1556
I1
a(lp1557
F0.0
aaI5
aa(lp1558
I1
a(lp1559
F0.0
aaI4
aa(lp1560
I1
a(lp1561
F0.0
aaI11
aa(lp1562
I1
a(lp1563
F0.0
aaI12
aaa(lp1564
S'scaffold16447_cov76'
p1565
aS'scaffold1525_cov58'
p1566
a(lp1567
I1
a(lp1568
F0.227273
aaI22
aa(lp1569
I1
a(lp1570
F0.333333
aaI15
aaa(lp1571
S'scaffold9352_cov77'
p1572
aS'scaffold7181_cov86'
p1573
aa(lp1574
S'scaffold34289_cov136'
p1575
aS'scaffold23854_cov126'
p1576
aa(lp1577
S'scaffold45026_cov161'
p1578
aS'scaffold9651_cov60'
p1579
aa(lp1580
S'scaffold36919_cov73'
p1581
aS'scaffold41262_cov172'
p1582
aa(lp1583
S'scaffold5295_cov55'
p1584
aS'scaffold15336_cov60'
p1585
aa(lp1586
S'scaffold968_cov57'
p1587
aS'scaffold6480_cov125'
p1588
a(lp1589
I1
a(lp1590
F0.210526
aaI19
aa(lp1591
I1
a(lp1592
F0.5
aaI18
aa(lp1593
I1
a(lp1594
F0.2
aaI20
aa(lp1595
I1
a(lp1596
F0.25
aaI12
aa(lp1597
I1
a(lp1598
F0.217391
aaI23
aaa(lp1599
S'scaffold159_cov87'
p1600
aS'scaffold19164_cov60'
p1601
aa(lp1602
S'scaffold2714_cov57'
p1603
aS'scaffold1007_cov77'
p1604
a(lp1605
I1
a(lp1606
F0.0
aaI8
aa(lp1607
I1
a(lp1608
F0.0
aaI2
aa(lp1609
I1
a(lp1610
F0.0
aaI7
aa(lp1611
I1
a(lp1612
F0.0
aaI37
aa(lp1613
I1
a(lp1614
F0.71875
aaI32
aa(lp1615
I1
a(lp1616
F0.416667
aaI12
aa(lp1617
I1
a(lp1618
F0.222222
aaI9
aa(lp1619
I1
a(lp1620
F0.25
aaI12
aa(lp1621
I1
a(lp1622
F0.375
aaI16
aa(lp1623
I1
a(lp1624
F0.285714
aaI7
aa(lp1625
I1
a(lp1626
F0.25
aaI16
aa(lp1627
I1
a(lp1628
F0.0
aaI6
aa(lp1629
I1
a(lp1630
F0.0
aaI3
aa(lp1631
I1
a(lp1632
F0.0
aaI4
aa(lp1633
I1
a(lp1634
F0.0
aaI3
aa(lp1635
I1
a(lp1636
F0.0
aaI5
aa(lp1637
I1
a(lp1638
F1.0
aaI6
aa(lp1639
I1
a(lp1640
F0.333333
aaI15
aa(lp1641
I1
a(lp1642
F0.25
aaI8
aa(lp1643
I1
a(lp1644
F0.2
aaI10
aaa(lp1645
S'scaffold6200_cov128'
p1646
aS'scaffold878_cov66'
p1647
a(lp1648
I1
a(lp1649
F0.529412
aaI17
aa(lp1650
I1
a(lp1651
F0.545455
aaI11
aaa(lp1652
S'scaffold9739_cov94'
p1653
aS'scaffold35055_cov91'
p1654
aa(lp1655
S'scaffold36499_cov103'
p1656
aS'scaffold34177_cov82'
p1657
a(lp1658
I1
a(lp1659
F0.4375
aaI16
aa(lp1660
I1
a(lp1661
F0.578947
aaI19
aa(lp1662
I1
a(lp1663
F0.3
aaI20
aaa(lp1664
S'scaffold4081_cov103'
p1665
aS'scaffold4410_cov60'
p1666
aa(lp1667
S'scaffold33066_cov68'
p1668
aS'scaffold4048_cov55'
p1669
aa(lp1670
S'scaffold4874_cov72'
p1671
aS'scaffold9125_cov84'
p1672
aa(lp1673
S'scaffold6612_cov63'
p1674
aS'scaffold33314_cov52'
p1675
aa(lp1676
S'scaffold5186_cov71'
p1677
aS'scaffold5185_cov80'
p1678
aa(lp1679
S'scaffold44657_cov149'
p1680
aS'scaffold4089_cov52'
p1681
aa(lp1682
S'scaffold13650_cov74'
p1683
aS'scaffold54888_cov107'
p1684
aa(lp1685
S'scaffold3582_cov122'
p1686
aS'scaffold720_cov51'
p1687
a(lp1688
I1
a(lp1689
F0.6875
aaI16
aa(lp1690
I1
a(lp1691
F0.5
aaI20
aa(lp1692
I1
a(lp1693
F0.272727
aaI11
aa(lp1694
I1
a(lp1695
F0.571429
aaI14
aa(lp1696
I1
a(lp1697
F0.4
aaI10
aaa(lp1698
S'scaffold36509_cov117'
p1699
aS'scaffold2683_cov54'
p1700
aa(lp1701
S'scaffold9959_cov130'
p1702
aS'scaffold16604_cov60'
p1703
a(lp1704
I1
a(lp1705
F0.222222
aaI9
aaa(lp1706
S'scaffold56598_cov161'
p1707
aS'scaffold5176_cov58'
p1708
a(lp1709
I1
a(lp1710
F0.470588
aaI17
aaa(lp1711
S'scaffold24304_cov59'
p1712
aS'scaffold359_cov50'
p1713
aa(lp1714
S'scaffold17264_cov49'
p1715
aS'scaffold14721_cov66'
p1716
a(lp1717
I1
a(lp1718
F0.0
aaI5
aa(lp1719
I1
a(lp1720
F0.0
aaI7
aa(lp1721
I1
a(lp1722
F0.0
aaI2
aa(lp1723
I1
a(lp1724
F0.0
aaI2
aa(lp1725
I1
a(lp1726
F0.0
aaI2
aa(lp1727
I1
a(lp1728
F0.0
aaI2
aaa(lp1729
S'scaffold2164_cov100'
p1730
aS'scaffold6159_cov60'
p1731
a(lp1732
I1
a(lp1733
F0.384615
aaI13
aaa(lp1734
S'scaffold2998_cov77'
p1735
aS'scaffold9604_cov73'
p1736
aa(lp1737
S'scaffold53971_cov161'
p1738
aS'scaffold5146_cov52'
p1739
aa(lp1740
S'scaffold5065_cov145'
p1741
aS'scaffold1207_cov107'
p1742
a(lp1743
I1
a(lp1744
F0.208333
aaI24
aa(lp1745
I1
a(lp1746
F0.259259
aaI27
aa(lp1747
I1
a(lp1748
F0.285714
aaI28
aa(lp1749
I1
a(lp1750
F0.521739
aaI23
aa(lp1751
I1
a(lp1752
F0.25
aaI20
aa(lp1753
I1
a(lp1754
F0.227273
aaI22
aa(lp1755
I1
a(lp1756
F0.208333
aaI24
aa(lp1757
I1
a(lp1758
F0.210526
aaI19
aa(lp1759
I1
a(lp1760
F0.307692
aaI26
aa(lp1761
I1
a(lp1762
F0.35
aaI20
aa(lp1763
I1
a(lp1764
F0.238095
aaI21
aa(lp1765
I1
a(lp1766
F0.2
aaI20
aa(lp1767
I1
a(lp1768
F0.275862
aaI29
aaa(lp1769
S'scaffold33155_cov116'
p1770
aS'scaffold10894_cov83'
p1771
a(lp1772
I1
a(lp1773
F0.0
aaI9
aa(lp1774
I1
a(lp1775
F0.0
aaI5
aa(lp1776
I1
a(lp1777
F0.0
aaI5
aa(lp1778
I1
a(lp1779
F0.0
aaI6
aa(lp1780
I1
a(lp1781
F0.0
aaI2
aaa(lp1782
S'scaffold35419_cov111'
p1783
aS'scaffold6807_cov54'
p1784
aa(lp1785
S'scaffold7198_cov59'
p1786
aS'scaffold25181_cov79'
p1787
aa(lp1788
S'scaffold2637_cov103'
p1789
aS'scaffold19626_cov63'
p1790
aa(lp1791
S'scaffold10711_cov58'
p1792
aS'scaffold7920_cov76'
p1793
aa(lp1794
S'scaffold8879_cov52'
p1795
aS'scaffold33560_cov76'
p1796
a(lp1797
I1
a(lp1798
F0.2
aaI10
aa(lp1799
I1
a(lp1800
F0.2
aaI15
aa(lp1801
I1
a(lp1802
F0.2
aaI15
aa(lp1803
I1
a(lp1804
F0.2
aaI15
aa(lp1805
I1
a(lp1806
F0.210526
aaI19
aa(lp1807
I1
a(lp1808
F0.25
aaI16
aa(lp1809
I1
a(lp1810
F0.416667
aaI12
aa(lp1811
I1
a(lp1812
F0.266667
aaI15
aa(lp1813
I1
a(lp1814
F0.2
aaI10
aa(lp1815
I1
a(lp1816
F0.3
aaI10
aa(lp1817
I1
a(lp1818
F0.3
aaI10
aaa(lp1819
S'scaffold645_cov79'
p1820
aS'scaffold33884_cov75'
p1821
a(lp1822
I1
a(lp1823
F0.5
aaI6
aa(lp1824
I1
a(lp1825
F0.428571
aaI7
aa(lp1826
I1
a(lp1827
F0.444444
aaI9
aa(lp1828
I1
a(lp1829
F0.222222
aaI9
aa(lp1830
I1
a(lp1831
F0.357143
aaI28
aa(lp1832
I1
a(lp1833
F0.210526
aaI19
aa(lp1834
I1
a(lp1835
F0.25
aaI16
aa(lp1836
I1
a(lp1837
F0.25
aaI16
aaa(lp1838
S'scaffold7874_cov52'
p1839
aS'scaffold7875_cov69'
p1840
aa(lp1841
S'scaffold6472_cov101'
p1842
aS'scaffold22301_cov147'
p1843
a(lp1844
I1
a(lp1845
F0.375
aaI8
aa(lp1846
I1
a(lp1847
F0.375
aaI8
aa(lp1848
I1
a(lp1849
F0.428571
aaI7
aa(lp1850
I1
a(lp1851
F0.444444
aaI9
aaa(lp1852
S'scaffold50891_cov398'
p1853
aS'scaffold909_cov73'
p1854
a(lp1855
I1
a(lp1856
F0.5
aaI30
aa(lp1857
I1
a(lp1858
F0.8
aaI30
aa(lp1859
I1
a(lp1860
F0.451613
aaI31
aa(lp1861
I1
a(lp1862
F0.310345
aaI29
aa(lp1863
I1
a(lp1864
F0.65
aaI20
aa(lp1865
I1
a(lp1866
F0.666667
aaI18
aa(lp1867
I1
a(lp1868
F0.588235
aaI17
aa(lp1869
I1
a(lp1870
F0.631579
aaI19
aa(lp1871
I1
a(lp1872
F0.555556
aaI18
aaa(lp1873
S'scaffold17539_cov88'
p1874
aS'scaffold14622_cov56'
p1875
a(lp1876
I1
a(lp1877
F0.0
aaI9
aa(lp1878
I1
a(lp1879
F0.0
aaI9
aa(lp1880
I1
a(lp1881
F0.444444
aaI9
aa(lp1882
I1
a(lp1883
F0.555556
aaI9
aa(lp1884
I1
a(lp1885
F0.0
aaI8
aa(lp1886
I1
a(lp1887
F0.5
aaI8
aa(lp1888
I1
a(lp1889
F0.0
aaI6
aa(lp1890
I1
a(lp1891
F0.5
aaI6
aa(lp1892
I1
a(lp1893
F0.0
aaI6
aa(lp1894
I1
a(lp1895
F0.592593
aaI27
aa(lp1896
I1
a(lp1897
F0.470588
aaI17
aa(lp1898
I1
a(lp1899
F0.473684
aaI19
aa(lp1900
I1
a(lp1901
F0.5
aaI22
aaa(lp1902
S'scaffold32906_cov106'
p1903
aS'scaffold683_cov92'
p1904
aa(lp1905
S'scaffold12642_cov74'
p1906
aS'scaffold1985_cov52'
p1907
a(lp1908
I1
a(lp1909
F0.461538
aaI13
aaa(lp1910
S'scaffold398_cov53'
p1911
aS'scaffold3014_cov60'
p1912
aa(lp1913
S'scaffold35974_cov80'
p1914
aS'scaffold34177_cov82'
p1915
a(lp1916
I1
a(lp1917
F0.628571
aaI35
aa(lp1918
I1
a(lp1919
F0.0
aaI5
aa(lp1920
I1
a(lp1921
F0.2
aaI10
aa(lp1922
I1
a(lp1923
F0.0
aaI13
aa(lp1924
I1
a(lp1925
F0.0
aaI14
aa(lp1926
I1
a(lp1927
F0.0
aaI7
aa(lp1928
I1
a(lp1929
F0.2
aaI15
aa(lp1930
I1
a(lp1931
F0.5
aaI26
aa(lp1932
I1
a(lp1933
F0.571429
aaI14
aa(lp1934
I1
a(lp1935
F0.521739
aaI23
aa(lp1936
I1
a(lp1937
F0.5
aaI24
aa(lp1938
I1
a(lp1939
F0.0
aaI21
aa(lp1940
I1
a(lp1941
F0.0
aaI21
aa(lp1942
I1
a(lp1943
F0.352941
aaI17
aa(lp1944
I1
a(lp1945
F0.2
aaI10
aa(lp1946
I1
a(lp1947
F0.0
aaI6
aaa(lp1948
S'scaffold13494_cov55'
p1949
aS'scaffold444_cov67'
p1950
aa(lp1951
S'scaffold53939_cov149'
p1952
aS'scaffold8942_cov56'
p1953
a(lp1954
I1
a(lp1955
F0.6875
aaI16
aa(lp1956
I1
a(lp1957
F0.3125
aaI16
aa(lp1958
I1
a(lp1959
F0.266667
aaI15
aaa(lp1960
S'scaffold306_cov97'
p1961
aS'scaffold1432_cov55'
p1962
a(lp1963
I1
a(lp1964
F0.222222
aaI9
aa(lp1965
I1
a(lp1966
F0.222222
aaI9
aaa(lp1967
S'scaffold3432_cov48'
p1968
aS'scaffold4550_cov107'
p1969
aa(lp1970
S'scaffold11820_cov72'
p1971
aS'scaffold3429_cov57'
p1972
a(lp1973
I1
a(lp1974
F0.3
aaI10
aa(lp1975
I1
a(lp1976
F0.285714
aaI7
aa(lp1977
I1
a(lp1978
F0.5
aaI10
aa(lp1979
I1
a(lp1980
F0.7
aaI10
aa(lp1981
I1
a(lp1982
F0.444444
aaI9
aa(lp1983
I1
a(lp1984
F0.578947
aaI19
aa(lp1985
I1
a(lp1986
F0.454545
aaI11
aa(lp1987
I1
a(lp1988
F0.428571
aaI14
aa(lp1989
I1
a(lp1990
F0.538462
aaI13
aa(lp1991
I1
a(lp1992
F0.235294
aaI17
aa(lp1993
I1
a(lp1994
F0.388889
aaI18
aa(lp1995
I1
a(lp1996
F0.3
aaI20
aaa(lp1997
S'scaffold8803_cov55'
p1998
aS'scaffold13550_cov68'
p1999
aa(lp2000
S'scaffold37302_cov74'
p2001
aS'scaffold13367_cov89'
p2002
a(lp2003
I1
a(lp2004
F0.0
aaI2
aa(lp2005
I1
a(lp2006
F0.0
aaI5
aa(lp2007
I1
a(lp2008
F0.0
aaI6
aa(lp2009
I1
a(lp2010
F0.0
aaI3
aa(lp2011
I1
a(lp2012
F0.333333
aaI6
aaa(lp2013
S'scaffold570_cov75'
p2014
aS'scaffold6452_cov95'
p2015
aa(lp2016
S'scaffold54186_cov103'
p2017
aS'scaffold28599_cov95'
p2018
aa(lp2019
S'scaffold289_cov71'
p2020
aS'scaffold3757_cov64'
p2021
a(lp2022
I1
a(lp2023
F0.214286
aaI14
aa(lp2024
I1
a(lp2025
F0.416667
aaI12
aa(lp2026
I1
a(lp2027
F0.333333
aaI9
aa(lp2028
I1
a(lp2029
F0.25
aaI8
aa(lp2030
I1
a(lp2031
F0.388889
aaI18
aa(lp2032
I1
a(lp2033
F0.263158
aaI19
aa(lp2034
I1
a(lp2035
F0.25
aaI12
aa(lp2036
I1
a(lp2037
F0.2
aaI10
aa(lp2038
I1
a(lp2039
F0.363636
aaI11
aa(lp2040
I1
a(lp2041
F0.5
aaI12
aaa(lp2042
S'scaffold11190_cov116'
p2043
aS'scaffold12855_cov52'
p2044
aa(lp2045
S'scaffold33248_cov88'
p2046
aS'scaffold1972_cov88'
p2047
aa(lp2048
S'scaffold32491_cov104'
p2049
aS'scaffold23375_cov83'
p2050
a(lp2051
I1
a(lp2052
F0.384615
aaI13
aa(lp2053
I1
a(lp2054
F0.384615
aaI13
aa(lp2055
I1
a(lp2056
F0.333333
aaI15
aa(lp2057
I1
a(lp2058
F0.235294
aaI17
aa(lp2059
I1
a(lp2060
F0.222222
aaI18
aaa(lp2061
S'scaffold34162_cov105'
p2062
aS'scaffold14859_cov92'
p2063
aa(lp2064
S'scaffold4917_cov59'
p2065
aS'scaffold1175_cov49'
p2066
a(lp2067
I1
a(lp2068
F0.222222
aaI9
aaa(lp2069
S'scaffold4313_cov91'
p2070
aS'scaffold21487_cov54'
p2071
a(lp2072
I1
a(lp2073
F0.0
aaI12
aa(lp2074
I1
a(lp2075
F0.25
aaI12
aa(lp2076
I1
a(lp2077
F0.25
aaI8
aaa(lp2078
S'scaffold28521_cov53'
p2079
aS'scaffold5310_cov60'
p2080
aa(lp2081
S'scaffold33155_cov116'
p2082
aS'scaffold6384_cov82'
p2083
a(lp2084
I1
a(lp2085
F0.0
aaI2
aaa(lp2086
S'scaffold8270_cov118'
p2087
aS'scaffold872_cov49'
p2088
a(lp2089
I1
a(lp2090
F0.0
aaI3
aa(lp2091
I1
a(lp2092
F0.4
aaI5
aaa(lp2093
S'scaffold58002_cov168'
p2094
aS'scaffold27769_cov112'
p2095
a(lp2096
I1
a(lp2097
F0.0
aaI2
aaa(lp2098
S'scaffold7428_cov49'
p2099
aS'scaffold33201_cov53'
p2100
a(lp2101
I1
a(lp2102
F0.263158
aaI19
aa(lp2103
I1
a(lp2104
F0.0
aaI5
aa(lp2105
I1
a(lp2106
F0.0
aaI5
aa(lp2107
I1
a(lp2108
F0.25
aaI8
aaa(lp2109
S'scaffold2494_cov73'
p2110
aS'scaffold3013_cov87'
p2111
a(lp2112
I1
a(lp2113
F0.0
aaI2
aa(lp2114
I1
a(lp2115
F0.0
aaI2
aa(lp2116
I1
a(lp2117
F0.0
aaI2
aa(lp2118
I1
a(lp2119
F0.0
aaI2
aa(lp2120
I1
a(lp2121
F0.0
aaI2
aa(lp2122
I1
a(lp2123
F0.0
aaI3
aa(lp2124
I1
a(lp2125
F0.0
aaI3
aa(lp2126
I1
a(lp2127
F0.0
aaI2
aa(lp2128
I1
a(lp2129
F0.0
aaI2
aa(lp2130
I1
a(lp2131
F0.0
aaI3
aa(lp2132
I1
a(lp2133
F0.0
aaI4
aa(lp2134
I1
a(lp2135
F0.0
aaI5
aa(lp2136
I1
a(lp2137
F0.0
aaI22
aaa(lp2138
S'scaffold13115_cov55'
p2139
aS'scaffold6977_cov64'
p2140
aa(lp2141
S'scaffold7133_cov53'
p2142
aS'scaffold8457_cov52'
p2143
a(lp2144
I1
a(lp2145
F0.0
aaI5
aa(lp2146
I1
a(lp2147
F0.0
aaI4
aa(lp2148
I1
a(lp2149
F0.0
aaI2
aa(lp2150
I1
a(lp2151
F0.0
aaI3
aa(lp2152
I1
a(lp2153
F0.0
aaI3
aa(lp2154
I1
a(lp2155
F0.0
aaI3
aa(lp2156
I1
a(lp2157
F0.0
aaI2
aa(lp2158
I1
a(lp2159
F0.0
aaI2
aaa(lp2160
S'scaffold15333_cov101'
p2161
aS'scaffold36026_cov97'
p2162
aa(lp2163
S'scaffold4391_cov53'
p2164
aS'scaffold50244_cov161'
p2165
aa(lp2166
S'scaffold9958_cov63'
p2167
aS'scaffold4040_cov52'
p2168
a(lp2169
I1
a(lp2170
F0.285714
aaI7
aa(lp2171
I1
a(lp2172
F0.571429
aaI7
aa(lp2173
I1
a(lp2174
F0.0
aaI3
aa(lp2175
I1
a(lp2176
F0.0
aaI3
aa(lp2177
I1
a(lp2178
F0.0
aaI5
aa(lp2179
I1
a(lp2180
F0.235294
aaI17
aaa(lp2181
S'scaffold5829_cov52'
p2182
aS'scaffold200_cov51'
p2183
aa(lp2184
S'scaffold38360_cov207'
p2185
aS'scaffold20375_cov54'
p2186
aa(lp2187
S'scaffold931_cov102'
p2188
aS'scaffold3401_cov49'
p2189
a(lp2190
I1
a(lp2191
F0.321429
aaI28
aaa(lp2192
S'scaffold10310_cov117'
p2193
aS'scaffold2088_cov50'
p2194
aa(lp2195
S'scaffold37592_cov59'
p2196
aS'scaffold11537_cov147'
p2197
aa(lp2198
S'scaffold33284_cov157'
p2199
aS'scaffold14343_cov60'
p2200
a(lp2201
I1
a(lp2202
F0.2
aaI25
aa(lp2203
I1
a(lp2204
F0.368421
aaI19
aa(lp2205
I1
a(lp2206
F0.3125
aaI16
aa(lp2207
I1
a(lp2208
F0.333333
aaI18
aaa(lp2209
S'scaffold4085_cov106'
p2210
aS'scaffold34289_cov136'
p2211
a(lp2212
I1
a(lp2213
F0.708333
aaI24
aaa(lp2214
S'scaffold37745_cov103'
p2215
aS'scaffold756_cov60'
p2216
aa(lp2217
S'scaffold7097_cov101'
p2218
aS'scaffold1054_cov57'
p2219
aa(lp2220
S'scaffold10360_cov60'
p2221
aS'scaffold6609_cov59'
p2222
a(lp2223
I1
a(lp2224
F0.0
aaI8
aa(lp2225
I1
a(lp2226
F0.0
aaI8
aa(lp2227
I1
a(lp2228
F0.0
aaI2
aa(lp2229
I1
a(lp2230
F0.0
aaI2
aa(lp2231
I1
a(lp2232
F0.0
aaI3
aa(lp2233
I1
a(lp2234
F0.0
aaI4
aa(lp2235
I1
a(lp2236
F0.0
aaI5
aa(lp2237
I1
a(lp2238
F0.0
aaI6
aa(lp2239
I1
a(lp2240
F0.0
aaI4
aa(lp2241
I1
a(lp2242
F0.0
aaI5
aa(lp2243
I1
a(lp2244
F0.0
aaI6
aaa(lp2245
S'scaffold143_cov57'
p2246
aS'scaffold5382_cov123'
p2247
aa(lp2248
S'scaffold34267_cov108'
p2249
aS'scaffold643_cov63'
p2250
aa(lp2251
S'scaffold1111_cov107'
p2252
aS'scaffold479_cov51'
p2253
a(lp2254
I1
a(lp2255
F0.25
aaI8
aa(lp2256
I1
a(lp2257
F0.285714
aaI7
aa(lp2258
I1
a(lp2259
F0.222222
aaI9
aa(lp2260
I1
a(lp2261
F0.3
aaI20
aa(lp2262
I1
a(lp2263
F0.214286
aaI14
aa(lp2264
I1
a(lp2265
F0.538462
aaI13
aaa(lp2266
S'scaffold1231_cov53'
p2267
aS'scaffold15012_cov64'
p2268
aa(lp2269
S'scaffold8038_cov51'
p2270
aS'scaffold19720_cov60'
p2271
aa(lp2272
S'scaffold6247_cov68'
p2273
aS'scaffold5562_cov105'
p2274
a(lp2275
I1
a(lp2276
F0.625
aaI16
aa(lp2277
I1
a(lp2278
F0.35
aaI20
aa(lp2279
I1
a(lp2280
F0.272727
aaI11
aa(lp2281
I1
a(lp2282
F0.0
aaI3
aa(lp2283
I1
a(lp2284
F0.0
aaI4
aa(lp2285
I1
a(lp2286
F0.0
aaI3
aa(lp2287
I1
a(lp2288
F0.25
aaI12
aaa(lp2289
S'scaffold15508_cov90'
p2290
aS'scaffold36032_cov131'
p2291
aa(lp2292
S'scaffold33248_cov88'
p2293
aS'scaffold8659_cov78'
p2294
a(lp2295
I1
a(lp2296
F0.6
aaI5
aa(lp2297
I1
a(lp2298
F0.333333
aaI6
aa(lp2299
I1
a(lp2300
F0.375
aaI8
aa(lp2301
I1
a(lp2302
F0.272727
aaI11
aa(lp2303
I1
a(lp2304
F0.25
aaI8
aaa(lp2305
S'scaffold37060_cov73'
p2306
aS'scaffold3248_cov70'
p2307
aa(lp2308
S'scaffold3106_cov64'
p2309
aS'scaffold10343_cov61'
p2310
aa(lp2311
S'scaffold14767_cov109'
p2312
aS'scaffold32828_cov78'
p2313
aa(lp2314
S'scaffold18525_cov53'
p2315
aS'scaffold3769_cov71'
p2316
a(lp2317
I1
a(lp2318
F0.0
aaI5
aa(lp2319
I1
a(lp2320
F0.0
aaI5
aa(lp2321
I1
a(lp2322
F0.0
aaI4
aa(lp2323
I1
a(lp2324
F0.0
aaI3
aaa(lp2325
S'scaffold39987_cov111'
p2326
aS'scaffold7461_cov76'
p2327
aa(lp2328
S'scaffold55592_cov107'
p2329
aS'scaffold25106_cov104'
p2330
aa(lp2331
S'scaffold21958_cov101'
p2332
aS'scaffold2626_cov102'
p2333
aa(lp2334
S'scaffold2598_cov61'
p2335
aS'scaffold14610_cov136'
p2336
aa(lp2337
S'scaffold10405_cov56'
p2338
aS'scaffold33245_cov72'
p2339
a(lp2340
I1
a(lp2341
F0.521739
aaI23
aa(lp2342
I1
a(lp2343
F0.0
aaI9
aa(lp2344
I1
a(lp2345
F0.666667
aaI12
aa(lp2346
I1
a(lp2347
F0.0
aaI5
aa(lp2348
I1
a(lp2349
F0.8
aaI5
aa(lp2350
I1
a(lp2351
F0.333333
aaI6
aa(lp2352
I1
a(lp2353
F0.0
aaI6
aa(lp2354
I1
a(lp2355
F0.666667
aaI3
aa(lp2356
I1
a(lp2357
F0.0
aaI3
aa(lp2358
I1
a(lp2359
F0.0
aaI3
aaa(lp2360
S'scaffold36033_cov68'
p2361
aS'scaffold2694_cov89'
p2362
aa(lp2363
S'scaffold255_cov58'
p2364
aS'scaffold32858_cov151'
p2365
aa(lp2366
S'scaffold6209_cov128'
p2367
aS'scaffold1667_cov55'
p2368
a(lp2369
I1
a(lp2370
F0.25
aaI24
aa(lp2371
I1
a(lp2372
F0.3
aaI10
aa(lp2373
I1
a(lp2374
F0.3
aaI10
aa(lp2375
I1
a(lp2376
F0.5
aaI10
aa(lp2377
I1
a(lp2378
F0.555556
aaI9
aa(lp2379
I1
a(lp2380
F0.25
aaI12
aa(lp2381
I1
a(lp2382
F0.307692
aaI13
aa(lp2383
I1
a(lp2384
F0.25
aaI12
aa(lp2385
I1
a(lp2386
F0.0
aaI12
aa(lp2387
I1
a(lp2388
F0.285714
aaI7
aa(lp2389
I1
a(lp2390
F0.333333
aaI6
aa(lp2391
I1
a(lp2392
F0.5
aaI4
aa(lp2393
I1
a(lp2394
F0.2
aaI10
aa(lp2395
I1
a(lp2396
F0.2
aaI10
aaa(lp2397
S'scaffold40047_cov153'
p2398
aS'scaffold36009_cov57'
p2399
a(lp2400
I1
a(lp2401
F0.357143
aaI14
aaa(lp2402
S'scaffold4668_cov92'
p2403
aS'scaffold2804_cov64'
p2404
aa(lp2405
S'scaffold462_cov72'
p2406
aS'scaffold10361_cov51'
p2407
aa(lp2408
S'scaffold2786_cov74'
p2409
aS'scaffold6624_cov86'
p2410
aa(lp2411
S'scaffold85_cov56'
p2412
aS'scaffold20873_cov79'
p2413
aa(lp2414
S'scaffold11516_cov50'
p2415
aS'scaffold13738_cov105'
p2416
aa(lp2417
S'scaffold33440_cov107'
p2418
aS'scaffold7192_cov111'
p2419
aa(lp2420
S'scaffold15562_cov57'
p2421
aS'scaffold17331_cov117'
p2422
a(lp2423
I1
a(lp2424
F0.210526
aaI19
aa(lp2425
I1
a(lp2426
F0.263158
aaI19
aa(lp2427
I1
a(lp2428
F0.578947
aaI19
aa(lp2429
I1
a(lp2430
F0.0
aaI6
aa(lp2431
I1
a(lp2432
F0.0
aaI17
aaa(lp2433
S'scaffold4891_cov78'
p2434
aS'scaffold18040_cov61'
p2435
aa(lp2436
S'scaffold1364_cov77'
p2437
aS'scaffold2830_cov52'
p2438
a(lp2439
I1
a(lp2440
F0.444444
aaI9
aa(lp2441
I1
a(lp2442
F0.333333
aaI9
aa(lp2443
I1
a(lp2444
F0.333333
aaI9
aa(lp2445
I1
a(lp2446
F0.333333
aaI9
aa(lp2447
I1
a(lp2448
F0.4
aaI10
aa(lp2449
I1
a(lp2450
F0.222222
aaI9
aa(lp2451
I1
a(lp2452
F0.0
aaI13
aaa(lp2453
S'scaffold2388_cov79'
p2454
aS'scaffold3457_cov55'
p2455
a(lp2456
I1
a(lp2457
F0.0
aaI11
aaa(lp2458
S'scaffold8576_cov64'
p2459
aS'scaffold14804_cov81'
p2460
a(lp2461
I1
a(lp2462
F0.222222
aaI9
aa(lp2463
I1
a(lp2464
F0.285714
aaI7
aa(lp2465
I1
a(lp2466
F0.428571
aaI7
aa(lp2467
I1
a(lp2468
F0.428571
aaI7
aa(lp2469
I1
a(lp2470
F0.75
aaI4
aaa(lp2471
S'scaffold5284_cov102'
p2472
aS'scaffold18868_cov79'
p2473
a(lp2474
I1
a(lp2475
F0.52381
aaI21
aa(lp2476
I1
a(lp2477
F0.5
aaI22
aa(lp2478
I1
a(lp2479
F0.571429
aaI21
aa(lp2480
I1
a(lp2481
F0.733333
aaI15
aa(lp2482
I1
a(lp2483
F0.0
aaI5
aa(lp2484
I1
a(lp2485
F0.0
aaI7
aa(lp2486
I1
a(lp2487
F0.0
aaI8
aa(lp2488
I1
a(lp2489
F0.7
aaI10
aa(lp2490
I1
a(lp2491
F0.357143
aaI14
aa(lp2492
I1
a(lp2493
F0.5
aaI4
aa(lp2494
I1
a(lp2495
F0.5
aaI4
aa(lp2496
I1
a(lp2497
F0.5
aaI4
aa(lp2498
I1
a(lp2499
F0.0
aaI8
aaa(lp2500
S'scaffold5881_cov87'
p2501
aS'scaffold1151_cov99'
p2502
a(lp2503
I1
a(lp2504
F0.0
aaI16
aa(lp2505
I1
a(lp2506
F0.0
aaI12
aa(lp2507
I1
a(lp2508
F0.0
aaI7
aa(lp2509
I1
a(lp2510
F0.0
aaI7
aa(lp2511
I1
a(lp2512
F0.0
aaI9
aa(lp2513
I1
a(lp2514
F0.0
aaI9
aa(lp2515
I1
a(lp2516
F0.0
aaI10
aa(lp2517
I1
a(lp2518
F0.0
aaI2
aa(lp2519
I1
a(lp2520
F0.0
aaI2
aa(lp2521
I1
a(lp2522
F0.0
aaI4
aa(lp2523
I1
a(lp2524
F0.75
aaI4
aa(lp2525
I1
a(lp2526
F0.0
aaI15
aa(lp2527
I1
a(lp2528
F0.0
aaI4
aa(lp2529
I1
a(lp2530
F0.0
aaI2
aa(lp2531
I1
a(lp2532
F0.0
aaI4
aa(lp2533
I1
a(lp2534
F0.0
aaI4
aa(lp2535
I1
a(lp2536
F0.0
aaI4
aa(lp2537
I1
a(lp2538
F0.0
aaI4
aa(lp2539
I1
a(lp2540
F0.0
aaI2
aa(lp2541
I1
a(lp2542
F0.0
aaI2
aa(lp2543
I1
a(lp2544
F0.0
aaI5
aa(lp2545
I1
a(lp2546
F0.0
aaI7
aa(lp2547
I1
a(lp2548
F0.0
aaI8
aa(lp2549
I1
a(lp2550
F0.0
aaI24
aa(lp2551
I1
a(lp2552
F0.0
aaI13
aa(lp2553
I1
a(lp2554
F0.0
aaI13
aa(lp2555
I1
a(lp2556
F0.0
aaI13
aaa(lp2557
S'scaffold1835_cov54'
p2558
aS'scaffold14755_cov58'
p2559
aa(lp2560
S'scaffold5980_cov50'
p2561
aS'scaffold34989_cov66'
p2562
a(lp2563
I1
a(lp2564
F0.666667
aaI30
aa(lp2565
I1
a(lp2566
F0.222222
aaI9
aaa(lp2567
S'scaffold4874_cov72'
p2568
aS'scaffold7806_cov72'
p2569
aa(lp2570
S'scaffold3835_cov72'
p2571
aS'scaffold25187_cov99'
p2572
aa(lp2573
S'scaffold16649_cov90'
p2574
aS'scaffold33204_cov76'
p2575
a(lp2576
I1
a(lp2577
F0.210526
aaI19
aa(lp2578
I1
a(lp2579
F0.235294
aaI17
aa(lp2580
I1
a(lp2581
F0.5
aaI10
aa(lp2582
I1
a(lp2583
F0.333333
aaI6
aa(lp2584
I1
a(lp2585
F0.428571
aaI7
aa(lp2586
I1
a(lp2587
F0.285714
aaI7
aaa(lp2588
S'scaffold2088_cov50'
p2589
aS'scaffold21479_cov41'
p2590
aa(lp2591
S'scaffold10114_cov67'
p2592
aS'scaffold6757_cov85'
p2593
a(lp2594
I1
a(lp2595
F0.466667
aaI15
aa(lp2596
I1
a(lp2597
F0.375
aaI24
aa(lp2598
I1
a(lp2599
F0.0
aaI14
aa(lp2600
I1
a(lp2601
F0.0
aaI11
aa(lp2602
I1
a(lp2603
F0.736842
aaI19
aa(lp2604
I1
a(lp2605
F0.263158
aaI19
aa(lp2606
I1
a(lp2607
F0.3125
aaI16
aa(lp2608
I1
a(lp2609
F0.647059
aaI17
aa(lp2610
I1
a(lp2611
F0.0
aaI6
aa(lp2612
I1
a(lp2613
F0.444444
aaI9
aa(lp2614
I1
a(lp2615
F0.0
aaI14
aa(lp2616
I1
a(lp2617
F0.333333
aaI12
aa(lp2618
I1
a(lp2619
F0.0
aaI3
aa(lp2620
I1
a(lp2621
F0.461538
aaI13
aa(lp2622
I1
a(lp2623
F0.705882
aaI17
aa(lp2624
I1
a(lp2625
F0.0
aaI2
aa(lp2626
I1
a(lp2627
F0.0
aaI2
aa(lp2628
I1
a(lp2629
F0.0
aaI2
aa(lp2630
I1
a(lp2631
F0.0
aaI2
aa(lp2632
I1
a(lp2633
F0.6
aaI10
aa(lp2634
I1
a(lp2635
F0.0
aaI10
aa(lp2636
I1
a(lp2637
F0.0
aaI9
aa(lp2638
I1
a(lp2639
F0.0
aaI9
aa(lp2640
I1
a(lp2641
F0.0
aaI7
aa(lp2642
I1
a(lp2643
F0.0
aaI5
aa(lp2644
I1
a(lp2645
F0.0
aaI6
aa(lp2646
I1
a(lp2647
F0.0
aaI8
aa(lp2648
I1
a(lp2649
F0.75
aaI8
aaa(lp2650
S'scaffold8357_cov58'
p2651
aS'scaffold8823_cov89'
p2652
a(lp2653
I1
a(lp2654
F0.352941
aaI17
aa(lp2655
I1
a(lp2656
F0.0
aaI7
aa(lp2657
I1
a(lp2658
F0.285714
aaI14
aa(lp2659
I1
a(lp2660
F0.3125
aaI16
aa(lp2661
I1
a(lp2662
F0.333333
aaI9
aa(lp2663
I1
a(lp2664
F0.333333
aaI9
aa(lp2665
I1
a(lp2666
F0.222222
aaI18
aa(lp2667
I1
a(lp2668
F0.2
aaI15
aa(lp2669
I1
a(lp2670
F0.25
aaI12
aa(lp2671
I1
a(lp2672
F0.222222
aaI9
aa(lp2673
I1
a(lp2674
F0.235294
aaI17
aa(lp2675
I1
a(lp2676
F0.714286
aaI21
aa(lp2677
I1
a(lp2678
F0.625
aaI24
aa(lp2679
I1
a(lp2680
F0.454545
aaI22
aa(lp2681
I1
a(lp2682
F0.25
aaI16
aa(lp2683
I1
a(lp2684
F0.3125
aaI16
aa(lp2685
I1
a(lp2686
F0.222222
aaI18
aa(lp2687
I1
a(lp2688
F0.3
aaI20
aa(lp2689
I1
a(lp2690
F0.0
aaI4
aaa(lp2691
S'scaffold5370_cov101'
p2692
aS'scaffold21582_cov121'
p2693
aa(lp2694
S'scaffold4339_cov63'
p2695
aS'scaffold34332_cov81'
p2696
aa(lp2697
S'scaffold570_cov75'
p2698
aS'scaffold3128_cov90'
p2699
a(lp2700
I1
a(lp2701
F0.583333
aaI12
aa(lp2702
I1
a(lp2703
F0.333333
aaI12
aa(lp2704
I1
a(lp2705
F0.0
aaI8
aa(lp2706
I1
a(lp2707
F0.428571
aaI14
aa(lp2708
I1
a(lp2709
F0.444444
aaI18
aa(lp2710
I1
a(lp2711
F0.3
aaI10
aa(lp2712
I1
a(lp2713
F0.333333
aaI9
aa(lp2714
I1
a(lp2715
F0.444444
aaI9
aa(lp2716
I1
a(lp2717
F0.0
aaI3
aa(lp2718
I1
a(lp2719
F0.0
aaI3
aa(lp2720
I1
a(lp2721
F0.0
aaI3
aa(lp2722
I1
a(lp2723
F0.294118
aaI17
aa(lp2724
I1
a(lp2725
F0.0
aaI21
aa(lp2726
I1
a(lp2727
F0.4
aaI15
aa(lp2728
I1
a(lp2729
F0.0
aaI16
aa(lp2730
I1
a(lp2731
F0.4
aaI15
aa(lp2732
I1
a(lp2733
F0.4
aaI10
aa(lp2734
I1
a(lp2735
F0.25
aaI16
aa(lp2736
I1
a(lp2737
F0.0
aaI10
aa(lp2738
I1
a(lp2739
F0.375
aaI16
aa(lp2740
I1
a(lp2741
F0.5625
aaI16
aa(lp2742
I1
a(lp2743
F0.5
aaI26
aa(lp2744
I1
a(lp2745
F0.5
aaI14
aa(lp2746
I1
a(lp2747
F0.0
aaI10
aa(lp2748
I1
a(lp2749
F0.363636
aaI11
aa(lp2750
I1
a(lp2751
F0.363636
aaI11
aa(lp2752
I1
a(lp2753
F0.0
aaI7
aa(lp2754
I1
a(lp2755
F0.285714
aaI7
aa(lp2756
I1
a(lp2757
F0.0
aaI9
aa(lp2758
I1
a(lp2759
F0.0
aaI14
aa(lp2760
I1
a(lp2761
F0.307692
aaI13
aa(lp2762
I1
a(lp2763
F0.0
aaI2
aa(lp2764
I1
a(lp2765
F0.0
aaI2
aa(lp2766
I1
a(lp2767
F0.0
aaI2
aa(lp2768
I1
a(lp2769
F0.0
aaI4
aa(lp2770
I1
a(lp2771
F0.0
aaI4
aa(lp2772
I1
a(lp2773
F0.0
aaI7
aa(lp2774
I1
a(lp2775
F0.0
aaI9
aa(lp2776
I1
a(lp2777
F0.0
aaI4
aa(lp2778
I1
a(lp2779
F0.0
aaI2
aa(lp2780
I1
a(lp2781
F0.0
aaI8
aa(lp2782
I1
a(lp2783
F0.285714
aaI14
aa(lp2784
I1
a(lp2785
F0.384615
aaI13
aa(lp2786
I1
a(lp2787
F0.307692
aaI13
aa(lp2788
I1
a(lp2789
F0.0
aaI12
aa(lp2790
I1
a(lp2791
F0.384615
aaI13
aa(lp2792
I1
a(lp2793
F0.25
aaI8
aa(lp2794
I1
a(lp2795
F0.214286
aaI14
aa(lp2796
I1
a(lp2797
F0.214286
aaI14
aa(lp2798
I1
a(lp2799
F0.380952
aaI21
aa(lp2800
I1
a(lp2801
F0.5
aaI20
aa(lp2802
I1
a(lp2803
F0.4
aaI10
aa(lp2804
I1
a(lp2805
F0.2
aaI10
aa(lp2806
I1
a(lp2807
F0.380952
aaI21
aa(lp2808
I1
a(lp2809
F0.3
aaI20
aa(lp2810
I1
a(lp2811
F0.0
aaI18
aa(lp2812
I1
a(lp2813
F0.0
aaI6
aa(lp2814
I1
a(lp2815
F0.0
aaI6
aa(lp2816
I1
a(lp2817
F0.0
aaI20
aa(lp2818
I1
a(lp2819
F0.214286
aaI14
aa(lp2820
I1
a(lp2821
F0.357143
aaI14
aa(lp2822
I1
a(lp2823
F0.3125
aaI16
aa(lp2824
I1
a(lp2825
F0.0
aaI13
aa(lp2826
I1
a(lp2827
F0.0
aaI13
aa(lp2828
I1
a(lp2829
F0.0
aaI12
aaa(lp2830
S'scaffold36145_cov66'
p2831
aS'scaffold5517_cov53'
p2832
aa(lp2833
S'scaffold37745_cov103'
p2834
aS'scaffold9100_cov54'
p2835
aa(lp2836
S'scaffold14596_cov132'
p2837
aS'scaffold36584_cov77'
p2838
aa(lp2839
S'scaffold34367_cov119'
p2840
aS'scaffold33612_cov72'
p2841
aa(lp2842
S'scaffold10858_cov54'
p2843
aS'scaffold33183_cov87'
p2844
aa(lp2845
S'scaffold3077_cov95'
p2846
aS'scaffold5136_cov47'
p2847
aa(lp2848
S'scaffold861_cov54'
p2849
aS'scaffold6110_cov55'
p2850
aa(lp2851
S'scaffold2790_cov71'
p2852
aS'scaffold5283_cov61'
p2853
a(lp2854
I1
a(lp2855
F0.0
aaI7
aa(lp2856
I1
a(lp2857
F0.0
aaI13
aa(lp2858
I1
a(lp2859
F0.25
aaI12
aa(lp2860
I1
a(lp2861
F0.2
aaI10
aa(lp2862
I1
a(lp2863
F0.272727
aaI11
aaa(lp2864
S'scaffold33204_cov76'
p2865
aS'scaffold6201_cov79'
p2866
aa(lp2867
S'scaffold14887_cov139'
p2868
aS'scaffold7284_cov54'
p2869
a(lp2870
I1
a(lp2871
F0.266667
aaI15
aa(lp2872
I1
a(lp2873
F0.230769
aaI13
aa(lp2874
I1
a(lp2875
F0.4375
aaI16
aa(lp2876
I1
a(lp2877
F0.75
aaI16
aaa(lp2878
S'scaffold14365_cov55'
p2879
aS'scaffold37624_cov98'
p2880
aa(lp2881
S'scaffold5966_cov74'
p2882
aS'scaffold18342_cov147'
p2883
aa(lp2884
S'scaffold3230_cov72'
p2885
aS'scaffold2697_cov65'
p2886
a(lp2887
I1
a(lp2888
F0.0
aaI6
aa(lp2889
I1
a(lp2890
F0.583333
aaI12
aa(lp2891
I1
a(lp2892
F0.0
aaI12
aa(lp2893
I1
a(lp2894
F0.230769
aaI13
aa(lp2895
I1
a(lp2896
F0.214286
aaI14
aa(lp2897
I1
a(lp2898
F0.2
aaI10
aa(lp2899
I1
a(lp2900
F0.538462
aaI13
aa(lp2901
I1
a(lp2902
F0.0
aaI3
aa(lp2903
I1
a(lp2904
F0.0
aaI2
aa(lp2905
I1
a(lp2906
F0.666667
aaI3
aa(lp2907
I1
a(lp2908
F0.666667
aaI3
aaa(lp2909
S'scaffold10508_cov75'
p2910
aS'scaffold5982_cov55'
p2911
a(lp2912
I1
a(lp2913
F0.333333
aaI6
aa(lp2914
I1
a(lp2915
F0.2
aaI10
aa(lp2916
I1
a(lp2917
F0.230769
aaI13
aa(lp2918
I1
a(lp2919
F0.214286
aaI14
aa(lp2920
I1
a(lp2921
F0.222222
aaI9
aa(lp2922
I1
a(lp2923
F0.25
aaI8
aa(lp2924
I1
a(lp2925
F0.222222
aaI9
aa(lp2926
I1
a(lp2927
F0.25
aaI8
aa(lp2928
I1
a(lp2929
F0.230769
aaI13
aa(lp2930
I1
a(lp2931
F0.678571
aaI28
aa(lp2932
I1
a(lp2933
F0.538462
aaI26
aa(lp2934
I1
a(lp2935
F0.666667
aaI27
aaa(lp2936
S'scaffold2637_cov103'
p2937
aS'scaffold12063_cov48'
p2938
aa(lp2939
S'scaffold12509_cov75'
p2940
aS'scaffold12489_cov66'
p2941
aa(lp2942
S'scaffold5049_cov79'
p2943
aS'scaffold9910_cov51'
p2944
a(lp2945
I1
a(lp2946
F0.0
aaI9
aa(lp2947
I1
a(lp2948
F0.0
aaI5
aa(lp2949
I1
a(lp2950
F0.666667
aaI3
aa(lp2951
I1
a(lp2952
F0.0
aaI4
aa(lp2953
I1
a(lp2954
F0.0
aaI8
aa(lp2955
I1
a(lp2956
F0.0
aaI9
aa(lp2957
I1
a(lp2958
F0.0
aaI11
aa(lp2959
I1
a(lp2960
F0.0
aaI8
aa(lp2961
I1
a(lp2962
F0.8
aaI5
aa(lp2963
I1
a(lp2964
F0.75
aaI4
aa(lp2965
I1
a(lp2966
F0.0
aaI9
aa(lp2967
I1
a(lp2968
F0.0
aaI9
aa(lp2969
I1
a(lp2970
F0.0
aaI4
aa(lp2971
I1
a(lp2972
F0.0
aaI8
aa(lp2973
I1
a(lp2974
F0.0
aaI14
aa(lp2975
I1
a(lp2976
F0.0
aaI12
aaa(lp2977
S'scaffold7154_cov101'
p2978
aS'scaffold11306_cov90'
p2979
a(lp2980
I1
a(lp2981
F0.388889
aaI18
aa(lp2982
I1
a(lp2983
F0.363636
aaI11
aa(lp2984
I1
a(lp2985
F0.363636
aaI22
aa(lp2986
I1
a(lp2987
F0.210526
aaI19
aa(lp2988
I1
a(lp2989
F0.0
aaI24
aa(lp2990
I1
a(lp2991
F0.0
aaI19
aa(lp2992
I1
a(lp2993
F0.294118
aaI17
aa(lp2994
I1
a(lp2995
F0.238095
aaI21
aa(lp2996
I1
a(lp2997
F0.294118
aaI17
aa(lp2998
I1
a(lp2999
F0.357143
aaI14
aa(lp3000
I1
a(lp3001
F0.363636
aaI11
aa(lp3002
I1
a(lp3003
F0.0
aaI8
aa(lp3004
I1
a(lp3005
F0.444444
aaI9
aa(lp3006
I1
a(lp3007
F0.2
aaI10
aa(lp3008
I1
a(lp3009
F0.4
aaI10
aaa(lp3010
S'scaffold14510_cov60'
p3011
aS'scaffold11820_cov72'
p3012
aa(lp3013
S'scaffold17719_cov52'
p3014
aS'scaffold7882_cov53'
p3015
a(lp3016
I1
a(lp3017
F0.0
aaI10
aa(lp3018
I1
a(lp3019
F0.333333
aaI9
aa(lp3020
I1
a(lp3021
F0.428571
aaI14
aa(lp3022
I1
a(lp3023
F0.6
aaI5
aa(lp3024
I1
a(lp3025
F0.4
aaI5
aa(lp3026
I1
a(lp3027
F0.5
aaI4
aa(lp3028
I1
a(lp3029
F0.5
aaI4
aa(lp3030
I1
a(lp3031
F0.666667
aaI3
aa(lp3032
I1
a(lp3033
F0.666667
aaI3
aa(lp3034
I1
a(lp3035
F0.0
aaI3
aa(lp3036
I1
a(lp3037
F0.5
aaI4
aa(lp3038
I1
a(lp3039
F0.0
aaI6
aa(lp3040
I1
a(lp3041
F0.0
aaI4
aa(lp3042
I1
a(lp3043
F0.0
aaI4
aa(lp3044
I1
a(lp3045
F0.0
aaI8
aa(lp3046
I1
a(lp3047
F0.0
aaI5
aa(lp3048
I1
a(lp3049
F0.0
aaI14
aa(lp3050
I1
a(lp3051
F0.214286
aaI14
aa(lp3052
I1
a(lp3053
F0.333333
aaI9
aa(lp3054
I1
a(lp3055
F0.0
aaI8
aa(lp3056
I1
a(lp3057
F0.428571
aaI7
aa(lp3058
I1
a(lp3059
F0.266667
aaI15
aa(lp3060
I1
a(lp3061
F0.0
aaI11
aaa(lp3062
S'scaffold11052_cov59'
p3063
aS'scaffold2304_cov65'
p3064
a(lp3065
I1
a(lp3066
F0.0
aaI6
aa(lp3067
I1
a(lp3068
F0.285714
aaI7
aa(lp3069
I1
a(lp3070
F0.285714
aaI7
aaa(lp3071
S'scaffold34185_cov69'
p3072
aS'scaffold1343_cov77'
p3073
a(lp3074
I1
a(lp3075
F0.272727
aaI11
aa(lp3076
I1
a(lp3077
F0.0
aaI4
aa(lp3078
I1
a(lp3079
F0.0
aaI3
aa(lp3080
I1
a(lp3081
F0.228571
aaI35
aaa(lp3082
S'scaffold663_cov79'
p3083
aS'scaffold2057_cov66'
p3084
a(lp3085
I1
a(lp3086
F0.0
aaI10
aa(lp3087
I1
a(lp3088
F0.0
aaI10
aa(lp3089
I1
a(lp3090
F0.0
aaI9
aaa(lp3091
S'scaffold8668_cov57'
p3092
aS'scaffold11818_cov100'
p3093
a(lp3094
I1
a(lp3095
F0.0
aaI4
aa(lp3096
I1
a(lp3097
F0.0
aaI7
aa(lp3098
I1
a(lp3099
F0.0
aaI10
aa(lp3100
I1
a(lp3101
F0.421053
aaI19
aa(lp3102
I1
a(lp3103
F0.0
aaI3
aa(lp3104
I1
a(lp3105
F0.5
aaI4
aa(lp3106
I1
a(lp3107
F0.285714
aaI7
aa(lp3108
I1
a(lp3109
F0.46875
aaI32
aaa(lp3110
S'scaffold1902_cov64'
p3111
aS'scaffold4418_cov65'
p3112
a(lp3113
I1
a(lp3114
F0.0
aaI2
aa(lp3115
I1
a(lp3116
F0.0
aaI2
aa(lp3117
I1
a(lp3118
F0.428571
aaI7
aaa(lp3119
S'scaffold2541_cov64'
p3120
aS'scaffold9591_cov85'
p3121
aa(lp3122
S'scaffold32065_cov59'
p3123
aS'scaffold28048_cov54'
p3124
aa(lp3125
S'scaffold2571_cov70'
p3126
aS'scaffold27216_cov96'
p3127
aa(lp3128
S'scaffold3358_cov56'
p3129
aS'scaffold20331_cov77'
p3130
aa(lp3131
S'scaffold2739_cov53'
p3132
aS'scaffold18278_cov58'
p3133
aa(lp3134
S'scaffold10187_cov86'
p3135
aS'scaffold10455_cov70'
p3136
aa(lp3137
S'scaffold4918_cov110'
p3138
aS'scaffold1432_cov55'
p3139
a(lp3140
I1
a(lp3141
F0.3
aaI20
aa(lp3142
I1
a(lp3143
F0.0
aaI6
aaa(lp3144
S'scaffold9750_cov109'
p3145
aS'scaffold23746_cov60'
p3146
aa(lp3147
S'scaffold36776_cov56'
p3148
aS'scaffold6457_cov56'
p3149
aa(lp3150
S'scaffold36466_cov115'
p3151
aS'scaffold6807_cov54'
p3152
aa(lp3153
S'scaffold9240_cov92'
p3154
aS'scaffold952_cov71'
p3155
aa(lp3156
S'scaffold4085_cov106'
p3157
aS'scaffold1850_cov129'
p3158
aa(lp3159
S'scaffold5518_cov59'
p3160
aS'scaffold21109_cov47'
p3161
aa(lp3162
S'scaffold10537_cov54'
p3163
aS'scaffold29404_cov53'
p3164
aa(lp3165
S'scaffold15110_cov149'
p3166
aS'scaffold1645_cov55'
p3167
a(lp3168
I1
a(lp3169
F0.222222
aaI9
aa(lp3170
I1
a(lp3171
F0.363636
aaI11
aa(lp3172
I1
a(lp3173
F0.384615
aaI13
aa(lp3174
I1
a(lp3175
F0.857143
aaI14
aa(lp3176
I1
a(lp3177
F0.454545
aaI22
aa(lp3178
I1
a(lp3179
F0.473684
aaI19
aaa(lp3180
S'scaffold4606_cov54'
p3181
aS'scaffold4816_cov61'
p3182
a(lp3183
I1
a(lp3184
F0.0
aaI7
aaa(lp3185
S'scaffold16801_cov94'
p3186
aS'scaffold2603_cov89'
p3187
aa(lp3188
S'scaffold37747_cov56'
p3189
aS'scaffold10374_cov51'
p3190
aasS'up'
p3191
(lp3192
(lp3193
g6
ag7
a(lp3194
I1
a(lp3195
F0.25
aaI12
aa(lp3196
I1
a(lp3197
F0.230769
aaI13
aaa(lp3198
g9
ag10
a(lp3199
I1
a(lp3200
F0.2
aaI10
aa(lp3201
I1
a(lp3202
F0.25
aaI8
aa(lp3203
I1
a(lp3204
F0.2
aaI20
aa(lp3205
I1
a(lp3206
F0.25
aaI12
aa(lp3207
I1
a(lp3208
F0.3125
aaI16
aa(lp3209
I1
a(lp3210
F0.444444
aaI18
aa(lp3211
I1
a(lp3212
F0.357143
aaI14
aa(lp3213
I1
a(lp3214
F0.0
aaI10
aa(lp3215
I1
a(lp3216
F0.307692
aaI13
aa(lp3217
I1
a(lp3218
F0.222222
aaI9
aa(lp3219
I1
a(lp3220
F0.222222
aaI9
aa(lp3221
I1
a(lp3222
F0.285714
aaI7
aa(lp3223
I1
a(lp3224
F0.444444
aaI9
aa(lp3225
I1
a(lp3226
F0.454545
aaI11
aa(lp3227
I1
a(lp3228
F0.363636
aaI11
aa(lp3229
I1
a(lp3230
F0.333333
aaI15
aa(lp3231
I1
a(lp3232
F0.363636
aaI11
aa(lp3233
I1
a(lp3234
F0.222222
aaI9
aaa(lp3235
g48
ag49
a(lp3236
I1
a(lp3237
F0.269231
aaI26
aaa(lp3238
g51
ag52
aa(lp3239
g54
ag55
aa(lp3240
g85
ag86
a(lp3241
I1
a(lp3242
F0.705882
aaI17
aa(lp3243
I1
a(lp3244
F0.434783
aaI23
aaa(lp3245
g92
ag93
a(lp3246
I1
a(lp3247
F0.538462
aaI26
aa(lp3248
I1
a(lp3249
F0.357143
aaI14
aa(lp3250
I1
a(lp3251
F0.3
aaI10
aa(lp3252
I1
a(lp3253
F0.0
aaI9
aa(lp3254
I1
a(lp3255
F0.444444
aaI9
aa(lp3256
I1
a(lp3257
F0.285714
aaI7
aa(lp3258
I1
a(lp3259
F0.0
aaI4
aa(lp3260
I1
a(lp3261
F0.0
aaI2
aa(lp3262
I1
a(lp3263
F0.0
aaI2
aa(lp3264
I1
a(lp3265
F0.0
aaI11
aa(lp3266
I1
a(lp3267
F0.0
aaI8
aa(lp3268
I1
a(lp3269
F0.363636
aaI22
aaa(lp3270
g97
ag98
aa(lp3271
g100
ag101
aa(lp3272
g103
ag104
aa(lp3273
g108
ag109
aa(lp3274
g121
ag122
aa(lp3275
g124
ag125
a(lp3276
I1
a(lp3277
F0.285714
aaI14
aa(lp3278
I1
a(lp3279
F0.3125
aaI16
aa(lp3280
I1
a(lp3281
F0.421053
aaI19
aa(lp3282
I1
a(lp3283
F0.333333
aaI21
aa(lp3284
I1
a(lp3285
F0.333333
aaI18
aa(lp3286
I1
a(lp3287
F0.388889
aaI18
aaa(lp3288
g139
ag140
a(lp3289
I1
a(lp3290
F0.333333
aaI12
aa(lp3291
I1
a(lp3292
F0.25
aaI20
aa(lp3293
I1
a(lp3294
F0.391304
aaI23
aa(lp3295
I1
a(lp3296
F0.214286
aaI28
aa(lp3297
I1
a(lp3298
F0.3
aaI10
aa(lp3299
I1
a(lp3300
F0.222222
aaI9
aaa(lp3301
g166
ag167
aa(lp3302
g173
ag174
aa(lp3303
g182
ag183
a(lp3304
I1
a(lp3305
F0.214286
aaI14
aaa(lp3306
g197
ag198
aa(lp3307
g214
ag215
aa(lp3308
g217
ag218
aa(lp3309
g222
ag223
aa(lp3310
g225
ag226
a(lp3311
I1
a(lp3312
F0.2
aaI30
aa(lp3313
I1
a(lp3314
F0.368421
aaI19
aa(lp3315
I1
a(lp3316
F0.277778
aaI18
aa(lp3317
I1
a(lp3318
F0.244444
aaI45
aaa(lp3319
g240
ag241
aa(lp3320
g259
ag260
a(lp3321
I1
a(lp3322
F0.307692
aaI13
aa(lp3323
I1
a(lp3324
F0.384615
aaI13
aa(lp3325
I1
a(lp3326
F0.357143
aaI14
aa(lp3327
I1
a(lp3328
F0.421053
aaI19
aaa(lp3329
g276
ag277
a(lp3330
I1
a(lp3331
F0.333333
aaI9
aa(lp3332
I1
a(lp3333
F0.222222
aaI9
aa(lp3334
I1
a(lp3335
F0.285714
aaI7
aa(lp3336
I1
a(lp3337
F0.3
aaI10
aa(lp3338
I1
a(lp3339
F0.222222
aaI9
aa(lp3340
I1
a(lp3341
F0.222222
aaI9
aa(lp3342
I1
a(lp3343
F0.5
aaI8
aaa(lp3344
g289
ag290
a(lp3345
I1
a(lp3346
F0.75
aaI12
aa(lp3347
I1
a(lp3348
F0.2
aaI15
aaa(lp3349
g302
ag303
aa(lp3350
g305
ag306
aa(lp3351
g310
ag311
a(lp3352
I1
a(lp3353
F0.35
aaI20
aa(lp3354
I1
a(lp3355
F0.416667
aaI12
aa(lp3356
I1
a(lp3357
F0.0
aaI6
aaa(lp3358
g319
ag320
aa(lp3359
g322
ag323
a(lp3360
I1
a(lp3361
F0.521739
aaI23
aa(lp3362
I1
a(lp3363
F0.461538
aaI13
aa(lp3364
I1
a(lp3365
F0.466667
aaI15
aa(lp3366
I1
a(lp3367
F0.5
aaI20
aa(lp3368
I1
a(lp3369
F0.642857
aaI14
aa(lp3370
I2
a(lp3371
F0.666667
aF0.333333
aaI15
aa(lp3372
I1
a(lp3373
F0.666667
aaI15
aa(lp3374
I1
a(lp3375
F0.333333
aaI9
aa(lp3376
I1
a(lp3377
F0.0
aaI8
aa(lp3378
I1
a(lp3379
F0.352941
aaI17
aa(lp3380
I1
a(lp3381
F0.214286
aaI14
aaa(lp3382
g335
ag336
aa(lp3383
g338
ag339
a(lp3384
I1
a(lp3385
F0.315789
aaI19
aa(lp3386
I1
a(lp3387
F0.3125
aaI16
aa(lp3388
I1
a(lp3389
F0.357143
aaI14
aa(lp3390
I1
a(lp3391
F0.4
aaI15
aaa(lp3392
g341
ag342
aa(lp3393
g344
ag345
a(lp3394
I1
a(lp3395
F0.285714
aaI7
aaa(lp3396
g361
ag362
aa(lp3397
g364
ag365
a(lp3398
I1
a(lp3399
F0.384615
aaI13
aa(lp3400
I1
a(lp3401
F0.461538
aaI13
aa(lp3402
I1
a(lp3403
F0.428571
aaI14
aa(lp3404
I1
a(lp3405
F0.466667
aaI15
aa(lp3406
I1
a(lp3407
F0.466667
aaI15
aa(lp3408
I1
a(lp3409
F0.411765
aaI17
aa(lp3410
I1
a(lp3411
F0.266667
aaI15
aa(lp3412
I1
a(lp3413
F0.25
aaI16
aa(lp3414
I1
a(lp3415
F0.363636
aaI11
aaa(lp3416
g367
ag368
aa(lp3417
g370
ag371
aa(lp3418
g373
ag374
a(lp3419
I1
a(lp3420
F0.25
aaI16
aa(lp3421
I1
a(lp3422
F0.285714
aaI14
aa(lp3423
I1
a(lp3424
F0.230769
aaI13
aa(lp3425
I1
a(lp3426
F0.6
aaI5
aa(lp3427
I1
a(lp3428
F0.375
aaI8
aa(lp3429
I1
a(lp3430
F0.2
aaI10
aaa(lp3431
g390
ag391
a(lp3432
I1
a(lp3433
F0.0
aaI6
aa(lp3434
I1
a(lp3435
F0.846154
aaI13
aa(lp3436
I1
a(lp3437
F0.346154
aaI26
aa(lp3438
I1
a(lp3439
F0.444444
aaI27
aaa(lp3440
g393
ag394
a(lp3441
I1
a(lp3442
F0.25
aaI12
aa(lp3443
I1
a(lp3444
F0.3
aaI10
aa(lp3445
I1
a(lp3446
F0.4
aaI10
aaa(lp3447
g396
ag397
aa(lp3448
g399
ag400
aa(lp3449
g402
ag403
a(lp3450
I1
a(lp3451
F0.266667
aaI15
aaa(lp3452
g407
ag408
aa(lp3453
g410
ag411
aa(lp3454
g413
ag414
a(lp3455
I1
a(lp3456
F0.25
aaI12
aa(lp3457
I1
a(lp3458
F0.444444
aaI27
aa(lp3459
I1
a(lp3460
F0.451613
aaI31
aa(lp3461
I1
a(lp3462
F0.25
aaI12
aaa(lp3463
g424
ag425
a(lp3464
I2
a(lp3465
F0.214286
aF0.214286
aaI14
aa(lp3466
I1
a(lp3467
F0.333333
aaI9
aa(lp3468
I1
a(lp3469
F0.0
aaI7
aa(lp3470
I1
a(lp3471
F0.0
aaI8
aa(lp3472
I1
a(lp3473
F0.222222
aaI9
aa(lp3474
I1
a(lp3475
F0.25
aaI8
aa(lp3476
I1
a(lp3477
F0.25
aaI12
aa(lp3478
I1
a(lp3479
F0.785714
aaI14
aa(lp3480
I1
a(lp3481
F0.2
aaI10
aa(lp3482
I1
a(lp3483
F0.266667
aaI15
aa(lp3484
I1
a(lp3485
F0.214286
aaI14
aa(lp3486
I1
a(lp3487
F0.75
aaI8
aa(lp3488
I1
a(lp3489
F0.307692
aaI13
aa(lp3490
I1
a(lp3491
F0.0
aaI16
aa(lp3492
I1
a(lp3493
F0.45
aaI20
aa(lp3494
I1
a(lp3495
F0.0
aaI10
aa(lp3496
I1
a(lp3497
F0.2
aaI10
aa(lp3498
I1
a(lp3499
F0.0
aaI9
aaa(lp3500
g427
ag428
aa(lp3501
g430
ag431
a(lp3502
I1
a(lp3503
F0.3
aaI10
aa(lp3504
I1
a(lp3505
F0.421053
aaI19
aa(lp3506
I1
a(lp3507
F0.294118
aaI17
aa(lp3508
I1
a(lp3509
F0.3125
aaI16
aa(lp3510
I1
a(lp3511
F0.285714
aaI14
aa(lp3512
I1
a(lp3513
F0.2
aaI15
aa(lp3514
I1
a(lp3515
F0.272727
aaI11
aa(lp3516
I1
a(lp3517
F0.307692
aaI13
aa(lp3518
I1
a(lp3519
F0.214286
aaI14
aa(lp3520
I1
a(lp3521
F0.230769
aaI13
aa(lp3522
I1
a(lp3523
F0.0
aaI26
aaa(lp3524
g451
ag452
aa(lp3525
g466
ag467
a(lp3526
I1
a(lp3527
F0.25
aaI12
aa(lp3528
I1
a(lp3529
F0.428571
aaI28
aa(lp3530
I1
a(lp3531
F0.210526
aaI19
aa(lp3532
I1
a(lp3533
F0.428571
aaI14
aa(lp3534
I1
a(lp3535
F0.363636
aaI11
aa(lp3536
I1
a(lp3537
F0.363636
aaI11
aaa(lp3538
g479
ag480
aa(lp3539
g482
ag483
aa(lp3540
g487
ag488
a(lp3541
I1
a(lp3542
F0.230769
aaI13
aa(lp3543
I1
a(lp3544
F0.214286
aaI14
aa(lp3545
I1
a(lp3546
F0.25
aaI12
aa(lp3547
I1
a(lp3548
F0.3
aaI10
aa(lp3549
I1
a(lp3550
F0.3
aaI10
aa(lp3551
I1
a(lp3552
F0.222222
aaI9
aa(lp3553
I1
a(lp3554
F0.555556
aaI18
aa(lp3555
I1
a(lp3556
F0.578947
aaI19
aa(lp3557
I1
a(lp3558
F0.529412
aaI17
aa(lp3559
I1
a(lp3560
F0.526316
aaI19
aa(lp3561
I1
a(lp3562
F0.5
aaI10
aa(lp3563
I1
a(lp3564
F0.5625
aaI16
aa(lp3565
I1
a(lp3566
F0.263158
aaI19
aa(lp3567
I1
a(lp3568
F0.294118
aaI17
aa(lp3569
I1
a(lp3570
F0.3125
aaI16
aa(lp3571
I1
a(lp3572
F0.235294
aaI17
aa(lp3573
I1
a(lp3574
F0.222222
aaI18
aa(lp3575
I1
a(lp3576
F0.3
aaI10
aa(lp3577
I1
a(lp3578
F0.272727
aaI11
aa(lp3579
I1
a(lp3580
F0.6
aaI15
aa(lp3581
I1
a(lp3582
F0.4375
aaI16
aa(lp3583
I1
a(lp3584
F0.461538
aaI13
aa(lp3585
I1
a(lp3586
F0.0
aaI3
aa(lp3587
I1
a(lp3588
F0.368421
aaI19
aaa(lp3589
g510
ag511
aa(lp3590
g513
ag514
a(lp3591
I1
a(lp3592
F0.714286
aaI14
aaa(lp3593
g516
ag517
aa(lp3594
g523
ag524
aa(lp3595
g526
ag527
a(lp3596
I1
a(lp3597
F0.26087
aaI23
aa(lp3598
I1
a(lp3599
F0.304348
aaI23
aa(lp3600
I1
a(lp3601
F0.291667
aaI24
aa(lp3602
I1
a(lp3603
F0.230769
aaI26
aa(lp3604
I1
a(lp3605
F0.208333
aaI24
aa(lp3606
I1
a(lp3607
F0.444444
aaI27
aa(lp3608
I1
a(lp3609
F0.269231
aaI26
aa(lp3610
I1
a(lp3611
F0.307692
aaI13
aa(lp3612
I1
a(lp3613
F0.4
aaI15
aa(lp3614
I1
a(lp3615
F0.214286
aaI14
aa(lp3616
I1
a(lp3617
F0.266667
aaI30
aa(lp3618
I1
a(lp3619
F0.466667
aaI15
aa(lp3620
I1
a(lp3621
F0.428571
aaI14
aa(lp3622
I1
a(lp3623
F0.0
aaI21
aa(lp3624
I1
a(lp3625
F0.461538
aaI13
aa(lp3626
I1
a(lp3627
F0.545455
aaI22
aa(lp3628
I1
a(lp3629
F0.625
aaI16
aa(lp3630
I1
a(lp3631
F0.222222
aaI18
aa(lp3632
I1
a(lp3633
F0.483871
aaI62
aaa(lp3634
g609
ag610
a(lp3635
I1
a(lp3636
F0.230769
aaI13
aa(lp3637
I1
a(lp3638
F0.214286
aaI14
aa(lp3639
I1
a(lp3640
F0.363636
aaI11
aa(lp3641
I1
a(lp3642
F0.333333
aaI12
aa(lp3643
I1
a(lp3644
F0.222222
aaI9
aa(lp3645
I1
a(lp3646
F0.222222
aaI9
aa(lp3647
I1
a(lp3648
F0.238095
aaI21
aa(lp3649
I1
a(lp3650
F0.2
aaI20
aa(lp3651
I1
a(lp3652
F0.55
aaI20
aa(lp3653
I1
a(lp3654
F0.555556
aaI9
aa(lp3655
I1
a(lp3656
F0.235294
aaI17
aa(lp3657
I1
a(lp3658
F0.25
aaI12
aa(lp3659
I1
a(lp3660
F0.3125
aaI16
aa(lp3661
I1
a(lp3662
F0.416667
aaI12
aaa(lp3663
g646
ag647
a(lp3664
I1
a(lp3665
F0.4
aaI20
aa(lp3666
I1
a(lp3667
F0.378378
aaI37
aa(lp3668
I1
a(lp3669
F0.621622
aaI37
aa(lp3670
I1
a(lp3671
F0.458333
aaI24
aa(lp3672
I1
a(lp3673
F0.375
aaI8
aa(lp3674
I1
a(lp3675
F0.222222
aaI9
aa(lp3676
I1
a(lp3677
F0.555556
aaI9
aa(lp3678
I2
a(lp3679
F0.5
aF0.5
aaI6
aa(lp3680
I1
a(lp3681
F0.5
aaI4
aa(lp3682
I1
a(lp3683
F0.0
aaI2
aa(lp3684
I1
a(lp3685
F0.0
aaI3
aa(lp3686
I1
a(lp3687
F0.0
aaI3
aa(lp3688
I1
a(lp3689
F0.0
aaI3
aa(lp3690
I1
a(lp3691
F0.0
aaI3
aa(lp3692
I1
a(lp3693
F0.0
aaI3
aa(lp3694
I1
a(lp3695
F0.0
aaI3
aaa(lp3696
g649
ag650
a(lp3697
I1
a(lp3698
F0.222222
aaI27
aa(lp3699
I1
a(lp3700
F0.214286
aaI28
aaa(lp3701
g652
ag653
a(lp3702
I1
a(lp3703
F0.272727
aaI11
aa(lp3704
I1
a(lp3705
F0.416667
aaI12
aa(lp3706
I1
a(lp3707
F0.230769
aaI13
aa(lp3708
I1
a(lp3709
F0.833333
aaI12
aaa(lp3710
g655
ag656
a(lp3711
I1
a(lp3712
F0.466667
aaI30
aa(lp3713
I1
a(lp3714
F0.6
aaI30
aa(lp3715
I1
a(lp3716
F0.225806
aaI31
aaa(lp3717
g658
ag659
aa(lp3718
g661
ag662
aa(lp3719
g664
ag665
a(lp3720
I1
a(lp3721
F0.4375
aaI16
aa(lp3722
I1
a(lp3723
F0.30303
aaI33
aa(lp3724
I1
a(lp3725
F0.363636
aaI11
aa(lp3726
I1
a(lp3727
F0.363636
aaI11
aaa(lp3728
g713
ag714
aa(lp3729
g730
ag731
a(lp3730
I1
a(lp3731
F0.357143
aaI14
aa(lp3732
I1
a(lp3733
F0.307692
aaI13
aa(lp3734
I1
a(lp3735
F0.3125
aaI16
aa(lp3736
I1
a(lp3737
F0.3125
aaI16
aa(lp3738
I1
a(lp3739
F0.333333
aaI18
aa(lp3740
I1
a(lp3741
F0.277778
aaI18
aa(lp3742
I1
a(lp3743
F0.25
aaI16
aa(lp3744
I1
a(lp3745
F0.25
aaI16
aa(lp3746
I1
a(lp3747
F0.315789
aaI19
aa(lp3748
I1
a(lp3749
F0.333333
aaI15
aa(lp3750
I1
a(lp3751
F0.578947
aaI19
aa(lp3752
I1
a(lp3753
F0.266667
aaI15
aaa(lp3754
g733
ag734
a(lp3755
I1
a(lp3756
F0.285714
aaI14
aa(lp3757
I1
a(lp3758
F0.230769
aaI13
aa(lp3759
I1
a(lp3760
F0.24
aaI25
aa(lp3761
I1
a(lp3762
F0.307692
aaI13
aa(lp3763
I1
a(lp3764
F0.230769
aaI13
aaa(lp3765
g736
ag737
a(lp3766
I1
a(lp3767
F0.590909
aaI22
aa(lp3768
I1
a(lp3769
F0.333333
aaI12
aa(lp3770
I1
a(lp3771
F0.65
aaI20
aa(lp3772
I1
a(lp3773
F0.3
aaI10
aa(lp3774
I1
a(lp3775
F0.0
aaI12
aa(lp3776
I1
a(lp3777
F0.684211
aaI19
aa(lp3778
I1
a(lp3779
F0.4
aaI10
aa(lp3780
I1
a(lp3781
F0.0
aaI2
aa(lp3782
I1
a(lp3783
F0.8
aaI5
aaa(lp3784
g777
ag778
a(lp3785
I1
a(lp3786
F0.375
aaI8
aa(lp3787
I1
a(lp3788
F0.3
aaI10
aa(lp3789
I1
a(lp3790
F0.357143
aaI14
aa(lp3791
I1
a(lp3792
F0.363636
aaI22
aa(lp3793
I1
a(lp3794
F0.388889
aaI18
aaa(lp3795
g780
ag781
a(lp3796
I1
a(lp3797
F0.214286
aaI14
aa(lp3798
I1
a(lp3799
F0.0
aaI9
aaa(lp3800
g789
ag790
aa(lp3801
g798
ag799
aa(lp3802
g801
ag802
aa(lp3803
g820
ag821
aa(lp3804
g823
ag824
aa(lp3805
g826
ag827
a(lp3806
I1
a(lp3807
F0.235294
aaI17
aa(lp3808
I1
a(lp3809
F0.518519
aaI27
aa(lp3810
I1
a(lp3811
F0.62963
aaI27
aa(lp3812
I1
a(lp3813
F0.666667
aaI27
aa(lp3814
I1
a(lp3815
F0.6
aaI25
aa(lp3816
I1
a(lp3817
F0.636364
aaI22
aa(lp3818
I1
a(lp3819
F0.583333
aaI24
aa(lp3820
I1
a(lp3821
F0.545455
aaI22
aa(lp3822
I1
a(lp3823
F0.740741
aaI27
aa(lp3824
I1
a(lp3825
F0.65
aaI20
aa(lp3826
I1
a(lp3827
F0.636364
aaI22
aa(lp3828
I1
a(lp3829
F0.642857
aaI28
aa(lp3830
I1
a(lp3831
F0.772727
aaI22
aa(lp3832
I1
a(lp3833
F0.333333
aaI12
aa(lp3834
I1
a(lp3835
F0.478261
aaI23
aa(lp3836
I1
a(lp3837
F0.388889
aaI18
aa(lp3838
I1
a(lp3839
F0.5
aaI20
aa(lp3840
I1
a(lp3841
F0.428571
aaI28
aaa(lp3842
g829
ag830
a(lp3843
I1
a(lp3844
F0.272727
aaI11
aa(lp3845
I1
a(lp3846
F0.2
aaI10
aa(lp3847
I1
a(lp3848
F0.444444
aaI9
aa(lp3849
I1
a(lp3850
F0.222222
aaI9
aa(lp3851
I1
a(lp3852
F0.4
aaI10
aaa(lp3853
g832
ag833
aa(lp3854
g851
ag852
a(lp3855
I1
a(lp3856
F0.272727
aaI22
aa(lp3857
I1
a(lp3858
F0.230769
aaI13
aa(lp3859
I1
a(lp3860
F0.272727
aaI11
aaa(lp3861
g854
ag855
a(lp3862
I1
a(lp3863
F0.466667
aaI15
aaa(lp3864
g861
ag862
a(lp3865
I1
a(lp3866
F0.0
aaI24
aaa(lp3867
g904
ag905
a(lp3868
I1
a(lp3869
F0.363636
aaI11
aa(lp3870
I1
a(lp3871
F0.222222
aaI9
aa(lp3872
I1
a(lp3873
F0.222222
aaI9
aa(lp3874
I1
a(lp3875
F0.2
aaI10
aa(lp3876
I1
a(lp3877
F0.375
aaI16
aaa(lp3878
g907
ag908
a(lp3879
I1
a(lp3880
F0.0
aaI21
aa(lp3881
I1
a(lp3882
F0.25
aaI20
aa(lp3883
I1
a(lp3884
F0.25
aaI16
aa(lp3885
I1
a(lp3886
F0.485714
aaI35
aa(lp3887
I1
a(lp3888
F0.25
aaI20
aa(lp3889
I1
a(lp3890
F0.277778
aaI18
aa(lp3891
I1
a(lp3892
F0.25
aaI12
aa(lp3893
I1
a(lp3894
F0.222222
aaI9
aaa(lp3895
g910
ag911
aa(lp3896
g913
ag914
a(lp3897
I1
a(lp3898
F0.0
aaI9
aa(lp3899
I1
a(lp3900
F0.0
aaI3
aa(lp3901
I1
a(lp3902
F0.0
aaI4
aaa(lp3903
g958
ag959
a(lp3904
I1
a(lp3905
F0.35
aaI20
aa(lp3906
I1
a(lp3907
F0.4
aaI20
aa(lp3908
I1
a(lp3909
F0.764706
aaI17
aaa(lp3910
g971
ag972
a(lp3911
I1
a(lp3912
F0.0
aaI5
aa(lp3913
I1
a(lp3914
F0.5
aaI6
aa(lp3915
I1
a(lp3916
F0.0
aaI4
aa(lp3917
I1
a(lp3918
F0.692308
aaI13
aa(lp3919
I1
a(lp3920
F0.0
aaI12
aaa(lp3921
g1004
ag1005
a(lp3922
I1
a(lp3923
F0.578947
aaI19
aa(lp3924
I1
a(lp3925
F0.384615
aaI13
aa(lp3926
I1
a(lp3927
F0.266667
aaI15
aaa(lp3928
g1013
ag1014
a(lp3929
I1
a(lp3930
F0.538462
aaI13
aa(lp3931
I1
a(lp3932
F0.5
aaI12
aa(lp3933
I1
a(lp3934
F0.428571
aaI7
aaa(lp3935
g1030
ag1031
a(lp3936
I1
a(lp3937
F0.2
aaI10
aa(lp3938
I1
a(lp3939
F0.411765
aaI17
aa(lp3940
I1
a(lp3941
F0.5
aaI14
aa(lp3942
I1
a(lp3943
F0.444444
aaI9
aa(lp3944
I1
a(lp3945
F0.285714
aaI14
aa(lp3946
I1
a(lp3947
F0.285714
aaI14
aaa(lp3948
g1037
ag1038
aa(lp3949
g1062
ag1063
a(lp3950
I1
a(lp3951
F0.0
aaI15
aa(lp3952
I1
a(lp3953
F0.0
aaI9
aaa(lp3954
g1065
ag1066
aa(lp3955
g1086
ag1087
a(lp3956
I1
a(lp3957
F0.333333
aaI9
aa(lp3958
I1
a(lp3959
F0.272727
aaI11
aa(lp3960
I1
a(lp3961
F0.272727
aaI11
aa(lp3962
I1
a(lp3963
F0.4375
aaI16
aa(lp3964
I1
a(lp3965
F0.333333
aaI18
aa(lp3966
I1
a(lp3967
F0.368421
aaI19
aa(lp3968
I1
a(lp3969
F0.3
aaI20
aaa(lp3970
g1103
ag1104
a(lp3971
I1
a(lp3972
F0.266667
aaI15
aa(lp3973
I1
a(lp3974
F0.0
aaI2
aa(lp3975
I1
a(lp3976
F0.230769
aaI13
aa(lp3977
I1
a(lp3978
F0.2
aaI15
aa(lp3979
I1
a(lp3980
F0.266667
aaI15
aa(lp3981
I1
a(lp3982
F0.266667
aaI15
aaa(lp3983
g1122
ag1123
a(lp3984
I1
a(lp3985
F0.571429
aaI14
aa(lp3986
I1
a(lp3987
F0.411765
aaI17
aa(lp3988
I1
a(lp3989
F0.4
aaI15
aa(lp3990
I1
a(lp3991
F0.4
aaI15
aaa(lp3992
g1125
ag1126
a(lp3993
I1
a(lp3994
F0.333333
aaI15
aa(lp3995
I1
a(lp3996
F0.545455
aaI11
aa(lp3997
I1
a(lp3998
F0.722222
aaI18
aaa(lp3999
g1128
ag1129
aa(lp4000
g1139
ag1140
a(lp4001
I1
a(lp4002
F0.277778
aaI18
aa(lp4003
I1
a(lp4004
F0.318182
aaI22
aa(lp4005
I1
a(lp4006
F0.272727
aaI22
aa(lp4007
I1
a(lp4008
F0.238095
aaI21
aa(lp4009
I1
a(lp4010
F0.222222
aaI18
aa(lp4011
I1
a(lp4012
F0.222222
aaI18
aa(lp4013
I1
a(lp4014
F0.277778
aaI18
aa(lp4015
I1
a(lp4016
F0.285714
aaI14
aa(lp4017
I1
a(lp4018
F0.357143
aaI14
aa(lp4019
I1
a(lp4020
F0.384615
aaI13
aa(lp4021
I1
a(lp4022
F0.333333
aaI12
aa(lp4023
I1
a(lp4024
F0.333333
aaI12
aa(lp4025
I1
a(lp4026
F0.363636
aaI11
aaa(lp4027
g1152
ag1153
a(lp4028
I1
a(lp4029
F0.25
aaI12
aa(lp4030
I1
a(lp4031
F0.428571
aaI14
aa(lp4032
I1
a(lp4033
F0.333333
aaI12
aa(lp4034
I1
a(lp4035
F0.214286
aaI14
aa(lp4036
I1
a(lp4037
F0.4375
aaI16
aaa(lp4038
g1155
ag1156
aa(lp4039
g1164
ag1165
a(lp4040
I1
a(lp4041
F0.37037
aaI27
aa(lp4042
I1
a(lp4043
F0.565217
aaI23
aa(lp4044
I1
a(lp4045
F0.333333
aaI15
aaa(lp4046
g1167
ag1168
a(lp4047
I1
a(lp4048
F0.454545
aaI11
aa(lp4049
I1
a(lp4050
F0.2
aaI15
aaa(lp4051
g1182
ag1183
aa(lp4052
g1195
ag1196
a(lp4053
I1
a(lp4054
F0.222222
aaI9
aa(lp4055
I1
a(lp4056
F0.272727
aaI11
aaa(lp4057
g1208
ag1209
aa(lp4058
g1221
ag1222
a(lp4059
I1
a(lp4060
F0.333333
aaI12
aa(lp4061
I1
a(lp4062
F0.2
aaI10
aa(lp4063
I1
a(lp4064
F0.2
aaI20
aa(lp4065
I1
a(lp4066
F0.222222
aaI18
aaa(lp4067
g1250
ag1251
aa(lp4068
g1253
ag1254
aa(lp4069
g1256
ag1257
aa(lp4070
g1261
ag1262
a(lp4071
I1
a(lp4072
F0.705882
aaI17
aa(lp4073
I1
a(lp4074
F0.533333
aaI15
aa(lp4075
I1
a(lp4076
F0.533333
aaI15
aa(lp4077
I1
a(lp4078
F0.222222
aaI18
aaa(lp4079
g1270
ag1271
a(lp4080
I1
a(lp4081
F0.7
aaI10
aa(lp4082
I1
a(lp4083
F0.235294
aaI17
aa(lp4084
I1
a(lp4085
F0.285714
aaI21
aa(lp4086
I1
a(lp4087
F0.0
aaI7
aa(lp4088
I1
a(lp4089
F0.0
aaI4
aa(lp4090
I1
a(lp4091
F0.2
aaI10
aa(lp4092
I1
a(lp4093
F0.3
aaI10
aa(lp4094
I1
a(lp4095
F0.0
aaI8
aa(lp4096
I1
a(lp4097
F0.52381
aaI21
aa(lp4098
I1
a(lp4099
F0.285714
aaI7
aa(lp4100
I1
a(lp4101
F0.285714
aaI7
aaa(lp4102
g1275
ag1276
a(lp4103
I1
a(lp4104
F0.3
aaI20
aa(lp4105
I1
a(lp4106
F0.235294
aaI17
aa(lp4107
I1
a(lp4108
F0.238095
aaI21
aa(lp4109
I1
a(lp4110
F0.64
aaI25
aa(lp4111
I2
a(lp4112
F0.307692
aF0.692308
aaI13
aa(lp4113
I1
a(lp4114
F0.0
aaI12
aa(lp4115
I1
a(lp4116
F0.0
aaI15
aa(lp4117
I1
a(lp4118
F0.285714
aaI14
aa(lp4119
I1
a(lp4120
F0.0
aaI10
aa(lp4121
I1
a(lp4122
F0.5
aaI8
aa(lp4123
I1
a(lp4124
F0.5
aaI8
aa(lp4125
I1
a(lp4126
F0.0
aaI6
aa(lp4127
I1
a(lp4128
F0.0
aaI4
aa(lp4129
I1
a(lp4130
F0.533333
aaI15
aa(lp4131
I1
a(lp4132
F0.363636
aaI22
aaa(lp4133
g1290
ag1291
a(lp4134
I1
a(lp4135
F0.48
aaI25
aaa(lp4136
g1293
ag1294
a(lp4137
I1
a(lp4138
F0.6
aaI20
aaa(lp4139
g1296
ag1297
aa(lp4140
g1299
ag1300
a(lp4141
I1
a(lp4142
F0.333333
aaI24
aaa(lp4143
g1302
ag1303
a(lp4144
I1
a(lp4145
F0.0
aaI2
aa(lp4146
I1
a(lp4147
F0.0
aaI2
aa(lp4148
I1
a(lp4149
F0.375
aaI8
aa(lp4150
I1
a(lp4151
F0.375
aaI8
aa(lp4152
I1
a(lp4153
F0.428571
aaI7
aa(lp4154
I1
a(lp4155
F0.0
aaI2
aa(lp4156
I1
a(lp4157
F0.777778
aaI9
aa(lp4158
I1
a(lp4159
F0.0
aaI10
aa(lp4160
I1
a(lp4161
F0.0
aaI9
aa(lp4162
I1
a(lp4163
F0.0
aaI4
aa(lp4164
I1
a(lp4165
F0.0
aaI7
aa(lp4166
I1
a(lp4167
F0.0
aaI2
aaa(lp4168
g1363
ag1364
aa(lp4169
g1366
ag1367
a(lp4170
I1
a(lp4171
F0.333333
aaI9
aa(lp4172
I1
a(lp4173
F0.333333
aaI21
aa(lp4174
I1
a(lp4175
F0.235294
aaI17
aa(lp4176
I1
a(lp4177
F0.25
aaI8
aa(lp4178
I1
a(lp4179
F0.416667
aaI12
aa(lp4180
I1
a(lp4181
F0.823529
aaI17
aa(lp4182
I1
a(lp4183
F0.363636
aaI22
aa(lp4184
I1
a(lp4185
F0.75
aaI16
aa(lp4186
I1
a(lp4187
F0.25
aaI8
aa(lp4188
I1
a(lp4189
F0.2
aaI15
aa(lp4190
I1
a(lp4191
F0.222222
aaI9
aaa(lp4192
g1369
ag1370
aa(lp4193
g1374
ag1375
aa(lp4194
g1405
ag1406
aa(lp4195
g1408
ag1409
aa(lp4196
g1417
ag1418
aa(lp4197
g1432
ag1433
aa(lp4198
g1447
ag1448
a(lp4199
I1
a(lp4200
F0.454545
aaI22
aa(lp4201
I1
a(lp4202
F0.347826
aaI23
aa(lp4203
I1
a(lp4204
F0.423077
aaI26
aa(lp4205
I1
a(lp4206
F0.615385
aaI13
aa(lp4207
I1
a(lp4208
F0.666667
aaI12
aa(lp4209
I1
a(lp4210
F0.470588
aaI17
aaa(lp4211
g1452
ag1453
a(lp4212
I1
a(lp4213
F0.285714
aaI14
aa(lp4214
I1
a(lp4215
F0.285714
aaI14
aa(lp4216
I1
a(lp4217
F0.434783
aaI23
aa(lp4218
I1
a(lp4219
F0.615385
aaI26
aa(lp4220
I1
a(lp4221
F0.2
aaI15
aa(lp4222
I1
a(lp4223
F0.333333
aaI24
aa(lp4224
I1
a(lp4225
F0.363636
aaI22
aa(lp4226
I1
a(lp4227
F0.307692
aaI26
aa(lp4228
I1
a(lp4229
F0.304348
aaI23
aa(lp4230
I1
a(lp4231
F0.315789
aaI19
aa(lp4232
I1
a(lp4233
F0.4
aaI25
aa(lp4234
I1
a(lp4235
F0.428571
aaI14
aa(lp4236
I1
a(lp4237
F0.2
aaI10
aa(lp4238
I1
a(lp4239
F0.263158
aaI19
aa(lp4240
I1
a(lp4241
F0.210526
aaI19
aa(lp4242
I1
a(lp4243
F0.2
aaI20
aa(lp4244
I1
a(lp4245
F0.318182
aaI22
aa(lp4246
I1
a(lp4247
F0.222222
aaI18
aa(lp4248
I1
a(lp4249
F0.285714
aaI14
aa(lp4250
I1
a(lp4251
F0.416667
aaI24
aa(lp4252
I1
a(lp4253
F0.272727
aaI11
aa(lp4254
I1
a(lp4255
F0.210526
aaI19
aa(lp4256
I1
a(lp4257
F0.210526
aaI19
aa(lp4258
I1
a(lp4259
F0.25
aaI20
aa(lp4260
I1
a(lp4261
F0.25
aaI20
aa(lp4262
I1
a(lp4263
F0.6
aaI15
aa(lp4264
I1
a(lp4265
F0.533333
aaI15
aa(lp4266
I1
a(lp4267
F0.454545
aaI11
aa(lp4268
I1
a(lp4269
F0.461538
aaI13
aa(lp4270
I1
a(lp4271
F0.428571
aaI14
aa(lp4272
I1
a(lp4273
F0.411765
aaI17
aa(lp4274
I1
a(lp4275
F0.333333
aaI15
aa(lp4276
I1
a(lp4277
F0.333333
aaI15
aa(lp4278
I1
a(lp4279
F0.333333
aaI18
aa(lp4280
I1
a(lp4281
F0.35
aaI20
aa(lp4282
I1
a(lp4283
F0.45
aaI20
aa(lp4284
I1
a(lp4285
F0.421053
aaI19
aa(lp4286
I1
a(lp4287
F0.675
aaI120
aa(lp4288
I1
a(lp4289
F0.208
aaI125
aa(lp4290
I1
a(lp4291
F0.278689
aaI122
aaa(lp4292
g1511
ag1512
a(lp4293
I1
a(lp4294
F0.25
aaI8
aa(lp4295
I1
a(lp4296
F0.25
aaI8
aa(lp4297
I1
a(lp4298
F0.285714
aaI7
aa(lp4299
I1
a(lp4300
F0.222222
aaI9
aaa(lp4301
g1514
ag1515
a(lp4302
I1
a(lp4303
F0.466667
aaI15
aa(lp4304
I1
a(lp4305
F0.266667
aaI15
aaa(lp4306
g1517
ag1518
a(lp4307
I1
a(lp4308
F0.444444
aaI9
aa(lp4309
I1
a(lp4310
F0.428571
aaI7
aa(lp4311
I1
a(lp4312
F0.333333
aaI9
aa(lp4313
I1
a(lp4314
F0.444444
aaI9
aa(lp4315
I1
a(lp4316
F0.363636
aaI11
aa(lp4317
I1
a(lp4318
F0.4
aaI10
aa(lp4319
I1
a(lp4320
F0.222222
aaI9
aa(lp4321
I1
a(lp4322
F0.222222
aaI9
aa(lp4323
I1
a(lp4324
F0.2
aaI10
aa(lp4325
I1
a(lp4326
F0.2
aaI10
aa(lp4327
I1
a(lp4328
F0.214286
aaI14
aa(lp4329
I1
a(lp4330
F0.214286
aaI14
aa(lp4331
I1
a(lp4332
F0.230769
aaI13
aa(lp4333
I1
a(lp4334
F0.230769
aaI13
aa(lp4335
I1
a(lp4336
F0.2
aaI10
aa(lp4337
I1
a(lp4338
F0.222222
aaI9
aa(lp4339
I1
a(lp4340
F0.222222
aaI9
aaa(lp4341
g1520
ag1521
a(lp4342
I1
a(lp4343
F0.0
aaI7
aaa(lp4344
g1523
ag1524
a(lp4345
I1
a(lp4346
F0.208333
aaI24
aa(lp4347
I1
a(lp4348
F0.0
aaI26
aa(lp4349
I1
a(lp4350
F0.304348
aaI23
aa(lp4351
I1
a(lp4352
F0.333333
aaI21
aa(lp4353
I1
a(lp4354
F0.26087
aaI23
aa(lp4355
I1
a(lp4356
F0.227273
aaI22
aa(lp4357
I1
a(lp4358
F0.285714
aaI14
aa(lp4359
I1
a(lp4360
F0.344828
aaI29
aa(lp4361
I1
a(lp4362
F0.25
aaI16
aa(lp4363
I1
a(lp4364
F0.2
aaI10
aa(lp4365
I1
a(lp4366
F0.0
aaI10
aa(lp4367
I1
a(lp4368
F0.0
aaI13
aa(lp4369
I1
a(lp4370
F0.233333
aaI30
aaa(lp4371
g1530
ag1531
aa(lp4372
g1533
ag1534
a(lp4373
I1
a(lp4374
F0.3
aaI10
aaa(lp4375
g1536
ag1537
a(lp4376
I1
a(lp4377
F0.272727
aaI11
aa(lp4378
I1
a(lp4379
F0.333333
aaI9
aaa(lp4380
g1565
ag1566
aa(lp4381
g1572
ag1573
a(lp4382
I1
a(lp4383
F0.52
aaI25
aa(lp4384
I1
a(lp4385
F0.578947
aaI19
aa(lp4386
I1
a(lp4387
F0.266667
aaI15
aa(lp4388
I1
a(lp4389
F0.25
aaI16
aaa(lp4390
g1575
ag1576
aa(lp4391
g1578
ag1579
aa(lp4392
g1581
ag1582
a(lp4393
I1
a(lp4394
F0.473684
aaI19
aa(lp4395
I1
a(lp4396
F0.388889
aaI18
aa(lp4397
I1
a(lp4398
F0.473684
aaI19
aaa(lp4399
g1584
ag1585
a(lp4400
I1
a(lp4401
F0.222222
aaI9
aa(lp4402
I1
a(lp4403
F0.222222
aaI9
aa(lp4404
I1
a(lp4405
F0.333333
aaI12
aa(lp4406
I1
a(lp4407
F0.375
aaI16
aa(lp4408
I1
a(lp4409
F0.285714
aaI7
aa(lp4410
I1
a(lp4411
F0.25
aaI8
aa(lp4412
I1
a(lp4413
F0.4
aaI10
aa(lp4414
I1
a(lp4415
F0.428571
aaI7
aa(lp4416
I1
a(lp4417
F0.25
aaI12
aaa(lp4418
g1587
ag1588
a(lp4419
I1
a(lp4420
F0.222222
aaI18
aa(lp4421
I1
a(lp4422
F0.2
aaI30
aaa(lp4423
g1600
ag1601
a(lp4424
I1
a(lp4425
F0.0
aaI5
aa(lp4426
I1
a(lp4427
F0.0
aaI8
aa(lp4428
I1
a(lp4429
F0.4
aaI10
aa(lp4430
I1
a(lp4431
F0.307692
aaI13
aa(lp4432
I1
a(lp4433
F0.25
aaI12
aa(lp4434
I1
a(lp4435
F0.428571
aaI14
aa(lp4436
I1
a(lp4437
F0.384615
aaI13
aa(lp4438
I1
a(lp4439
F0.583333
aaI12
aa(lp4440
I1
a(lp4441
F0.692308
aaI13
aa(lp4442
I1
a(lp4443
F0.0
aaI11
aa(lp4444
I1
a(lp4445
F0.6
aaI5
aa(lp4446
I1
a(lp4447
F0.333333
aaI9
aa(lp4448
I1
a(lp4449
F0.285714
aaI7
aa(lp4450
I1
a(lp4451
F0.0
aaI10
aa(lp4452
I1
a(lp4453
F0.0
aaI10
aa(lp4454
I1
a(lp4455
F0.0
aaI11
aa(lp4456
I1
a(lp4457
F0.222222
aaI9
aaa(lp4458
g1603
ag1604
a(lp4459
I1
a(lp4460
F0.421053
aaI19
aaa(lp4461
g1646
ag1647
aa(lp4462
g1653
ag1654
a(lp4463
I1
a(lp4464
F0.5
aaI20
aa(lp4465
I1
a(lp4466
F0.5625
aaI16
aa(lp4467
I1
a(lp4468
F0.533333
aaI15
aa(lp4469
I1
a(lp4470
F0.571429
aaI7
aa(lp4471
I1
a(lp4472
F0.428571
aaI7
aa(lp4473
I1
a(lp4474
F0.5
aaI4
aaa(lp4475
g1656
ag1657
aa(lp4476
g1665
ag1666
aa(lp4477
g1668
ag1669
aa(lp4478
g1671
ag1672
a(lp4479
I1
a(lp4480
F0.526316
aaI19
aa(lp4481
I1
a(lp4482
F0.333333
aaI12
aa(lp4483
I1
a(lp4484
F0.272727
aaI11
aa(lp4485
I1
a(lp4486
F0.538462
aaI13
aaa(lp4487
g1674
ag1675
aa(lp4488
g1677
ag1678
a(lp4489
I1
a(lp4490
F0.214286
aaI14
aa(lp4491
I1
a(lp4492
F0.235294
aaI17
aa(lp4493
I1
a(lp4494
F0.307692
aaI13
aa(lp4495
I1
a(lp4496
F0.285714
aaI14
aa(lp4497
I1
a(lp4498
F0.318182
aaI22
aa(lp4499
I1
a(lp4500
F0.347826
aaI23
aa(lp4501
I1
a(lp4502
F0.25
aaI16
aa(lp4503
I1
a(lp4504
F0.25
aaI16
aa(lp4505
I1
a(lp4506
F0.3125
aaI16
aa(lp4507
I1
a(lp4508
F0.375
aaI16
aa(lp4509
I1
a(lp4510
F0.25
aaI16
aa(lp4511
I1
a(lp4512
F0.5
aaI12
aa(lp4513
I1
a(lp4514
F0.25
aaI16
aa(lp4515
I1
a(lp4516
F0.214286
aaI14
aa(lp4517
I1
a(lp4518
F0.25
aaI12
aa(lp4519
I1
a(lp4520
F0.304348
aaI23
aaa(lp4521
g1680
ag1681
aa(lp4522
g1683
ag1684
a(lp4523
I1
a(lp4524
F0.24
aaI25
aa(lp4525
I1
a(lp4526
F0.0
aaI20
aaa(lp4527
g1686
ag1687
aa(lp4528
g1699
ag1700
aa(lp4529
g1702
ag1703
a(lp4530
I1
a(lp4531
F0.333333
aaI18
aa(lp4532
I1
a(lp4533
F0.47619
aaI21
aa(lp4534
I1
a(lp4535
F0.5
aaI24
aa(lp4536
I1
a(lp4537
F0.368421
aaI19
aaa(lp4538
g1707
ag1708
aa(lp4539
g1712
ag1713
a(lp4540
I1
a(lp4541
F0.0
aaI6
aaa(lp4542
g1715
ag1716
aa(lp4543
g1730
ag1731
a(lp4544
I1
a(lp4545
F0.352941
aaI17
aaa(lp4546
g1735
ag1736
a(lp4547
I1
a(lp4548
F0.666667
aaI3
aa(lp4549
I1
a(lp4550
F0.666667
aaI3
aa(lp4551
I1
a(lp4552
F0.333333
aaI6
aa(lp4553
I1
a(lp4554
F0.0
aaI6
aa(lp4555
I1
a(lp4556
F0.0
aaI4
aa(lp4557
I1
a(lp4558
F0.5
aaI8
aa(lp4559
I1
a(lp4560
F0.2
aaI15
aa(lp4561
I1
a(lp4562
F0.5
aaI12
aa(lp4563
I1
a(lp4564
F0.75
aaI4
aa(lp4565
I1
a(lp4566
F0.0
aaI3
aa(lp4567
I1
a(lp4568
F0.5
aaI4
aa(lp4569
I1
a(lp4570
F0.0
aaI5
aa(lp4571
I1
a(lp4572
F0.5
aaI6
aa(lp4573
I1
a(lp4574
F0.0
aaI7
aa(lp4575
I1
a(lp4576
F0.5
aaI6
aa(lp4577
I1
a(lp4578
F0.0
aaI2
aa(lp4579
I1
a(lp4580
F0.5
aaI6
aa(lp4581
I1
a(lp4582
F0.5
aaI6
aaa(lp4583
g1738
ag1739
aa(lp4584
g1741
ag1742
aa(lp4585
g1770
ag1771
a(lp4586
I1
a(lp4587
F0.4
aaI15
aa(lp4588
I1
a(lp4589
F0.333333
aaI9
aa(lp4590
I1
a(lp4591
F0.333333
aaI21
aa(lp4592
I1
a(lp4593
F0.636364
aaI11
aa(lp4594
I1
a(lp4595
F0.363636
aaI11
aa(lp4596
I1
a(lp4597
F0.5
aaI8
aa(lp4598
I1
a(lp4599
F0.25
aaI8
aa(lp4600
I1
a(lp4601
F0.222222
aaI9
aa(lp4602
I1
a(lp4603
F0.2
aaI15
aa(lp4604
I1
a(lp4605
F0.0
aaI5
aa(lp4606
I1
a(lp4607
F0.25
aaI8
aa(lp4608
I1
a(lp4609
F0.3
aaI20
aa(lp4610
I1
a(lp4611
F0.636364
aaI11
aa(lp4612
I1
a(lp4613
F0.769231
aaI13
aa(lp4614
I1
a(lp4615
F0.444444
aaI9
aa(lp4616
I1
a(lp4617
F0.73913
aaI23
aa(lp4618
I1
a(lp4619
F0.625
aaI32
aa(lp4620
I1
a(lp4621
F0.64
aaI25
aaa(lp4622
g1783
ag1784
aa(lp4623
g1786
ag1787
a(lp4624
I1
a(lp4625
F0.583333
aaI24
aa(lp4626
I1
a(lp4627
F0.0
aaI13
aa(lp4628
I1
a(lp4629
F0.25
aaI16
aa(lp4630
I1
a(lp4631
F0.235294
aaI17
aa(lp4632
I1
a(lp4633
F0.222222
aaI18
aaa(lp4634
g1789
ag1790
a(lp4635
I1
a(lp4636
F0.235294
aaI34
aa(lp4637
I1
a(lp4638
F0.310345
aaI29
aa(lp4639
I1
a(lp4640
F0.217391
aaI23
aa(lp4641
I1
a(lp4642
F0.342857
aaI35
aa(lp4643
I1
a(lp4644
F0.576923
aaI26
aa(lp4645
I1
a(lp4646
F0.25
aaI24
aa(lp4647
I1
a(lp4648
F0.25
aaI24
aaa(lp4649
g1792
ag1793
a(lp4650
I1
a(lp4651
F0.214286
aaI14
aaa(lp4652
g1795
ag1796
aa(lp4653
g1820
ag1821
a(lp4654
I1
a(lp4655
F0.4
aaI10
aa(lp4656
I1
a(lp4657
F0.5
aaI18
aa(lp4658
I1
a(lp4659
F0.25
aaI12
aa(lp4660
I1
a(lp4661
F0.230769
aaI13
aaa(lp4662
g1839
ag1840
a(lp4663
I1
a(lp4664
F0.2
aaI20
aa(lp4665
I1
a(lp4666
F0.269231
aaI26
aa(lp4667
I1
a(lp4668
F0.333333
aaI24
aa(lp4669
I1
a(lp4670
F0.275862
aaI29
aa(lp4671
I1
a(lp4672
F0.304348
aaI23
aa(lp4673
I1
a(lp4674
F0.233333
aaI30
aaa(lp4675
g1842
ag1843
aa(lp4676
g1853
ag1854
aa(lp4677
g1874
ag1875
a(lp4678
I1
a(lp4679
F0.52381
aaI21
aa(lp4680
I1
a(lp4681
F0.580645
aaI31
aa(lp4682
I1
a(lp4683
F0.222222
aaI18
aaa(lp4684
g1903
ag1904
a(lp4685
I1
a(lp4686
F0.47619
aaI21
aaa(lp4687
g1906
ag1907
a(lp4688
I1
a(lp4689
F0.333333
aaI9
aa(lp4690
I1
a(lp4691
F0.25
aaI12
aa(lp4692
I1
a(lp4693
F0.233333
aaI30
aaa(lp4694
g1911
ag1912
a(lp4695
I1
a(lp4696
F0.214286
aaI14
aa(lp4697
I1
a(lp4698
F0.3
aaI10
aa(lp4699
I1
a(lp4700
F0.3
aaI10
aaa(lp4701
g1914
ag1915
a(lp4702
I1
a(lp4703
F0.25
aaI8
aa(lp4704
I1
a(lp4705
F0.3
aaI10
aa(lp4706
I1
a(lp4707
F0.4
aaI15
aa(lp4708
I1
a(lp4709
F0.214286
aaI14
aa(lp4710
I1
a(lp4711
F0.25
aaI12
aa(lp4712
I1
a(lp4713
F0.230769
aaI13
aa(lp4714
I1
a(lp4715
F0.230769
aaI13
aa(lp4716
I1
a(lp4717
F0.2
aaI10
aa(lp4718
I1
a(lp4719
F0.2
aaI10
aa(lp4720
I1
a(lp4721
F0.222222
aaI9
aa(lp4722
I1
a(lp4723
F0.533333
aaI15
aa(lp4724
I1
a(lp4725
F0.285714
aaI21
aa(lp4726
I1
a(lp4727
F0.2
aaI15
aa(lp4728
I1
a(lp4729
F0.428571
aaI21
aa(lp4730
I1
a(lp4731
F0.45
aaI20
aa(lp4732
I1
a(lp4733
F0.368421
aaI19
aa(lp4734
I1
a(lp4735
F0.25
aaI8
aa(lp4736
I1
a(lp4737
F0.333333
aaI6
aa(lp4738
I1
a(lp4739
F0.666667
aaI24
aa(lp4740
I1
a(lp4741
F0.25
aaI32
aaa(lp4742
g1949
ag1950
aa(lp4743
g1952
ag1953
aa(lp4744
g1961
ag1962
aa(lp4745
g1968
ag1969
aa(lp4746
g1971
ag1972
a(lp4747
I1
a(lp4748
F0.615385
aaI13
aa(lp4749
I1
a(lp4750
F0.333333
aaI12
aaa(lp4751
g1998
ag1999
a(lp4752
I1
a(lp4753
F0.307692
aaI13
aa(lp4754
I1
a(lp4755
F0.4
aaI10
aa(lp4756
I1
a(lp4757
F0.333333
aaI21
aa(lp4758
I1
a(lp4759
F0.380952
aaI21
aa(lp4760
I1
a(lp4761
F0.5
aaI12
aa(lp4762
I1
a(lp4763
F0.538462
aaI13
aa(lp4764
I1
a(lp4765
F0.5
aaI12
aa(lp4766
I1
a(lp4767
F0.25
aaI12
aa(lp4768
I1
a(lp4769
F0.307692
aaI13
aa(lp4770
I1
a(lp4771
F0.25
aaI16
aa(lp4772
I1
a(lp4773
F0.333333
aaI15
aa(lp4774
I1
a(lp4775
F0.315789
aaI19
aa(lp4776
I1
a(lp4777
F0.4
aaI15
aaa(lp4778
g2001
ag2002
a(lp4779
I1
a(lp4780
F0.444444
aaI9
aa(lp4781
I1
a(lp4782
F0.25
aaI16
aa(lp4783
I1
a(lp4784
F0.235294
aaI17
aa(lp4785
I1
a(lp4786
F0.375
aaI16
aa(lp4787
I1
a(lp4788
F0.214286
aaI14
aa(lp4789
I1
a(lp4790
F0.421053
aaI19
aa(lp4791
I1
a(lp4792
F0.205882
aaI34
aaa(lp4793
g2014
ag2015
a(lp4794
I1
a(lp4795
F0.352941
aaI17
aa(lp4796
I1
a(lp4797
F0.321429
aaI28
aaa(lp4798
g2017
ag2018
aa(lp4799
g2020
ag2021
a(lp4800
I1
a(lp4801
F0.222222
aaI9
aa(lp4802
I1
a(lp4803
F0.230769
aaI13
aa(lp4804
I1
a(lp4805
F0.25
aaI12
aa(lp4806
I1
a(lp4807
F0.333333
aaI12
aa(lp4808
I1
a(lp4809
F0.230769
aaI13
aa(lp4810
I1
a(lp4811
F0.3125
aaI16
aa(lp4812
I1
a(lp4813
F0.285714
aaI14
aa(lp4814
I1
a(lp4815
F0.25
aaI8
aa(lp4816
I1
a(lp4817
F0.3
aaI10
aa(lp4818
I1
a(lp4819
F0.541667
aaI24
aaa(lp4820
g2043
ag2044
a(lp4821
I1
a(lp4822
F0.590909
aaI22
aaa(lp4823
g2046
ag2047
a(lp4824
I1
a(lp4825
F0.0
aaI24
aa(lp4826
I1
a(lp4827
F0.0
aaI13
aa(lp4828
I1
a(lp4829
F0.0
aaI14
aa(lp4830
I1
a(lp4831
F0.0
aaI5
aa(lp4832
I1
a(lp4833
F0.0
aaI13
aaa(lp4834
g2049
ag2050
a(lp4835
I1
a(lp4836
F0.211268
aaI71
aaa(lp4837
g2062
ag2063
a(lp4838
I1
a(lp4839
F0.448276
aaI29
aa(lp4840
I1
a(lp4841
F0.678571
aaI28
aa(lp4842
I1
a(lp4843
F0.566667
aaI30
aa(lp4844
I1
a(lp4845
F0.625
aaI32
aa(lp4846
I1
a(lp4847
F0.62963
aaI27
aaa(lp4848
g2065
ag2066
aa(lp4849
g2070
ag2071
a(lp4850
I1
a(lp4851
F0.0
aaI21
aa(lp4852
I1
a(lp4853
F0.466667
aaI15
aaa(lp4854
g2079
ag2080
aa(lp4855
g2082
ag2083
a(lp4856
I1
a(lp4857
F0.3
aaI20
aa(lp4858
I1
a(lp4859
F0.2
aaI10
aa(lp4860
I1
a(lp4861
F0.2
aaI15
aa(lp4862
I1
a(lp4863
F0.0
aaI8
aaa(lp4864
g2087
ag2088
aa(lp4865
g2094
ag2095
aa(lp4866
g2099
ag2100
a(lp4867
I1
a(lp4868
F0.333333
aaI9
aa(lp4869
I1
a(lp4870
F0.272727
aaI11
aa(lp4871
I1
a(lp4872
F0.272727
aaI11
aa(lp4873
I1
a(lp4874
F0.272727
aaI11
aa(lp4875
I1
a(lp4876
F0.214286
aaI14
aa(lp4877
I1
a(lp4878
F0.222222
aaI9
aa(lp4879
I1
a(lp4880
F0.529412
aaI17
aa(lp4881
I1
a(lp4882
F0.533333
aaI15
aa(lp4883
I1
a(lp4884
F0.0
aaI9
aa(lp4885
I1
a(lp4886
F0.368421
aaI19
aa(lp4887
I1
a(lp4888
F0.352941
aaI17
aa(lp4889
I1
a(lp4890
F0.375
aaI8
aa(lp4891
I1
a(lp4892
F0.5
aaI24
aa(lp4893
I1
a(lp4894
F0.272727
aaI11
aaa(lp4895
g2110
ag2111
a(lp4896
I1
a(lp4897
F0.0
aaI3
aa(lp4898
I1
a(lp4899
F0.333333
aaI6
aa(lp4900
I1
a(lp4901
F0.0
aaI3
aa(lp4902
I1
a(lp4903
F0.333333
aaI6
aa(lp4904
I1
a(lp4905
F0.0
aaI8
aa(lp4906
I1
a(lp4907
F0.0
aaI3
aa(lp4908
I1
a(lp4909
F0.0
aaI3
aa(lp4910
I1
a(lp4911
F0.0
aaI4
aa(lp4912
I1
a(lp4913
F0.0
aaI4
aa(lp4914
I1
a(lp4915
F0.0
aaI2
aa(lp4916
I1
a(lp4917
F0.0
aaI2
aa(lp4918
I1
a(lp4919
F0.2
aaI10
aa(lp4920
I1
a(lp4921
F0.25
aaI28
aa(lp4922
I1
a(lp4923
F0.230769
aaI13
aa(lp4924
I1
a(lp4925
F0.230769
aaI13
aa(lp4926
I1
a(lp4927
F0.307692
aaI13
aa(lp4928
I1
a(lp4929
F0.4
aaI15
aa(lp4930
I1
a(lp4931
F0.444444
aaI18
aa(lp4932
I1
a(lp4933
F0.434783
aaI23
aa(lp4934
I1
a(lp4935
F0.0
aaI3
aa(lp4936
I1
a(lp4937
F0.666667
aaI3
aa(lp4938
I1
a(lp4939
F0.0
aaI2
aa(lp4940
I1
a(lp4941
F0.0
aaI2
aaa(lp4942
g2139
ag2140
a(lp4943
I1
a(lp4944
F0.0
aaI9
aa(lp4945
I1
a(lp4946
F0.0
aaI8
aaa(lp4947
g2142
ag2143
a(lp4948
I1
a(lp4949
F0.25
aaI16
aa(lp4950
I1
a(lp4951
F0.25
aaI16
aa(lp4952
I1
a(lp4953
F0.25
aaI16
aa(lp4954
I1
a(lp4955
F0.590909
aaI22
aa(lp4956
I1
a(lp4957
F0.5
aaI16
aa(lp4958
I1
a(lp4959
F0.4375
aaI16
aa(lp4960
I1
a(lp4961
F0.214286
aaI14
aa(lp4962
I1
a(lp4963
F0.384615
aaI13
aa(lp4964
I1
a(lp4965
F0.285714
aaI14
aa(lp4966
I1
a(lp4967
F0.277778
aaI18
aaa(lp4968
g2161
ag2162
a(lp4969
I1
a(lp4970
F0.52381
aaI42
aaa(lp4971
g2164
ag2165
aa(lp4972
g2167
ag2168
aa(lp4973
g2182
ag2183
aa(lp4974
g2185
ag2186
aa(lp4975
g2188
ag2189
aa(lp4976
g2193
ag2194
aa(lp4977
g2196
ag2197
a(lp4978
I1
a(lp4979
F0.238095
aaI21
aaa(lp4980
g2199
ag2200
a(lp4981
I1
a(lp4982
F0.25
aaI20
aaa(lp4983
g2210
ag2211
aa(lp4984
g2215
ag2216
a(lp4985
I1
a(lp4986
F0.222222
aaI18
aaa(lp4987
g2218
ag2219
aa(lp4988
g2221
ag2222
a(lp4989
I1
a(lp4990
F0.266667
aaI15
aa(lp4991
I1
a(lp4992
F0.285714
aaI14
aa(lp4993
I1
a(lp4994
F0.5
aaI12
aa(lp4995
I1
a(lp4996
F0.222222
aaI18
aaa(lp4997
g2246
ag2247
a(lp4998
I1
a(lp4999
F0.65
aaI20
aa(lp5000
I1
a(lp5001
F0.705882
aaI17
aa(lp5002
I1
a(lp5003
F0.578947
aaI19
aa(lp5004
I1
a(lp5005
F0.5
aaI26
aa(lp5006
I1
a(lp5007
F0.4375
aaI16
aa(lp5008
I1
a(lp5009
F0.25
aaI20
aaa(lp5010
g2249
ag2250
a(lp5011
I1
a(lp5012
F0.0
aaI31
aaa(lp5013
g2252
ag2253
aa(lp5014
g2267
ag2268
aa(lp5015
g2270
ag2271
a(lp5016
I1
a(lp5017
F0.583333
aaI24
aa(lp5018
I1
a(lp5019
F0.454545
aaI22
aa(lp5020
I1
a(lp5021
F0.0
aaI12
aa(lp5022
I1
a(lp5023
F0.75
aaI16
aa(lp5024
I1
a(lp5025
F0.75
aaI20
aa(lp5026
I1
a(lp5027
F0.538462
aaI26
aa(lp5028
I1
a(lp5029
F0.0
aaI25
aa(lp5030
I1
a(lp5031
F0.0
aaI21
aa(lp5032
I1
a(lp5033
F0.6
aaI20
aa(lp5034
I1
a(lp5035
F0.461538
aaI13
aa(lp5036
I1
a(lp5037
F0.0
aaI8
aa(lp5038
I1
a(lp5039
F0.375
aaI16
aa(lp5040
I1
a(lp5041
F0.4
aaI25
aa(lp5042
I1
a(lp5043
F0.814815
aaI27
aa(lp5044
I1
a(lp5045
F0.222222
aaI9
aaa(lp5046
g2273
ag2274
a(lp5047
I1
a(lp5048
F0.3
aaI10
aa(lp5049
I1
a(lp5050
F0.333333
aaI18
aa(lp5051
I1
a(lp5052
F0.333333
aaI15
aa(lp5053
I1
a(lp5054
F0.388889
aaI18
aa(lp5055
I1
a(lp5056
F0.473684
aaI19
aa(lp5057
I1
a(lp5058
F0.315789
aaI19
aa(lp5059
I1
a(lp5060
F0.588235
aaI17
aa(lp5061
I1
a(lp5062
F0.347826
aaI23
aaa(lp5063
g2290
ag2291
aa(lp5064
g2293
ag2294
a(lp5065
I1
a(lp5066
F0.0
aaI11
aa(lp5067
I1
a(lp5068
F0.0
aaI14
aaa(lp5069
g2306
ag2307
a(lp5070
I1
a(lp5071
F0.230769
aaI13
aa(lp5072
I1
a(lp5073
F0.272727
aaI11
aaa(lp5074
g2309
ag2310
aa(lp5075
g2312
ag2313
aa(lp5076
g2315
ag2316
a(lp5077
I1
a(lp5078
F0.4375
aaI16
aa(lp5079
I1
a(lp5080
F0.444444
aaI18
aa(lp5081
I1
a(lp5082
F0.25
aaI20
aa(lp5083
I1
a(lp5084
F0.3125
aaI16
aa(lp5085
I1
a(lp5086
F0.333333
aaI15
aa(lp5087
I1
a(lp5088
F0.357143
aaI14
aa(lp5089
I1
a(lp5090
F0.333333
aaI12
aa(lp5091
I1
a(lp5092
F0.2
aaI10
aa(lp5093
I1
a(lp5094
F0.222222
aaI9
aa(lp5095
I1
a(lp5096
F0.363636
aaI11
aaa(lp5097
g2326
ag2327
aa(lp5098
g2329
ag2330
aa(lp5099
g2332
ag2333
aa(lp5100
g2335
ag2336
aa(lp5101
g2338
ag2339
aa(lp5102
g2361
ag2362
a(lp5103
I1
a(lp5104
F0.368421
aaI19
aa(lp5105
I1
a(lp5106
F0.3125
aaI16
aa(lp5107
I1
a(lp5108
F0.333333
aaI12
aa(lp5109
I1
a(lp5110
F0.333333
aaI12
aa(lp5111
I1
a(lp5112
F0.25
aaI12
aa(lp5113
I1
a(lp5114
F0.333333
aaI9
aa(lp5115
I1
a(lp5116
F0.461538
aaI13
aa(lp5117
I1
a(lp5118
F0.538462
aaI13
aa(lp5119
I1
a(lp5120
F0.428571
aaI14
aa(lp5121
I1
a(lp5122
F0.384615
aaI13
aa(lp5123
I1
a(lp5124
F0.333333
aaI9
aa(lp5125
I1
a(lp5126
F0.363636
aaI11
aa(lp5127
I1
a(lp5128
F0.25
aaI8
aa(lp5129
I1
a(lp5130
F0.2
aaI10
aa(lp5131
I1
a(lp5132
F0.2
aaI10
aa(lp5133
I1
a(lp5134
F0.25
aaI12
aa(lp5135
I1
a(lp5136
F0.0
aaI10
aa(lp5137
I1
a(lp5138
F0.2
aaI15
aa(lp5139
I1
a(lp5140
F0.315789
aaI19
aa(lp5141
I1
a(lp5142
F0.368421
aaI19
aaa(lp5143
g2364
ag2365
a(lp5144
I1
a(lp5145
F0.0
aaI14
aa(lp5146
I1
a(lp5147
F0.2
aaI10
aaa(lp5148
g2367
ag2368
aa(lp5149
g2398
ag2399
aa(lp5150
g2403
ag2404
a(lp5151
I1
a(lp5152
F0.375
aaI16
aa(lp5153
I1
a(lp5154
F0.333333
aaI15
aa(lp5155
I1
a(lp5156
F0.411765
aaI17
aa(lp5157
I1
a(lp5158
F0.380952
aaI21
aa(lp5159
I1
a(lp5160
F0.529412
aaI17
aaa(lp5161
g2406
ag2407
a(lp5162
I1
a(lp5163
F0.352941
aaI17
aa(lp5164
I1
a(lp5165
F0.25
aaI8
aa(lp5166
I1
a(lp5167
F0.25
aaI8
aa(lp5168
I1
a(lp5169
F0.25
aaI8
aa(lp5170
I1
a(lp5171
F0.285714
aaI7
aa(lp5172
I1
a(lp5173
F0.285714
aaI7
aa(lp5174
I1
a(lp5175
F0.333333
aaI6
aa(lp5176
I1
a(lp5177
F0.571429
aaI14
aa(lp5178
I1
a(lp5179
F0.466667
aaI15
aa(lp5180
I1
a(lp5181
F0.5
aaI16
aa(lp5182
I1
a(lp5183
F0.555556
aaI18
aa(lp5184
I2
a(lp5185
F0.416667
aF0.583333
aaI12
aa(lp5186
I1
a(lp5187
F0.266667
aaI15
aa(lp5188
I1
a(lp5189
F0.307692
aaI13
aaa(lp5190
g2409
ag2410
a(lp5191
I1
a(lp5192
F0.5
aaI24
aa(lp5193
I1
a(lp5194
F0.388889
aaI18
aa(lp5195
I1
a(lp5196
F0.428571
aaI21
aa(lp5197
I1
a(lp5198
F0.714286
aaI14
aa(lp5199
I1
a(lp5200
F0.32
aaI25
aa(lp5201
I1
a(lp5202
F0.333333
aaI6
aaa(lp5203
g2412
ag2413
a(lp5204
I1
a(lp5205
F0.0
aaI10
aa(lp5206
I1
a(lp5207
F0.0
aaI8
aa(lp5208
I1
a(lp5209
F0.0
aaI3
aaa(lp5210
g2415
ag2416
a(lp5211
I1
a(lp5212
F0.225806
aaI31
aa(lp5213
I1
a(lp5214
F0.3125
aaI32
aa(lp5215
I1
a(lp5216
F0.310345
aaI29
aa(lp5217
I1
a(lp5218
F0.409091
aaI22
aa(lp5219
I1
a(lp5220
F0.208333
aaI24
aa(lp5221
I1
a(lp5222
F0.333333
aaI21
aa(lp5223
I1
a(lp5224
F0.347826
aaI23
aa(lp5225
I1
a(lp5226
F0.333333
aaI30
aa(lp5227
I1
a(lp5228
F0.285714
aaI21
aa(lp5229
I1
a(lp5230
F0.666667
aaI3
aaa(lp5231
g2418
ag2419
a(lp5232
I1
a(lp5233
F0.28
aaI25
aa(lp5234
I1
a(lp5235
F0.304348
aaI23
aa(lp5236
I1
a(lp5237
F0.291667
aaI24
aa(lp5238
I1
a(lp5239
F0.0
aaI26
aaa(lp5240
g2421
ag2422
aa(lp5241
g2434
ag2435
aa(lp5242
g2437
ag2438
a(lp5243
I1
a(lp5244
F0.0
aaI2
aa(lp5245
I1
a(lp5246
F0.0
aaI3
aa(lp5247
I1
a(lp5248
F0.0
aaI2
aa(lp5249
I1
a(lp5250
F0.0
aaI2
aa(lp5251
I1
a(lp5252
F0.0
aaI2
aaa(lp5253
g2454
ag2455
aa(lp5254
g2459
ag2460
a(lp5255
I1
a(lp5256
F0.32
aaI25
aa(lp5257
I1
a(lp5258
F0.4
aaI5
aa(lp5259
I1
a(lp5260
F0.25
aaI12
aa(lp5261
I1
a(lp5262
F0.25
aaI12
aa(lp5263
I1
a(lp5264
F0.4
aaI10
aa(lp5265
I1
a(lp5266
F0.538462
aaI13
aaa(lp5267
g2472
ag2473
aa(lp5268
g2501
ag2502
aa(lp5269
g2558
ag2559
aa(lp5270
g2561
ag2562
a(lp5271
I1
a(lp5272
F0.470588
aaI17
aa(lp5273
I1
a(lp5274
F0.444444
aaI18
aa(lp5275
I1
a(lp5276
F0.421053
aaI19
aa(lp5277
I1
a(lp5278
F0.333333
aaI12
aa(lp5279
I1
a(lp5280
F0.588235
aaI17
aa(lp5281
I1
a(lp5282
F0.411765
aaI17
aa(lp5283
I1
a(lp5284
F0.538462
aaI13
aa(lp5285
I1
a(lp5286
F0.47619
aaI21
aaa(lp5287
g2568
ag2569
a(lp5288
I1
a(lp5289
F0.588235
aaI17
aa(lp5290
I1
a(lp5291
F0.75
aaI12
aa(lp5292
I1
a(lp5293
F0.363636
aaI11
aa(lp5294
I1
a(lp5295
F0.333333
aaI12
aa(lp5296
I1
a(lp5297
F0.333333
aaI15
aa(lp5298
I1
a(lp5299
F0.3125
aaI16
aa(lp5300
I1
a(lp5301
F0.266667
aaI15
aa(lp5302
I1
a(lp5303
F0.266667
aaI15
aaa(lp5304
g2571
ag2572
a(lp5305
I1
a(lp5306
F0.227273
aaI22
aa(lp5307
I1
a(lp5308
F0.423077
aaI26
aa(lp5309
I1
a(lp5310
F0.35
aaI20
aa(lp5311
I1
a(lp5312
F0.315789
aaI19
aa(lp5313
I1
a(lp5314
F0.428571
aaI21
aa(lp5315
I1
a(lp5316
F0.45
aaI20
aa(lp5317
I1
a(lp5318
F0.521739
aaI23
aa(lp5319
I1
a(lp5320
F0.529412
aaI17
aa(lp5321
I1
a(lp5322
F0.5625
aaI16
aa(lp5323
I1
a(lp5324
F0.347826
aaI23
aa(lp5325
I1
a(lp5326
F0.357143
aaI14
aa(lp5327
I1
a(lp5328
F0.333333
aaI12
aa(lp5329
I1
a(lp5330
F0.642857
aaI14
aa(lp5331
I1
a(lp5332
F0.642857
aaI14
aa(lp5333
I1
a(lp5334
F0.764706
aaI17
aa(lp5335
I1
a(lp5336
F0.333333
aaI12
aaa(lp5337
g2574
ag2575
a(lp5338
I1
a(lp5339
F0.0
aaI4
aa(lp5340
I1
a(lp5341
F0.380952
aaI21
aa(lp5342
I1
a(lp5343
F0.458333
aaI24
aa(lp5344
I1
a(lp5345
F0.444444
aaI18
aa(lp5346
I1
a(lp5347
F0.0
aaI20
aa(lp5348
I1
a(lp5349
F0.25
aaI12
aa(lp5350
I1
a(lp5351
F0.5
aaI18
aa(lp5352
I1
a(lp5353
F0.4
aaI20
aa(lp5354
I1
a(lp5355
F0.615385
aaI13
aa(lp5356
I1
a(lp5357
F0.0
aaI18
aa(lp5358
I1
a(lp5359
F0.526316
aaI19
aaa(lp5360
g2589
ag2590
aa(lp5361
g2592
ag2593
a(lp5362
I1
a(lp5363
F0.454545
aaI22
aa(lp5364
I1
a(lp5365
F0.333333
aaI9
aa(lp5366
I1
a(lp5367
F0.333333
aaI9
aa(lp5368
I1
a(lp5369
F0.384615
aaI13
aa(lp5370
I1
a(lp5371
F0.428571
aaI14
aa(lp5372
I1
a(lp5373
F0.307692
aaI13
aa(lp5374
I1
a(lp5375
F0.533333
aaI15
aa(lp5376
I1
a(lp5377
F0.533333
aaI15
aa(lp5378
I1
a(lp5379
F0.5
aaI18
aa(lp5380
I1
a(lp5381
F0.235294
aaI17
aa(lp5382
I1
a(lp5383
F0.230769
aaI13
aaa(lp5384
g2651
ag2652
a(lp5385
I1
a(lp5386
F0.3
aaI10
aa(lp5387
I1
a(lp5388
F0.272727
aaI11
aa(lp5389
I1
a(lp5390
F0.272727
aaI11
aa(lp5391
I1
a(lp5392
F0.416667
aaI12
aa(lp5393
I1
a(lp5394
F0.466667
aaI15
aa(lp5395
I1
a(lp5396
F0.5
aaI16
aa(lp5397
I1
a(lp5398
F0.5
aaI14
aa(lp5399
I1
a(lp5400
F0.466667
aaI15
aa(lp5401
I1
a(lp5402
F0.4375
aaI16
aa(lp5403
I1
a(lp5404
F0.538462
aaI13
aa(lp5405
I1
a(lp5406
F0.285714
aaI7
aa(lp5407
I1
a(lp5408
F0.428571
aaI7
aa(lp5409
I1
a(lp5410
F0.428571
aaI7
aa(lp5411
I1
a(lp5412
F0.428571
aaI7
aa(lp5413
I1
a(lp5414
F0.571429
aaI7
aa(lp5415
I1
a(lp5416
F0.625
aaI8
aa(lp5417
I1
a(lp5418
F0.571429
aaI7
aa(lp5419
I1
a(lp5420
F0.428571
aaI7
aa(lp5421
I1
a(lp5422
F0.222222
aaI9
aa(lp5423
I1
a(lp5424
F0.222222
aaI9
aaa(lp5425
g2692
ag2693
aa(lp5426
g2695
ag2696
aa(lp5427
g2698
ag2699
a(lp5428
I1
a(lp5429
F0.461538
aaI13
aa(lp5430
I1
a(lp5431
F0.5
aaI12
aa(lp5432
I1
a(lp5433
F0.315789
aaI19
aa(lp5434
I1
a(lp5435
F0.285714
aaI21
aa(lp5436
I1
a(lp5437
F0.318182
aaI22
aa(lp5438
I1
a(lp5439
F0.333333
aaI24
aa(lp5440
I1
a(lp5441
F0.363636
aaI22
aa(lp5442
I1
a(lp5443
F0.277778
aaI18
aa(lp5444
I1
a(lp5445
F0.222222
aaI18
aa(lp5446
I1
a(lp5447
F0.307692
aaI13
aa(lp5448
I1
a(lp5449
F0.2
aaI15
aa(lp5450
I1
a(lp5451
F0.25
aaI8
aa(lp5452
I1
a(lp5453
F0.5
aaI10
aa(lp5454
I1
a(lp5455
F0.5
aaI10
aa(lp5456
I1
a(lp5457
F0.384615
aaI13
aa(lp5458
I1
a(lp5459
F0.25
aaI16
aa(lp5460
I1
a(lp5461
F0.384615
aaI13
aa(lp5462
I1
a(lp5463
F0.307692
aaI13
aa(lp5464
I1
a(lp5465
F0.214286
aaI14
aa(lp5466
I1
a(lp5467
F0.214286
aaI14
aa(lp5468
I1
a(lp5469
F0.266667
aaI15
aa(lp5470
I1
a(lp5471
F0.307692
aaI13
aa(lp5472
I1
a(lp5473
F0.285714
aaI14
aa(lp5474
I1
a(lp5475
F0.272727
aaI11
aa(lp5476
I1
a(lp5477
F0.266667
aaI15
aa(lp5478
I1
a(lp5479
F0.307692
aaI13
aa(lp5480
I1
a(lp5481
F0.230769
aaI13
aa(lp5482
I1
a(lp5483
F0.25
aaI12
aa(lp5484
I1
a(lp5485
F0.272727
aaI11
aa(lp5486
I1
a(lp5487
F0.0
aaI10
aa(lp5488
I1
a(lp5489
F0.2
aaI10
aa(lp5490
I1
a(lp5491
F0.2
aaI10
aa(lp5492
I1
a(lp5493
F0.2
aaI10
aa(lp5494
I1
a(lp5495
F0.2
aaI10
aa(lp5496
I1
a(lp5497
F0.333333
aaI12
aa(lp5498
I1
a(lp5499
F0.5
aaI6
aa(lp5500
I1
a(lp5501
F0.214286
aaI14
aa(lp5502
I1
a(lp5503
F0.333333
aaI6
aa(lp5504
I1
a(lp5505
F0.285714
aaI7
aa(lp5506
I1
a(lp5507
F0.285714
aaI7
aa(lp5508
I1
a(lp5509
F0.285714
aaI7
aa(lp5510
I1
a(lp5511
F0.285714
aaI7
aa(lp5512
I1
a(lp5513
F0.357143
aaI14
aa(lp5514
I1
a(lp5515
F0.333333
aaI15
aa(lp5516
I1
a(lp5517
F0.333333
aaI21
aa(lp5518
I1
a(lp5519
F0.375
aaI16
aa(lp5520
I1
a(lp5521
F0.333333
aaI18
aa(lp5522
I1
a(lp5523
F0.388889
aaI18
aa(lp5524
I1
a(lp5525
F0.272727
aaI11
aa(lp5526
I1
a(lp5527
F0.3
aaI10
aa(lp5528
I1
a(lp5529
F0.315789
aaI19
aa(lp5530
I1
a(lp5531
F0.363636
aaI11
aa(lp5532
I1
a(lp5533
F0.363636
aaI11
aa(lp5534
I1
a(lp5535
F0.333333
aaI12
aa(lp5536
I1
a(lp5537
F0.222222
aaI9
aa(lp5538
I1
a(lp5539
F0.222222
aaI9
aa(lp5540
I1
a(lp5541
F0.333333
aaI18
aa(lp5542
I1
a(lp5543
F0.611111
aaI18
aa(lp5544
I1
a(lp5545
F0.266667
aaI15
aa(lp5546
I1
a(lp5547
F0.5
aaI10
aa(lp5548
I1
a(lp5549
F0.25
aaI16
aa(lp5550
I1
a(lp5551
F0.333333
aaI15
aa(lp5552
I1
a(lp5553
F0.285714
aaI14
aa(lp5554
I1
a(lp5555
F0.2
aaI10
aa(lp5556
I1
a(lp5557
F0.2
aaI10
aa(lp5558
I1
a(lp5559
F0.2
aaI10
aa(lp5560
I1
a(lp5561
F0.2
aaI10
aa(lp5562
I1
a(lp5563
F0.2
aaI10
aa(lp5564
I1
a(lp5565
F0.333333
aaI9
aa(lp5566
I1
a(lp5567
F0.333333
aaI18
aa(lp5568
I1
a(lp5569
F0.227273
aaI22
aa(lp5570
I1
a(lp5571
F0.25
aaI12
aa(lp5572
I1
a(lp5573
F0.333333
aaI12
aa(lp5574
I1
a(lp5575
F0.363636
aaI11
aa(lp5576
I1
a(lp5577
F0.357143
aaI14
aa(lp5578
I1
a(lp5579
F0.5
aaI12
aa(lp5580
I1
a(lp5581
F0.461538
aaI13
aa(lp5582
I1
a(lp5583
F0.357143
aaI14
aa(lp5584
I1
a(lp5585
F0.357143
aaI14
aa(lp5586
I1
a(lp5587
F0.318182
aaI22
aa(lp5588
I1
a(lp5589
F0.619048
aaI21
aa(lp5590
I1
a(lp5591
F0.4375
aaI16
aa(lp5592
I1
a(lp5593
F0.4375
aaI16
aa(lp5594
I1
a(lp5595
F0.333333
aaI15
aa(lp5596
I1
a(lp5597
F0.3125
aaI16
aa(lp5598
I1
a(lp5599
F0.375
aaI16
aa(lp5600
I1
a(lp5601
F0.428571
aaI14
aa(lp5602
I1
a(lp5603
F0.375
aaI16
aa(lp5604
I1
a(lp5605
F0.45
aaI20
aa(lp5606
I1
a(lp5607
F0.388889
aaI18
aa(lp5608
I1
a(lp5609
F0.352941
aaI17
aa(lp5610
I1
a(lp5611
F0.421053
aaI19
aa(lp5612
I1
a(lp5613
F0.263158
aaI19
aa(lp5614
I1
a(lp5615
F0.533333
aaI15
aa(lp5616
I1
a(lp5617
F0.208333
aaI24
aa(lp5618
I1
a(lp5619
F0.454545
aaI22
aa(lp5620
I1
a(lp5621
F0.666667
aaI15
aaa(lp5622
g2831
ag2832
a(lp5623
I1
a(lp5624
F0.222222
aaI9
aaa(lp5625
g2834
ag2835
aa(lp5626
g2837
ag2838
a(lp5627
I1
a(lp5628
F0.368421
aaI19
aa(lp5629
I1
a(lp5630
F0.25
aaI12
aaa(lp5631
g2840
ag2841
aa(lp5632
g2843
ag2844
aa(lp5633
g2846
ag2847
aa(lp5634
g2849
ag2850
a(lp5635
I1
a(lp5636
F0.2
aaI10
aa(lp5637
I1
a(lp5638
F0.272727
aaI11
aa(lp5639
I1
a(lp5640
F0.272727
aaI11
aa(lp5641
I1
a(lp5642
F0.25
aaI16
aa(lp5643
I1
a(lp5644
F0.222222
aaI9
aa(lp5645
I1
a(lp5646
F0.5
aaI14
aa(lp5647
I1
a(lp5648
F0.272727
aaI11
aa(lp5649
I1
a(lp5650
F0.222222
aaI9
aa(lp5651
I1
a(lp5652
F0.238095
aaI21
aa(lp5653
I1
a(lp5654
F0.222222
aaI18
aaa(lp5655
g2852
ag2853
a(lp5656
I1
a(lp5657
F0.666667
aaI3
aa(lp5658
I1
a(lp5659
F0.666667
aaI3
aaa(lp5660
g2865
ag2866
a(lp5661
I1
a(lp5662
F0.388889
aaI18
aa(lp5663
I1
a(lp5664
F0.285714
aaI21
aa(lp5665
I1
a(lp5666
F0.25
aaI20
aa(lp5667
I1
a(lp5668
F0.3
aaI20
aa(lp5669
I1
a(lp5670
F0.5
aaI20
aa(lp5671
I1
a(lp5672
F0.434783
aaI23
aa(lp5673
I1
a(lp5674
F0.263158
aaI19
aa(lp5675
I1
a(lp5676
F0.285714
aaI14
aa(lp5677
I1
a(lp5678
F0.2
aaI10
aa(lp5679
I1
a(lp5680
F0.222222
aaI9
aa(lp5681
I1
a(lp5682
F0.333333
aaI9
aaa(lp5683
g2868
ag2869
aa(lp5684
g2879
ag2880
aa(lp5685
g2882
ag2883
aa(lp5686
g2885
ag2886
a(lp5687
I1
a(lp5688
F0.461538
aaI13
aa(lp5689
I1
a(lp5690
F0.352941
aaI17
aa(lp5691
I1
a(lp5692
F0.428571
aaI28
aa(lp5693
I1
a(lp5694
F0.461538
aaI26
aa(lp5695
I1
a(lp5696
F0.464286
aaI28
aa(lp5697
I1
a(lp5698
F0.416667
aaI24
aa(lp5699
I1
a(lp5700
F0.375
aaI8
aa(lp5701
I1
a(lp5702
F0.416667
aaI12
aa(lp5703
I1
a(lp5704
F0.454545
aaI11
aa(lp5705
I1
a(lp5706
F0.333333
aaI15
aa(lp5707
I1
a(lp5708
F0.375
aaI16
aa(lp5709
I1
a(lp5710
F0.375
aaI16
aa(lp5711
I1
a(lp5712
F0.294118
aaI17
aa(lp5713
I1
a(lp5714
F0.375
aaI16
aa(lp5715
I1
a(lp5716
F0.212121
aaI33
aa(lp5717
I1
a(lp5718
F0.4
aaI15
aa(lp5719
I1
a(lp5720
F0.583333
aaI24
aa(lp5721
I1
a(lp5722
F0.714286
aaI14
aa(lp5723
I1
a(lp5724
F0.473684
aaI19
aa(lp5725
I1
a(lp5726
F0.55
aaI20
aaa(lp5727
g2910
ag2911
a(lp5728
I1
a(lp5729
F0.3125
aaI16
aa(lp5730
I1
a(lp5731
F0.764706
aaI17
aa(lp5732
I1
a(lp5733
F0.214286
aaI14
aa(lp5734
I1
a(lp5735
F0.2
aaI15
aaa(lp5736
g2937
ag2938
a(lp5737
I1
a(lp5738
F0.0
aaI18
aa(lp5739
I1
a(lp5740
F0.24
aaI25
aaa(lp5741
g2940
ag2941
a(lp5742
I1
a(lp5743
F0.666667
aaI15
aaa(lp5744
g2943
ag2944
a(lp5745
I1
a(lp5746
F0.642857
aaI28
aa(lp5747
I1
a(lp5748
F0.6
aaI5
aa(lp5749
I1
a(lp5750
F0.5
aaI4
aa(lp5751
I1
a(lp5752
F0.5
aaI4
aa(lp5753
I1
a(lp5754
F0.0
aaI2
aa(lp5755
I1
a(lp5756
F0.0
aaI2
aa(lp5757
I1
a(lp5758
F0.0
aaI7
aa(lp5759
I1
a(lp5760
F0.0
aaI8
aa(lp5761
I1
a(lp5762
F0.0
aaI4
aa(lp5763
I1
a(lp5764
F0.0
aaI19
aa(lp5765
I1
a(lp5766
F0.0
aaI19
aa(lp5767
I1
a(lp5768
F0.666667
aaI12
aa(lp5769
I1
a(lp5770
F0.0
aaI8
aa(lp5771
I1
a(lp5772
F0.0
aaI8
aa(lp5773
I1
a(lp5774
F0.0
aaI8
aa(lp5775
I1
a(lp5776
F0.0
aaI9
aa(lp5777
I1
a(lp5778
F0.222222
aaI18
aa(lp5779
I1
a(lp5780
F0.3125
aaI16
aa(lp5781
I1
a(lp5782
F0.333333
aaI18
aa(lp5783
I1
a(lp5784
F0.666667
aaI15
aa(lp5785
I1
a(lp5786
F0.0
aaI13
aa(lp5787
I1
a(lp5788
F0.615385
aaI13
aa(lp5789
I1
a(lp5790
F0.571429
aaI14
aa(lp5791
I1
a(lp5792
F0.0
aaI3
aa(lp5793
I1
a(lp5794
F0.0
aaI2
aa(lp5795
I1
a(lp5796
F0.0
aaI5
aa(lp5797
I1
a(lp5798
F0.0
aaI16
aa(lp5799
I1
a(lp5800
F0.0
aaI12
aa(lp5801
I1
a(lp5802
F0.275862
aaI29
aa(lp5803
I1
a(lp5804
F0.5
aaI4
aa(lp5805
I1
a(lp5806
F0.333333
aaI15
aa(lp5807
I1
a(lp5808
F0.333333
aaI9
aa(lp5809
I1
a(lp5810
F0.2
aaI15
aa(lp5811
I1
a(lp5812
F0.230769
aaI13
aa(lp5813
I1
a(lp5814
F0.230769
aaI13
aa(lp5815
I1
a(lp5816
F0.272727
aaI11
aa(lp5817
I1
a(lp5818
F0.333333
aaI15
aa(lp5819
I1
a(lp5820
F0.0
aaI5
aa(lp5821
I1
a(lp5822
F0.0
aaI6
aa(lp5823
I1
a(lp5824
F0.0
aaI5
aa(lp5825
I1
a(lp5826
F0.25
aaI20
aa(lp5827
I1
a(lp5828
F0.357143
aaI14
aa(lp5829
I1
a(lp5830
F0.3125
aaI16
aa(lp5831
I1
a(lp5832
F0.0
aaI9
aaa(lp5833
g2978
ag2979
a(lp5834
I1
a(lp5835
F0.642857
aaI14
aa(lp5836
I1
a(lp5837
F0.642857
aaI14
aa(lp5838
I1
a(lp5839
F0.571429
aaI14
aa(lp5840
I1
a(lp5841
F0.692308
aaI13
aa(lp5842
I1
a(lp5843
F0.5
aaI14
aaa(lp5844
g3011
ag3012
aa(lp5845
g3014
ag3015
aa(lp5846
g3063
ag3064
a(lp5847
I1
a(lp5848
F0.0
aaI10
aa(lp5849
I1
a(lp5850
F0.0
aaI9
aaa(lp5851
g3072
ag3073
a(lp5852
I1
a(lp5853
F0.714286
aaI7
aa(lp5854
I1
a(lp5855
F0.0
aaI6
aa(lp5856
I1
a(lp5857
F0.7
aaI30
aa(lp5858
I1
a(lp5859
F0.785714
aaI28
aa(lp5860
I1
a(lp5861
F0.285714
aaI28
aaa(lp5862
g3083
ag3084
a(lp5863
I1
a(lp5864
F0.444444
aaI9
aa(lp5865
I1
a(lp5866
F0.4
aaI10
aaa(lp5867
g3092
ag3093
a(lp5868
I1
a(lp5869
F0.0
aaI6
aa(lp5870
I1
a(lp5871
F0.0
aaI5
aa(lp5872
I1
a(lp5873
F0.0
aaI11
aa(lp5874
I1
a(lp5875
F0.0
aaI11
aa(lp5876
I1
a(lp5877
F0.0
aaI13
aa(lp5878
I1
a(lp5879
F0.0
aaI13
aa(lp5880
I1
a(lp5881
F0.0
aaI22
aa(lp5882
I1
a(lp5883
F0.0
aaI3
aa(lp5884
I1
a(lp5885
F0.0
aaI3
aa(lp5886
I1
a(lp5887
F0.0
aaI3
aa(lp5888
I1
a(lp5889
F0.0
aaI3
aaa(lp5890
g3111
ag3112
a(lp5891
I1
a(lp5892
F0.0
aaI11
aa(lp5893
I1
a(lp5894
F0.0
aaI6
aa(lp5895
I1
a(lp5896
F0.521739
aaI23
aa(lp5897
I1
a(lp5898
F0.352941
aaI17
aa(lp5899
I1
a(lp5900
F0.4
aaI15
aa(lp5901
I1
a(lp5902
F0.0
aaI15
aa(lp5903
I1
a(lp5904
F0.714286
aaI7
aa(lp5905
I1
a(lp5906
F0.0
aaI9
aaa(lp5907
g3120
ag3121
a(lp5908
I1
a(lp5909
F0.421053
aaI19
aa(lp5910
I1
a(lp5911
F0.3
aaI20
aa(lp5912
I1
a(lp5913
F0.294118
aaI17
aaa(lp5914
g3123
ag3124
aa(lp5915
g3126
ag3127
aa(lp5916
g3129
ag3130
a(lp5917
I1
a(lp5918
F0.6
aaI20
aaa(lp5919
g3132
ag3133
aa(lp5920
g3135
ag3136
aa(lp5921
g3138
ag3139
a(lp5922
I1
a(lp5923
F0.0
aaI9
aa(lp5924
I1
a(lp5925
F0.285714
aaI7
aaa(lp5926
g3145
ag3146
aa(lp5927
g3148
ag3149
a(lp5928
I1
a(lp5929
F0.6
aaI15
aa(lp5930
I1
a(lp5931
F0.210526
aaI19
aa(lp5932
I1
a(lp5933
F0.2
aaI20
aa(lp5934
I1
a(lp5935
F0.375
aaI24
aa(lp5936
I1
a(lp5937
F0.307692
aaI13
aaa(lp5938
g3151
ag3152
aa(lp5939
g3154
ag3155
aa(lp5940
g3157
ag3158
a(lp5941
I1
a(lp5942
F0.0
aaI11
aaa(lp5943
g3160
ag3161
a(lp5944
I1
a(lp5945
F0.2
aaI10
aaa(lp5946
g3163
ag3164
aa(lp5947
g3166
ag3167
aa(lp5948
g3181
ag3182
a(lp5949
I1
a(lp5950
F0.214286
aaI14
aa(lp5951
I1
a(lp5952
F0.210526
aaI19
aa(lp5953
I1
a(lp5954
F0.2
aaI15
aaa(lp5955
g3186
ag3187
aa(lp5956
g3189
ag3190
a(lp5957
I1
a(lp5958
F0.222222
aaI9
aa(lp5959
I1
a(lp5960
F0.307692
aaI13
aa(lp5961
I1
a(lp5962
F0.2
aaI15
aa(lp5963
I1
a(lp5964
F0.230769
aaI13
aaassS'diploids'
p5965
(dp5966
g3
(lp5967
(lp5968
S'scaffold361_cov52'
p5969
aS'scaffold362_cov88'
p5970
a(lp5971
I1
a(lp5972
F0.25
aaI12
aa(lp5973
I1
a(lp5974
F0.357143
aaI14
aa(lp5975
I1
a(lp5976
F0.4
aaI15
aa(lp5977
I1
a(lp5978
F0.214286
aaI14
aa(lp5979
I1
a(lp5980
F0.444444
aaI18
aa(lp5981
I1
a(lp5982
F0.0
aaI5
aa(lp5983
I1
a(lp5984
F0.0
aaI3
aa(lp5985
I1
a(lp5986
F0.0
aaI6
aa(lp5987
I1
a(lp5988
F0.0
aaI6
aa(lp5989
I1
a(lp5990
F0.0
aaI3
aa(lp5991
I1
a(lp5992
F0.666667
aaI3
aa(lp5993
I1
a(lp5994
F0.0
aaI3
aa(lp5995
I1
a(lp5996
F0.0
aaI2
aa(lp5997
I1
a(lp5998
F0.0
aaI3
aa(lp5999
I1
a(lp6000
F0.0
aaI2
aa(lp6001
I1
a(lp6002
F0.0
aaI2
aa(lp6003
I1
a(lp6004
F0.0
aaI4
aa(lp6005
I1
a(lp6006
F0.0
aaI8
aa(lp6007
I1
a(lp6008
F0.0
aaI10
aa(lp6009
I1
a(lp6010
F0.636364
aaI11
aa(lp6011
I1
a(lp6012
F0.0
aaI2
aa(lp6013
I1
a(lp6014
F0.285714
aaI7
aa(lp6015
I1
a(lp6016
F0.5
aaI8
aa(lp6017
I1
a(lp6018
F0.0
aaI7
aa(lp6019
I1
a(lp6020
F0.25
aaI16
aa(lp6021
I1
a(lp6022
F0.357143
aaI14
aa(lp6023
I1
a(lp6024
F0.666667
aaI15
aa(lp6025
I1
a(lp6026
F0.294118
aaI17
aa(lp6027
I1
a(lp6028
F0.0
aaI16
aa(lp6029
I1
a(lp6030
F0.0
aaI16
aa(lp6031
I1
a(lp6032
F0.375
aaI16
aa(lp6033
I1
a(lp6034
F0.0
aaI3
aa(lp6035
I1
a(lp6036
F0.0
aaI2
aa(lp6037
I1
a(lp6038
F0.0
aaI6
aa(lp6039
I1
a(lp6040
F0.0
aaI8
aa(lp6041
I1
a(lp6042
F0.75
aaI4
aa(lp6043
I1
a(lp6044
F0.4
aaI10
aa(lp6045
I1
a(lp6046
F0.0
aaI6
aa(lp6047
I1
a(lp6048
F1.0
aaI8
aa(lp6049
I1
a(lp6050
F0.4
aaI25
aa(lp6051
I1
a(lp6052
F0.0
aaI12
aa(lp6053
I1
a(lp6054
F0.0
aaI2
aa(lp6055
I1
a(lp6056
F0.285714
aaI14
aa(lp6057
I1
a(lp6058
F0.25
aaI16
aa(lp6059
I1
a(lp6060
F0.0
aaI15
aa(lp6061
I1
a(lp6062
F0.384615
aaI13
aa(lp6063
I1
a(lp6064
F0.3
aaI10
aa(lp6065
I1
a(lp6066
F0.4375
aaI16
aa(lp6067
I1
a(lp6068
F0.555556
aaI18
aa(lp6069
I1
a(lp6070
F0.428571
aaI21
aa(lp6071
I1
a(lp6072
F0.375
aaI8
aa(lp6073
I1
a(lp6074
F0.2
aaI10
aa(lp6075
I1
a(lp6076
F0.466667
aaI15
aa(lp6077
I1
a(lp6078
F0.529412
aaI17
aa(lp6079
I1
a(lp6080
F0.0
aaI5
aa(lp6081
I1
a(lp6082
F0.25
aaI12
aa(lp6083
I1
a(lp6084
F0.6
aaI5
aa(lp6085
I1
a(lp6086
F0.285714
aaI21
aaa(lp6087
S'scaffold1307_cov71'
p6088
aS'scaffold1778_cov83'
p6089
aa(lp6090
S'scaffold146_cov83'
p6091
aS'scaffold6515_cov62'
p6092
aa(lp6093
S'scaffold12434_cov50'
p6094
aS'scaffold8329_cov54'
p6095
a(lp6096
I1
a(lp6097
F0.578947
aaI19
aa(lp6098
I1
a(lp6099
F0.444444
aaI9
aa(lp6100
I1
a(lp6101
F0.3125
aaI16
aa(lp6102
I1
a(lp6103
F0.357143
aaI14
aa(lp6104
I1
a(lp6105
F0.307692
aaI13
aa(lp6106
I1
a(lp6107
F0.333333
aaI12
aa(lp6108
I1
a(lp6109
F0.4
aaI10
aa(lp6110
I1
a(lp6111
F0.333333
aaI12
aa(lp6112
I1
a(lp6113
F0.272727
aaI11
aaa(lp6114
S'scaffold4094_cov85'
p6115
aS'scaffold4328_cov64'
p6116
aa(lp6117
S'scaffold6252_cov63'
p6118
aS'scaffold9548_cov63'
p6119
aa(lp6120
S'scaffold10915_cov72'
p6121
aS'scaffold5164_cov59'
p6122
a(lp6123
I1
a(lp6124
F0.333333
aaI6
aa(lp6125
I1
a(lp6126
F0.25
aaI16
aa(lp6127
I1
a(lp6128
F0.5
aaI18
aa(lp6129
I1
a(lp6130
F0.230769
aaI13
aaa(lp6131
S'scaffold10198_cov57'
p6132
aS'scaffold36443_cov67'
p6133
a(lp6134
I1
a(lp6135
F0.5
aaI12
aa(lp6136
I1
a(lp6137
F0.454545
aaI11
aa(lp6138
I1
a(lp6139
F0.6
aaI10
aa(lp6140
I1
a(lp6141
F0.411765
aaI17
aa(lp6142
I1
a(lp6143
F0.461538
aaI13
aa(lp6144
I1
a(lp6145
F0.583333
aaI24
aaa(lp6146
S'scaffold2786_cov74'
p6147
aS'scaffold39016_cov111'
p6148
aa(lp6149
S'scaffold8961_cov96'
p6150
aS'scaffold9651_cov60'
p6151
aa(lp6152
S'scaffold52619_cov115'
p6153
aS'scaffold6959_cov64'
p6154
aa(lp6155
S'scaffold30712_cov54'
p6156
aS'scaffold8059_cov49'
p6157
aa(lp6158
S'scaffold2570_cov56'
p6159
aS'scaffold33937_cov139'
p6160
aa(lp6161
S'scaffold12788_cov56'
p6162
aS'scaffold34228_cov83'
p6163
a(lp6164
I1
a(lp6165
F0.333333
aaI12
aa(lp6166
I1
a(lp6167
F0.235294
aaI17
aaa(lp6168
S'scaffold33623_cov60'
p6169
aS'scaffold36090_cov104'
p6170
aa(lp6171
S'scaffold2297_cov70'
p6172
aS'scaffold5466_cov54'
p6173
a(lp6174
I1
a(lp6175
F0.266667
aaI30
aa(lp6176
I1
a(lp6177
F0.285714
aaI7
aa(lp6178
I1
a(lp6179
F0.333333
aaI6
aa(lp6180
I1
a(lp6181
F0.4
aaI5
aa(lp6182
I1
a(lp6183
F0.5
aaI4
aa(lp6184
I1
a(lp6185
F0.25
aaI8
aa(lp6186
I1
a(lp6187
F0.222222
aaI9
aaa(lp6188
S'scaffold11940_cov99'
p6189
aS'scaffold607_cov59'
p6190
a(lp6191
I1
a(lp6192
F0.375
aaI16
aa(lp6193
I1
a(lp6194
F0.368421
aaI19
aaa(lp6195
S'scaffold19517_cov60'
p6196
aS'scaffold832_cov72'
p6197
aa(lp6198
S'scaffold6021_cov51'
p6199
aS'scaffold9331_cov54'
p6200
aa(lp6201
S'scaffold480_cov57'
p6202
aS'scaffold5817_cov105'
p6203
a(lp6204
I1
a(lp6205
F0.214286
aaI14
aa(lp6206
I1
a(lp6207
F0.2
aaI10
aa(lp6208
I1
a(lp6209
F0.2
aaI10
aa(lp6210
I1
a(lp6211
F0.2
aaI10
aa(lp6212
I1
a(lp6213
F0.25
aaI16
aa(lp6214
I1
a(lp6215
F0.55
aaI20
aa(lp6216
I1
a(lp6217
F0.533333
aaI15
aa(lp6218
I1
a(lp6219
F0.266667
aaI15
aa(lp6220
I1
a(lp6221
F0.375
aaI16
aa(lp6222
I1
a(lp6223
F0.55
aaI20
aa(lp6224
I1
a(lp6225
F0.3125
aaI16
aa(lp6226
I1
a(lp6227
F0.272727
aaI11
aa(lp6228
I1
a(lp6229
F0.4
aaI15
aa(lp6230
I1
a(lp6231
F0.4
aaI5
aa(lp6232
I1
a(lp6233
F0.285714
aaI7
aaa(lp6234
S'scaffold10095_cov71'
p6235
aS'scaffold33586_cov59'
p6236
a(lp6237
I1
a(lp6238
F0.0
aaI5
aa(lp6239
I1
a(lp6240
F0.0
aaI7
aa(lp6241
I1
a(lp6242
F0.0
aaI6
aa(lp6243
I1
a(lp6244
F0.0
aaI4
aa(lp6245
I1
a(lp6246
F0.0
aaI4
aa(lp6247
I1
a(lp6248
F0.0
aaI8
aa(lp6249
I1
a(lp6250
F0.333333
aaI9
aa(lp6251
I1
a(lp6252
F0.3
aaI20
aa(lp6253
I1
a(lp6254
F0.0
aaI10
aa(lp6255
I1
a(lp6256
F0.0
aaI10
aaa(lp6257
S'scaffold17407_cov65'
p6258
aS'scaffold9695_cov86'
p6259
a(lp6260
I1
a(lp6261
F0.555556
aaI9
aa(lp6262
I1
a(lp6263
F0.555556
aaI9
aa(lp6264
I1
a(lp6265
F0.0
aaI9
aa(lp6266
I1
a(lp6267
F0.666667
aaI12
aa(lp6268
I1
a(lp6269
F0.642857
aaI14
aa(lp6270
I1
a(lp6271
F0.466667
aaI15
aa(lp6272
I1
a(lp6273
F0.615385
aaI13
aa(lp6274
I1
a(lp6275
F0.642857
aaI14
aa(lp6276
I1
a(lp6277
F0.545455
aaI11
aa(lp6278
I1
a(lp6279
F0.0
aaI7
aaa(lp6280
S'scaffold35877_cov69'
p6281
aS'scaffold5395_cov50'
p6282
a(lp6283
I1
a(lp6284
F0.2
aaI10
aaa(lp6285
S'scaffold22352_cov39'
p6286
aS'scaffold37380_cov122'
p6287
aa(lp6288
S'scaffold1933_cov76'
p6289
aS'scaffold826_cov79'
p6290
a(lp6291
I1
a(lp6292
F0.0
aaI10
aa(lp6293
I1
a(lp6294
F0.333333
aaI12
aa(lp6295
I1
a(lp6296
F0.416667
aaI12
aa(lp6297
I1
a(lp6298
F0.5
aaI8
aa(lp6299
I1
a(lp6300
F0.333333
aaI9
aa(lp6301
I1
a(lp6302
F0.428571
aaI14
aa(lp6303
I1
a(lp6304
F0.272727
aaI11
aa(lp6305
I1
a(lp6306
F0.3
aaI10
aa(lp6307
I1
a(lp6308
F0.0
aaI4
aa(lp6309
I1
a(lp6310
F0.583333
aaI12
aa(lp6311
I1
a(lp6312
F0.538462
aaI13
aa(lp6313
I1
a(lp6314
F0.5
aaI20
aa(lp6315
I1
a(lp6316
F0.5
aaI20
aa(lp6317
I1
a(lp6318
F0.461538
aaI13
aa(lp6319
I1
a(lp6320
F0.0
aaI5
aa(lp6321
I1
a(lp6322
F0.0
aaI3
aa(lp6323
I1
a(lp6324
F0.25
aaI12
aa(lp6325
I1
a(lp6326
F0.3125
aaI16
aa(lp6327
I1
a(lp6328
F0.214286
aaI14
aa(lp6329
I1
a(lp6330
F0.416667
aaI24
aa(lp6331
I1
a(lp6332
F0.285714
aaI7
aa(lp6333
I1
a(lp6334
F0.421053
aaI19
aa(lp6335
I1
a(lp6336
F0.0
aaI7
aa(lp6337
I1
a(lp6338
F0.0
aaI9
aa(lp6339
I1
a(lp6340
F0.25
aaI8
aa(lp6341
I1
a(lp6342
F0.0
aaI19
aaa(lp6343
S'scaffold14170_cov69'
p6344
aS'scaffold47_cov51'
p6345
a(lp6346
I1
a(lp6347
F0.25
aaI12
aaa(lp6348
S'scaffold23473_cov56'
p6349
aS'scaffold34278_cov88'
p6350
aa(lp6351
S'scaffold3688_cov96'
p6352
aS'scaffold8941_cov89'
p6353
a(lp6354
I1
a(lp6355
F0.428571
aaI21
aa(lp6356
I1
a(lp6357
F0.428571
aaI14
aa(lp6358
I1
a(lp6359
F0.5
aaI16
aa(lp6360
I1
a(lp6361
F0.444444
aaI18
aa(lp6362
I1
a(lp6363
F0.294118
aaI17
aa(lp6364
I1
a(lp6365
F0.0
aaI13
aa(lp6366
I1
a(lp6367
F0.25
aaI12
aaa(lp6368
S'scaffold34976_cov99'
p6369
aS'scaffold44933_cov138'
p6370
a(lp6371
I1
a(lp6372
F0.4
aaI15
aaa(lp6373
S'scaffold35156_cov134'
p6374
aS'scaffold720_cov51'
p6375
a(lp6376
I1
a(lp6377
F0.333333
aaI12
aaa(lp6378
S'scaffold10866_cov51'
p6379
aS'scaffold34599_cov98'
p6380
aa(lp6381
S'scaffold1950_cov58'
p6382
aS'scaffold2587_cov45'
p6383
a(lp6384
I1
a(lp6385
F0.545455
aaI11
aa(lp6386
I1
a(lp6387
F0.0
aaI8
aa(lp6388
I1
a(lp6389
F0.0
aaI12
aa(lp6390
I1
a(lp6391
F0.0
aaI15
aa(lp6392
I1
a(lp6393
F0.0
aaI15
aa(lp6394
I1
a(lp6395
F0.2
aaI15
aa(lp6396
I1
a(lp6397
F0.315789
aaI19
aa(lp6398
I1
a(lp6399
F0.7
aaI10
aa(lp6400
I1
a(lp6401
F0.75
aaI12
aa(lp6402
I1
a(lp6403
F0.4
aaI15
aa(lp6404
I1
a(lp6405
F0.2
aaI15
aa(lp6406
I1
a(lp6407
F0.0
aaI6
aa(lp6408
I1
a(lp6409
F0.0
aaI2
aa(lp6410
I1
a(lp6411
F0.0
aaI7
aa(lp6412
I1
a(lp6413
F0.0
aaI8
aaa(lp6414
S'scaffold11579_cov94'
p6415
aS'scaffold14662_cov55'
p6416
aa(lp6417
S'scaffold1670_cov61'
p6418
aS'scaffold2676_cov98'
p6419
aa(lp6420
S'scaffold144_cov60'
p6421
aS'scaffold36050_cov70'
p6422
aa(lp6423
S'scaffold25903_cov62'
p6424
aS'scaffold5688_cov67'
p6425
a(lp6426
I1
a(lp6427
F0.0
aaI3
aa(lp6428
I1
a(lp6429
F0.428571
aaI7
aa(lp6430
I1
a(lp6431
F0.666667
aaI3
aa(lp6432
I1
a(lp6433
F0.666667
aaI3
aa(lp6434
I1
a(lp6435
F0.0
aaI5
aa(lp6436
I1
a(lp6437
F0.0
aaI7
aa(lp6438
I1
a(lp6439
F0.0
aaI5
aaa(lp6440
S'scaffold9665_cov44'
p6441
aS'scaffold9666_cov95'
p6442
aa(lp6443
S'scaffold28625_cov54'
p6444
aS'scaffold51283_cov119'
p6445
aa(lp6446
S'scaffold2355_cov59'
p6447
aS'scaffold33245_cov72'
p6448
a(lp6449
I1
a(lp6450
F0.2
aaI10
aa(lp6451
I1
a(lp6452
F0.285714
aaI14
aa(lp6453
I1
a(lp6454
F0.0
aaI5
aa(lp6455
I1
a(lp6456
F0.3125
aaI16
aa(lp6457
I1
a(lp6458
F0.666667
aaI18
aa(lp6459
I1
a(lp6460
F0.45
aaI20
aa(lp6461
I1
a(lp6462
F0.210526
aaI19
aa(lp6463
I1
a(lp6464
F0.2
aaI20
aaa(lp6465
S'scaffold19735_cov56'
p6466
aS'scaffold52556_cov103'
p6467
aa(lp6468
S'scaffold14725_cov115'
p6469
aS'scaffold1554_cov54'
p6470
aa(lp6471
S'scaffold14776_cov55'
p6472
aS'scaffold36895_cov67'
p6473
a(lp6474
I1
a(lp6475
F0.35
aaI20
aa(lp6476
I1
a(lp6477
F0.333333
aaI6
aaa(lp6478
S'scaffold18184_cov66'
p6479
aS'scaffold5184_cov86'
p6480
aa(lp6481
S'scaffold12316_cov62'
p6482
aS'scaffold13613_cov67'
p6483
aa(lp6484
S'scaffold1036_cov100'
p6485
aS'scaffold5066_cov51'
p6486
a(lp6487
I1
a(lp6488
F0.333333
aaI6
aa(lp6489
I1
a(lp6490
F0.357143
aaI14
aa(lp6491
I1
a(lp6492
F0.285714
aaI14
aa(lp6493
I1
a(lp6494
F0.466667
aaI15
aa(lp6495
I1
a(lp6496
F0.357143
aaI14
aa(lp6497
I1
a(lp6498
F0.285714
aaI14
aa(lp6499
I1
a(lp6500
F0.352941
aaI17
aa(lp6501
I1
a(lp6502
F0.333333
aaI15
aa(lp6503
I1
a(lp6504
F0.3125
aaI16
aa(lp6505
I1
a(lp6506
F0.230769
aaI13
aaa(lp6507
S'scaffold35874_cov101'
p6508
aS'scaffold36370_cov147'
p6509
a(lp6510
I1
a(lp6511
F0.461538
aaI13
aa(lp6512
I1
a(lp6513
F0.230769
aaI13
aa(lp6514
I1
a(lp6515
F0.272727
aaI11
aaa(lp6516
S'scaffold3130_cov88'
p6517
aS'scaffold36033_cov68'
p6518
a(lp6519
I1
a(lp6520
F0.2
aaI10
aa(lp6521
I1
a(lp6522
F0.25
aaI12
aa(lp6523
I1
a(lp6524
F0.272727
aaI11
aa(lp6525
I1
a(lp6526
F0.272727
aaI11
aa(lp6527
I1
a(lp6528
F0.272727
aaI11
aa(lp6529
I1
a(lp6530
F0.266667
aaI15
aa(lp6531
I1
a(lp6532
F0.538462
aaI13
aa(lp6533
I1
a(lp6534
F0.416667
aaI12
aa(lp6535
I1
a(lp6536
F0.222222
aaI18
aa(lp6537
I1
a(lp6538
F0.434783
aaI46
aa(lp6539
I1
a(lp6540
F0.0
aaI16
aa(lp6541
I1
a(lp6542
F0.529412
aaI17
aa(lp6543
I1
a(lp6544
F0.235294
aaI17
aa(lp6545
I1
a(lp6546
F0.461538
aaI13
aa(lp6547
I1
a(lp6548
F0.333333
aaI15
aa(lp6549
I1
a(lp6550
F0.416667
aaI12
aa(lp6551
I1
a(lp6552
F0.5
aaI10
aa(lp6553
I1
a(lp6554
F0.266667
aaI15
aa(lp6555
I1
a(lp6556
F0.357143
aaI14
aa(lp6557
I1
a(lp6558
F0.235294
aaI17
aa(lp6559
I1
a(lp6560
F0.352941
aaI17
aa(lp6561
I1
a(lp6562
F0.461538
aaI13
aa(lp6563
I1
a(lp6564
F0.294118
aaI17
aa(lp6565
I1
a(lp6566
F0.2
aaI15
aa(lp6567
I1
a(lp6568
F0.214286
aaI14
aa(lp6569
I1
a(lp6570
F0.466667
aaI15
aa(lp6571
I1
a(lp6572
F0.230769
aaI13
aa(lp6573
I1
a(lp6574
F0.25
aaI16
aa(lp6575
I1
a(lp6576
F0.434783
aaI23
aa(lp6577
I1
a(lp6578
F0.238095
aaI21
aa(lp6579
I1
a(lp6580
F0.263158
aaI19
aa(lp6581
I1
a(lp6582
F0.333333
aaI15
aa(lp6583
I1
a(lp6584
F0.428571
aaI14
aa(lp6585
I1
a(lp6586
F0.3
aaI10
aag5103
aa(lp6587
S'scaffold1101_cov58'
p6588
aS'scaffold3915_cov75'
p6589
aa(lp6590
S'scaffold19558_cov55'
p6591
aS'scaffold53087_cov191'
p6592
aa(lp6593
S'scaffold10939_cov60'
p6594
aS'scaffold1726_cov57'
p6595
a(lp6596
I1
a(lp6597
F0.333333
aaI18
aa(lp6598
I1
a(lp6599
F0.588235
aaI17
aa(lp6600
I1
a(lp6601
F0.2
aaI15
aa(lp6602
I1
a(lp6603
F0.888889
aaI9
aa(lp6604
I1
a(lp6605
F0.428571
aaI7
aa(lp6606
I1
a(lp6607
F0.0
aaI10
aa(lp6608
I1
a(lp6609
F0.25
aaI12
aa(lp6610
I1
a(lp6611
F0.48
aaI25
aa(lp6612
I1
a(lp6613
F0.25
aaI16
aa(lp6614
I1
a(lp6615
F0.3125
aaI16
aa(lp6616
I1
a(lp6617
F0.333333
aaI9
aa(lp6618
I1
a(lp6619
F0.333333
aaI21
aa(lp6620
I1
a(lp6621
F0.272727
aaI22
aa(lp6622
I1
a(lp6623
F0.25
aaI16
aa(lp6624
I1
a(lp6625
F0.25
aaI16
aa(lp6626
I1
a(lp6627
F0.285714
aaI21
aa(lp6628
I1
a(lp6629
F0.8
aaI10
aa(lp6630
I1
a(lp6631
F0.333333
aaI12
aa(lp6632
I1
a(lp6633
F0.272727
aaI11
aaa(lp6634
S'scaffold15254_cov56'
p6635
aS'scaffold4050_cov108'
p6636
aa(lp6637
S'scaffold15290_cov65'
p6638
aS'scaffold426_cov79'
p6639
a(lp6640
I1
a(lp6641
F0.0
aaI3
aa(lp6642
I1
a(lp6643
F0.0
aaI3
aa(lp6644
I1
a(lp6645
F0.0
aaI3
aa(lp6646
I1
a(lp6647
F0.461538
aaI13
aa(lp6648
I1
a(lp6649
F0.4
aaI10
aa(lp6650
I1
a(lp6651
F0.25
aaI12
aa(lp6652
I1
a(lp6653
F0.25
aaI12
aa(lp6654
I1
a(lp6655
F0.8
aaI5
aa(lp6656
I1
a(lp6657
F0.3125
aaI16
aa(lp6658
I1
a(lp6659
F0.444444
aaI18
aa(lp6660
I1
a(lp6661
F0.461538
aaI13
aa(lp6662
I1
a(lp6663
F0.285714
aaI7
aa(lp6664
I1
a(lp6665
F0.375
aaI8
aaa(lp6666
S'scaffold2530_cov71'
p6667
aS'scaffold4287_cov88'
p6668
aa(lp6669
S'scaffold5602_cov57'
p6670
aS'scaffold5604_cov55'
p6671
a(lp6672
I1
a(lp6673
F0.333333
aaI12
aa(lp6674
I1
a(lp6675
F0.285714
aaI7
aa(lp6676
I1
a(lp6677
F0.25
aaI8
aa(lp6678
I1
a(lp6679
F0.375
aaI8
aa(lp6680
I1
a(lp6681
F0.4375
aaI16
aa(lp6682
I1
a(lp6683
F0.388889
aaI18
aa(lp6684
I1
a(lp6685
F0.333333
aaI15
aa(lp6686
I1
a(lp6687
F0.357143
aaI14
aaa(lp6688
S'scaffold2428_cov67'
p6689
aS'scaffold8055_cov67'
p6690
aa(lp6691
S'scaffold2731_cov57'
p6692
aS'scaffold35040_cov139'
p6693
aa(lp6694
S'scaffold34682_cov108'
p6695
aS'scaffold411_cov59'
p6696
a(lp6697
I1
a(lp6698
F0.631579
aaI19
aaa(lp6699
S'scaffold1467_cov54'
p6700
aS'scaffold3293_cov67'
p6701
a(lp6702
I1
a(lp6703
F0.2
aaI10
aa(lp6704
I1
a(lp6705
F0.304348
aaI23
aa(lp6706
I1
a(lp6707
F0.266667
aaI15
aa(lp6708
I1
a(lp6709
F0.363636
aaI11
aa(lp6710
I1
a(lp6711
F0.454545
aaI11
aa(lp6712
I1
a(lp6713
F0.230769
aaI13
aa(lp6714
I1
a(lp6715
F0.0
aaI15
aa(lp6716
I1
a(lp6717
F0.0
aaI14
aa(lp6718
I1
a(lp6719
F0.333333
aaI27
aaa(lp6720
S'scaffold1727_cov50'
p6721
aS'scaffold4369_cov78'
p6722
aa(lp6723
S'scaffold2390_cov64'
p6724
aS'scaffold8942_cov56'
p6725
aa(lp6726
S'scaffold1103_cov83'
p6727
aS'scaffold1104_cov68'
p6728
a(lp6729
I1
a(lp6730
F0.321429
aaI28
aa(lp6731
I1
a(lp6732
F0.625
aaI8
aa(lp6733
I1
a(lp6734
F0.0
aaI12
aa(lp6735
I1
a(lp6736
F0.333333
aaI15
aa(lp6737
I1
a(lp6738
F0.266667
aaI15
aa(lp6739
I1
a(lp6740
F0.357143
aaI14
aa(lp6741
I1
a(lp6742
F0.2
aaI10
aa(lp6743
I1
a(lp6744
F0.25
aaI8
aa(lp6745
I1
a(lp6746
F0.3
aaI10
aa(lp6747
I1
a(lp6748
F0.272727
aaI11
aa(lp6749
I1
a(lp6750
F0.272727
aaI11
aa(lp6751
I1
a(lp6752
F0.2
aaI10
aa(lp6753
I1
a(lp6754
F0.363636
aaI11
aa(lp6755
I1
a(lp6756
F0.222222
aaI9
aa(lp6757
I1
a(lp6758
F0.2
aaI10
aa(lp6759
I1
a(lp6760
F0.222222
aaI9
aa(lp6761
I1
a(lp6762
F0.222222
aaI9
aa(lp6763
I1
a(lp6764
F0.285714
aaI7
aa(lp6765
I1
a(lp6766
F0.2
aaI10
aa(lp6767
I1
a(lp6768
F0.210526
aaI19
aa(lp6769
I1
a(lp6770
F0.2
aaI15
aa(lp6771
I1
a(lp6772
F0.0
aaI10
aaa(lp6773
S'scaffold3051_cov52'
p6774
aS'scaffold617_cov62'
p6775
aa(lp6776
S'scaffold10112_cov50'
p6777
aS'scaffold5491_cov58'
p6778
a(lp6779
I1
a(lp6780
F0.25
aaI8
aa(lp6781
I1
a(lp6782
F0.0
aaI10
aa(lp6783
I1
a(lp6784
F0.5
aaI4
aa(lp6785
I1
a(lp6786
F0.5
aaI4
aa(lp6787
I1
a(lp6788
F0.5
aaI8
aa(lp6789
I1
a(lp6790
F0.411765
aaI17
aaa(lp6791
S'scaffold14844_cov71'
p6792
aS'scaffold985_cov66'
p6793
a(lp6794
I1
a(lp6795
F0.214286
aaI14
aa(lp6796
I1
a(lp6797
F0.2
aaI15
aaa(lp6798
S'scaffold3418_cov60'
p6799
aS'scaffold35910_cov137'
p6800
a(lp6801
I1
a(lp6802
F0.631579
aaI19
aaa(lp6803
S'scaffold3175_cov115'
p6804
aS'scaffold733_cov57'
p6805
a(lp6806
I1
a(lp6807
F0.2
aaI10
aa(lp6808
I1
a(lp6809
F0.375
aaI8
aa(lp6810
I1
a(lp6811
F0.214286
aaI14
aa(lp6812
I1
a(lp6813
F0.214286
aaI14
aaa(lp6814
S'scaffold2900_cov54'
p6815
aS'scaffold53186_cov165'
p6816
a(lp6817
I1
a(lp6818
F0.428571
aaI14
aaa(lp6819
S'scaffold17628_cov108'
p6820
aS'scaffold1969_cov52'
p6821
aa(lp6822
S'scaffold13474_cov57'
p6823
aS'scaffold4565_cov62'
p6824
a(lp6825
I1
a(lp6826
F0.3
aaI10
aaa(lp6827
S'scaffold331_cov56'
p6828
aS'scaffold4178_cov79'
p6829
aa(lp6830
S'scaffold18_cov68'
p6831
aS'scaffold4080_cov54'
p6832
aa(lp6833
S'scaffold2126_cov70'
p6834
aS'scaffold9907_cov91'
p6835
a(lp6836
I1
a(lp6837
F0.357143
aaI14
aa(lp6838
I1
a(lp6839
F0.5
aaI12
aa(lp6840
I1
a(lp6841
F0.3125
aaI16
aa(lp6842
I1
a(lp6843
F0.2
aaI15
aa(lp6844
I1
a(lp6845
F0.214286
aaI14
aa(lp6846
I1
a(lp6847
F0.333333
aaI9
aa(lp6848
I1
a(lp6849
F0.3
aaI10
aa(lp6850
I1
a(lp6851
F0.230769
aaI13
aa(lp6852
I1
a(lp6853
F0.25
aaI12
aa(lp6854
I1
a(lp6855
F0.363636
aaI11
aa(lp6856
I1
a(lp6857
F0.363636
aaI11
aa(lp6858
I1
a(lp6859
F0.230769
aaI13
aa(lp6860
I1
a(lp6861
F0.5
aaI10
aa(lp6862
I1
a(lp6863
F0.454545
aaI11
aa(lp6864
I1
a(lp6865
F0.25
aaI12
aa(lp6866
I1
a(lp6867
F0.285714
aaI14
aa(lp6868
I1
a(lp6869
F0.333333
aaI12
aa(lp6870
I1
a(lp6871
F0.375
aaI8
aa(lp6872
I1
a(lp6873
F0.333333
aaI9
aa(lp6874
I1
a(lp6875
F0.25
aaI8
aa(lp6876
I1
a(lp6877
F0.285714
aaI7
aa(lp6878
I1
a(lp6879
F0.333333
aaI15
aa(lp6880
I1
a(lp6881
F0.230769
aaI13
aa(lp6882
I1
a(lp6883
F0.25
aaI12
aa(lp6884
I1
a(lp6885
F0.235294
aaI17
aa(lp6886
I1
a(lp6887
F0.235294
aaI17
aa(lp6888
I1
a(lp6889
F0.230769
aaI13
aa(lp6890
I1
a(lp6891
F0.333333
aaI12
aa(lp6892
I1
a(lp6893
F0.272727
aaI11
aa(lp6894
I1
a(lp6895
F0.444444
aaI9
aa(lp6896
I1
a(lp6897
F0.6
aaI20
aa(lp6898
I1
a(lp6899
F0.535714
aaI28
aa(lp6900
I1
a(lp6901
F0.25
aaI16
aa(lp6902
I1
a(lp6903
F0.333333
aaI15
aa(lp6904
I1
a(lp6905
F0.357143
aaI14
aa(lp6906
I1
a(lp6907
F0.333333
aaI12
aa(lp6908
I1
a(lp6909
F0.25
aaI12
aa(lp6910
I1
a(lp6911
F0.25
aaI8
aa(lp6912
I1
a(lp6913
F0.285714
aaI14
aa(lp6914
I1
a(lp6915
F0.235294
aaI17
aa(lp6916
I1
a(lp6917
F0.277778
aaI18
aa(lp6918
I1
a(lp6919
F0.315789
aaI19
aa(lp6920
I1
a(lp6921
F0.428571
aaI14
aaa(lp6922
S'scaffold24718_cov103'
p6923
aS'scaffold26220_cov52'
p6924
a(lp6925
I1
a(lp6926
F0.454545
aaI11
aa(lp6927
I1
a(lp6928
F0.2
aaI15
aa(lp6929
I1
a(lp6930
F0.307692
aaI13
aa(lp6931
I1
a(lp6932
F0.307692
aaI13
aa(lp6933
I1
a(lp6934
F0.285714
aaI14
aa(lp6935
I1
a(lp6936
F0.272727
aaI11
aa(lp6937
I1
a(lp6938
F0.272727
aaI11
aa(lp6939
I1
a(lp6940
F0.272727
aaI11
aa(lp6941
I1
a(lp6942
F0.3
aaI10
aa(lp6943
I1
a(lp6944
F0.214286
aaI14
aa(lp6945
I1
a(lp6946
F0.230769
aaI13
aa(lp6947
I1
a(lp6948
F0.230769
aaI13
aa(lp6949
I1
a(lp6950
F0.25
aaI12
aa(lp6951
I1
a(lp6952
F0.4
aaI15
aaa(lp6953
S'scaffold32857_cov74'
p6954
aS'scaffold9215_cov55'
p6955
aa(lp6956
S'scaffold11819_cov105'
p6957
aS'scaffold25653_cov54'
p6958
a(lp6959
I1
a(lp6960
F0.0
aaI9
aa(lp6961
I1
a(lp6962
F0.0
aaI8
aa(lp6963
I1
a(lp6964
F0.0
aaI7
aaa(lp6965
S'scaffold2245_cov55'
p6966
aS'scaffold344_cov95'
p6967
a(lp6968
I1
a(lp6969
F0.285714
aaI7
aa(lp6970
I1
a(lp6971
F0.0
aaI12
aa(lp6972
I1
a(lp6973
F0.285714
aaI7
aa(lp6974
I1
a(lp6975
F0.703704
aaI27
aaa(lp6976
S'scaffold38060_cov100'
p6977
aS'scaffold4757_cov67'
p6978
aa(lp6979
S'scaffold2248_cov58'
p6980
aS'scaffold25369_cov123'
p6981
aa(lp6982
S'scaffold11042_cov64'
p6983
aS'scaffold18292_cov125'
p6984
a(lp6985
I1
a(lp6986
F0.235294
aaI17
aa(lp6987
I1
a(lp6988
F0.235294
aaI17
aa(lp6989
I1
a(lp6990
F0.235294
aaI17
aa(lp6991
I1
a(lp6992
F0.4
aaI10
aaa(lp6993
S'scaffold1776_cov57'
p6994
aS'scaffold3846_cov88'
p6995
a(lp6996
I1
a(lp6997
F0.222222
aaI9
aa(lp6998
I1
a(lp6999
F0.2
aaI10
aa(lp7000
I1
a(lp7001
F0.363636
aaI11
aa(lp7002
I1
a(lp7003
F0.4
aaI10
aa(lp7004
I1
a(lp7005
F0.5
aaI12
aa(lp7006
I1
a(lp7007
F0.4375
aaI16
aa(lp7008
I1
a(lp7009
F0.380952
aaI21
aa(lp7010
I1
a(lp7011
F0.461538
aaI13
aa(lp7012
I1
a(lp7013
F0.0
aaI19
aaa(lp7014
S'scaffold17701_cov112'
p7015
aS'scaffold7423_cov56'
p7016
a(lp7017
I1
a(lp7018
F0.363636
aaI22
aa(lp7019
I1
a(lp7020
F0.411765
aaI17
aa(lp7021
I1
a(lp7022
F0.384615
aaI13
aa(lp7023
I1
a(lp7024
F0.333333
aaI12
aa(lp7025
I1
a(lp7026
F0.352941
aaI17
aa(lp7027
I1
a(lp7028
F0.611111
aaI18
aa(lp7029
I1
a(lp7030
F0.5
aaI22
aa(lp7031
I1
a(lp7032
F0.4
aaI15
aa(lp7033
I1
a(lp7034
F0.238095
aaI21
aaa(lp7035
S'scaffold5454_cov72'
p7036
aS'scaffold5517_cov53'
p7037
a(lp7038
I1
a(lp7039
F0.529412
aaI17
aaa(lp7040
S'scaffold33082_cov85'
p7041
aS'scaffold41869_cov103'
p7042
aa(lp7043
S'scaffold17143_cov73'
p7044
aS'scaffold18659_cov51'
p7045
a(lp7046
I1
a(lp7047
F0.0
aaI13
aa(lp7048
I1
a(lp7049
F0.0
aaI8
aaa(lp7050
S'scaffold13368_cov73'
p7051
aS'scaffold47_cov51'
p7052
ag6346
aa(lp7053
S'scaffold18560_cov75'
p7054
aS'scaffold46285_cov153'
p7055
aa(lp7056
S'scaffold14485_cov58'
p7057
aS'scaffold37571_cov118'
p7058
aa(lp7059
S'scaffold1082_cov61'
p7060
aS'scaffold8217_cov58'
p7061
aa(lp7062
S'scaffold6018_cov72'
p7063
aS'scaffold7261_cov132'
p7064
a(lp7065
I1
a(lp7066
F0.0
aaI2
aa(lp7067
I1
a(lp7068
F0.0
aaI6
aaa(lp7069
S'scaffold15567_cov64'
p7070
aS'scaffold5760_cov53'
p7071
a(lp7072
I1
a(lp7073
F0.285714
aaI14
aa(lp7074
I1
a(lp7075
F0.333333
aaI6
aa(lp7076
I1
a(lp7077
F0.333333
aaI12
aa(lp7078
I1
a(lp7079
F0.2
aaI10
aa(lp7080
I1
a(lp7081
F0.0
aaI8
aaa(lp7082
S'scaffold14030_cov122'
p7083
aS'scaffold350_cov52'
p7084
a(lp7085
I1
a(lp7086
F0.25
aaI8
aa(lp7087
I1
a(lp7088
F0.3125
aaI16
aa(lp7089
I1
a(lp7090
F0.235294
aaI17
aa(lp7091
I1
a(lp7092
F0.25
aaI16
aa(lp7093
I1
a(lp7094
F0.2
aaI15
aa(lp7095
I1
a(lp7096
F0.25
aaI16
aa(lp7097
I1
a(lp7098
F0.285714
aaI14
aa(lp7099
I1
a(lp7100
F0.380952
aaI21
aa(lp7101
I1
a(lp7102
F0.4375
aaI16
aa(lp7103
I1
a(lp7104
F0.333333
aaI15
aa(lp7105
I1
a(lp7106
F0.3
aaI10
aaa(lp7107
S'scaffold23886_cov86'
p7108
aS'scaffold5357_cov53'
p7109
a(lp7110
I1
a(lp7111
F0.25
aaI8
aa(lp7112
I1
a(lp7113
F0.0
aaI9
aa(lp7114
I1
a(lp7115
F0.529412
aaI17
aa(lp7116
I1
a(lp7117
F0.4
aaI5
aa(lp7118
I1
a(lp7119
F0.333333
aaI6
aa(lp7120
I1
a(lp7121
F0.285714
aaI7
aa(lp7122
I1
a(lp7123
F0.285714
aaI7
aaa(lp7124
S'scaffold5841_cov52'
p7125
aS'scaffold8765_cov54'
p7126
a(lp7127
I1
a(lp7128
F0.2
aaI10
aaa(lp7129
S'scaffold12169_cov151'
p7130
aS'scaffold2317_cov61'
p7131
a(lp7132
I1
a(lp7133
F0.47619
aaI21
aaa(lp7134
S'scaffold34162_cov105'
p7135
aS'scaffold4290_cov94'
p7136
a(lp7137
I1
a(lp7138
F0.4
aaI15
aa(lp7139
I1
a(lp7140
F0.428571
aaI14
aa(lp7141
I1
a(lp7142
F0.55
aaI20
aa(lp7143
I1
a(lp7144
F0.52381
aaI21
aaa(lp7145
S'scaffold14496_cov57'
p7146
aS'scaffold154_cov94'
p7147
aa(lp7148
S'scaffold1680_cov53'
p7149
aS'scaffold3753_cov79'
p7150
aasg3191
(lp7151
(lp7152
g5969
ag5970
a(lp7153
I1
a(lp7154
F0.2
aaI10
aa(lp7155
I1
a(lp7156
F0.235294
aaI17
aa(lp7157
I1
a(lp7158
F0.230769
aaI13
aa(lp7159
I1
a(lp7160
F0.230769
aaI13
aa(lp7161
I1
a(lp7162
F0.235294
aaI17
aa(lp7163
I1
a(lp7164
F0.222222
aaI18
aa(lp7165
I1
a(lp7166
F0.222222
aaI18
aa(lp7167
I1
a(lp7168
F0.222222
aaI18
aa(lp7169
I1
a(lp7170
F0.666667
aaI15
aa(lp7171
I1
a(lp7172
F0.333333
aaI12
aa(lp7173
I1
a(lp7174
F0.25
aaI12
aa(lp7175
I1
a(lp7176
F0.230769
aaI13
aa(lp7177
I1
a(lp7178
F0.272727
aaI11
aa(lp7179
I1
a(lp7180
F0.2
aaI15
aa(lp7181
I1
a(lp7182
F0.272727
aaI11
aa(lp7183
I1
a(lp7184
F0.285714
aaI14
aa(lp7185
I1
a(lp7186
F0.555556
aaI18
aa(lp7187
I1
a(lp7188
F0.375
aaI8
aa(lp7189
I1
a(lp7190
F0.285714
aaI14
aa(lp7191
I1
a(lp7192
F0.25
aaI16
aa(lp7193
I1
a(lp7194
F0.363636
aaI11
aa(lp7195
I1
a(lp7196
F0.363636
aaI11
aa(lp7197
I1
a(lp7198
F0.357143
aaI14
aa(lp7199
I1
a(lp7200
F0.333333
aaI15
aa(lp7201
I1
a(lp7202
F0.294118
aaI17
aa(lp7203
I1
a(lp7204
F0.25
aaI12
aa(lp7205
I1
a(lp7206
F0.3
aaI10
aa(lp7207
I1
a(lp7208
F0.333333
aaI21
aa(lp7209
I1
a(lp7210
F0.5
aaI12
aaa(lp7211
g6088
ag6089
a(lp7212
I1
a(lp7213
F0.538462
aaI13
aaa(lp7214
g6091
ag6092
a(lp7215
I1
a(lp7216
F0.0
aaI9
aa(lp7217
I1
a(lp7218
F0.428571
aaI21
aa(lp7219
I1
a(lp7220
F0.352941
aaI17
aaa(lp7221
g6094
ag6095
aa(lp7222
g6115
ag6116
a(lp7223
I1
a(lp7224
F0.3
aaI10
aa(lp7225
I1
a(lp7226
F0.2
aaI15
aa(lp7227
I1
a(lp7228
F0.0
aaI5
aa(lp7229
I1
a(lp7230
F0.0
aaI4
aa(lp7231
I1
a(lp7232
F0.0
aaI8
aa(lp7233
I1
a(lp7234
F0.0
aaI6
aa(lp7235
I1
a(lp7236
F0.214286
aaI14
aa(lp7237
I1
a(lp7238
F0.375
aaI8
aa(lp7239
I1
a(lp7240
F0.285714
aaI7
aa(lp7241
I1
a(lp7242
F0.0
aaI3
aa(lp7243
I1
a(lp7244
F0.0
aaI9
aa(lp7245
I1
a(lp7246
F0.0
aaI6
aa(lp7247
I1
a(lp7248
F0.272727
aaI11
aa(lp7249
I1
a(lp7250
F0.333333
aaI27
aa(lp7251
I1
a(lp7252
F0.473684
aaI19
aa(lp7253
I1
a(lp7254
F0.380952
aaI21
aa(lp7255
I1
a(lp7256
F0.0
aaI11
aa(lp7257
I1
a(lp7258
F0.285714
aaI14
aa(lp7259
I1
a(lp7260
F0.266667
aaI15
aa(lp7261
I1
a(lp7262
F0.214286
aaI14
aa(lp7263
I1
a(lp7264
F0.285714
aaI14
aaa(lp7265
g6118
ag6119
aa(lp7266
g6121
ag6122
aa(lp7267
g6132
ag6133
a(lp7268
I1
a(lp7269
F0.2
aaI20
aa(lp7270
I1
a(lp7271
F0.214286
aaI14
aa(lp7272
I1
a(lp7273
F0.5
aaI12
aa(lp7274
I1
a(lp7275
F0.5
aaI10
aa(lp7276
I1
a(lp7277
F0.375
aaI16
aa(lp7278
I1
a(lp7279
F0.421053
aaI19
aa(lp7280
I1
a(lp7281
F0.473684
aaI19
aa(lp7282
I1
a(lp7283
F0.363636
aaI11
aa(lp7284
I1
a(lp7285
F0.25
aaI8
aa(lp7286
I1
a(lp7287
F0.25
aaI12
aa(lp7288
I1
a(lp7289
F0.272727
aaI11
aa(lp7290
I1
a(lp7291
F0.3
aaI10
aa(lp7292
I1
a(lp7293
F0.3
aaI10
aa(lp7294
I1
a(lp7295
F0.363636
aaI11
aa(lp7296
I1
a(lp7297
F0.333333
aaI12
aaa(lp7298
g6147
ag6148
a(lp7299
I1
a(lp7300
F0.333333
aaI6
aaa(lp7301
g6150
ag6151
aa(lp7302
g6153
ag6154
aa(lp7303
g6156
ag6157
aa(lp7304
g6159
ag6160
aa(lp7305
g6162
ag6163
a(lp7306
I1
a(lp7307
F0.5
aaI6
aa(lp7308
I1
a(lp7309
F0.545455
aaI11
aa(lp7310
I1
a(lp7311
F0.0
aaI10
aa(lp7312
I1
a(lp7313
F0.333333
aaI21
aa(lp7314
I1
a(lp7315
F0.2
aaI10
aa(lp7316
I1
a(lp7317
F0.0
aaI3
aa(lp7318
I1
a(lp7319
F0.5
aaI14
aa(lp7320
I1
a(lp7321
F0.428571
aaI21
aa(lp7322
I1
a(lp7323
F0.444444
aaI18
aa(lp7324
I1
a(lp7325
F0.0
aaI4
aa(lp7326
I1
a(lp7327
F0.777778
aaI9
aaa(lp7328
g6169
ag6170
aa(lp7329
g6172
ag6173
a(lp7330
I1
a(lp7331
F0.238095
aaI21
aa(lp7332
I1
a(lp7333
F0.375
aaI8
aa(lp7334
I1
a(lp7335
F0.4
aaI10
aa(lp7336
I1
a(lp7337
F0.363636
aaI11
aaa(lp7338
g6189
ag6190
aa(lp7339
g6196
ag6197
a(lp7340
I1
a(lp7341
F0.375
aaI16
aaa(lp7342
g6199
ag6200
aa(lp7343
g6202
ag6203
aa(lp7344
g6235
ag6236
a(lp7345
I1
a(lp7346
F0.0
aaI7
aa(lp7347
I1
a(lp7348
F1.0
aaI3
aa(lp7349
I1
a(lp7350
F0.0
aaI3
aa(lp7351
I1
a(lp7352
F0.0
aaI4
aa(lp7353
I1
a(lp7354
F0.0
aaI2
aa(lp7355
I1
a(lp7356
F0.0
aaI2
aa(lp7357
I1
a(lp7358
F0.0
aaI3
aa(lp7359
I1
a(lp7360
F0.0
aaI2
aa(lp7361
I1
a(lp7362
F0.0
aaI8
aa(lp7363
I1
a(lp7364
F0.25
aaI12
aa(lp7365
I1
a(lp7366
F0.428571
aaI14
aa(lp7367
I1
a(lp7368
F0.285714
aaI14
aa(lp7369
I1
a(lp7370
F0.230769
aaI13
aa(lp7371
I1
a(lp7372
F0.3125
aaI16
aa(lp7373
I1
a(lp7374
F0.333333
aaI9
aaa(lp7375
g6258
ag6259
a(lp7376
I1
a(lp7377
F0.0
aaI2
aa(lp7378
I1
a(lp7379
F0.2
aaI10
aa(lp7380
I1
a(lp7381
F0.3
aaI10
aa(lp7382
I1
a(lp7383
F0.3
aaI10
aa(lp7384
I1
a(lp7385
F0.272727
aaI11
aa(lp7386
I1
a(lp7387
F0.333333
aaI6
aa(lp7388
I1
a(lp7389
F0.285714
aaI7
aa(lp7390
I1
a(lp7391
F0.214286
aaI14
aa(lp7392
I1
a(lp7393
F0.454545
aaI11
aa(lp7394
I1
a(lp7395
F0.2
aaI10
aa(lp7396
I1
a(lp7397
F0.375
aaI16
aa(lp7398
I1
a(lp7399
F0.222222
aaI18
aa(lp7400
I1
a(lp7401
F0.272727
aaI11
aa(lp7402
I1
a(lp7403
F0.0
aaI13
aa(lp7404
I1
a(lp7405
F0.0
aaI5
aa(lp7406
I1
a(lp7407
F0.0
aaI3
aa(lp7408
I1
a(lp7409
F0.0
aaI3
aa(lp7410
I1
a(lp7411
F0.0
aaI4
aa(lp7412
I1
a(lp7413
F0.0
aaI5
aa(lp7414
I1
a(lp7415
F0.0
aaI6
aa(lp7416
I1
a(lp7417
F0.0
aaI6
aa(lp7418
I1
a(lp7419
F0.0
aaI6
aaa(lp7420
g6281
ag6282
aa(lp7421
g6286
ag6287
aa(lp7422
g6289
ag6290
a(lp7423
I1
a(lp7424
F0.0
aaI9
aa(lp7425
I1
a(lp7426
F0.0
aaI9
aaa(lp7427
g6344
ag6345
aa(lp7428
g6349
ag6350
a(lp7429
I1
a(lp7430
F0.875
aaI8
aag931
ag933
ag935
aa(lp7431
g6352
ag6353
a(lp7432
I1
a(lp7433
F0.411765
aaI17
aa(lp7434
I1
a(lp7435
F0.0
aaI12
aa(lp7436
I1
a(lp7437
F0.571429
aaI21
aa(lp7438
I1
a(lp7439
F0.307692
aaI13
aa(lp7440
I1
a(lp7441
F0.3125
aaI16
aa(lp7442
I1
a(lp7443
F0.333333
aaI21
aaa(lp7444
g6369
ag6370
aa(lp7445
g6374
ag6375
aa(lp7446
g6379
ag6380
aa(lp7447
g6382
ag6383
a(lp7448
I1
a(lp7449
F0.692308
aaI39
aa(lp7450
I1
a(lp7451
F0.294118
aaI17
aa(lp7452
I1
a(lp7453
F0.294118
aaI17
aa(lp7454
I1
a(lp7455
F0.230769
aaI13
aa(lp7456
I1
a(lp7457
F0.421053
aaI19
aaa(lp7458
g6415
ag6416
aa(lp7459
g6418
ag6419
a(lp7460
I1
a(lp7461
F0.32
aaI25
aa(lp7462
I1
a(lp7463
F0.333333
aaI24
aa(lp7464
I1
a(lp7465
F0.304348
aaI23
aa(lp7466
I1
a(lp7467
F0.318182
aaI22
aa(lp7468
I1
a(lp7469
F0.285714
aaI14
aa(lp7470
I1
a(lp7471
F0.307692
aaI13
aa(lp7472
I1
a(lp7473
F0.333333
aaI15
aa(lp7474
I1
a(lp7475
F0.294118
aaI17
aa(lp7476
I1
a(lp7477
F0.230769
aaI13
aa(lp7478
I1
a(lp7479
F0.272727
aaI11
aa(lp7480
I1
a(lp7481
F0.263158
aaI19
aa(lp7482
I1
a(lp7483
F0.210526
aaI19
aa(lp7484
I1
a(lp7485
F0.285714
aaI14
aa(lp7486
I1
a(lp7487
F0.214286
aaI14
aa(lp7488
I1
a(lp7489
F0.368421
aaI19
aa(lp7490
I1
a(lp7491
F0.272727
aaI22
aaa(lp7492
g6421
ag6422
aa(lp7493
g6424
ag6425
a(lp7494
I1
a(lp7495
F0.3
aaI10
aa(lp7496
I1
a(lp7497
F0.0
aaI6
aa(lp7498
I1
a(lp7499
F0.2
aaI15
aaa(lp7500
g6441
ag6442
aa(lp7501
g6444
ag6445
aa(lp7502
g6447
ag6448
a(lp7503
I1
a(lp7504
F0.0
aaI5
aa(lp7505
I1
a(lp7506
F0.333333
aaI9
aa(lp7507
I1
a(lp7508
F0.444444
aaI9
aa(lp7509
I1
a(lp7510
F0.2
aaI20
aa(lp7511
I1
a(lp7512
F0.277778
aaI18
aa(lp7513
I1
a(lp7514
F0.222222
aaI18
aa(lp7515
I1
a(lp7516
F0.333333
aaI9
aa(lp7517
I1
a(lp7518
F0.411765
aaI17
aaa(lp7519
g6466
ag6467
aa(lp7520
g6469
ag6470
aa(lp7521
g6472
ag6473
a(lp7522
I1
a(lp7523
F0.0
aaI6
aa(lp7524
I1
a(lp7525
F0.2
aaI10
aaa(lp7526
g6479
ag6480
aa(lp7527
g6482
ag6483
aa(lp7528
g6485
ag6486
a(lp7529
I1
a(lp7530
F0.263158
aaI19
aa(lp7531
I1
a(lp7532
F0.375
aaI8
aa(lp7533
I1
a(lp7534
F0.333333
aaI9
aa(lp7535
I1
a(lp7536
F0.4
aaI10
aa(lp7537
I1
a(lp7538
F0.272727
aaI11
aa(lp7539
I1
a(lp7540
F0.333333
aaI12
aa(lp7541
I1
a(lp7542
F0.333333
aaI12
aa(lp7543
I1
a(lp7544
F0.3
aaI20
aa(lp7545
I1
a(lp7546
F0.210526
aaI19
aa(lp7547
I1
a(lp7548
F0.384615
aaI13
aa(lp7549
I1
a(lp7550
F0.0
aaI16
aa(lp7551
I1
a(lp7552
F0.25
aaI12
aa(lp7553
I1
a(lp7554
F0.214286
aaI14
aa(lp7555
I1
a(lp7556
F0.25
aaI12
aa(lp7557
I1
a(lp7558
F0.25
aaI12
aa(lp7559
I1
a(lp7560
F0.357143
aaI14
aa(lp7561
I1
a(lp7562
F0.357143
aaI14
aaa(lp7563
g6508
ag6509
aa(lp7564
g6517
ag6518
a(lp7565
I1
a(lp7566
F0.0
aaI6
aa(lp7567
I1
a(lp7568
F0.214286
aaI14
aa(lp7569
I1
a(lp7570
F0.35
aaI20
aa(lp7571
I1
a(lp7572
F0.315789
aaI19
aa(lp7573
I1
a(lp7574
F0.315789
aaI19
aa(lp7575
I1
a(lp7576
F0.375
aaI16
aa(lp7577
I1
a(lp7578
F0.388889
aaI18
aa(lp7579
I1
a(lp7580
F0.588235
aaI17
aa(lp7581
I1
a(lp7582
F0.285714
aaI21
aa(lp7583
I1
a(lp7584
F0.52381
aaI21
aa(lp7585
I1
a(lp7586
F0.277778
aaI18
aa(lp7587
I1
a(lp7588
F0.0
aaI5
aa(lp7589
I1
a(lp7590
F0.4
aaI15
aa(lp7591
I1
a(lp7592
F0.368421
aaI19
aa(lp7593
I1
a(lp7594
F0.555556
aaI9
aa(lp7595
I1
a(lp7596
F0.0
aaI7
aa(lp7597
I1
a(lp7598
F0.8
aaI5
aa(lp7599
I1
a(lp7600
F0.5
aaI18
aa(lp7601
I1
a(lp7602
F0.454545
aaI11
aa(lp7603
I1
a(lp7604
F0.444444
aaI9
aa(lp7605
I1
a(lp7606
F0.444444
aaI9
aa(lp7607
I1
a(lp7608
F0.5
aaI18
aa(lp7609
I1
a(lp7610
F0.333333
aaI18
aa(lp7611
I1
a(lp7612
F0.0
aaI12
aa(lp7613
I1
a(lp7614
F0.684211
aaI19
aa(lp7615
I1
a(lp7616
F0.0
aaI20
aa(lp7617
I1
a(lp7618
F0.0
aaI22
aa(lp7619
I1
a(lp7620
F0.4
aaI10
aa(lp7621
I1
a(lp7622
F0.384615
aaI13
aa(lp7623
I1
a(lp7624
F0.0
aaI4
aa(lp7625
I1
a(lp7626
F0.0
aaI12
aa(lp7627
I1
a(lp7628
F0.0
aaI12
aaa(lp7629
g6588
ag6589
a(lp7630
I1
a(lp7631
F0.222222
aaI9
aa(lp7632
I1
a(lp7633
F0.275862
aaI58
aa(lp7634
I1
a(lp7635
F0.0
aaI61
aa(lp7636
I1
a(lp7637
F0.363636
aaI33
aa(lp7638
I1
a(lp7639
F0.235294
aaI17
aa(lp7640
I1
a(lp7641
F0.0
aaI15
aaa(lp7642
g6591
ag6592
aa(lp7643
g6594
ag6595
a(lp7644
I1
a(lp7645
F0.6
aaI15
aa(lp7646
I1
a(lp7647
F0.454545
aaI11
aa(lp7648
I1
a(lp7649
F0.333333
aaI15
aa(lp7650
I1
a(lp7651
F0.3
aaI10
aa(lp7652
I1
a(lp7653
F0.208333
aaI24
aa(lp7654
I1
a(lp7655
F0.4375
aaI16
aa(lp7656
I1
a(lp7657
F0.294118
aaI17
aa(lp7658
I1
a(lp7659
F0.363636
aaI11
aaa(lp7660
g6635
ag6636
aa(lp7661
g6638
ag6639
a(lp7662
I1
a(lp7663
F0.285714
aaI7
aaa(lp7664
g6667
ag6668
a(lp7665
I1
a(lp7666
F0.5
aaI8
aa(lp7667
I1
a(lp7668
F0.545455
aaI11
aa(lp7669
I1
a(lp7670
F0.5
aaI12
aa(lp7671
I1
a(lp7672
F0.0
aaI5
aa(lp7673
I1
a(lp7674
F0.315789
aaI19
aa(lp7675
I1
a(lp7676
F0.315789
aaI19
aa(lp7677
I1
a(lp7678
F0.333333
aaI18
aaa(lp7679
g6670
ag6671
a(lp7680
I1
a(lp7681
F0.285714
aaI7
aa(lp7682
I1
a(lp7683
F0.0
aaI7
aaa(lp7684
g6689
ag6690
a(lp7685
I1
a(lp7686
F0.533333
aaI15
aa(lp7687
I1
a(lp7688
F0.4
aaI15
aa(lp7689
I1
a(lp7690
F0.2
aaI15
aa(lp7691
I1
a(lp7692
F0.384615
aaI13
aa(lp7693
I1
a(lp7694
F0.3125
aaI16
aa(lp7695
I1
a(lp7696
F0.263158
aaI19
aa(lp7697
I1
a(lp7698
F0.25
aaI20
aa(lp7699
I1
a(lp7700
F0.222222
aaI9
aa(lp7701
I1
a(lp7702
F0.2
aaI10
aa(lp7703
I1
a(lp7704
F0.285714
aaI14
aa(lp7705
I1
a(lp7706
F0.230769
aaI13
aa(lp7707
I1
a(lp7708
F0.3
aaI10
aa(lp7709
I1
a(lp7710
F0.230769
aaI13
aa(lp7711
I1
a(lp7712
F0.222222
aaI9
aaa(lp7713
g6692
ag6693
aa(lp7714
g6695
ag6696
aa(lp7715
g6700
ag6701
a(lp7716
I1
a(lp7717
F0.263158
aaI19
aa(lp7718
I1
a(lp7719
F0.333333
aaI15
aa(lp7720
I1
a(lp7721
F0.222222
aaI9
aa(lp7722
I1
a(lp7723
F0.2
aaI10
aa(lp7724
I1
a(lp7725
F0.2
aaI15
aa(lp7726
I1
a(lp7727
F0.2
aaI10
aa(lp7728
I1
a(lp7729
F0.25
aaI8
aa(lp7730
I1
a(lp7731
F0.25
aaI12
aa(lp7732
I1
a(lp7733
F0.5
aaI10
aa(lp7734
I1
a(lp7735
F0.357143
aaI14
aa(lp7736
I1
a(lp7737
F0.285714
aaI14
aa(lp7738
I1
a(lp7739
F0.25
aaI8
aa(lp7740
I1
a(lp7741
F0.625
aaI16
aa(lp7742
I1
a(lp7743
F0.25
aaI12
aa(lp7744
I1
a(lp7745
F0.285714
aaI7
aa(lp7746
I1
a(lp7747
F0.5625
aaI16
aa(lp7748
I1
a(lp7749
F0.45
aaI20
aa(lp7750
I1
a(lp7751
F0.421053
aaI19
aa(lp7752
I1
a(lp7753
F0.3
aaI20
aa(lp7754
I1
a(lp7755
F0.428571
aaI21
aa(lp7756
I1
a(lp7757
F0.4
aaI15
aa(lp7758
I1
a(lp7759
F0.5
aaI14
aa(lp7760
I1
a(lp7761
F0.272727
aaI11
aa(lp7762
I1
a(lp7763
F0.357143
aaI14
aa(lp7764
I1
a(lp7765
F0.307692
aaI13
aa(lp7766
I1
a(lp7767
F0.25
aaI12
aa(lp7768
I1
a(lp7769
F0.533333
aaI15
aa(lp7770
I1
a(lp7771
F0.47619
aaI21
aa(lp7772
I1
a(lp7773
F0.214286
aaI14
aa(lp7774
I1
a(lp7775
F0.230769
aaI13
aa(lp7776
I1
a(lp7777
F0.375
aaI8
aa(lp7778
I1
a(lp7779
F0.444444
aaI9
aa(lp7780
I1
a(lp7781
F0.285714
aaI14
aa(lp7782
I1
a(lp7783
F0.25
aaI12
aa(lp7784
I1
a(lp7785
F0.470588
aaI17
aa(lp7786
I1
a(lp7787
F0.352941
aaI17
aaa(lp7788
g6721
ag6722
aa(lp7789
g6724
ag6725
a(lp7790
I1
a(lp7791
F0.285714
aaI14
aa(lp7792
I1
a(lp7793
F0.307692
aaI13
aa(lp7794
I1
a(lp7795
F0.3
aaI10
aaa(lp7796
g6727
ag6728
a(lp7797
I1
a(lp7798
F0.25
aaI8
aa(lp7799
I1
a(lp7800
F0.0
aaI17
aa(lp7801
I1
a(lp7802
F0.0
aaI15
aa(lp7803
I1
a(lp7804
F0.0
aaI16
aa(lp7805
I1
a(lp7806
F0.3
aaI20
aa(lp7807
I1
a(lp7808
F0.230769
aaI13
aa(lp7809
I1
a(lp7810
F0.210526
aaI19
aa(lp7811
I1
a(lp7812
F0.333333
aaI6
aa(lp7813
I2
a(lp7814
F0.25
aF0.25
aaI8
aa(lp7815
I1
a(lp7816
F0.25
aaI8
aa(lp7817
I1
a(lp7818
F0.25
aaI12
aaa(lp7819
g6774
ag6775
a(lp7820
I1
a(lp7821
F0.0
aaI11
aa(lp7822
I1
a(lp7823
F0.0
aaI2
aa(lp7824
I1
a(lp7825
F0.0
aaI3
aa(lp7826
I1
a(lp7827
F0.0
aaI9
aa(lp7828
I1
a(lp7829
F0.4
aaI5
aa(lp7830
I1
a(lp7831
F0.846154
aaI13
aa(lp7832
I1
a(lp7833
F0.428571
aaI14
aa(lp7834
I1
a(lp7835
F0.466667
aaI15
aa(lp7836
I1
a(lp7837
F1.0
aaI2
aa(lp7838
I1
a(lp7839
F0.0
aaI3
aa(lp7840
I1
a(lp7841
F0.0
aaI2
aa(lp7842
I1
a(lp7843
F0.0
aaI2
aa(lp7844
I1
a(lp7845
F0.75
aaI12
aa(lp7846
I1
a(lp7847
F0.0
aaI9
aa(lp7848
I1
a(lp7849
F0.0
aaI10
aa(lp7850
I1
a(lp7851
F0.727273
aaI11
aa(lp7852
I1
a(lp7853
F0.2
aaI10
aa(lp7854
I1
a(lp7855
F0.266667
aaI15
aa(lp7856
I1
a(lp7857
F0.0
aaI12
aa(lp7858
I1
a(lp7859
F0.363636
aaI22
aa(lp7860
I1
a(lp7861
F0.428571
aaI14
aa(lp7862
I1
a(lp7863
F0.785714
aaI14
aa(lp7864
I1
a(lp7865
F0.384615
aaI13
aa(lp7866
I1
a(lp7867
F0.4375
aaI16
aa(lp7868
I1
a(lp7869
F0.3
aaI20
aa(lp7870
I1
a(lp7871
F0.391304
aaI23
aa(lp7872
I1
a(lp7873
F0.333333
aaI24
aa(lp7874
I1
a(lp7875
F0.375
aaI16
aa(lp7876
I1
a(lp7877
F0.526316
aaI19
aa(lp7878
I1
a(lp7879
F0.611111
aaI18
aa(lp7880
I1
a(lp7881
F0.578947
aaI19
aa(lp7882
I1
a(lp7883
F0.25
aaI16
aaa(lp7884
g6777
ag6778
aa(lp7885
g6792
ag6793
a(lp7886
I1
a(lp7887
F0.0
aaI8
aa(lp7888
I1
a(lp7889
F0.0
aaI3
aaa(lp7890
g6799
ag6800
aa(lp7891
g6804
ag6805
aa(lp7892
g6815
ag6816
aa(lp7893
g6820
ag6821
a(lp7894
I1
a(lp7895
F0.421053
aaI19
aa(lp7896
I1
a(lp7897
F0.533333
aaI15
aa(lp7898
I1
a(lp7899
F0.214286
aaI14
aa(lp7900
I1
a(lp7901
F0.333333
aaI12
aa(lp7902
I1
a(lp7903
F0.3125
aaI16
aa(lp7904
I1
a(lp7905
F0.307692
aaI13
aa(lp7906
I1
a(lp7907
F0.285714
aaI14
aa(lp7908
I1
a(lp7909
F0.294118
aaI17
aa(lp7910
I1
a(lp7911
F0.5
aaI12
aa(lp7912
I1
a(lp7913
F0.428571
aaI7
aaa(lp7914
g6823
ag6824
a(lp7915
I1
a(lp7916
F0.222222
aaI18
aaa(lp7917
g6828
ag6829
a(lp7918
I1
a(lp7919
F0.5
aaI20
aa(lp7920
I1
a(lp7921
F0.214286
aaI14
aa(lp7922
I1
a(lp7923
F0.5
aaI14
aa(lp7924
I1
a(lp7925
F0.533333
aaI15
aa(lp7926
I1
a(lp7927
F0.5
aaI16
aa(lp7928
I1
a(lp7929
F0.4
aaI10
aa(lp7930
I1
a(lp7931
F0.307692
aaI13
aa(lp7932
I1
a(lp7933
F0.307692
aaI13
aa(lp7934
I1
a(lp7935
F0.5
aaI10
aaa(lp7936
g6831
ag6832
a(lp7937
I1
a(lp7938
F0.625
aaI24
aaa(lp7939
g6834
ag6835
a(lp7940
I1
a(lp7941
F0.333333
aaI12
aa(lp7942
I1
a(lp7943
F0.0
aaI6
aa(lp7944
I1
a(lp7945
F0.0
aaI13
aa(lp7946
I1
a(lp7947
F0.0
aaI9
aa(lp7948
I1
a(lp7949
F0.0
aaI12
aa(lp7950
I1
a(lp7951
F0.0
aaI5
aa(lp7952
I1
a(lp7953
F0.0
aaI4
aa(lp7954
I1
a(lp7955
F0.0
aaI3
aa(lp7956
I1
a(lp7957
F0.666667
aaI6
aa(lp7958
I1
a(lp7959
F0.666667
aaI6
aa(lp7960
I1
a(lp7961
F0.0
aaI11
aa(lp7962
I1
a(lp7963
F0.4
aaI15
aa(lp7964
I1
a(lp7965
F0.352941
aaI17
aa(lp7966
I1
a(lp7967
F0.363636
aaI11
aa(lp7968
I1
a(lp7969
F0.25
aaI16
aa(lp7970
I1
a(lp7971
F0.4
aaI15
aa(lp7972
I1
a(lp7973
F0.5
aaI14
aa(lp7974
I1
a(lp7975
F0.454545
aaI11
aa(lp7976
I1
a(lp7977
F0.4
aaI10
aa(lp7978
I1
a(lp7979
F0.454545
aaI11
aa(lp7980
I1
a(lp7981
F0.25
aaI16
aa(lp7982
I1
a(lp7983
F0.333333
aaI9
aa(lp7984
I1
a(lp7985
F0.3
aaI10
aa(lp7986
I1
a(lp7987
F0.266667
aaI15
aa(lp7988
I1
a(lp7989
F0.636364
aaI11
aa(lp7990
I1
a(lp7991
F0.333333
aaI6
aa(lp7992
I1
a(lp7993
F0.5
aaI18
aa(lp7994
I1
a(lp7995
F0.357143
aaI14
aa(lp7996
I1
a(lp7997
F0.2
aaI20
aa(lp7998
I1
a(lp7999
F0.217391
aaI23
aa(lp8000
I1
a(lp8001
F0.2
aaI25
aa(lp8002
I1
a(lp8003
F0.0
aaI24
aa(lp8004
I1
a(lp8005
F0.0
aaI21
aa(lp8006
I1
a(lp8007
F0.454545
aaI22
aa(lp8008
I1
a(lp8009
F0.380952
aaI21
aa(lp8010
I1
a(lp8011
F0.458333
aaI24
aa(lp8012
I1
a(lp8013
F0.208333
aaI24
aa(lp8014
I1
a(lp8015
F0.208333
aaI24
aa(lp8016
I1
a(lp8017
F0.333333
aaI12
aa(lp8018
I1
a(lp8019
F0.428571
aaI14
aa(lp8020
I1
a(lp8021
F0.473684
aaI19
aa(lp8022
I1
a(lp8023
F0.4
aaI15
aa(lp8024
I1
a(lp8025
F0.72
aaI25
aa(lp8026
I1
a(lp8027
F0.291667
aaI24
aa(lp8028
I1
a(lp8029
F0.285714
aaI14
aa(lp8030
I1
a(lp8031
F0.416667
aaI24
aa(lp8032
I1
a(lp8033
F0.333333
aaI9
aa(lp8034
I1
a(lp8035
F0.0
aaI8
aa(lp8036
I1
a(lp8037
F0.0
aaI4
aa(lp8038
I1
a(lp8039
F0.0
aaI5
aa(lp8040
I1
a(lp8041
F0.25
aaI12
aa(lp8042
I1
a(lp8043
F0.266667
aaI15
aa(lp8044
I1
a(lp8045
F0.272727
aaI11
aa(lp8046
I1
a(lp8047
F0.214286
aaI14
aa(lp8048
I1
a(lp8049
F0.2
aaI10
aa(lp8050
I1
a(lp8051
F0.6
aaI10
aa(lp8052
I1
a(lp8053
F0.0
aaI9
aa(lp8054
I1
a(lp8055
F0.0
aaI12
aa(lp8056
I1
a(lp8057
F0.428571
aaI7
aa(lp8058
I1
a(lp8059
F0.25
aaI12
aa(lp8060
I1
a(lp8061
F0.235294
aaI17
aa(lp8062
I1
a(lp8063
F0.235294
aaI17
aa(lp8064
I1
a(lp8065
F0.333333
aaI12
aa(lp8066
I1
a(lp8067
F0.333333
aaI12
aa(lp8068
I1
a(lp8069
F0.363636
aaI11
aa(lp8070
I1
a(lp8071
F0.384615
aaI13
aa(lp8072
I1
a(lp8073
F0.461538
aaI13
aa(lp8074
I1
a(lp8075
F0.416667
aaI12
aa(lp8076
I1
a(lp8077
F0.5
aaI20
aa(lp8078
I1
a(lp8079
F0.5
aaI14
aa(lp8080
I1
a(lp8081
F0.333333
aaI15
aa(lp8082
I1
a(lp8083
F0.4
aaI15
aa(lp8084
I1
a(lp8085
F0.333333
aaI18
aa(lp8086
I1
a(lp8087
F0.388889
aaI18
aa(lp8088
I1
a(lp8089
F0.529412
aaI17
aa(lp8090
I1
a(lp8091
F0.578947
aaI19
aa(lp8092
I1
a(lp8093
F0.0
aaI11
aa(lp8094
I1
a(lp8095
F0.0
aaI8
aa(lp8096
I1
a(lp8097
F0.0
aaI7
aa(lp8098
I1
a(lp8099
F0.2
aaI10
aa(lp8100
I1
a(lp8101
F0.25
aaI8
aa(lp8102
I1
a(lp8103
F0.333333
aaI12
aa(lp8104
I1
a(lp8105
F0.333333
aaI12
aa(lp8106
I1
a(lp8107
F0.333333
aaI15
aa(lp8108
I1
a(lp8109
F0.555556
aaI9
aa(lp8110
I1
a(lp8111
F0.333333
aaI9
aa(lp8112
I1
a(lp8113
F0.666667
aaI9
aa(lp8114
I1
a(lp8115
F0.7
aaI10
aa(lp8116
I1
a(lp8117
F0.7
aaI10
aa(lp8118
I1
a(lp8119
F0.666667
aaI9
aa(lp8120
I1
a(lp8121
F0.583333
aaI12
aa(lp8122
I1
a(lp8123
F0.538462
aaI13
aa(lp8124
I1
a(lp8125
F0.357143
aaI14
aa(lp8126
I1
a(lp8127
F0.333333
aaI15
aa(lp8128
I2
a(lp8129
F0.4375
aF0.5625
aaI16
aa(lp8130
I1
a(lp8131
F0.625
aaI8
aa(lp8132
I1
a(lp8133
F0.5
aaI8
aa(lp8134
I1
a(lp8135
F0.0
aaI8
aa(lp8136
I2
a(lp8137
F0.5
aF0.5
aaI14
aa(lp8138
I1
a(lp8139
F0.5
aaI16
aa(lp8140
I1
a(lp8141
F0.55
aaI20
aa(lp8142
I1
a(lp8143
F0.0
aaI22
aa(lp8144
I1
a(lp8145
F0.2
aaI15
aa(lp8146
I1
a(lp8147
F0.25
aaI12
aa(lp8148
I1
a(lp8149
F0.25
aaI12
aa(lp8150
I1
a(lp8151
F0.230769
aaI13
aa(lp8152
I1
a(lp8153
F0.25
aaI16
aa(lp8154
I1
a(lp8155
F0.294118
aaI17
aa(lp8156
I1
a(lp8157
F0.333333
aaI18
aa(lp8158
I1
a(lp8159
F0.333333
aaI9
aa(lp8160
I1
a(lp8161
F0.230769
aaI13
aa(lp8162
I1
a(lp8163
F0.0
aaI11
aa(lp8164
I1
a(lp8165
F0.47619
aaI21
aa(lp8166
I1
a(lp8167
F0.434783
aaI23
aa(lp8168
I1
a(lp8169
F0.388889
aaI18
aa(lp8170
I1
a(lp8171
F0.375
aaI16
aa(lp8172
I1
a(lp8173
F0.411765
aaI17
aa(lp8174
I1
a(lp8175
F0.285714
aaI14
aa(lp8176
I1
a(lp8177
F0.333333
aaI12
aa(lp8178
I1
a(lp8179
F0.333333
aaI12
aa(lp8180
I1
a(lp8181
F0.416667
aaI12
aa(lp8182
I1
a(lp8183
F0.416667
aaI12
aa(lp8184
I1
a(lp8185
F0.333333
aaI12
aa(lp8186
I1
a(lp8187
F0.3
aaI10
aa(lp8188
I1
a(lp8189
F0.333333
aaI9
aa(lp8190
I1
a(lp8191
F0.0
aaI11
aa(lp8192
I1
a(lp8193
F0.0
aaI11
aa(lp8194
I1
a(lp8195
F0.0
aaI12
aa(lp8196
I1
a(lp8197
F0.0
aaI11
aa(lp8198
I1
a(lp8199
F0.0
aaI11
aa(lp8200
I1
a(lp8201
F0.0
aaI11
aa(lp8202
I1
a(lp8203
F0.0
aaI9
aa(lp8204
I1
a(lp8205
F0.0
aaI7
aa(lp8206
I1
a(lp8207
F0.0
aaI10
aa(lp8208
I1
a(lp8209
F0.0
aaI10
aa(lp8210
I1
a(lp8211
F0.0
aaI13
aa(lp8212
I1
a(lp8213
F0.0
aaI4
aa(lp8214
I1
a(lp8215
F0.0
aaI8
aa(lp8216
I1
a(lp8217
F0.0
aaI2
aa(lp8218
I1
a(lp8219
F0.0
aaI2
aa(lp8220
I1
a(lp8221
F0.0
aaI2
aa(lp8222
I1
a(lp8223
F0.0
aaI2
aaa(lp8224
g6923
ag6924
a(lp8225
I1
a(lp8226
F0.357143
aaI28
aa(lp8227
I1
a(lp8228
F0.466667
aaI15
aa(lp8229
I1
a(lp8230
F0.384615
aaI13
aa(lp8231
I1
a(lp8232
F0.5
aaI10
aaa(lp8233
g6954
ag6955
a(lp8234
I1
a(lp8235
F0.3125
aaI16
aa(lp8236
I1
a(lp8237
F0.5625
aaI16
aa(lp8238
I1
a(lp8239
F0.272727
aaI11
aa(lp8240
I1
a(lp8241
F0.307692
aaI13
aaa(lp8242
g6957
ag6958
aa(lp8243
g6966
ag6967
a(lp8244
I1
a(lp8245
F0.238095
aaI21
aa(lp8246
I1
a(lp8247
F0.25
aaI16
aa(lp8248
I1
a(lp8249
F0.230769
aaI13
aa(lp8250
I1
a(lp8251
F0.214286
aaI14
aa(lp8252
I1
a(lp8253
F0.384615
aaI13
aaa(lp8254
g6977
ag6978
a(lp8255
I1
a(lp8256
F0.222222
aaI9
aa(lp8257
I1
a(lp8258
F0.25
aaI12
aa(lp8259
I1
a(lp8260
F0.230769
aaI13
aa(lp8261
I1
a(lp8262
F0.230769
aaI13
aa(lp8263
I1
a(lp8264
F0.235294
aaI17
aa(lp8265
I1
a(lp8266
F0.3125
aaI16
aa(lp8267
I1
a(lp8268
F0.5
aaI18
aaa(lp8269
g6980
ag6981
a(lp8270
I1
a(lp8271
F0.277778
aaI18
aaa(lp8272
g6983
ag6984
aa(lp8273
g6994
ag6995
a(lp8274
I1
a(lp8275
F0.444444
aaI9
aa(lp8276
I1
a(lp8277
F0.285714
aaI14
aa(lp8278
I1
a(lp8279
F0.307692
aaI13
aa(lp8280
I1
a(lp8281
F0.285714
aaI7
aa(lp8282
I1
a(lp8283
F0.538462
aaI13
aa(lp8284
I1
a(lp8285
F0.5
aaI10
aa(lp8286
I1
a(lp8287
F0.454545
aaI11
aaa(lp8288
g7015
ag7016
aa(lp8289
g7036
ag7037
aa(lp8290
g7041
ag7042
aa(lp8291
g7044
ag7045
aa(lp8292
g7051
ag7052
aa(lp8293
g7054
ag7055
aa(lp8294
g7057
ag7058
a(lp8295
I1
a(lp8296
F0.0
aaI3
aa(lp8297
I1
a(lp8298
F0.333333
aaI12
aa(lp8299
I1
a(lp8300
F0.25
aaI12
aa(lp8301
I1
a(lp8302
F0.4
aaI5
aa(lp8303
I1
a(lp8304
F0.333333
aaI6
aa(lp8305
I1
a(lp8306
F0.333333
aaI6
aa(lp8307
I1
a(lp8308
F0.416667
aaI12
aa(lp8309
I1
a(lp8310
F0.454545
aaI11
aaa(lp8311
g7060
ag7061
a(lp8312
I1
a(lp8313
F0.538462
aaI13
aa(lp8314
I1
a(lp8315
F0.222222
aaI18
aaa(lp8316
g7063
ag7064
aa(lp8317
g7070
ag7071
aa(lp8318
g7083
ag7084
aa(lp8319
g7108
ag7109
a(lp8320
I1
a(lp8321
F0.307692
aaI13
aa(lp8322
I1
a(lp8323
F0.266667
aaI15
aa(lp8324
I1
a(lp8325
F0.230769
aaI13
aa(lp8326
I1
a(lp8327
F0.210526
aaI19
aa(lp8328
I1
a(lp8329
F0.210526
aaI19
aaa(lp8330
g7125
ag7126
a(lp8331
I1
a(lp8332
F0.0
aaI2
aa(lp8333
I1
a(lp8334
F0.0
aaI2
aa(lp8335
I1
a(lp8336
F0.0
aaI2
aa(lp8337
I1
a(lp8338
F0.0
aaI3
aaa(lp8339
g7130
ag7131
aa(lp8340
g7135
ag7136
aa(lp8341
g7146
ag7147
a(lp8342
I1
a(lp8343
F0.25
aaI8
aa(lp8344
I1
a(lp8345
F0.222222
aaI9
aa(lp8346
I1
a(lp8347
F0.222222
aaI9
aa(lp8348
I1
a(lp8349
F0.2
aaI10
aa(lp8350
I1
a(lp8351
F0.375
aaI8
aaa(lp8352
g7149
ag7150
a(lp8353
I1
a(lp8354
F0.466667
aaI15
aa(lp8355
I1
a(lp8356
F0.222222
aaI9
aa(lp8357
I1
a(lp8358
F0.2
aaI10
aa(lp8359
I1
a(lp8360
F0.235294
aaI17
aa(lp8361
I1
a(lp8362
F0.416667
aaI12
aaass.