(dp0
S'triploids'
p1
(dp2
S'down'
p3
(lp4
(lp5
S'scaffold167486_cov93'
p6
aS'scaffold32268_cov68'
p7
aa(lp8
S'scaffold3954_cov94'
p9
aS'scaffold73744_cov62'
p10
aa(lp11
S'scaffold13284_cov147'
p12
aS'scaffold23977_cov68'
p13
aa(lp14
S'scaffold15895_cov77'
p15
aS'scaffold49814_cov72'
p16
aa(lp17
S'scaffold10148_cov99'
p18
aS'scaffold6498_cov76'
p19
a(lp20
I1
a(lp21
F0.444444
aaI18
aa(lp22
I1
a(lp23
F0.5
aaI20
aa(lp24
I1
a(lp25
F0.0
aaI13
aa(lp26
I1
a(lp27
F0.352941
aaI17
aa(lp28
I1
a(lp29
F0.47619
aaI21
aa(lp30
I1
a(lp31
F0.368421
aaI19
aa(lp32
I1
a(lp33
F0.368421
aaI19
aa(lp34
I1
a(lp35
F0.481481
aaI27
aa(lp36
I1
a(lp37
F0.55
aaI20
aa(lp38
I1
a(lp39
F0.428571
aaI21
aa(lp40
I1
a(lp41
F0.363636
aaI33
aa(lp42
I1
a(lp43
F0.235294
aaI17
aa(lp44
I1
a(lp45
F0.230769
aaI13
aa(lp46
I1
a(lp47
F0.470588
aaI17
aa(lp48
I1
a(lp49
F0.45
aaI20
aa(lp50
I1
a(lp51
F0.25
aaI40
aaa(lp52
S'scaffold2658_cov137'
p53
aS'scaffold4421_cov66'
p54
a(lp55
I1
a(lp56
F0.0
aaI10
aa(lp57
I1
a(lp58
F0.0
aaI14
aaa(lp59
S'scaffold8528_cov135'
p60
aS'scaffold10431_cov72'
p61
aa(lp62
S'scaffold160792_cov138'
p63
aS'scaffold90278_cov81'
p64
aa(lp65
S'scaffold6934_cov101'
p66
aS'scaffold5476_cov91'
p67
aa(lp68
S'scaffold167467_cov101'
p69
aS'scaffold67159_cov68'
p70
aa(lp71
S'scaffold13631_cov149'
p72
aS'scaffold1043_cov70'
p73
aa(lp74
S'scaffold4095_cov147'
p75
aS'scaffold1076_cov67'
p76
aa(lp77
S'scaffold4610_cov62'
p78
aS'scaffold20004_cov62'
p79
a(lp80
I1
a(lp81
F0.21875
aaI32
aa(lp82
I1
a(lp83
F0.2
aaI20
aa(lp84
I1
a(lp85
F0.210526
aaI19
aa(lp86
I1
a(lp87
F0.277778
aaI18
aa(lp88
I1
a(lp89
F0.263158
aaI19
aa(lp90
I1
a(lp91
F0.3
aaI20
aa(lp92
I1
a(lp93
F0.28
aaI25
aa(lp94
I1
a(lp95
F0.222222
aaI18
aa(lp96
I1
a(lp97
F0.2
aaI15
aa(lp98
I1
a(lp99
F0.3125
aaI16
aa(lp100
I1
a(lp101
F0.238095
aaI21
aa(lp102
I1
a(lp103
F0.355932
aaI59
aa(lp104
I1
a(lp105
F0.20339
aaI59
aa(lp106
I1
a(lp107
F0.701754
aaI57
aa(lp108
I1
a(lp109
F0.423077
aaI78
aa(lp110
I1
a(lp111
F0.35443
aaI79
aa(lp112
I1
a(lp113
F0.581081
aaI74
aaa(lp114
S'scaffold26651_cov113'
p115
aS'scaffold2076_cov75'
p116
a(lp117
I1
a(lp118
F0.291667
aaI24
aa(lp119
I1
a(lp120
F0.571429
aaI14
aaa(lp121
S'scaffold37943_cov120'
p122
aS'scaffold39367_cov97'
p123
a(lp124
I1
a(lp125
F0.446429
aaI56
aa(lp126
I1
a(lp127
F0.45098
aaI51
aa(lp128
I1
a(lp129
F0.491803
aaI61
aa(lp130
I1
a(lp131
F0.263158
aaI38
aa(lp132
I1
a(lp133
F0.357143
aaI42
aa(lp134
I1
a(lp135
F0.394737
aaI38
aa(lp136
I1
a(lp137
F0.368421
aaI38
aa(lp138
I1
a(lp139
F0.341463
aaI41
aa(lp140
I1
a(lp141
F0.35
aaI40
aa(lp142
I1
a(lp143
F0.257143
aaI35
aa(lp144
I1
a(lp145
F0.272727
aaI33
aa(lp146
I1
a(lp147
F0.351351
aaI37
aa(lp148
I1
a(lp149
F0.512821
aaI39
aa(lp150
I1
a(lp151
F0.266667
aaI30
aa(lp152
I1
a(lp153
F0.307692
aaI26
aa(lp154
I1
a(lp155
F0.407407
aaI27
aa(lp156
I1
a(lp157
F0.425
aaI40
aa(lp158
I1
a(lp159
F0.577778
aaI45
aa(lp160
I1
a(lp161
F0.344828
aaI29
aa(lp162
I1
a(lp163
F0.47619
aaI42
aa(lp164
I1
a(lp165
F0.459459
aaI37
aa(lp166
I1
a(lp167
F0.363636
aaI33
aa(lp168
I1
a(lp169
F0.613636
aaI44
aa(lp170
I1
a(lp171
F0.5
aaI42
aa(lp172
I1
a(lp173
F0.325581
aaI43
aa(lp174
I1
a(lp175
F0.214286
aaI28
aa(lp176
I1
a(lp177
F0.241379
aaI29
aa(lp178
I1
a(lp179
F0.275862
aaI29
aa(lp180
I1
a(lp181
F0.407407
aaI27
aa(lp182
I1
a(lp183
F0.375
aaI24
aa(lp184
I1
a(lp185
F0.458333
aaI48
aa(lp186
I1
a(lp187
F0.54
aaI50
aa(lp188
I1
a(lp189
F0.291667
aaI24
aaa(lp190
S'scaffold11629_cov141'
p191
aS'scaffold11627_cov72'
p192
a(lp193
I1
a(lp194
F0.25
aaI28
aaa(lp195
S'scaffold2522_cov147'
p196
aS'scaffold2520_cov73'
p197
a(lp198
I1
a(lp199
F0.25
aaI16
aa(lp200
I1
a(lp201
F0.25
aaI16
aa(lp202
I1
a(lp203
F0.266667
aaI15
aa(lp204
I1
a(lp205
F0.235294
aaI17
aa(lp206
I1
a(lp207
F0.285714
aaI14
aa(lp208
I1
a(lp209
F0.272727
aaI11
aaa(lp210
S'scaffold3257_cov146'
p211
aS'scaffold16169_cov72'
p212
a(lp213
I1
a(lp214
F0.45
aaI80
aa(lp215
I1
a(lp216
F0.649351
aaI77
aaa(lp217
S'scaffold33358_cov122'
p218
aS'scaffold11974_cov67'
p219
a(lp220
I1
a(lp221
F0.217391
aaI23
aa(lp222
I1
a(lp223
F0.0
aaI3
aaa(lp224
S'scaffold27512_cov124'
p225
aS'scaffold9838_cov70'
p226
a(lp227
I1
a(lp228
F0.0
aaI8
aa(lp229
I1
a(lp230
F0.25
aaI16
aa(lp231
I1
a(lp232
F0.344828
aaI29
aaa(lp233
S'scaffold165401_cov148'
p234
aS'scaffold12422_cov71'
p235
a(lp236
I1
a(lp237
F0.357143
aaI14
aa(lp238
I1
a(lp239
F0.638889
aaI36
aaa(lp240
S'scaffold108_cov145'
p241
aS'scaffold107_cov67'
p242
aa(lp243
S'scaffold96847_cov139'
p244
aS'scaffold3943_cov70'
p245
aa(lp246
S'scaffold47647_cov69'
p247
aS'scaffold7129_cov63'
p248
aa(lp249
S'scaffold6388_cov146'
p250
aS'scaffold8779_cov66'
p251
a(lp252
I1
a(lp253
F0.0
aaI7
aa(lp254
I1
a(lp255
F0.0
aaI7
aa(lp256
I1
a(lp257
F0.0
aaI8
aa(lp258
I1
a(lp259
F0.0
aaI10
aa(lp260
I1
a(lp261
F0.833333
aaI6
aa(lp262
I1
a(lp263
F0.0
aaI6
aa(lp264
I1
a(lp265
F0.0
aaI11
aa(lp266
I1
a(lp267
F0.571429
aaI28
aa(lp268
I1
a(lp269
F0.0
aaI10
aaa(lp270
S'scaffold167512_cov105'
p271
aS'scaffold132398_cov66'
p272
a(lp273
I1
a(lp274
F0.25
aaI16
aa(lp275
I1
a(lp276
F0.2
aaI15
aaa(lp277
S'scaffold90279_cov161'
p278
aS'scaffold90278_cov81'
p279
aa(lp280
S'scaffold2677_cov108'
p281
aS'scaffold6974_cov73'
p282
a(lp283
I1
a(lp284
F0.238095
aaI21
aa(lp285
I1
a(lp286
F0.263158
aaI19
aa(lp287
I1
a(lp288
F0.238095
aaI21
aa(lp289
I1
a(lp290
F0.3
aaI20
aa(lp291
I1
a(lp292
F0.263158
aaI19
aa(lp293
I1
a(lp294
F0.0
aaI17
aa(lp295
I1
a(lp296
F0.25
aaI16
aa(lp297
I1
a(lp298
F0.25
aaI16
aaa(lp299
S'scaffold33112_cov67'
p300
aS'scaffold33753_cov69'
p301
a(lp302
I1
a(lp303
F0.25
aaI12
aa(lp304
I1
a(lp305
F0.3
aaI10
aa(lp306
I1
a(lp307
F0.555556
aaI9
aaa(lp308
S'scaffold1391_cov96'
p309
aS'scaffold46961_cov69'
p310
aa(lp311
S'scaffold56728_cov119'
p312
aS'scaffold11627_cov72'
p313
a(lp314
I1
a(lp315
F0.0
aaI22
aaa(lp316
S'scaffold8397_cov125'
p317
aS'scaffold2722_cov84'
p318
a(lp319
I1
a(lp320
F0.0
aaI7
aa(lp321
I1
a(lp322
F0.0
aaI8
aa(lp323
I1
a(lp324
F0.0
aaI8
aa(lp325
I1
a(lp326
F0.0
aaI8
aa(lp327
I1
a(lp328
F0.222222
aaI9
aa(lp329
I1
a(lp330
F0.0
aaI10
aaa(lp331
S'scaffold2416_cov137'
p332
aS'scaffold2417_cov66'
p333
aa(lp334
S'scaffold20419_cov113'
p335
aS'scaffold114_cov72'
p336
aa(lp337
S'scaffold4513_cov135'
p338
aS'scaffold59029_cov68'
p339
aa(lp340
S'scaffold406_cov110'
p341
aS'scaffold39105_cov66'
p342
aa(lp343
S'scaffold16084_cov74'
p344
aS'scaffold11821_cov67'
p345
a(lp346
I1
a(lp347
F0.0
aaI12
aa(lp348
I1
a(lp349
F0.294118
aaI34
aa(lp350
I1
a(lp351
F0.66
aaI50
aa(lp352
I1
a(lp353
F0.540541
aaI37
aa(lp354
I1
a(lp355
F0.5
aaI32
aa(lp356
I1
a(lp357
F0.558824
aaI34
aa(lp358
I1
a(lp359
F0.285714
aaI28
aaa(lp360
S'scaffold1716_cov94'
p361
aS'scaffold45397_cov62'
p362
aa(lp363
S'scaffold11225_cov146'
p364
aS'scaffold33238_cov67'
p365
aa(lp366
S'scaffold1158_cov100'
p367
aS'scaffold100812_cov62'
p368
aa(lp369
S'scaffold4036_cov142'
p370
aS'scaffold10658_cov62'
p371
aa(lp372
S'scaffold12688_cov135'
p373
aS'scaffold12686_cov61'
p374
a(lp375
I1
a(lp376
F0.0
aaI6
aa(lp377
I1
a(lp378
F0.0
aaI13
aa(lp379
I1
a(lp380
F0.0
aaI13
aa(lp381
I1
a(lp382
F0.0
aaI5
aa(lp383
I1
a(lp384
F0.0
aaI7
aa(lp385
I1
a(lp386
F0.0
aaI8
aa(lp387
I1
a(lp388
F0.0
aaI6
aa(lp389
I1
a(lp390
F0.0
aaI6
aa(lp391
I1
a(lp392
F0.0
aaI10
aa(lp393
I1
a(lp394
F0.0
aaI10
aa(lp395
I1
a(lp396
F0.0
aaI10
aaa(lp397
S'scaffold9676_cov145'
p398
aS'scaffold16231_cov68'
p399
aa(lp400
S'scaffold180_cov107'
p401
aS'scaffold1171_cov70'
p402
a(lp403
I1
a(lp404
F0.209302
aaI43
aa(lp405
I1
a(lp406
F0.3125
aaI16
aa(lp407
I1
a(lp408
F0.285714
aaI14
aa(lp409
I1
a(lp410
F0.206897
aaI29
aa(lp411
I1
a(lp412
F0.0
aaI19
aa(lp413
I1
a(lp414
F0.0
aaI20
aa(lp415
I1
a(lp416
F0.0
aaI22
aa(lp417
I1
a(lp418
F0.2
aaI25
aaa(lp419
S'scaffold29230_cov135'
p420
aS'scaffold7717_cov65'
p421
aa(lp422
S'scaffold166708_cov122'
p423
aS'scaffold697_cov68'
p424
aa(lp425
S'scaffold6658_cov76'
p426
aS'scaffold860_cov64'
p427
aa(lp428
S'scaffold57838_cov69'
p429
aS'scaffold53892_cov107'
p430
aa(lp431
S'scaffold10313_cov102'
p432
aS'scaffold21316_cov65'
p433
aa(lp434
S'scaffold5667_cov96'
p435
aS'scaffold8355_cov67'
p436
aa(lp437
S'scaffold167496_cov97'
p438
aS'scaffold29206_cov81'
p439
a(lp440
I1
a(lp441
F0.451613
aaI31
aa(lp442
I1
a(lp443
F0.419355
aaI31
aa(lp444
I1
a(lp445
F0.424242
aaI33
aa(lp446
I1
a(lp447
F0.4
aaI30
aa(lp448
I1
a(lp449
F0.366667
aaI30
aa(lp450
I1
a(lp451
F0.34375
aaI32
aa(lp452
I1
a(lp453
F0.368421
aaI38
aa(lp454
I1
a(lp455
F0.315789
aaI38
aa(lp456
I1
a(lp457
F0.25
aaI32
aa(lp458
I1
a(lp459
F0.225806
aaI31
aaa(lp460
S'scaffold26582_cov78'
p461
aS'scaffold5481_cov69'
p462
a(lp463
I1
a(lp464
F0.272727
aaI22
aaa(lp465
S'scaffold40887_cov133'
p466
aS'scaffold46748_cov73'
p467
aa(lp468
S'scaffold165520_cov190'
p469
aS'scaffold59464_cov122'
p470
aa(lp471
S'scaffold65460_cov69'
p472
aS'scaffold4555_cov123'
p473
aa(lp474
S'scaffold4019_cov99'
p475
aS'scaffold21633_cov84'
p476
aa(lp477
S'scaffold20825_cov153'
p478
aS'scaffold24052_cov69'
p479
aa(lp480
S'scaffold14473_cov147'
p481
aS'scaffold33229_cov65'
p482
aa(lp483
S'scaffold11599_cov105'
p484
aS'scaffold61789_cov64'
p485
a(lp486
I1
a(lp487
F0.0
aaI2
aa(lp488
I1
a(lp489
F0.0
aaI6
aaa(lp490
S'scaffold192192_cov171'
p491
aS'scaffold8532_cov71'
p492
aa(lp493
S'scaffold13917_cov148'
p494
aS'scaffold28422_cov65'
p495
aa(lp496
S'scaffold53875_cov130'
p497
aS'scaffold25755_cov75'
p498
aa(lp499
S'scaffold10275_cov68'
p500
aS'scaffold62474_cov113'
p501
aa(lp502
S'scaffold22882_cov105'
p503
aS'scaffold5203_cov76'
p504
a(lp505
I1
a(lp506
F0.333333
aaI24
aaa(lp507
S'scaffold16120_cov143'
p508
aS'scaffold9901_cov65'
p509
a(lp510
I1
a(lp511
F0.210526
aaI19
aa(lp512
I1
a(lp513
F0.26087
aaI23
aaa(lp514
S'scaffold22339_cov108'
p515
aS'scaffold15124_cov63'
p516
a(lp517
I1
a(lp518
F0.703704
aaI54
aa(lp519
I1
a(lp520
F0.333333
aaI21
aaa(lp521
S'scaffold15763_cov140'
p522
aS'scaffold7011_cov67'
p523
a(lp524
I1
a(lp525
F0.0
aaI9
aa(lp526
I1
a(lp527
F0.307692
aaI26
aa(lp528
I1
a(lp529
F0.32
aaI25
aaa(lp530
S'scaffold3674_cov106'
p531
aS'scaffold57150_cov68'
p532
aa(lp533
S'scaffold8694_cov129'
p534
aS'scaffold8135_cov71'
p535
a(lp536
I1
a(lp537
F0.583333
aaI12
aa(lp538
I1
a(lp539
F0.428571
aaI21
aa(lp540
I1
a(lp541
F0.352941
aaI17
aaa(lp542
S'scaffold166685_cov152'
p543
aS'scaffold2832_cov75'
p544
a(lp545
I1
a(lp546
F0.625
aaI8
aaa(lp547
S'scaffold903_cov126'
p548
aS'scaffold1840_cov66'
p549
a(lp550
I1
a(lp551
F0.227273
aaI22
aaa(lp552
S'scaffold34941_cov134'
p553
aS'scaffold1333_cov60'
p554
aa(lp555
S'scaffold4413_cov63'
p556
aS'scaffold15975_cov67'
p557
aa(lp558
S'scaffold29165_cov60'
p559
aS'scaffold561_cov86'
p560
aa(lp561
S'scaffold6820_cov103'
p562
aS'scaffold6818_cov67'
p563
a(lp564
I1
a(lp565
F0.2
aaI20
aa(lp566
I1
a(lp567
F0.333333
aaI21
aa(lp568
I1
a(lp569
F0.380952
aaI21
aa(lp570
I1
a(lp571
F0.384615
aaI13
aa(lp572
I1
a(lp573
F0.714286
aaI21
aa(lp574
I1
a(lp575
F0.37037
aaI27
aa(lp576
I1
a(lp577
F0.515152
aaI33
aa(lp578
I1
a(lp579
F0.576923
aaI26
aaa(lp580
S'scaffold4931_cov109'
p581
aS'scaffold2702_cov92'
p582
a(lp583
I1
a(lp584
F0.210526
aaI19
aa(lp585
I1
a(lp586
F0.222222
aaI18
aaa(lp587
S'scaffold6620_cov103'
p588
aS'scaffold7907_cov67'
p589
aa(lp590
S'scaffold95367_cov139'
p591
aS'scaffold95366_cov79'
p592
aa(lp593
S'scaffold9131_cov93'
p594
aS'scaffold28864_cov67'
p595
a(lp596
I1
a(lp597
F0.0
aaI20
aa(lp598
I1
a(lp599
F0.615385
aaI13
aaa(lp600
S'scaffold19827_cov125'
p601
aS'scaffold167515_cov69'
p602
a(lp603
I1
a(lp604
F0.269231
aaI26
aa(lp605
I1
a(lp606
F0.307692
aaI26
aa(lp607
I1
a(lp608
F0.0
aaI9
aa(lp609
I1
a(lp610
F0.0
aaI8
aa(lp611
I1
a(lp612
F0.0
aaI11
aa(lp613
I1
a(lp614
F0.363636
aaI11
aa(lp615
I1
a(lp616
F0.363636
aaI11
aa(lp617
I1
a(lp618
F0.333333
aaI12
aa(lp619
I1
a(lp620
F0.333333
aaI12
aa(lp621
I1
a(lp622
F0.294118
aaI17
aa(lp623
I1
a(lp624
F0.222222
aaI18
aa(lp625
I1
a(lp626
F0.0
aaI15
aaa(lp627
S'scaffold2979_cov71'
p628
aS'scaffold5296_cov115'
p629
a(lp630
I1
a(lp631
F0.266667
aaI30
aa(lp632
I1
a(lp633
F0.241379
aaI29
aa(lp634
I1
a(lp635
F0.25
aaI32
aa(lp636
I1
a(lp637
F0.259259
aaI27
aa(lp638
I1
a(lp639
F0.241379
aaI29
aa(lp640
I1
a(lp641
F0.285714
aaI28
aa(lp642
I1
a(lp643
F0.307692
aaI26
aa(lp644
I1
a(lp645
F0.344828
aaI29
aa(lp646
I1
a(lp647
F0.28
aaI25
aa(lp648
I1
a(lp649
F0.28
aaI25
aa(lp650
I1
a(lp651
F0.333333
aaI21
aa(lp652
I1
a(lp653
F0.5
aaI20
aa(lp654
I1
a(lp655
F0.4
aaI25
aaa(lp656
S'scaffold35735_cov102'
p657
aS'scaffold4162_cov69'
p658
a(lp659
I1
a(lp660
F0.0
aaI35
aaa(lp661
S'scaffold36202_cov116'
p662
aS'scaffold32923_cov104'
p663
a(lp664
I1
a(lp665
F0.25
aaI8
aa(lp666
I1
a(lp667
F0.3125
aaI16
aa(lp668
I1
a(lp669
F0.3125
aaI16
aa(lp670
I1
a(lp671
F0.3125
aaI16
aa(lp672
I1
a(lp673
F0.3125
aaI16
aa(lp674
I1
a(lp675
F0.277778
aaI18
aaa(lp676
S'scaffold14189_cov153'
p677
aS'scaffold2637_cov71'
p678
a(lp679
I1
a(lp680
F0.0
aaI15
aaa(lp681
S'scaffold1394_cov148'
p682
aS'scaffold1395_cov70'
p683
aa(lp684
S'scaffold2849_cov95'
p685
aS'scaffold165441_cov141'
p686
aa(lp687
S'scaffold6252_cov71'
p688
aS'scaffold21927_cov117'
p689
aa(lp690
S'scaffold8966_cov109'
p691
aS'scaffold3586_cov72'
p692
a(lp693
I1
a(lp694
F0.315789
aaI19
aaa(lp695
S'scaffold514_cov77'
p696
aS'scaffold2213_cov74'
p697
aa(lp698
S'scaffold3987_cov100'
p699
aS'scaffold14924_cov62'
p700
a(lp701
I1
a(lp702
F0.0
aaI5
aaa(lp703
S'scaffold164974_cov139'
p704
aS'scaffold2833_cov61'
p705
aa(lp706
S'scaffold3477_cov108'
p707
aS'scaffold10061_cov67'
p708
aa(lp709
S'scaffold23269_cov69'
p710
aS'scaffold9403_cov96'
p711
a(lp712
I1
a(lp713
F0.4375
aaI32
aa(lp714
I1
a(lp715
F0.4
aaI20
aa(lp716
I1
a(lp717
F0.428571
aaI21
aa(lp718
I1
a(lp719
F0.36
aaI25
aa(lp720
I1
a(lp721
F0.36
aaI25
aa(lp722
I1
a(lp723
F0.384615
aaI26
aa(lp724
I1
a(lp725
F0.392857
aaI28
aaa(lp726
S'scaffold48176_cov76'
p727
aS'scaffold42838_cov68'
p728
aa(lp729
S'scaffold3722_cov135'
p730
aS'scaffold3719_cov67'
p731
a(lp732
I1
a(lp733
F0.421053
aaI19
aa(lp734
I1
a(lp735
F0.411765
aaI17
aa(lp736
I1
a(lp737
F0.363636
aaI11
aa(lp738
I1
a(lp739
F0.363636
aaI22
aaa(lp740
S'scaffold14267_cov83'
p741
aS'scaffold1125_cov68'
p742
a(lp743
I1
a(lp744
F0.243243
aaI37
aa(lp745
I1
a(lp746
F0.419355
aaI31
aa(lp747
I1
a(lp748
F0.354839
aaI31
aa(lp749
I1
a(lp750
F0.210526
aaI19
aa(lp751
I1
a(lp752
F0.210526
aaI19
aa(lp753
I1
a(lp754
F0.488889
aaI45
aaa(lp755
S'scaffold32619_cov118'
p756
aS'scaffold20061_cov80'
p757
a(lp758
I1
a(lp759
F0.0
aaI18
aa(lp760
I1
a(lp761
F0.294118
aaI17
aa(lp762
I1
a(lp763
F0.333333
aaI15
aa(lp764
I1
a(lp765
F0.235294
aaI34
aaa(lp766
S'scaffold3738_cov114'
p767
aS'scaffold11440_cov66'
p768
a(lp769
I1
a(lp770
F0.333333
aaI6
aaa(lp771
S'scaffold11968_cov142'
p772
aS'scaffold3404_cov63'
p773
a(lp774
I1
a(lp775
F0.315789
aaI19
aaa(lp776
S'scaffold4957_cov147'
p777
aS'scaffold2304_cov67'
p778
aa(lp779
S'scaffold6014_cov96'
p780
aS'scaffold69980_cov67'
p781
aa(lp782
S'scaffold17627_cov105'
p783
aS'scaffold117137_cov65'
p784
aa(lp785
S'scaffold165395_cov77'
p786
aS'scaffold42402_cov68'
p787
aa(lp788
S'scaffold12770_cov157'
p789
aS'scaffold21646_cov62'
p790
a(lp791
I1
a(lp792
F0.0
aaI4
aa(lp793
I1
a(lp794
F0.0
aaI4
aa(lp795
I1
a(lp796
F0.0
aaI5
aa(lp797
I1
a(lp798
F0.0
aaI2
aa(lp799
I1
a(lp800
F0.0
aaI7
aa(lp801
I1
a(lp802
F0.0
aaI3
aa(lp803
I1
a(lp804
F0.0
aaI7
aa(lp805
I1
a(lp806
F0.0
aaI8
aa(lp807
I1
a(lp808
F0.0
aaI7
aa(lp809
I1
a(lp810
F0.0
aaI5
aa(lp811
I1
a(lp812
F0.0
aaI3
aa(lp813
I1
a(lp814
F0.0
aaI3
aa(lp815
I1
a(lp816
F0.0
aaI3
aa(lp817
I1
a(lp818
F0.0
aaI5
aa(lp819
I1
a(lp820
F0.0
aaI3
aa(lp821
I1
a(lp822
F0.0
aaI3
aa(lp823
I1
a(lp824
F0.0
aaI3
aa(lp825
I1
a(lp826
F0.0
aaI5
aa(lp827
I1
a(lp828
F0.0
aaI6
aa(lp829
I1
a(lp830
F0.0
aaI5
aa(lp831
I1
a(lp832
F0.0
aaI5
aa(lp833
I1
a(lp834
F0.0
aaI2
aa(lp835
I1
a(lp836
F0.0
aaI2
aa(lp837
I1
a(lp838
F0.0
aaI2
aaa(lp839
S'scaffold2416_cov137'
p840
aS'scaffold16788_cov63'
p841
aa(lp842
S'scaffold167565_cov117'
p843
aS'scaffold893_cov66'
p844
a(lp845
I1
a(lp846
F0.0
aaI12
aaa(lp847
S'scaffold49558_cov135'
p848
aS'scaffold10462_cov135'
p849
aa(lp850
S'scaffold25651_cov100'
p851
aS'scaffold46961_cov69'
p852
aa(lp853
S'scaffold29989_cov70'
p854
aS'scaffold66329_cov132'
p855
aa(lp856
S'scaffold14528_cov66'
p857
aS'scaffold14527_cov64'
p858
a(lp859
I1
a(lp860
F0.44
aaI25
aa(lp861
I1
a(lp862
F0.48
aaI25
aa(lp863
I1
a(lp864
F0.263158
aaI19
aa(lp865
I1
a(lp866
F0.26087
aaI23
aaa(lp867
S'scaffold3122_cov145'
p868
aS'scaffold3123_cov67'
p869
a(lp870
I1
a(lp871
F0.0
aaI21
aa(lp872
I1
a(lp873
F0.0
aaI22
aaa(lp874
S'scaffold8282_cov147'
p875
aS'scaffold8279_cov69'
p876
a(lp877
I1
a(lp878
F0.0
aaI20
aaa(lp879
S'scaffold903_cov126'
p880
aS'scaffold900_cov65'
p881
aa(lp882
S'scaffold7194_cov116'
p883
aS'scaffold6437_cov66'
p884
aa(lp885
S'scaffold33427_cov79'
p886
aS'scaffold1498_cov63'
p887
a(lp888
I1
a(lp889
F0.0
aaI10
aa(lp890
I1
a(lp891
F0.5
aaI22
aaa(lp892
S'scaffold70862_cov124'
p893
aS'scaffold34357_cov65'
p894
a(lp895
I1
a(lp896
F0.2
aaI15
aaa(lp897
S'scaffold14197_cov99'
p898
aS'scaffold6524_cov65'
p899
a(lp900
I1
a(lp901
F0.222222
aaI18
aa(lp902
I1
a(lp903
F0.25
aaI20
aa(lp904
I1
a(lp905
F0.380952
aaI21
aa(lp906
I1
a(lp907
F0.25
aaI16
aa(lp908
I1
a(lp909
F0.26087
aaI23
aaa(lp910
S'scaffold15885_cov116'
p911
aS'scaffold15073_cov71'
p912
a(lp913
I1
a(lp914
F0.307692
aaI13
aa(lp915
I1
a(lp916
F0.307692
aaI13
aa(lp917
I1
a(lp918
F0.333333
aaI24
aa(lp919
I1
a(lp920
F0.285714
aaI28
aa(lp921
I1
a(lp922
F0.347826
aaI23
aaa(lp923
S'scaffold3010_cov130'
p924
aS'scaffold3009_cov66'
p925
aa(lp926
S'scaffold34740_cov99'
p927
aS'scaffold10321_cov72'
p928
aa(lp929
S'scaffold45626_cov132'
p930
aS'scaffold26610_cov67'
p931
aa(lp932
S'scaffold19276_cov115'
p933
aS'scaffold33185_cov125'
p934
aa(lp935
S'scaffold13917_cov148'
p936
aS'scaffold5199_cov65'
p937
aa(lp938
S'scaffold4489_cov91'
p939
aS'scaffold166706_cov72'
p940
aa(lp941
S'scaffold23696_cov107'
p942
aS'scaffold46569_cov79'
p943
aa(lp944
S'scaffold14010_cov120'
p945
aS'scaffold9558_cov65'
p946
a(lp947
I1
a(lp948
F0.0
aaI14
aa(lp949
I1
a(lp950
F0.454545
aaI11
aa(lp951
I1
a(lp952
F0.363636
aaI11
aaa(lp953
S'scaffold7174_cov138'
p954
aS'scaffold6615_cov72'
p955
a(lp956
I1
a(lp957
F0.266667
aaI15
aa(lp958
I1
a(lp959
F0.0
aaI10
aa(lp960
I1
a(lp961
F0.0
aaI9
aaa(lp962
S'scaffold8983_cov110'
p963
aS'scaffold5722_cov65'
p964
aa(lp965
S'scaffold165507_cov120'
p966
aS'scaffold1649_cov91'
p967
a(lp968
I1
a(lp969
F0.25
aaI28
aa(lp970
I1
a(lp971
F0.258065
aaI31
aa(lp972
I1
a(lp973
F0.315789
aaI38
aa(lp974
I1
a(lp975
F0.363636
aaI33
aa(lp976
I1
a(lp977
F0.310345
aaI29
aa(lp978
I1
a(lp979
F0.333333
aaI21
aa(lp980
I1
a(lp981
F0.464286
aaI28
aa(lp982
I1
a(lp983
F0.56
aaI25
aa(lp984
I1
a(lp985
F0.375
aaI24
aa(lp986
I1
a(lp987
F0.517241
aaI29
aa(lp988
I1
a(lp989
F0.3125
aaI32
aa(lp990
I1
a(lp991
F0.357143
aaI28
aa(lp992
I1
a(lp993
F0.307692
aaI26
aa(lp994
I1
a(lp995
F0.32
aaI25
aa(lp996
I1
a(lp997
F0.333333
aaI24
aa(lp998
I1
a(lp999
F0.210526
aaI19
aa(lp1000
I1
a(lp1001
F0.37037
aaI27
aaa(lp1002
S'scaffold7147_cov103'
p1003
aS'scaffold7146_cov65'
p1004
a(lp1005
I1
a(lp1006
F0.470588
aaI17
aaa(lp1007
S'scaffold14010_cov120'
p1008
aS'scaffold20924_cov70'
p1009
aa(lp1010
S'scaffold14968_cov70'
p1011
aS'scaffold5208_cov124'
p1012
aa(lp1013
S'scaffold33079_cov127'
p1014
aS'scaffold21398_cov73'
p1015
aa(lp1016
S'scaffold45339_cov132'
p1017
aS'scaffold5542_cov64'
p1018
aa(lp1019
S'scaffold37263_cov117'
p1020
aS'scaffold4202_cov67'
p1021
a(lp1022
I1
a(lp1023
F0.0
aaI9
aa(lp1024
I1
a(lp1025
F0.0
aaI8
aa(lp1026
I1
a(lp1027
F0.0
aaI8
aa(lp1028
I1
a(lp1029
F0.0
aaI10
aa(lp1030
I1
a(lp1031
F0.0
aaI14
aa(lp1032
I1
a(lp1033
F0.0
aaI15
aa(lp1034
I1
a(lp1035
F0.0
aaI20
aaa(lp1036
S'scaffold62223_cov138'
p1037
aS'scaffold41553_cov82'
p1038
aa(lp1039
S'scaffold167537_cov112'
p1040
aS'scaffold540_cov68'
p1041
a(lp1042
I1
a(lp1043
F0.285714
aaI14
aaa(lp1044
S'scaffold1030_cov88'
p1045
aS'scaffold20924_cov70'
p1046
aa(lp1047
S'scaffold9303_cov137'
p1048
aS'scaffold3018_cov62'
p1049
aa(lp1050
S'scaffold28224_cov147'
p1051
aS'scaffold166774_cov71'
p1052
a(lp1053
I1
a(lp1054
F0.0
aaI15
aaa(lp1055
S'scaffold165413_cov124'
p1056
aS'scaffold1323_cov67'
p1057
aa(lp1058
S'scaffold1637_cov151'
p1059
aS'scaffold20670_cov68'
p1060
a(lp1061
I1
a(lp1062
F0.0
aaI4
aaa(lp1063
S'scaffold36067_cov121'
p1064
aS'scaffold10421_cov69'
p1065
aa(lp1066
S'scaffold9037_cov132'
p1067
aS'scaffold7705_cov77'
p1068
aa(lp1069
S'scaffold38008_cov141'
p1070
aS'scaffold5960_cov65'
p1071
a(lp1072
I1
a(lp1073
F0.0
aaI12
aa(lp1074
I1
a(lp1075
F0.0
aaI23
aaa(lp1076
S'scaffold7174_cov138'
p1077
aS'scaffold2501_cov70'
p1078
aa(lp1079
S'scaffold7264_cov122'
p1080
aS'scaffold10275_cov68'
p1081
aa(lp1082
S'scaffold25662_cov161'
p1083
aS'scaffold25660_cov79'
p1084
aa(lp1085
S'scaffold3559_cov143'
p1086
aS'scaffold9683_cov69'
p1087
a(lp1088
I1
a(lp1089
F0.0
aaI18
aaa(lp1090
S'scaffold25492_cov142'
p1091
aS'scaffold24079_cov69'
p1092
a(lp1093
I1
a(lp1094
F0.238095
aaI21
aaa(lp1095
S'scaffold167535_cov101'
p1096
aS'scaffold18420_cov96'
p1097
a(lp1098
I1
a(lp1099
F0.0
aaI15
aaa(lp1100
S'scaffold51750_cov85'
p1101
aS'scaffold39128_cov65'
p1102
aa(lp1103
S'scaffold9703_cov100'
p1104
aS'scaffold166756_cov71'
p1105
a(lp1106
I1
a(lp1107
F0.307692
aaI26
aaa(lp1108
S'scaffold12601_cov106'
p1109
aS'scaffold12765_cov63'
p1110
a(lp1111
I1
a(lp1112
F0.230769
aaI26
aa(lp1113
I1
a(lp1114
F0.25
aaI24
aa(lp1115
I1
a(lp1116
F0.25
aaI28
aaa(lp1117
S'scaffold4941_cov130'
p1118
aS'scaffold29738_cov68'
p1119
aa(lp1120
S'scaffold9324_cov148'
p1121
aS'scaffold9325_cov63'
p1122
aa(lp1123
S'scaffold1929_cov135'
p1124
aS'scaffold9933_cov110'
p1125
a(lp1126
I1
a(lp1127
F0.0
aaI16
aa(lp1128
I1
a(lp1129
F0.0
aaI16
aaa(lp1130
S'scaffold29312_cov132'
p1131
aS'scaffold9996_cov69'
p1132
aa(lp1133
S'scaffold17051_cov101'
p1134
aS'scaffold2939_cov64'
p1135
aa(lp1136
S'scaffold10858_cov149'
p1137
aS'scaffold10857_cov70'
p1138
a(lp1139
I1
a(lp1140
F0.2
aaI30
aaa(lp1141
S'scaffold43497_cov152'
p1142
aS'scaffold48022_cov63'
p1143
aa(lp1144
S'scaffold35435_cov126'
p1145
aS'scaffold9757_cov95'
p1146
a(lp1147
I1
a(lp1148
F0.380952
aaI21
aaa(lp1149
S'scaffold6824_cov114'
p1150
aS'scaffold542_cov70'
p1151
a(lp1152
I1
a(lp1153
F0.785714
aaI14
aa(lp1154
I1
a(lp1155
F0.0
aaI16
aaa(lp1156
S'scaffold10713_cov124'
p1157
aS'scaffold4604_cov80'
p1158
a(lp1159
I1
a(lp1160
F0.0
aaI12
aaa(lp1161
S'scaffold21338_cov100'
p1162
aS'scaffold8647_cov65'
p1163
a(lp1164
I1
a(lp1165
F0.0
aaI20
aaa(lp1166
S'scaffold18416_cov135'
p1167
aS'scaffold16862_cov66'
p1168
aa(lp1169
S'scaffold17874_cov144'
p1170
aS'scaffold38164_cov70'
p1171
aa(lp1172
S'scaffold19924_cov91'
p1173
aS'scaffold10385_cov64'
p1174
aa(lp1175
S'scaffold1491_cov109'
p1176
aS'scaffold3256_cov68'
p1177
a(lp1178
I1
a(lp1179
F0.259259
aaI27
aa(lp1180
I1
a(lp1181
F0.210526
aaI19
aa(lp1182
I1
a(lp1183
F0.0
aaI25
aa(lp1184
I1
a(lp1185
F0.238095
aaI21
aa(lp1186
I1
a(lp1187
F0.259259
aaI27
aa(lp1188
I1
a(lp1189
F0.548387
aaI31
aa(lp1190
I1
a(lp1191
F0.346154
aaI52
aaa(lp1192
S'scaffold167598_cov96'
p1193
aS'scaffold7183_cov82'
p1194
a(lp1195
I1
a(lp1196
F0.615385
aaI13
aa(lp1197
I1
a(lp1198
F0.3
aaI10
aaa(lp1199
S'scaffold3807_cov105'
p1200
aS'scaffold3967_cov66'
p1201
aa(lp1202
S'scaffold8993_cov67'
p1203
aS'scaffold12335_cov66'
p1204
a(lp1205
I1
a(lp1206
F0.0
aaI6
aa(lp1207
I1
a(lp1208
F0.0
aaI7
aa(lp1209
I1
a(lp1210
F0.0
aaI6
aa(lp1211
I1
a(lp1212
F0.0
aaI7
aa(lp1213
I1
a(lp1214
F0.0
aaI5
aa(lp1215
I1
a(lp1216
F0.0
aaI3
aa(lp1217
I1
a(lp1218
F0.0
aaI6
aa(lp1219
I1
a(lp1220
F0.0
aaI8
aa(lp1221
I1
a(lp1222
F0.0
aaI9
aa(lp1223
I1
a(lp1224
F0.0
aaI9
aa(lp1225
I1
a(lp1226
F0.0
aaI9
aa(lp1227
I1
a(lp1228
F0.0
aaI4
aa(lp1229
I1
a(lp1230
F0.0
aaI2
aa(lp1231
I1
a(lp1232
F0.0
aaI3
aa(lp1233
I1
a(lp1234
F0.0
aaI3
aa(lp1235
I1
a(lp1236
F0.0
aaI2
aa(lp1237
I1
a(lp1238
F0.0
aaI2
aa(lp1239
I1
a(lp1240
F0.0
aaI2
aa(lp1241
I1
a(lp1242
F0.0
aaI7
aa(lp1243
I1
a(lp1244
F0.0
aaI6
aa(lp1245
I1
a(lp1246
F0.0
aaI5
aa(lp1247
I1
a(lp1248
F0.0
aaI2
aa(lp1249
I1
a(lp1250
F0.0
aaI2
aa(lp1251
I1
a(lp1252
F0.666667
aaI6
aa(lp1253
I1
a(lp1254
F0.0
aaI2
aa(lp1255
I1
a(lp1256
F0.0
aaI4
aa(lp1257
I1
a(lp1258
F0.0
aaI7
aaa(lp1259
S'scaffold182819_cov255'
p1260
aS'scaffold2675_cov72'
p1261
aa(lp1262
S'scaffold1354_cov130'
p1263
aS'scaffold8335_cov68'
p1264
a(lp1265
I1
a(lp1266
F0.0
aaI12
aaa(lp1267
S'scaffold10215_cov75'
p1268
aS'scaffold16998_cov67'
p1269
aa(lp1270
S'scaffold77207_cov117'
p1271
aS'scaffold43353_cov68'
p1272
aa(lp1273
S'scaffold36663_cov134'
p1274
aS'scaffold75670_cov64'
p1275
aa(lp1276
S'scaffold8548_cov121'
p1277
aS'scaffold9073_cov65'
p1278
aa(lp1279
S'scaffold843_cov127'
p1280
aS'scaffold844_cov69'
p1281
aa(lp1282
S'scaffold6481_cov91'
p1283
aS'scaffold47796_cov64'
p1284
a(lp1285
I1
a(lp1286
F0.0
aaI22
aa(lp1287
I1
a(lp1288
F0.0
aaI10
aaa(lp1289
S'scaffold10670_cov88'
p1290
aS'scaffold7453_cov60'
p1291
aa(lp1292
S'scaffold18914_cov65'
p1293
aS'scaffold18912_cov140'
p1294
a(lp1295
I1
a(lp1296
F0.2
aaI10
aaa(lp1297
S'scaffold3349_cov142'
p1298
aS'scaffold5670_cov74'
p1299
aa(lp1300
S'scaffold2048_cov125'
p1301
aS'scaffold7977_cov71'
p1302
a(lp1303
I1
a(lp1304
F0.0
aaI13
aaa(lp1305
S'scaffold11204_cov106'
p1306
aS'scaffold30140_cov63'
p1307
a(lp1308
I1
a(lp1309
F0.0
aaI12
aa(lp1310
I1
a(lp1311
F0.0
aaI12
aa(lp1312
I1
a(lp1313
F0.0
aaI12
aa(lp1314
I2
a(lp1315
F0.6
aF0.4
aaI5
aa(lp1316
I1
a(lp1317
F0.0
aaI2
aa(lp1318
I1
a(lp1319
F0.0
aaI4
aa(lp1320
I1
a(lp1321
F0.0
aaI10
aaa(lp1322
S'scaffold167504_cov85'
p1323
aS'scaffold17931_cov63'
p1324
a(lp1325
I1
a(lp1326
F0.2
aaI20
aa(lp1327
I1
a(lp1328
F0.238095
aaI21
aaa(lp1329
S'scaffold14572_cov90'
p1330
aS'scaffold4478_cov68'
p1331
a(lp1332
I1
a(lp1333
F0.2
aaI10
aaa(lp1334
S'scaffold6426_cov139'
p1335
aS'scaffold6427_cov67'
p1336
aa(lp1337
S'scaffold165417_cov143'
p1338
aS'scaffold16672_cov63'
p1339
aa(lp1340
S'scaffold36663_cov134'
p1341
aS'scaffold30167_cov70'
p1342
a(lp1343
I1
a(lp1344
F0.333333
aaI12
aa(lp1345
I1
a(lp1346
F0.307692
aaI13
aa(lp1347
I1
a(lp1348
F0.555556
aaI27
aaa(lp1349
S'scaffold18584_cov139'
p1350
aS'scaffold15986_cov63'
p1351
aa(lp1352
S'scaffold73411_cov102'
p1353
aS'scaffold25947_cov73'
p1354
aa(lp1355
S'scaffold14567_cov126'
p1356
aS'scaffold42400_cov69'
p1357
a(lp1358
I1
a(lp1359
F0.230769
aaI13
aa(lp1360
I1
a(lp1361
F0.2
aaI10
aaa(lp1362
S'scaffold6704_cov127'
p1363
aS'scaffold6524_cov65'
p1364
aa(lp1365
S'scaffold18457_cov115'
p1366
aS'scaffold32162_cov89'
p1367
a(lp1368
I1
a(lp1369
F0.0
aaI10
aa(lp1370
I1
a(lp1371
F0.333333
aaI36
aa(lp1372
I1
a(lp1373
F0.257143
aaI35
aa(lp1374
I1
a(lp1375
F0.307692
aaI26
aa(lp1376
I1
a(lp1377
F0.291667
aaI24
aa(lp1378
I1
a(lp1379
F0.296296
aaI27
aaa(lp1380
S'scaffold56505_cov129'
p1381
aS'scaffold60_cov119'
p1382
aa(lp1383
S'scaffold1978_cov92'
p1384
aS'scaffold2699_cov70'
p1385
a(lp1386
I1
a(lp1387
F0.0
aaI9
aa(lp1388
I1
a(lp1389
F0.647059
aaI34
aa(lp1390
I1
a(lp1391
F0.380952
aaI21
aa(lp1392
I1
a(lp1393
F0.0
aaI20
aa(lp1394
I1
a(lp1395
F0.0
aaI12
aa(lp1396
I1
a(lp1397
F0.4375
aaI32
aa(lp1398
I1
a(lp1399
F0.37931
aaI29
aa(lp1400
I1
a(lp1401
F0.5
aaI40
aaa(lp1402
S'scaffold43863_cov126'
p1403
aS'scaffold7672_cov74'
p1404
a(lp1405
I1
a(lp1406
F0.375
aaI16
aa(lp1407
I1
a(lp1408
F0.542857
aaI35
aa(lp1409
I1
a(lp1410
F0.2
aaI15
aa(lp1411
I1
a(lp1412
F0.208333
aaI24
aa(lp1413
I1
a(lp1414
F0.566667
aaI30
aa(lp1415
I1
a(lp1416
F0.444444
aaI27
aa(lp1417
I1
a(lp1418
F0.238095
aaI21
aa(lp1419
I1
a(lp1420
F0.208333
aaI24
aa(lp1421
I1
a(lp1422
F0.25
aaI16
aa(lp1423
I1
a(lp1424
F0.409091
aaI22
aa(lp1425
I1
a(lp1426
F0.444444
aaI18
aa(lp1427
I1
a(lp1428
F0.3125
aaI16
aa(lp1429
I1
a(lp1430
F0.444444
aaI27
aaa(lp1431
S'scaffold10581_cov98'
p1432
aS'scaffold17516_cov69'
p1433
a(lp1434
I1
a(lp1435
F0.210526
aaI19
aa(lp1436
I1
a(lp1437
F0.0
aaI11
aa(lp1438
I1
a(lp1439
F0.0
aaI10
aa(lp1440
I1
a(lp1441
F0.0
aaI11
aa(lp1442
I1
a(lp1443
F0.0
aaI13
aa(lp1444
I1
a(lp1445
F0.0
aaI10
aa(lp1446
I1
a(lp1447
F0.0
aaI21
aa(lp1448
I1
a(lp1449
F0.5
aaI28
aa(lp1450
I1
a(lp1451
F0.275862
aaI29
aa(lp1452
I1
a(lp1453
F0.323529
aaI34
aa(lp1454
I1
a(lp1455
F0.294118
aaI34
aa(lp1456
I1
a(lp1457
F0.230769
aaI26
aaa(lp1458
S'scaffold4107_cov90'
p1459
aS'scaffold6409_cov65'
p1460
aa(lp1461
S'scaffold165573_cov134'
p1462
aS'scaffold6928_cov65'
p1463
aa(lp1464
S'scaffold721_cov134'
p1465
aS'scaffold720_cov79'
p1466
aa(lp1467
S'scaffold18542_cov139'
p1468
aS'scaffold26015_cov66'
p1469
aa(lp1470
S'scaffold4321_cov104'
p1471
aS'scaffold9387_cov68'
p1472
a(lp1473
I1
a(lp1474
F0.0
aaI6
aa(lp1475
I1
a(lp1476
F0.230769
aaI13
aa(lp1477
I1
a(lp1478
F0.2
aaI15
aaa(lp1479
S'scaffold167650_cov100'
p1480
aS'scaffold21768_cov66'
p1481
a(lp1482
I1
a(lp1483
F0.0
aaI11
aa(lp1484
I1
a(lp1485
F0.0
aaI11
aa(lp1486
I1
a(lp1487
F0.0
aaI10
aaa(lp1488
S'scaffold34203_cov139'
p1489
aS'scaffold18396_cov65'
p1490
a(lp1491
I1
a(lp1492
F0.2
aaI15
aaa(lp1493
S'scaffold3745_cov115'
p1494
aS'scaffold7430_cov66'
p1495
a(lp1496
I1
a(lp1497
F0.372093
aaI43
aa(lp1498
I1
a(lp1499
F0.291667
aaI24
aa(lp1500
I1
a(lp1501
F0.222222
aaI36
aa(lp1502
I1
a(lp1503
F0.34375
aaI32
aa(lp1504
I1
a(lp1505
F0.289474
aaI38
aaa(lp1506
S'scaffold181240_cov148'
p1507
aS'scaffold59620_cov74'
p1508
a(lp1509
I1
a(lp1510
F0.0
aaI6
aaa(lp1511
S'scaffold27354_cov105'
p1512
aS'scaffold16165_cov73'
p1513
aa(lp1514
S'scaffold46909_cov63'
p1515
aS'scaffold11928_cov70'
p1516
aa(lp1517
S'scaffold11499_cov143'
p1518
aS'scaffold19165_cov65'
p1519
aa(lp1520
S'scaffold1497_cov69'
p1521
aS'scaffold167515_cov69'
p1522
aa(lp1523
S'scaffold11274_cov111'
p1524
aS'scaffold2804_cov69'
p1525
a(lp1526
I1
a(lp1527
F0.0
aaI2
aa(lp1528
I1
a(lp1529
F0.0
aaI2
aa(lp1530
I1
a(lp1531
F0.0
aaI6
aa(lp1532
I1
a(lp1533
F0.0
aaI8
aa(lp1534
I1
a(lp1535
F0.866667
aaI15
aa(lp1536
I1
a(lp1537
F0.0
aaI2
aa(lp1538
I1
a(lp1539
F0.0
aaI2
aa(lp1540
I1
a(lp1541
F0.0
aaI2
aa(lp1542
I1
a(lp1543
F0.0
aaI2
aa(lp1544
I1
a(lp1545
F0.0
aaI2
aaa(lp1546
S'scaffold73058_cov93'
p1547
aS'scaffold5775_cov75'
p1548
a(lp1549
I1
a(lp1550
F0.28
aaI25
aa(lp1551
I1
a(lp1552
F0.26087
aaI23
aa(lp1553
I1
a(lp1554
F0.25
aaI28
aa(lp1555
I1
a(lp1556
F0.5
aaI32
aa(lp1557
I1
a(lp1558
F0.37037
aaI27
aa(lp1559
I1
a(lp1560
F0.37931
aaI29
aa(lp1561
I1
a(lp1562
F0.407407
aaI27
aa(lp1563
I1
a(lp1564
F0.222222
aaI18
aa(lp1565
I1
a(lp1566
F0.363636
aaI22
aaa(lp1567
S'scaffold12892_cov134'
p1568
aS'scaffold47938_cov75'
p1569
aa(lp1570
S'scaffold4939_cov152'
p1571
aS'scaffold4940_cov72'
p1572
aa(lp1573
S'scaffold13862_cov109'
p1574
aS'scaffold8878_cov69'
p1575
aa(lp1576
S'scaffold166331_cov132'
p1577
aS'scaffold8565_cov73'
p1578
aa(lp1579
S'scaffold14578_cov124'
p1580
aS'scaffold14579_cov112'
p1581
a(lp1582
I1
a(lp1583
F0.208333
aaI24
aa(lp1584
I1
a(lp1585
F0.25
aaI24
aa(lp1586
I1
a(lp1587
F0.25
aaI24
aa(lp1588
I1
a(lp1589
F0.285714
aaI21
aaa(lp1590
S'scaffold26431_cov130'
p1591
aS'scaffold15686_cov66'
p1592
aa(lp1593
S'scaffold9117_cov151'
p1594
aS'scaffold9115_cov70'
p1595
aa(lp1596
S'scaffold1006_cov111'
p1597
aS'scaffold1003_cov64'
p1598
aa(lp1599
S'scaffold5572_cov101'
p1600
aS'scaffold7298_cov66'
p1601
a(lp1602
I1
a(lp1603
F0.2
aaI10
aaa(lp1604
S'scaffold14527_cov64'
p1605
aS'scaffold1873_cov63'
p1606
aa(lp1607
S'scaffold19598_cov123'
p1608
aS'scaffold12870_cov60'
p1609
aa(lp1610
S'scaffold57805_cov71'
p1611
aS'scaffold166809_cov123'
p1612
aa(lp1613
S'scaffold25966_cov129'
p1614
aS'scaffold20513_cov68'
p1615
a(lp1616
I1
a(lp1617
F0.272727
aaI22
aaa(lp1618
S'scaffold6206_cov112'
p1619
aS'scaffold19927_cov67'
p1620
aa(lp1621
S'scaffold1808_cov87'
p1622
aS'scaffold18178_cov78'
p1623
aa(lp1624
S'scaffold4678_cov116'
p1625
aS'scaffold46295_cov125'
p1626
aa(lp1627
S'scaffold20825_cov153'
p1628
aS'scaffold20824_cov72'
p1629
a(lp1630
I1
a(lp1631
F0.235294
aaI17
aa(lp1632
I1
a(lp1633
F0.222222
aaI18
aa(lp1634
I1
a(lp1635
F0.210526
aaI19
aa(lp1636
I1
a(lp1637
F0.5
aaI14
aa(lp1638
I1
a(lp1639
F0.4375
aaI16
aa(lp1640
I1
a(lp1641
F0.35
aaI20
aa(lp1642
I1
a(lp1643
F0.26087
aaI23
aaa(lp1644
S'scaffold94664_cov148'
p1645
aS'scaffold11692_cov72'
p1646
aa(lp1647
S'scaffold15386_cov80'
p1648
aS'scaffold23731_cov68'
p1649
aa(lp1650
S'scaffold45520_cov151'
p1651
aS'scaffold45518_cov71'
p1652
aa(lp1653
S'scaffold1071_cov92'
p1654
aS'scaffold49421_cov62'
p1655
a(lp1656
I1
a(lp1657
F0.388889
aaI18
aaa(lp1658
S'scaffold3432_cov123'
p1659
aS'scaffold3406_cov67'
p1660
a(lp1661
I1
a(lp1662
F0.304348
aaI23
aa(lp1663
I1
a(lp1664
F0.333333
aaI24
aa(lp1665
I1
a(lp1666
F0.428571
aaI28
aa(lp1667
I1
a(lp1668
F0.607143
aaI28
aa(lp1669
I1
a(lp1670
F0.230769
aaI13
aa(lp1671
I1
a(lp1672
F0.354839
aaI31
aa(lp1673
I1
a(lp1674
F0.272727
aaI33
aa(lp1675
I1
a(lp1676
F0.28125
aaI32
aa(lp1677
I1
a(lp1678
F0.264706
aaI34
aaa(lp1679
S'scaffold12003_cov68'
p1680
aS'scaffold12001_cov141'
p1681
a(lp1682
I1
a(lp1683
F0.0
aaI9
aaa(lp1684
S'scaffold5456_cov152'
p1685
aS'scaffold67160_cov58'
p1686
aa(lp1687
S'scaffold166729_cov102'
p1688
aS'scaffold165425_cov72'
p1689
a(lp1690
I1
a(lp1691
F0.0
aaI9
aaa(lp1692
S'scaffold21534_cov145'
p1693
aS'scaffold21531_cov67'
p1694
aa(lp1695
S'scaffold9312_cov104'
p1696
aS'scaffold35511_cov69'
p1697
a(lp1698
I1
a(lp1699
F0.0
aaI12
aa(lp1700
I1
a(lp1701
F0.0
aaI12
aaa(lp1702
S'scaffold55111_cov144'
p1703
aS'scaffold55112_cov70'
p1704
aa(lp1705
S'scaffold25594_cov137'
p1706
aS'scaffold19109_cov84'
p1707
a(lp1708
I1
a(lp1709
F0.447368
aaI38
aa(lp1710
I1
a(lp1711
F0.25
aaI60
aa(lp1712
I1
a(lp1713
F0.258065
aaI62
aaa(lp1714
S'scaffold33902_cov94'
p1715
aS'scaffold8504_cov71'
p1716
aa(lp1717
S'scaffold27219_cov142'
p1718
aS'scaffold16554_cov65'
p1719
aa(lp1720
S'scaffold165434_cov141'
p1721
aS'scaffold29886_cov66'
p1722
a(lp1723
I1
a(lp1724
F0.0
aaI8
aa(lp1725
I1
a(lp1726
F0.419355
aaI31
aa(lp1727
I1
a(lp1728
F0.2
aaI15
aa(lp1729
I1
a(lp1730
F0.294118
aaI17
aa(lp1731
I1
a(lp1732
F0.0
aaI18
aaa(lp1733
S'scaffold1435_cov93'
p1734
aS'scaffold4122_cov62'
p1735
a(lp1736
I1
a(lp1737
F0.0
aaI4
aa(lp1738
I1
a(lp1739
F0.0
aaI11
aa(lp1740
I1
a(lp1741
F0.36
aaI25
aa(lp1742
I1
a(lp1743
F0.0
aaI12
aaa(lp1744
S'scaffold11842_cov94'
p1745
aS'scaffold158_cov68'
p1746
a(lp1747
I1
a(lp1748
F0.0
aaI15
aaa(lp1749
S'scaffold34153_cov147'
p1750
aS'scaffold48213_cov76'
p1751
aa(lp1752
S'scaffold141950_cov79'
p1753
aS'scaffold9327_cov109'
p1754
aa(lp1755
S'scaffold7481_cov74'
p1756
aS'scaffold89446_cov79'
p1757
aa(lp1758
S'scaffold5399_cov135'
p1759
aS'scaffold14003_cov64'
p1760
aa(lp1761
S'scaffold63014_cov63'
p1762
aS'scaffold35689_cov78'
p1763
aa(lp1764
S'scaffold16608_cov151'
p1765
aS'scaffold117332_cov60'
p1766
aa(lp1767
S'scaffold165470_cov102'
p1768
aS'scaffold48928_cov92'
p1769
a(lp1770
I1
a(lp1771
F0.0
aaI8
aa(lp1772
I1
a(lp1773
F0.0
aaI18
aa(lp1774
I1
a(lp1775
F0.0
aaI13
aaa(lp1776
S'scaffold5433_cov148'
p1777
aS'scaffold4791_cov68'
p1778
a(lp1779
I1
a(lp1780
F0.0
aaI15
aa(lp1781
I1
a(lp1782
F0.0
aaI9
aa(lp1783
I1
a(lp1784
F0.0
aaI9
aa(lp1785
I1
a(lp1786
F0.0
aaI8
aa(lp1787
I1
a(lp1788
F0.0
aaI6
aa(lp1789
I1
a(lp1790
F0.0
aaI4
aa(lp1791
I1
a(lp1792
F0.714286
aaI7
aaa(lp1793
S'scaffold16606_cov107'
p1794
aS'scaffold42581_cov70'
p1795
a(lp1796
I1
a(lp1797
F0.384615
aaI13
aa(lp1798
I1
a(lp1799
F0.333333
aaI15
aa(lp1800
I1
a(lp1801
F0.380952
aaI21
aa(lp1802
I1
a(lp1803
F0.347826
aaI23
aa(lp1804
I1
a(lp1805
F0.208333
aaI24
aa(lp1806
I1
a(lp1807
F0.217391
aaI23
aa(lp1808
I1
a(lp1809
F0.24
aaI25
aa(lp1810
I1
a(lp1811
F0.238095
aaI21
aa(lp1812
I1
a(lp1813
F0.266667
aaI15
aa(lp1814
I1
a(lp1815
F0.210526
aaI19
aa(lp1816
I1
a(lp1817
F0.222222
aaI18
aa(lp1818
I1
a(lp1819
F0.277778
aaI18
aa(lp1820
I1
a(lp1821
F0.0
aaI20
aaa(lp1822
S'scaffold2507_cov119'
p1823
aS'scaffold414_cov67'
p1824
a(lp1825
I1
a(lp1826
F0.0
aaI10
aa(lp1827
I1
a(lp1828
F0.3
aaI20
aa(lp1829
I1
a(lp1830
F0.357143
aaI14
aaa(lp1831
S'scaffold6378_cov134'
p1832
aS'scaffold6379_cov64'
p1833
a(lp1834
I1
a(lp1835
F0.0
aaI6
aa(lp1836
I1
a(lp1837
F0.0
aaI9
aa(lp1838
I1
a(lp1839
F0.0
aaI6
aa(lp1840
I1
a(lp1841
F0.0
aaI13
aa(lp1842
I1
a(lp1843
F0.0
aaI14
aa(lp1844
I1
a(lp1845
F0.0
aaI14
aa(lp1846
I1
a(lp1847
F0.0
aaI15
aa(lp1848
I1
a(lp1849
F0.0
aaI14
aa(lp1850
I1
a(lp1851
F0.0
aaI14
aa(lp1852
I1
a(lp1853
F0.230769
aaI26
aa(lp1854
I1
a(lp1855
F0.25
aaI12
aa(lp1856
I1
a(lp1857
F0.363636
aaI11
aa(lp1858
I1
a(lp1859
F0.368421
aaI19
aaa(lp1860
S'scaffold34705_cov67'
p1861
aS'scaffold104_cov67'
p1862
aa(lp1863
S'scaffold7224_cov118'
p1864
aS'scaffold775_cov72'
p1865
a(lp1866
I1
a(lp1867
F0.210526
aaI19
aa(lp1868
I1
a(lp1869
F0.210526
aaI19
aa(lp1870
I1
a(lp1871
F0.222222
aaI18
aa(lp1872
I1
a(lp1873
F0.2
aaI20
aa(lp1874
I1
a(lp1875
F0.222222
aaI18
aa(lp1876
I1
a(lp1877
F0.238095
aaI21
aa(lp1878
I1
a(lp1879
F0.217391
aaI23
aaa(lp1880
S'scaffold6055_cov140'
p1881
aS'scaffold30423_cov65'
p1882
aa(lp1883
S'scaffold213265_cov125'
p1884
aS'scaffold13885_cov142'
p1885
aa(lp1886
S'scaffold178103_cov209'
p1887
aS'scaffold16632_cov63'
p1888
a(lp1889
I1
a(lp1890
F0.5
aaI32
aaa(lp1891
S'scaffold36163_cov117'
p1892
aS'scaffold6928_cov65'
p1893
a(lp1894
I1
a(lp1895
F0.366667
aaI30
aaa(lp1896
S'scaffold279_cov75'
p1897
aS'scaffold7438_cov111'
p1898
a(lp1899
I1
a(lp1900
F0.238095
aaI21
aa(lp1901
I1
a(lp1902
F0.238095
aaI21
aa(lp1903
I1
a(lp1904
F0.208333
aaI24
aa(lp1905
I1
a(lp1906
F0.208333
aaI24
aa(lp1907
I1
a(lp1908
F0.230769
aaI26
aa(lp1909
I1
a(lp1910
F0.230769
aaI26
aa(lp1911
I1
a(lp1912
F0.230769
aaI26
aa(lp1913
I1
a(lp1914
F0.25
aaI20
aaa(lp1915
S'scaffold167503_cov98'
p1916
aS'scaffold7473_cov63'
p1917
a(lp1918
I1
a(lp1919
F0.314286
aaI105
aa(lp1920
I1
a(lp1921
F0.384615
aaI52
aa(lp1922
I1
a(lp1923
F0.272727
aaI44
aa(lp1924
I1
a(lp1925
F0.2
aaI15
aaa(lp1926
S'scaffold1316_cov119'
p1927
aS'scaffold5085_cov79'
p1928
a(lp1929
I1
a(lp1930
F0.518519
aaI27
aa(lp1931
I1
a(lp1932
F0.0
aaI13
aa(lp1933
I1
a(lp1934
F0.0
aaI21
aa(lp1935
I1
a(lp1936
F0.0
aaI17
aa(lp1937
I1
a(lp1938
F0.285714
aaI14
aa(lp1939
I1
a(lp1940
F0.235294
aaI17
aa(lp1941
I1
a(lp1942
F0.214286
aaI14
aa(lp1943
I1
a(lp1944
F0.4
aaI25
aa(lp1945
I1
a(lp1946
F0.346154
aaI26
aa(lp1947
I1
a(lp1948
F0.538462
aaI13
aa(lp1949
I1
a(lp1950
F0.615385
aaI13
aaa(lp1951
S'scaffold17086_cov103'
p1952
aS'scaffold17615_cov61'
p1953
aa(lp1954
S'scaffold14104_cov135'
p1955
aS'scaffold22906_cov63'
p1956
aa(lp1957
S'scaffold107607_cov79'
p1958
aS'scaffold107606_cov134'
p1959
aa(lp1960
S'scaffold164980_cov146'
p1961
aS'scaffold3955_cov67'
p1962
a(lp1963
I1
a(lp1964
F0.0
aaI10
aaa(lp1965
S'scaffold21352_cov62'
p1966
aS'scaffold78461_cov65'
p1967
aa(lp1968
S'scaffold22791_cov67'
p1969
aS'scaffold22793_cov63'
p1970
aa(lp1971
S'scaffold5694_cov90'
p1972
aS'scaffold21004_cov60'
p1973
a(lp1974
I1
a(lp1975
F0.0
aaI2
aaa(lp1976
S'scaffold12318_cov65'
p1977
aS'scaffold10298_cov88'
p1978
aa(lp1979
S'scaffold23855_cov65'
p1980
aS'scaffold8620_cov63'
p1981
aa(lp1982
S'scaffold1518_cov144'
p1983
aS'scaffold7273_cov73'
p1984
aa(lp1985
S'scaffold8421_cov73'
p1986
aS'scaffold7098_cov89'
p1987
a(lp1988
I1
a(lp1989
F0.32
aaI25
aaa(lp1990
S'scaffold3714_cov147'
p1991
aS'scaffold3718_cov71'
p1992
aa(lp1993
S'scaffold20332_cov97'
p1994
aS'scaffold7080_cov68'
p1995
a(lp1996
I1
a(lp1997
F0.0
aaI9
aa(lp1998
I1
a(lp1999
F0.214286
aaI14
aaa(lp2000
S'scaffold49078_cov128'
p2001
aS'scaffold54587_cov60'
p2002
aa(lp2003
S'scaffold10475_cov143'
p2004
aS'scaffold10474_cov65'
p2005
a(lp2006
I1
a(lp2007
F1.0
aaI4
aaa(lp2008
S'scaffold6306_cov146'
p2009
aS'scaffold6305_cov69'
p2010
aa(lp2011
S'scaffold1865_cov101'
p2012
aS'scaffold58306_cov63'
p2013
aa(lp2014
S'scaffold11499_cov143'
p2015
aS'scaffold11874_cov70'
p2016
aa(lp2017
S'scaffold34203_cov139'
p2018
aS'scaffold15986_cov63'
p2019
aa(lp2020
S'scaffold4589_cov98'
p2021
aS'scaffold4585_cov69'
p2022
aa(lp2023
S'scaffold2767_cov75'
p2024
aS'scaffold9955_cov79'
p2025
aa(lp2026
S'scaffold2129_cov167'
p2027
aS'scaffold92330_cov67'
p2028
a(lp2029
I1
a(lp2030
F0.222222
aaI18
aaa(lp2031
S'scaffold34203_cov139'
p2032
aS'scaffold4395_cov68'
p2033
aa(lp2034
S'scaffold10574_cov127'
p2035
aS'scaffold11171_cov138'
p2036
a(lp2037
I1
a(lp2038
F0.333333
aaI6
aa(lp2039
I1
a(lp2040
F0.0
aaI4
aa(lp2041
I1
a(lp2042
F0.5
aaI14
aa(lp2043
I1
a(lp2044
F0.5
aaI14
aaa(lp2045
S'scaffold5348_cov143'
p2046
aS'scaffold91295_cov60'
p2047
aa(lp2048
S'scaffold22816_cov146'
p2049
aS'scaffold22815_cov69'
p2050
aa(lp2051
S'scaffold122298_cov65'
p2052
aS'scaffold122299_cov139'
p2053
aa(lp2054
S'scaffold18351_cov137'
p2055
aS'scaffold16169_cov72'
p2056
a(lp2057
I1
a(lp2058
F0.0
aaI12
aaa(lp2059
S'scaffold15731_cov124'
p2060
aS'scaffold1701_cov70'
p2061
a(lp2062
I1
a(lp2063
F0.208333
aaI24
aa(lp2064
I1
a(lp2065
F0.0
aaI15
aa(lp2066
I1
a(lp2067
F0.0
aaI12
aa(lp2068
I1
a(lp2069
F0.0
aaI14
aa(lp2070
I1
a(lp2071
F0.2
aaI10
aaa(lp2072
S'scaffold1170_cov146'
p2073
aS'scaffold69771_cov67'
p2074
aa(lp2075
S'scaffold3741_cov108'
p2076
aS'scaffold2061_cov67'
p2077
aa(lp2078
S'scaffold1461_cov134'
p2079
aS'scaffold13020_cov66'
p2080
aa(lp2081
S'scaffold16201_cov125'
p2082
aS'scaffold51827_cov73'
p2083
aa(lp2084
S'scaffold6532_cov126'
p2085
aS'scaffold5058_cov63'
p2086
a(lp2087
I1
a(lp2088
F0.277778
aaI36
aaa(lp2089
S'scaffold38959_cov135'
p2090
aS'scaffold57178_cov79'
p2091
a(lp2092
I1
a(lp2093
F0.486486
aaI74
aa(lp2094
I1
a(lp2095
F0.418605
aaI86
aaa(lp2096
S'scaffold17601_cov135'
p2097
aS'scaffold1994_cov63'
p2098
a(lp2099
I1
a(lp2100
F0.0
aaI7
aa(lp2101
I1
a(lp2102
F0.0
aaI6
aa(lp2103
I1
a(lp2104
F0.473684
aaI19
aaa(lp2105
S'scaffold16294_cov110'
p2106
aS'scaffold7481_cov74'
p2107
a(lp2108
I1
a(lp2109
F0.0
aaI11
aa(lp2110
I1
a(lp2111
F0.588235
aaI17
aa(lp2112
I1
a(lp2113
F0.529412
aaI17
aa(lp2114
I1
a(lp2115
F0.529412
aaI17
aa(lp2116
I1
a(lp2117
F0.6
aaI15
aa(lp2118
I1
a(lp2119
F0.4
aaI10
aa(lp2120
I1
a(lp2121
F0.444444
aaI9
aa(lp2122
I1
a(lp2123
F0.4
aaI10
aa(lp2124
I1
a(lp2125
F0.4
aaI10
aa(lp2126
I1
a(lp2127
F0.428571
aaI14
aa(lp2128
I1
a(lp2129
F0.461538
aaI13
aa(lp2130
I1
a(lp2131
F0.5
aaI12
aa(lp2132
I1
a(lp2133
F0.384615
aaI13
aa(lp2134
I1
a(lp2135
F0.466667
aaI15
aa(lp2136
I1
a(lp2137
F0.375
aaI16
aa(lp2138
I1
a(lp2139
F0.428571
aaI14
aa(lp2140
I1
a(lp2141
F0.416667
aaI12
aa(lp2142
I1
a(lp2143
F0.2
aaI30
aa(lp2144
I1
a(lp2145
F0.208333
aaI24
aa(lp2146
I1
a(lp2147
F0.0
aaI11
aa(lp2148
I1
a(lp2149
F0.25
aaI24
aaa(lp2150
S'scaffold31627_cov123'
p2151
aS'scaffold1614_cov71'
p2152
a(lp2153
I1
a(lp2154
F0.2
aaI20
aa(lp2155
I1
a(lp2156
F0.45
aaI20
aa(lp2157
I1
a(lp2158
F0.285714
aaI21
aaa(lp2159
S'scaffold5399_cov135'
p2160
aS'scaffold8409_cov62'
p2161
aa(lp2162
S'scaffold4605_cov69'
p2163
aS'scaffold4604_cov80'
p2164
a(lp2165
I1
a(lp2166
F0.0
aaI9
aaa(lp2167
S'scaffold13624_cov94'
p2168
aS'scaffold72210_cov77'
p2169
aa(lp2170
S'scaffold19315_cov107'
p2171
aS'scaffold7113_cov70'
p2172
aa(lp2173
S'scaffold165629_cov145'
p2174
aS'scaffold33634_cov72'
p2175
aa(lp2176
S'scaffold183201_cov134'
p2177
aS'scaffold6997_cov65'
p2178
aa(lp2179
S'scaffold22010_cov97'
p2180
aS'scaffold401_cov67'
p2181
a(lp2182
I1
a(lp2183
F0.0
aaI12
aaa(lp2184
S'scaffold17015_cov140'
p2185
aS'scaffold4528_cov69'
p2186
aa(lp2187
S'scaffold21453_cov86'
p2188
aS'scaffold4784_cov67'
p2189
aa(lp2190
S'scaffold13852_cov94'
p2191
aS'scaffold7585_cov68'
p2192
a(lp2193
I1
a(lp2194
F0.0
aaI7
aaa(lp2195
S'scaffold8101_cov85'
p2196
aS'scaffold11271_cov65'
p2197
a(lp2198
I1
a(lp2199
F0.24
aaI25
aaa(lp2200
S'scaffold165420_cov139'
p2201
aS'scaffold27291_cov70'
p2202
aa(lp2203
S'scaffold476_cov90'
p2204
aS'scaffold8782_cov64'
p2205
aa(lp2206
S'scaffold9044_cov136'
p2207
aS'scaffold2501_cov70'
p2208
a(lp2209
I1
a(lp2210
F0.333333
aaI33
aa(lp2211
I1
a(lp2212
F0.24
aaI25
aa(lp2213
I1
a(lp2214
F0.285714
aaI28
aa(lp2215
I1
a(lp2216
F0.275862
aaI29
aa(lp2217
I1
a(lp2218
F0.222222
aaI27
aa(lp2219
I1
a(lp2220
F0.2
aaI25
aa(lp2221
I1
a(lp2222
F0.235294
aaI34
aa(lp2223
I1
a(lp2224
F0.28125
aaI32
aaa(lp2225
S'scaffold60916_cov101'
p2226
aS'scaffold2562_cov78'
p2227
a(lp2228
I1
a(lp2229
F0.0
aaI6
aa(lp2230
I1
a(lp2231
F0.0
aaI4
aa(lp2232
I1
a(lp2233
F0.0
aaI4
aaa(lp2234
S'scaffold5694_cov90'
p2235
aS'scaffold6452_cov96'
p2236
a(lp2237
I1
a(lp2238
F0.0
aaI2
aa(lp2239
I1
a(lp2240
F0.5
aaI4
aa(lp2241
I1
a(lp2242
F0.4
aaI5
aa(lp2243
I1
a(lp2244
F0.0
aaI5
aa(lp2245
I1
a(lp2246
F0.0
aaI2
aa(lp2247
I1
a(lp2248
F0.0
aaI24
aa(lp2249
I1
a(lp2250
F0.0
aaI5
aa(lp2251
I1
a(lp2252
F0.0
aaI7
aa(lp2253
I1
a(lp2254
F0.0
aaI10
aa(lp2255
I1
a(lp2256
F0.0
aaI5
aaa(lp2257
S'scaffold4116_cov143'
p2258
aS'scaffold6097_cov70'
p2259
a(lp2260
I1
a(lp2261
F0.222222
aaI9
aaa(lp2262
S'scaffold451_cov146'
p2263
aS'scaffold449_cov70'
p2264
aa(lp2265
S'scaffold167824_cov153'
p2266
aS'scaffold540_cov68'
p2267
aa(lp2268
S'scaffold182_cov83'
p2269
aS'scaffold3533_cov68'
p2270
a(lp2271
I1
a(lp2272
F0.321429
aaI28
aaa(lp2273
S'scaffold167494_cov111'
p2274
aS'scaffold12899_cov60'
p2275
aa(lp2276
S'scaffold3456_cov132'
p2277
aS'scaffold166714_cov62'
p2278
aa(lp2279
S'scaffold37213_cov79'
p2280
aS'scaffold29941_cov91'
p2281
aa(lp2282
S'scaffold183613_cov153'
p2283
aS'scaffold5720_cov71'
p2284
aa(lp2285
S'scaffold7006_cov83'
p2286
aS'scaffold7005_cov65'
p2287
aa(lp2288
S'scaffold10462_cov135'
p2289
aS'scaffold10461_cov66'
p2290
aa(lp2291
S'scaffold5049_cov88'
p2292
aS'scaffold5046_cov63'
p2293
a(lp2294
I1
a(lp2295
F0.0
aaI9
aaa(lp2296
S'scaffold19586_cov139'
p2297
aS'scaffold30711_cov65'
p2298
aa(lp2299
S'scaffold24500_cov65'
p2300
aS'scaffold57197_cov90'
p2301
a(lp2302
I1
a(lp2303
F0.0
aaI2
aa(lp2304
I1
a(lp2305
F0.0
aaI10
aaasS'up'
p2306
(lp2307
(lp2308
g6
ag7
a(lp2309
I1
a(lp2310
F0.636364
aaI22
aa(lp2311
I1
a(lp2312
F0.387097
aaI31
aa(lp2313
I1
a(lp2314
F0.315789
aaI19
aa(lp2315
I1
a(lp2316
F0.5
aaI38
aa(lp2317
I1
a(lp2318
F0.459459
aaI37
aa(lp2319
I1
a(lp2320
F0.416667
aaI24
aa(lp2321
I1
a(lp2322
F0.5
aaI24
aa(lp2323
I1
a(lp2324
F0.235294
aaI17
aa(lp2325
I1
a(lp2326
F0.277778
aaI18
aa(lp2327
I1
a(lp2328
F0.217391
aaI23
aa(lp2329
I1
a(lp2330
F0.206897
aaI29
aa(lp2331
I1
a(lp2332
F0.368421
aaI19
aa(lp2333
I1
a(lp2334
F0.315789
aaI19
aa(lp2335
I1
a(lp2336
F0.375
aaI24
aa(lp2337
I1
a(lp2338
F0.206897
aaI29
aaa(lp2339
g9
ag10
a(lp2340
I1
a(lp2341
F0.36
aaI25
aa(lp2342
I1
a(lp2343
F0.294118
aaI17
aa(lp2344
I1
a(lp2345
F0.243243
aaI37
aa(lp2346
I1
a(lp2347
F0.2
aaI20
aa(lp2348
I1
a(lp2349
F0.310345
aaI29
aaa(lp2350
g12
ag13
aa(lp2351
g15
ag16
a(lp2352
I1
a(lp2353
F0.461538
aaI26
aa(lp2354
I1
a(lp2355
F0.266667
aaI15
aa(lp2356
I1
a(lp2357
F0.266667
aaI15
aaa(lp2358
g18
ag19
aa(lp2359
g53
ag54
a(lp2360
I1
a(lp2361
F0.312808
aaI406
aa(lp2362
I1
a(lp2363
F0.413793
aaI29
aa(lp2364
I1
a(lp2365
F0.0
aaI24
aa(lp2366
I1
a(lp2367
F0.517241
aaI29
aaa(lp2368
g60
ag61
a(lp2369
I1
a(lp2370
F0.214286
aaI28
aa(lp2371
I1
a(lp2372
F0.25
aaI28
aaa(lp2373
g63
ag64
aa(lp2374
g66
ag67
aa(lp2375
g69
ag70
a(lp2376
I1
a(lp2377
F0.567568
aaI37
aa(lp2378
I1
a(lp2379
F0.203704
aaI54
aa(lp2380
I1
a(lp2381
F0.454545
aaI44
aaa(lp2382
g72
ag73
a(lp2383
I1
a(lp2384
F0.227273
aaI22
aaa(lp2385
g75
ag76
aa(lp2386
g78
ag79
a(lp2387
I1
a(lp2388
F0.25
aaI56
aaa(lp2389
g115
ag116
a(lp2390
I1
a(lp2391
F0.2
aaI10
aa(lp2392
I1
a(lp2393
F0.347826
aaI23
aa(lp2394
I1
a(lp2395
F0.272727
aaI22
aa(lp2396
I1
a(lp2397
F0.2
aaI15
aa(lp2398
I1
a(lp2399
F0.266667
aaI15
aa(lp2400
I1
a(lp2401
F0.208333
aaI24
aa(lp2402
I1
a(lp2403
F0.0
aaI29
aaa(lp2404
g122
ag123
a(lp2405
I1
a(lp2406
F0.537037
aaI54
aa(lp2407
I1
a(lp2408
F0.221053
aaI95
aa(lp2409
I1
a(lp2410
F0.276596
aaI94
aa(lp2411
I1
a(lp2412
F0.285714
aaI70
aa(lp2413
I1
a(lp2414
F0.254237
aaI59
aaa(lp2415
g191
ag192
a(lp2416
I1
a(lp2417
F0.527778
aaI36
aa(lp2418
I1
a(lp2419
F0.421053
aaI19
aa(lp2420
I1
a(lp2421
F0.285714
aaI21
aa(lp2422
I1
a(lp2423
F0.285714
aaI21
aa(lp2424
I1
a(lp2425
F0.3
aaI20
aa(lp2426
I1
a(lp2427
F0.357143
aaI28
aaa(lp2428
g196
ag197
a(lp2429
I1
a(lp2430
F0.516129
aaI31
aa(lp2431
I1
a(lp2432
F0.59375
aaI32
aa(lp2433
I1
a(lp2434
F0.6
aaI30
aa(lp2435
I1
a(lp2436
F0.6
aaI30
aa(lp2437
I1
a(lp2438
F0.391304
aaI23
aa(lp2439
I1
a(lp2440
F0.24
aaI25
aa(lp2441
I1
a(lp2442
F0.347826
aaI23
aa(lp2443
I1
a(lp2444
F0.26087
aaI23
aa(lp2445
I1
a(lp2446
F0.538462
aaI26
aa(lp2447
I1
a(lp2448
F0.272727
aaI22
aa(lp2449
I1
a(lp2450
F0.391304
aaI23
aa(lp2451
I1
a(lp2452
F0.363636
aaI22
aa(lp2453
I1
a(lp2454
F0.318182
aaI22
aaa(lp2455
g211
ag212
aa(lp2456
g218
ag219
a(lp2457
I1
a(lp2458
F0.414634
aaI41
aa(lp2459
I1
a(lp2460
F0.304348
aaI23
aa(lp2461
I1
a(lp2462
F0.285714
aaI21
aa(lp2463
I1
a(lp2464
F0.208333
aaI24
aa(lp2465
I1
a(lp2466
F0.275862
aaI29
aa(lp2467
I1
a(lp2468
F0.333333
aaI30
aa(lp2469
I1
a(lp2470
F0.387097
aaI31
aa(lp2471
I1
a(lp2472
F0.2
aaI20
aa(lp2473
I1
a(lp2474
F0.35
aaI20
aa(lp2475
I1
a(lp2476
F0.25
aaI20
aa(lp2477
I1
a(lp2478
F0.277778
aaI18
aa(lp2479
I1
a(lp2480
F0.411765
aaI17
aa(lp2481
I1
a(lp2482
F0.388889
aaI18
aa(lp2483
I1
a(lp2484
F0.35
aaI20
aa(lp2485
I1
a(lp2486
F0.333333
aaI24
aa(lp2487
I1
a(lp2488
F0.25
aaI20
aa(lp2489
I1
a(lp2490
F0.333333
aaI30
aa(lp2491
I1
a(lp2492
F0.275862
aaI29
aa(lp2493
I1
a(lp2494
F0.25
aaI32
aa(lp2495
I1
a(lp2496
F0.448276
aaI29
aaa(lp2497
g225
ag226
a(lp2498
I1
a(lp2499
F0.481481
aaI27
aaa(lp2500
g234
ag235
a(lp2501
I1
a(lp2502
F0.461538
aaI26
aa(lp2503
I1
a(lp2504
F0.291667
aaI24
aaa(lp2505
g241
ag242
aa(lp2506
g244
ag245
aa(lp2507
g247
ag248
aa(lp2508
g250
ag251
aa(lp2509
g271
ag272
a(lp2510
I1
a(lp2511
F0.5
aaI22
aa(lp2512
I1
a(lp2513
F0.384615
aaI26
aa(lp2514
I1
a(lp2515
F0.391304
aaI23
aa(lp2516
I1
a(lp2517
F0.583333
aaI24
aa(lp2518
I1
a(lp2519
F0.310345
aaI29
aa(lp2520
I1
a(lp2521
F0.344828
aaI29
aa(lp2522
I1
a(lp2523
F0.24
aaI25
aa(lp2524
I1
a(lp2525
F0.24
aaI25
aaa(lp2526
g278
ag279
aa(lp2527
g281
ag282
a(lp2528
I1
a(lp2529
F0.461538
aaI26
aa(lp2530
I1
a(lp2531
F0.407407
aaI27
aa(lp2532
I1
a(lp2533
F0.560976
aaI41
aaa(lp2534
g300
ag301
a(lp2535
I1
a(lp2536
F0.387097
aaI31
aa(lp2537
I1
a(lp2538
F0.25
aaI28
aa(lp2539
I1
a(lp2540
F0.233333
aaI30
aa(lp2541
I1
a(lp2542
F0.342857
aaI35
aa(lp2543
I1
a(lp2544
F0.263158
aaI19
aa(lp2545
I1
a(lp2546
F0.375
aaI24
aa(lp2547
I1
a(lp2548
F0.238095
aaI21
aa(lp2549
I1
a(lp2550
F0.545455
aaI33
aa(lp2551
I1
a(lp2552
F0.3125
aaI16
aa(lp2553
I1
a(lp2554
F0.255319
aaI47
aa(lp2555
I1
a(lp2556
F0.214286
aaI42
aa(lp2557
I1
a(lp2558
F0.27027
aaI37
aaa(lp2559
g309
ag310
a(lp2560
I1
a(lp2561
F0.25
aaI20
aa(lp2562
I1
a(lp2563
F0.56
aaI25
aa(lp2564
I1
a(lp2565
F0.457143
aaI35
aa(lp2566
I1
a(lp2567
F0.448276
aaI29
aa(lp2568
I1
a(lp2569
F0.444444
aaI27
aa(lp2570
I1
a(lp2571
F0.48
aaI25
aa(lp2572
I1
a(lp2573
F0.3
aaI30
aa(lp2574
I1
a(lp2575
F0.322581
aaI31
aa(lp2576
I1
a(lp2577
F0.333333
aaI18
aa(lp2578
I1
a(lp2579
F0.333333
aaI18
aaa(lp2580
g312
ag313
a(lp2581
I1
a(lp2582
F0.227273
aaI22
aa(lp2583
I1
a(lp2584
F0.25
aaI28
aa(lp2585
I1
a(lp2586
F0.242424
aaI33
aa(lp2587
I1
a(lp2588
F0.233333
aaI30
aa(lp2589
I1
a(lp2590
F0.357143
aaI28
aa(lp2591
I1
a(lp2592
F0.62963
aaI27
aaa(lp2593
g317
ag318
a(lp2594
I1
a(lp2595
F0.285714
aaI21
aaa(lp2596
g332
ag333
a(lp2597
I1
a(lp2598
F0.423077
aaI26
aaa(lp2599
g335
ag336
aa(lp2600
g338
ag339
a(lp2601
I1
a(lp2602
F0.509804
aaI51
aa(lp2603
I1
a(lp2604
F0.37931
aaI29
aa(lp2605
I1
a(lp2606
F0.35
aaI20
aa(lp2607
I1
a(lp2608
F0.208333
aaI24
aa(lp2609
I1
a(lp2610
F0.238095
aaI21
aa(lp2611
I1
a(lp2612
F0.347826
aaI23
aa(lp2613
I1
a(lp2614
F0.304348
aaI23
aa(lp2615
I1
a(lp2616
F0.363636
aaI11
aa(lp2617
I1
a(lp2618
F0.346154
aaI26
aa(lp2619
I1
a(lp2620
F0.357143
aaI28
aa(lp2621
I1
a(lp2622
F0.3
aaI20
aa(lp2623
I1
a(lp2624
F0.3
aaI20
aa(lp2625
I1
a(lp2626
F0.3
aaI20
aa(lp2627
I1
a(lp2628
F0.222222
aaI18
aaa(lp2629
g341
ag342
a(lp2630
I1
a(lp2631
F0.307692
aaI26
aa(lp2632
I1
a(lp2633
F0.296296
aaI27
aa(lp2634
I1
a(lp2635
F0.28
aaI25
aa(lp2636
I1
a(lp2637
F0.26087
aaI23
aa(lp2638
I1
a(lp2639
F0.25
aaI16
aa(lp2640
I1
a(lp2641
F0.25
aaI16
aa(lp2642
I1
a(lp2643
F0.318182
aaI22
aa(lp2644
I1
a(lp2645
F0.272727
aaI22
aa(lp2646
I1
a(lp2647
F0.285714
aaI21
aa(lp2648
I1
a(lp2649
F0.388889
aaI18
aa(lp2650
I1
a(lp2651
F0.5
aaI18
aaa(lp2652
g344
ag345
a(lp2653
I1
a(lp2654
F0.263158
aaI19
aa(lp2655
I1
a(lp2656
F0.25
aaI20
aa(lp2657
I1
a(lp2658
F0.238095
aaI21
aa(lp2659
I1
a(lp2660
F0.277778
aaI18
aa(lp2661
I1
a(lp2662
F0.217391
aaI23
aa(lp2663
I1
a(lp2664
F0.208333
aaI24
aa(lp2665
I1
a(lp2666
F0.25
aaI20
aa(lp2667
I1
a(lp2668
F0.26087
aaI23
aa(lp2669
I1
a(lp2670
F0.272727
aaI22
aa(lp2671
I1
a(lp2672
F0.25
aaI20
aa(lp2673
I1
a(lp2674
F0.428571
aaI28
aa(lp2675
I1
a(lp2676
F0.392857
aaI28
aa(lp2677
I1
a(lp2678
F0.571429
aaI21
aa(lp2679
I1
a(lp2680
F0.645161
aaI31
aa(lp2681
I1
a(lp2682
F0.694444
aaI36
aa(lp2683
I1
a(lp2684
F0.705882
aaI34
aaa(lp2685
g361
ag362
a(lp2686
I1
a(lp2687
F0.5
aaI18
aa(lp2688
I1
a(lp2689
F0.32
aaI25
aa(lp2690
I1
a(lp2691
F0.285714
aaI14
aaa(lp2692
g364
ag365
aa(lp2693
g367
ag368
a(lp2694
I1
a(lp2695
F0.576923
aaI26
aaa(lp2696
g370
ag371
aa(lp2697
g373
ag374
a(lp2698
I1
a(lp2699
F0.686567
aaI67
aa(lp2700
I1
a(lp2701
F0.673077
aaI52
aa(lp2702
I1
a(lp2703
F0.763158
aaI76
aa(lp2704
I1
a(lp2705
F0.876106
aaI113
aa(lp2706
I1
a(lp2707
F0.307692
aaI26
aa(lp2708
I1
a(lp2709
F0.333333
aaI27
aa(lp2710
I1
a(lp2711
F0.458333
aaI24
aa(lp2712
I1
a(lp2713
F0.423077
aaI26
aa(lp2714
I1
a(lp2715
F0.272727
aaI22
aa(lp2716
I1
a(lp2717
F0.4
aaI25
aa(lp2718
I1
a(lp2719
F0.26087
aaI23
aa(lp2720
I1
a(lp2721
F0.322581
aaI31
aa(lp2722
I1
a(lp2723
F0.24
aaI25
aa(lp2724
I1
a(lp2725
F0.25
aaI20
aa(lp2726
I1
a(lp2727
F0.0
aaI23
aa(lp2728
I1
a(lp2729
F0.2
aaI15
aa(lp2730
I1
a(lp2731
F0.294118
aaI17
aa(lp2732
I1
a(lp2733
F0.277778
aaI18
aa(lp2734
I1
a(lp2735
F0.294118
aaI17
aa(lp2736
I1
a(lp2737
F0.416667
aaI24
aa(lp2738
I1
a(lp2739
F0.333333
aaI18
aa(lp2740
I1
a(lp2741
F0.277778
aaI18
aa(lp2742
I1
a(lp2743
F0.277778
aaI18
aa(lp2744
I1
a(lp2745
F0.222222
aaI18
aa(lp2746
I1
a(lp2747
F0.222222
aaI18
aaa(lp2748
g398
ag399
aa(lp2749
g401
ag402
a(lp2750
I1
a(lp2751
F0.413793
aaI29
aa(lp2752
I1
a(lp2753
F0.416667
aaI24
aa(lp2754
I1
a(lp2755
F0.294118
aaI17
aa(lp2756
I1
a(lp2757
F0.461538
aaI26
aaa(lp2758
g420
ag421
a(lp2759
I1
a(lp2760
F0.235294
aaI17
aa(lp2761
I1
a(lp2762
F0.47619
aaI21
aa(lp2763
I1
a(lp2764
F0.3125
aaI16
aa(lp2765
I1
a(lp2766
F0.0
aaI10
aa(lp2767
I1
a(lp2768
F0.36
aaI25
aaa(lp2769
g423
ag424
a(lp2770
I1
a(lp2771
F0.214286
aaI28
aa(lp2772
I1
a(lp2773
F0.241379
aaI29
aa(lp2774
I1
a(lp2775
F0.233333
aaI30
aa(lp2776
I1
a(lp2777
F0.612245
aaI49
aa(lp2778
I1
a(lp2779
F0.0
aaI10
aaa(lp2780
g426
ag427
aa(lp2781
g429
ag430
a(lp2782
I1
a(lp2783
F0.4
aaI40
aa(lp2784
I1
a(lp2785
F0.333333
aaI39
aa(lp2786
I1
a(lp2787
F0.444444
aaI36
aaa(lp2788
g432
ag433
a(lp2789
I1
a(lp2790
F0.471698
aaI53
aa(lp2791
I1
a(lp2792
F0.541667
aaI24
aaa(lp2793
g435
ag436
a(lp2794
I1
a(lp2795
F0.25
aaI24
aa(lp2796
I1
a(lp2797
F0.3125
aaI32
aa(lp2798
I1
a(lp2799
F0.34375
aaI32
aa(lp2800
I1
a(lp2801
F0.387097
aaI31
aa(lp2802
I1
a(lp2803
F0.357143
aaI28
aa(lp2804
I1
a(lp2805
F0.214286
aaI28
aa(lp2806
I1
a(lp2807
F0.347826
aaI23
aa(lp2808
I1
a(lp2809
F0.346154
aaI26
aa(lp2810
I1
a(lp2811
F0.263158
aaI19
aa(lp2812
I1
a(lp2813
F0.266667
aaI30
aa(lp2814
I1
a(lp2815
F0.242424
aaI33
aa(lp2816
I1
a(lp2817
F0.285714
aaI14
aa(lp2818
I1
a(lp2819
F0.2
aaI20
aaa(lp2820
g438
ag439
a(lp2821
I1
a(lp2822
F0.314286
aaI35
aa(lp2823
I1
a(lp2824
F0.2
aaI45
aa(lp2825
I1
a(lp2826
F0.2
aaI45
aa(lp2827
I1
a(lp2828
F0.255814
aaI43
aa(lp2829
I1
a(lp2830
F0.263158
aaI19
aa(lp2831
I1
a(lp2832
F0.2
aaI25
aa(lp2833
I1
a(lp2834
F0.217391
aaI23
aa(lp2835
I1
a(lp2836
F0.512821
aaI39
aa(lp2837
I1
a(lp2838
F0.413793
aaI29
aaa(lp2839
g461
ag462
a(lp2840
I1
a(lp2841
F0.444444
aaI18
aa(lp2842
I1
a(lp2843
F0.275
aaI40
aa(lp2844
I1
a(lp2845
F0.0
aaI4
aa(lp2846
I1
a(lp2847
F0.0
aaI2
aa(lp2848
I1
a(lp2849
F0.0
aaI2
aaa(lp2850
g466
ag467
aa(lp2851
g469
ag470
aa(lp2852
g472
ag473
aa(lp2853
g475
ag476
a(lp2854
I1
a(lp2855
F0.538462
aaI13
aa(lp2856
I1
a(lp2857
F0.222222
aaI18
aa(lp2858
I1
a(lp2859
F0.266667
aaI15
aa(lp2860
I1
a(lp2861
F0.235294
aaI17
aa(lp2862
I1
a(lp2863
F0.235294
aaI17
aa(lp2864
I1
a(lp2865
F0.222222
aaI18
aa(lp2866
I1
a(lp2867
F0.375
aaI24
aa(lp2868
I1
a(lp2869
F0.5
aaI24
aa(lp2870
I1
a(lp2871
F0.25
aaI32
aa(lp2872
I1
a(lp2873
F0.222222
aaI36
aa(lp2874
I1
a(lp2875
F0.228571
aaI35
aa(lp2876
I1
a(lp2877
F0.227273
aaI22
aa(lp2878
I1
a(lp2879
F0.25
aaI32
aa(lp2880
I1
a(lp2881
F0.333333
aaI36
aa(lp2882
I1
a(lp2883
F0.210526
aaI19
aaa(lp2884
g478
ag479
aa(lp2885
g481
ag482
aa(lp2886
g484
ag485
a(lp2887
I1
a(lp2888
F0.277778
aaI18
aa(lp2889
I1
a(lp2890
F0.291667
aaI24
aa(lp2891
I1
a(lp2892
F0.35
aaI20
aa(lp2893
I1
a(lp2894
F0.3125
aaI16
aa(lp2895
I1
a(lp2896
F0.25
aaI16
aa(lp2897
I1
a(lp2898
F0.263158
aaI19
aa(lp2899
I1
a(lp2900
F0.277778
aaI18
aa(lp2901
I1
a(lp2902
F0.405405
aaI37
aaa(lp2903
g491
ag492
aa(lp2904
g494
ag495
aa(lp2905
g497
ag498
aa(lp2906
g500
ag501
aa(lp2907
g503
ag504
a(lp2908
I1
a(lp2909
F0.0
aaI20
aa(lp2910
I1
a(lp2911
F0.217391
aaI23
aa(lp2912
I1
a(lp2913
F0.0
aaI22
aa(lp2914
I1
a(lp2915
F0.25
aaI20
aa(lp2916
I1
a(lp2917
F0.0
aaI30
aa(lp2918
I1
a(lp2919
F0.0
aaI20
aa(lp2920
I1
a(lp2921
F0.0
aaI17
aa(lp2922
I1
a(lp2923
F0.64
aaI25
aa(lp2924
I1
a(lp2925
F0.48
aaI25
aa(lp2926
I1
a(lp2927
F0.366667
aaI30
aa(lp2928
I1
a(lp2929
F0.310345
aaI29
aa(lp2930
I1
a(lp2931
F0.210526
aaI19
aa(lp2932
I1
a(lp2933
F0.2
aaI15
aa(lp2934
I1
a(lp2935
F0.214286
aaI28
aa(lp2936
I1
a(lp2937
F0.214286
aaI28
aa(lp2938
I1
a(lp2939
F0.318182
aaI22
aa(lp2940
I1
a(lp2941
F0.25
aaI20
aa(lp2942
I1
a(lp2943
F0.346154
aaI26
aa(lp2944
I1
a(lp2945
F0.214286
aaI28
aa(lp2946
I1
a(lp2947
F0.52
aaI25
aa(lp2948
I1
a(lp2949
F0.208333
aaI24
aa(lp2950
I1
a(lp2951
F0.222222
aaI18
aaa(lp2952
g508
ag509
aa(lp2953
g515
ag516
a(lp2954
I1
a(lp2955
F0.35
aaI20
aa(lp2956
I1
a(lp2957
F0.529412
aaI17
aa(lp2958
I1
a(lp2959
F0.37037
aaI27
aa(lp2960
I1
a(lp2961
F0.571429
aaI21
aa(lp2962
I1
a(lp2963
F0.53125
aaI32
aa(lp2964
I1
a(lp2965
F0.5625
aaI48
aa(lp2966
I1
a(lp2967
F0.514286
aaI35
aa(lp2968
I1
a(lp2969
F0.484848
aaI33
aa(lp2970
I1
a(lp2971
F0.466667
aaI30
aa(lp2972
I1
a(lp2973
F0.518519
aaI27
aa(lp2974
I1
a(lp2975
F0.277778
aaI18
aa(lp2976
I1
a(lp2977
F0.363636
aaI22
aa(lp2978
I1
a(lp2979
F0.333333
aaI21
aa(lp2980
I1
a(lp2981
F0.333333
aaI21
aa(lp2982
I1
a(lp2983
F0.227273
aaI22
aa(lp2984
I1
a(lp2985
F0.238095
aaI21
aa(lp2986
I1
a(lp2987
F0.357143
aaI14
aa(lp2988
I1
a(lp2989
F0.375
aaI16
aa(lp2990
I1
a(lp2991
F0.352941
aaI17
aa(lp2992
I1
a(lp2993
F0.352941
aaI17
aa(lp2994
I1
a(lp2995
F0.277778
aaI18
aa(lp2996
I1
a(lp2997
F0.294118
aaI17
aa(lp2998
I1
a(lp2999
F0.25
aaI16
aa(lp3000
I1
a(lp3001
F0.458333
aaI24
aa(lp3002
I1
a(lp3003
F0.263158
aaI19
aa(lp3004
I1
a(lp3005
F0.235294
aaI17
aaa(lp3006
g522
ag523
aa(lp3007
g531
ag532
a(lp3008
I1
a(lp3009
F0.2
aaI20
aaa(lp3010
g534
ag535
a(lp3011
I1
a(lp3012
F0.4
aaI20
aa(lp3013
I1
a(lp3014
F0.346154
aaI26
aaa(lp3015
g543
ag544
a(lp3016
I1
a(lp3017
F0.325
aaI40
aa(lp3018
I1
a(lp3019
F0.296296
aaI27
aa(lp3020
I1
a(lp3021
F0.241379
aaI29
aa(lp3022
I1
a(lp3023
F0.263158
aaI19
aa(lp3024
I1
a(lp3025
F0.0
aaI20
aa(lp3026
I1
a(lp3027
F0.0
aaI16
aa(lp3028
I1
a(lp3029
F0.0
aaI17
aa(lp3030
I1
a(lp3031
F0.0
aaI14
aa(lp3032
I1
a(lp3033
F0.0
aaI16
aa(lp3034
I1
a(lp3035
F0.0
aaI17
aa(lp3036
I1
a(lp3037
F0.5
aaI20
aa(lp3038
I1
a(lp3039
F0.307692
aaI26
aa(lp3040
I1
a(lp3041
F0.304348
aaI23
aa(lp3042
I1
a(lp3043
F0.222222
aaI18
aaa(lp3044
g548
ag549
aa(lp3045
g553
ag554
a(lp3046
I1
a(lp3047
F0.241379
aaI29
aaa(lp3048
g556
ag557
a(lp3049
I1
a(lp3050
F0.230769
aaI13
aaa(lp3051
g559
ag560
aa(lp3052
g562
ag563
a(lp3053
I1
a(lp3054
F0.294118
aaI17
aa(lp3055
I1
a(lp3056
F0.285714
aaI14
aa(lp3057
I1
a(lp3058
F0.25
aaI12
aa(lp3059
I1
a(lp3060
F0.333333
aaI12
aa(lp3061
I1
a(lp3062
F0.214286
aaI14
aa(lp3063
I1
a(lp3064
F0.222222
aaI9
aa(lp3065
I1
a(lp3066
F0.2
aaI10
aa(lp3067
I1
a(lp3068
F0.2
aaI10
aa(lp3069
I1
a(lp3070
F0.222222
aaI18
aa(lp3071
I1
a(lp3072
F0.210526
aaI19
aa(lp3073
I1
a(lp3074
F0.235294
aaI17
aa(lp3075
I1
a(lp3076
F0.304348
aaI23
aa(lp3077
I1
a(lp3078
F0.318182
aaI22
aaa(lp3079
g581
ag582
aa(lp3080
g588
ag589
a(lp3081
I1
a(lp3082
F0.419355
aaI31
aa(lp3083
I1
a(lp3084
F0.266667
aaI15
aa(lp3085
I1
a(lp3086
F0.0
aaI10
aa(lp3087
I1
a(lp3088
F0.590909
aaI22
aa(lp3089
I1
a(lp3090
F0.4
aaI20
aa(lp3091
I1
a(lp3092
F0.235294
aaI17
aa(lp3093
I1
a(lp3094
F0.291667
aaI24
aa(lp3095
I1
a(lp3096
F0.25
aaI24
aaa(lp3097
g591
ag592
aa(lp3098
g594
ag595
aa(lp3099
g601
ag602
a(lp3100
I1
a(lp3101
F0.347826
aaI23
aa(lp3102
I1
a(lp3103
F0.416667
aaI24
aa(lp3104
I1
a(lp3105
F0.333333
aaI27
aaa(lp3106
g628
ag629
aa(lp3107
g657
ag658
a(lp3108
I1
a(lp3109
F0.538462
aaI39
aa(lp3110
I1
a(lp3111
F0.608696
aaI46
aa(lp3112
I1
a(lp3113
F0.692308
aaI13
aa(lp3114
I1
a(lp3115
F0.809524
aaI21
aa(lp3116
I1
a(lp3117
F0.53125
aaI32
aa(lp3118
I1
a(lp3119
F0.53125
aaI32
aaa(lp3120
g662
ag663
aa(lp3121
g677
ag678
aa(lp3122
g682
ag683
a(lp3123
I1
a(lp3124
F0.4
aaI25
aa(lp3125
I1
a(lp3126
F0.285714
aaI14
aa(lp3127
I1
a(lp3128
F0.441176
aaI34
aa(lp3129
I1
a(lp3130
F0.4
aaI30
aa(lp3131
I1
a(lp3132
F0.48
aaI25
aa(lp3133
I1
a(lp3134
F0.266667
aaI30
aa(lp3135
I1
a(lp3136
F0.363636
aaI33
aa(lp3137
I1
a(lp3138
F0.206897
aaI29
aa(lp3139
I1
a(lp3140
F0.304348
aaI23
aaa(lp3141
g685
ag686
a(lp3142
I1
a(lp3143
F0.0
aaI2
aa(lp3144
I1
a(lp3145
F0.0
aaI3
aa(lp3146
I1
a(lp3147
F0.0
aaI3
aa(lp3148
I1
a(lp3149
F0.666667
aaI3
aa(lp3150
I1
a(lp3151
F0.0
aaI2
aa(lp3152
I1
a(lp3153
F0.0
aaI8
aa(lp3154
I1
a(lp3155
F0.0
aaI6
aa(lp3156
I1
a(lp3157
F0.0
aaI3
aa(lp3158
I1
a(lp3159
F0.0
aaI2
aa(lp3160
I1
a(lp3161
F0.0
aaI2
aa(lp3162
I1
a(lp3163
F0.0
aaI2
aa(lp3164
I1
a(lp3165
F0.0
aaI3
aa(lp3166
I1
a(lp3167
F0.0
aaI5
aa(lp3168
I1
a(lp3169
F0.0
aaI5
aa(lp3170
I1
a(lp3171
F0.0
aaI5
aa(lp3172
I1
a(lp3173
F0.0
aaI31
aa(lp3174
I1
a(lp3175
F0.0
aaI5
aa(lp3176
I1
a(lp3177
F0.0
aaI2
aa(lp3178
I1
a(lp3179
F0.0
aaI2
aa(lp3180
I1
a(lp3181
F0.0
aaI3
aa(lp3182
I1
a(lp3183
F0.0
aaI3
aaa(lp3184
g688
ag689
a(lp3185
I1
a(lp3186
F0.0
aaI22
aa(lp3187
I1
a(lp3188
F0.0
aaI23
aaa(lp3189
g691
ag692
aa(lp3190
g696
ag697
a(lp3191
I1
a(lp3192
F0.222222
aaI27
aa(lp3193
I1
a(lp3194
F0.25
aaI28
aaa(lp3195
g699
ag700
a(lp3196
I1
a(lp3197
F0.32
aaI25
aa(lp3198
I1
a(lp3199
F0.380952
aaI21
aa(lp3200
I1
a(lp3201
F0.421053
aaI19
aa(lp3202
I1
a(lp3203
F0.285714
aaI28
aa(lp3204
I1
a(lp3205
F0.333333
aaI27
aa(lp3206
I1
a(lp3207
F0.0
aaI22
aa(lp3208
I1
a(lp3209
F0.0
aaI16
aa(lp3210
I1
a(lp3211
F0.0
aaI20
aa(lp3212
I1
a(lp3213
F0.0
aaI26
aa(lp3214
I1
a(lp3215
F0.418605
aaI43
aa(lp3216
I1
a(lp3217
F0.592593
aaI27
aa(lp3218
I1
a(lp3219
F0.361111
aaI36
aa(lp3220
I1
a(lp3221
F0.272727
aaI33
aa(lp3222
I1
a(lp3223
F0.275862
aaI29
aa(lp3224
I1
a(lp3225
F0.25
aaI28
aaa(lp3226
g704
ag705
a(lp3227
I1
a(lp3228
F0.380952
aaI21
aa(lp3229
I1
a(lp3230
F0.380952
aaI21
aa(lp3231
I1
a(lp3232
F0.363636
aaI22
aa(lp3233
I1
a(lp3234
F0.291667
aaI24
aa(lp3235
I1
a(lp3236
F0.32
aaI25
aa(lp3237
I1
a(lp3238
F0.4
aaI25
aa(lp3239
I1
a(lp3240
F0.34375
aaI32
aaa(lp3241
g707
ag708
a(lp3242
I1
a(lp3243
F0.321429
aaI28
aa(lp3244
I1
a(lp3245
F0.304348
aaI23
aa(lp3246
I1
a(lp3247
F0.285714
aaI28
aa(lp3248
I1
a(lp3249
F0.4
aaI10
aa(lp3250
I1
a(lp3251
F0.0
aaI567
aaa(lp3252
g710
ag711
aa(lp3253
g727
ag728
aa(lp3254
g730
ag731
a(lp3255
I1
a(lp3256
F0.272727
aaI11
aa(lp3257
I1
a(lp3258
F0.230769
aaI13
aa(lp3259
I1
a(lp3260
F0.285714
aaI14
aa(lp3261
I1
a(lp3262
F0.25
aaI28
aaa(lp3263
g741
ag742
a(lp3264
I1
a(lp3265
F0.0
aaI15
aa(lp3266
I1
a(lp3267
F0.227273
aaI22
aa(lp3268
I1
a(lp3269
F0.347826
aaI23
aa(lp3270
I1
a(lp3271
F0.347826
aaI23
aa(lp3272
I1
a(lp3273
F0.285714
aaI21
aa(lp3274
I1
a(lp3275
F0.318182
aaI22
aa(lp3276
I1
a(lp3277
F0.238095
aaI21
aaa(lp3278
g756
ag757
a(lp3279
I1
a(lp3280
F0.380952
aaI21
aa(lp3281
I1
a(lp3282
F0.4
aaI20
aa(lp3283
I1
a(lp3284
F0.333333
aaI21
aa(lp3285
I1
a(lp3286
F0.266667
aaI15
aa(lp3287
I1
a(lp3288
F0.238095
aaI21
aa(lp3289
I1
a(lp3290
F0.25
aaI20
aa(lp3291
I1
a(lp3292
F0.333333
aaI27
aa(lp3293
I1
a(lp3294
F0.444444
aaI18
aa(lp3295
I1
a(lp3296
F0.352941
aaI17
aaa(lp3297
g767
ag768
a(lp3298
I1
a(lp3299
F0.368421
aaI19
aa(lp3300
I1
a(lp3301
F0.35
aaI20
aa(lp3302
I1
a(lp3303
F0.521739
aaI23
aa(lp3304
I1
a(lp3305
F0.518519
aaI27
aa(lp3306
I1
a(lp3307
F0.40625
aaI32
aa(lp3308
I1
a(lp3309
F0.342857
aaI35
aa(lp3310
I1
a(lp3311
F0.366667
aaI30
aa(lp3312
I1
a(lp3313
F0.344828
aaI29
aa(lp3314
I1
a(lp3315
F0.423077
aaI26
aaa(lp3316
g772
ag773
a(lp3317
I1
a(lp3318
F0.472222
aaI36
aa(lp3319
I1
a(lp3320
F0.235294
aaI17
aa(lp3321
I1
a(lp3322
F0.294118
aaI17
aa(lp3323
I1
a(lp3324
F0.3125
aaI16
aa(lp3325
I1
a(lp3326
F0.521739
aaI23
aa(lp3327
I1
a(lp3328
F0.222222
aaI9
aa(lp3329
I1
a(lp3330
F0.272727
aaI11
aa(lp3331
I1
a(lp3332
F0.238095
aaI21
aa(lp3333
I1
a(lp3334
F0.263158
aaI19
aa(lp3335
I1
a(lp3336
F0.277778
aaI18
aa(lp3337
I1
a(lp3338
F0.3125
aaI16
aa(lp3339
I1
a(lp3340
F0.0
aaI13
aa(lp3341
I1
a(lp3342
F0.238095
aaI21
aa(lp3343
I1
a(lp3344
F0.25
aaI24
aa(lp3345
I1
a(lp3346
F0.285714
aaI14
aa(lp3347
I1
a(lp3348
F0.2
aaI15
aaa(lp3349
g777
ag778
aa(lp3350
g780
ag781
a(lp3351
I1
a(lp3352
F0.2
aaI15
aa(lp3353
I1
a(lp3354
F0.259259
aaI27
aa(lp3355
I1
a(lp3356
F0.222222
aaI27
aa(lp3357
I1
a(lp3358
F0.333333
aaI27
aa(lp3359
I1
a(lp3360
F0.40625
aaI32
aa(lp3361
I1
a(lp3362
F0.454545
aaI22
aa(lp3363
I1
a(lp3364
F0.346154
aaI26
aa(lp3365
I1
a(lp3366
F0.304348
aaI23
aaa(lp3367
g783
ag784
aa(lp3368
g786
ag787
a(lp3369
I1
a(lp3370
F0.230769
aaI13
aaa(lp3371
g789
ag790
a(lp3372
I1
a(lp3373
F0.294118
aaI17
aaa(lp3374
g840
ag841
a(lp3375
I1
a(lp3376
F0.322581
aaI31
aaa(lp3377
g843
ag844
aa(lp3378
g848
ag849
aa(lp3379
g851
ag852
aa(lp3380
g854
ag855
a(lp3381
I1
a(lp3382
F0.214286
aaI28
aaa(lp3383
g857
ag858
aa(lp3384
g868
ag869
a(lp3385
I1
a(lp3386
F0.235294
aaI34
aa(lp3387
I1
a(lp3388
F0.227273
aaI22
aa(lp3389
I1
a(lp3390
F0.263158
aaI19
aa(lp3391
I1
a(lp3392
F0.0
aaI17
aa(lp3393
I1
a(lp3394
F0.0
aaI17
aa(lp3395
I1
a(lp3396
F0.0
aaI16
aa(lp3397
I1
a(lp3398
F0.0
aaI16
aa(lp3399
I1
a(lp3400
F0.0
aaI20
aa(lp3401
I1
a(lp3402
F0.0
aaI21
aa(lp3403
I1
a(lp3404
F0.230769
aaI26
aa(lp3405
I1
a(lp3406
F0.222222
aaI27
aa(lp3407
I1
a(lp3408
F0.210526
aaI19
aa(lp3409
I1
a(lp3410
F0.277778
aaI18
aa(lp3411
I1
a(lp3412
F0.230769
aaI26
aa(lp3413
I1
a(lp3414
F0.3125
aaI32
aa(lp3415
I1
a(lp3416
F0.409091
aaI22
aa(lp3417
I1
a(lp3418
F0.384615
aaI13
aa(lp3419
I1
a(lp3420
F0.384615
aaI13
aa(lp3421
I1
a(lp3422
F0.444444
aaI18
aa(lp3423
I1
a(lp3424
F0.388889
aaI18
aaa(lp3425
g875
ag876
a(lp3426
I1
a(lp3427
F0.366667
aaI30
aaa(lp3428
g880
ag881
aa(lp3429
g883
ag884
a(lp3430
I1
a(lp3431
F0.666667
aaI3
aa(lp3432
I1
a(lp3433
F0.285714
aaI7
aa(lp3434
I1
a(lp3435
F0.214286
aaI14
aa(lp3436
I1
a(lp3437
F0.4
aaI10
aa(lp3438
I1
a(lp3439
F0.230769
aaI13
aa(lp3440
I1
a(lp3441
F0.25
aaI20
aa(lp3442
I1
a(lp3443
F0.238095
aaI21
aa(lp3444
I1
a(lp3445
F0.227273
aaI22
aa(lp3446
I1
a(lp3447
F0.45
aaI20
aa(lp3448
I1
a(lp3449
F0.4375
aaI16
aa(lp3450
I1
a(lp3451
F0.416667
aaI12
aa(lp3452
I1
a(lp3453
F0.222222
aaI18
aaa(lp3454
g886
ag887
a(lp3455
I1
a(lp3456
F0.0
aaI7
aa(lp3457
I1
a(lp3458
F0.0
aaI8
aa(lp3459
I1
a(lp3460
F0.0
aaI8
aa(lp3461
I1
a(lp3462
F0.0
aaI9
aa(lp3463
I1
a(lp3464
F0.0
aaI9
aa(lp3465
I1
a(lp3466
F0.0
aaI13
aa(lp3467
I1
a(lp3468
F0.275862
aaI29
aa(lp3469
I1
a(lp3470
F0.5
aaI30
aa(lp3471
I1
a(lp3472
F0.259259
aaI27
aa(lp3473
I1
a(lp3474
F0.321429
aaI28
aa(lp3475
I1
a(lp3476
F0.32
aaI25
aaa(lp3477
g893
ag894
aa(lp3478
g898
ag899
a(lp3479
I1
a(lp3480
F0.238095
aaI21
aa(lp3481
I1
a(lp3482
F0.315789
aaI19
aa(lp3483
I1
a(lp3484
F0.25
aaI20
aa(lp3485
I1
a(lp3486
F0.222222
aaI27
aa(lp3487
I1
a(lp3488
F0.2
aaI30
aa(lp3489
I1
a(lp3490
F0.259259
aaI27
aa(lp3491
I1
a(lp3492
F0.28125
aaI32
aa(lp3493
I1
a(lp3494
F0.466667
aaI15
aa(lp3495
I1
a(lp3496
F0.473684
aaI19
aa(lp3497
I1
a(lp3498
F0.45
aaI20
aa(lp3499
I1
a(lp3500
F0.421053
aaI19
aa(lp3501
I1
a(lp3502
F0.25
aaI16
aa(lp3503
I1
a(lp3504
F0.0
aaI3
aa(lp3505
I1
a(lp3506
F0.0
aaI3
aa(lp3507
I1
a(lp3508
F0.0
aaI3
aaa(lp3509
g911
ag912
a(lp3510
I1
a(lp3511
F0.421053
aaI19
aa(lp3512
I1
a(lp3513
F0.5625
aaI16
aa(lp3514
I1
a(lp3515
F0.0
aaI10
aa(lp3516
I1
a(lp3517
F0.357143
aaI14
aa(lp3518
I1
a(lp3519
F0.32
aaI25
aa(lp3520
I1
a(lp3521
F0.347826
aaI23
aa(lp3522
I1
a(lp3523
F0.294118
aaI17
aa(lp3524
I1
a(lp3525
F0.24
aaI25
aaa(lp3526
g924
ag925
a(lp3527
I1
a(lp3528
F0.0
aaI32
aaa(lp3529
g927
ag928
a(lp3530
I1
a(lp3531
F0.3125
aaI16
aa(lp3532
I1
a(lp3533
F0.206897
aaI29
aa(lp3534
I1
a(lp3535
F0.277778
aaI36
aaa(lp3536
g930
ag931
aa(lp3537
g933
ag934
aa(lp3538
g936
ag937
aa(lp3539
g939
ag940
a(lp3540
I1
a(lp3541
F0.222222
aaI9
aaa(lp3542
g942
ag943
a(lp3543
I1
a(lp3544
F0.4
aaI20
aaa(lp3545
g945
ag946
a(lp3546
I1
a(lp3547
F0.3125
aaI16
aa(lp3548
I1
a(lp3549
F0.433333
aaI30
aa(lp3550
I1
a(lp3551
F0.241379
aaI29
aa(lp3552
I1
a(lp3553
F0.333333
aaI18
aa(lp3554
I1
a(lp3555
F0.36
aaI25
aa(lp3556
I1
a(lp3557
F0.366667
aaI30
aa(lp3558
I1
a(lp3559
F0.423077
aaI26
aaa(lp3560
g954
ag955
aa(lp3561
g963
ag964
aa(lp3562
g966
ag967
a(lp3563
I1
a(lp3564
F0.375
aaI16
aa(lp3565
I1
a(lp3566
F0.25
aaI16
aa(lp3567
I1
a(lp3568
F0.433333
aaI30
aa(lp3569
I1
a(lp3570
F0.214286
aaI14
aa(lp3571
I1
a(lp3572
F0.25
aaI16
aa(lp3573
I1
a(lp3574
F0.542857
aaI35
aa(lp3575
I1
a(lp3576
F0.333333
aaI24
aa(lp3577
I1
a(lp3578
F0.357143
aaI42
aa(lp3579
I1
a(lp3580
F0.263158
aaI19
aaa(lp3581
g1003
ag1004
a(lp3582
I1
a(lp3583
F0.227273
aaI22
aa(lp3584
I1
a(lp3585
F0.28
aaI25
aa(lp3586
I1
a(lp3587
F0.391304
aaI23
aa(lp3588
I1
a(lp3589
F0.375
aaI24
aa(lp3590
I1
a(lp3591
F0.375
aaI32
aa(lp3592
I1
a(lp3593
F0.238095
aaI21
aa(lp3594
I1
a(lp3595
F0.214286
aaI14
aaa(lp3596
g1008
ag1009
a(lp3597
I1
a(lp3598
F0.2
aaI35
aa(lp3599
I1
a(lp3600
F0.32
aaI25
aaa(lp3601
g1011
ag1012
aa(lp3602
g1014
ag1015
aa(lp3603
g1017
ag1018
aa(lp3604
g1020
ag1021
a(lp3605
I1
a(lp3606
F0.0
aaI16
aa(lp3607
I1
a(lp3608
F0.0
aaI6
aa(lp3609
I1
a(lp3610
F0.0
aaI7
aa(lp3611
I1
a(lp3612
F0.0
aaI7
aa(lp3613
I1
a(lp3614
F0.0
aaI4
aa(lp3615
I1
a(lp3616
F0.0
aaI4
aa(lp3617
I1
a(lp3618
F0.0
aaI5
aa(lp3619
I1
a(lp3620
F0.0
aaI8
aa(lp3621
I1
a(lp3622
F0.0
aaI8
aa(lp3623
I1
a(lp3624
F0.0
aaI12
aa(lp3625
I1
a(lp3626
F0.0
aaI14
aa(lp3627
I1
a(lp3628
F0.0
aaI8
aa(lp3629
I1
a(lp3630
F0.0
aaI8
aa(lp3631
I1
a(lp3632
F0.0
aaI7
aa(lp3633
I1
a(lp3634
F0.0
aaI8
aa(lp3635
I1
a(lp3636
F0.0
aaI3
aa(lp3637
I1
a(lp3638
F0.0
aaI23
aa(lp3639
I1
a(lp3640
F0.0
aaI28
aa(lp3641
I1
a(lp3642
F0.0
aaI30
aa(lp3643
I1
a(lp3644
F0.0
aaI25
aa(lp3645
I1
a(lp3646
F0.0
aaI3
aa(lp3647
I1
a(lp3648
F0.0
aaI3
aa(lp3649
I1
a(lp3650
F0.0
aaI3
aa(lp3651
I1
a(lp3652
F0.0
aaI3
aaa(lp3653
g1037
ag1038
aa(lp3654
g1040
ag1041
a(lp3655
I1
a(lp3656
F0.0
aaI30
aa(lp3657
I1
a(lp3658
F0.0
aaI6
aa(lp3659
I1
a(lp3660
F0.0
aaI5
aa(lp3661
I1
a(lp3662
F0.0
aaI34
aa(lp3663
I1
a(lp3664
F0.0
aaI10
aa(lp3665
I1
a(lp3666
F0.0
aaI18
aa(lp3667
I1
a(lp3668
F0.0
aaI17
aa(lp3669
I1
a(lp3670
F0.0
aaI2
aa(lp3671
I1
a(lp3672
F0.0
aaI4
aaa(lp3673
g1045
ag1046
a(lp3674
I1
a(lp3675
F0.222222
aaI18
aa(lp3676
I1
a(lp3677
F0.652174
aaI23
aa(lp3678
I1
a(lp3679
F0.571429
aaI28
aaa(lp3680
g1048
ag1049
aa(lp3681
g1051
ag1052
aa(lp3682
g1056
ag1057
aa(lp3683
g1059
ag1060
a(lp3684
I1
a(lp3685
F0.428571
aaI28
aa(lp3686
I1
a(lp3687
F0.368421
aaI19
aa(lp3688
I1
a(lp3689
F0.388889
aaI18
aa(lp3690
I1
a(lp3691
F0.368421
aaI19
aa(lp3692
I1
a(lp3693
F0.4
aaI15
aa(lp3694
I1
a(lp3695
F0.375
aaI16
aa(lp3696
I1
a(lp3697
F0.333333
aaI15
aaa(lp3698
g1064
ag1065
aa(lp3699
g1067
ag1068
a(lp3700
I1
a(lp3701
F0.0
aaI15
aa(lp3702
I1
a(lp3703
F0.272727
aaI11
aa(lp3704
I1
a(lp3705
F0.3
aaI10
aa(lp3706
I1
a(lp3707
F0.25
aaI12
aa(lp3708
I1
a(lp3709
F0.25
aaI16
aa(lp3710
I1
a(lp3711
F0.275862
aaI29
aa(lp3712
I1
a(lp3713
F0.2
aaI20
aa(lp3714
I1
a(lp3715
F0.25
aaI16
aa(lp3716
I1
a(lp3717
F0.4375
aaI16
aaa(lp3718
g1070
ag1071
a(lp3719
I1
a(lp3720
F0.478261
aaI23
aa(lp3721
I1
a(lp3722
F0.0
aaI27
aa(lp3723
I1
a(lp3724
F0.5
aaI38
aa(lp3725
I1
a(lp3726
F0.0
aaI6
aa(lp3727
I1
a(lp3728
F0.777778
aaI9
aaa(lp3729
g1077
ag1078
aa(lp3730
g1080
ag1081
aa(lp3731
g1083
ag1084
aa(lp3732
g1086
ag1087
a(lp3733
I1
a(lp3734
F0.333333
aaI21
aa(lp3735
I1
a(lp3736
F0.347826
aaI23
aaa(lp3737
g1091
ag1092
aa(lp3738
g1096
ag1097
a(lp3739
I1
a(lp3740
F0.0
aaI14
aa(lp3741
I1
a(lp3742
F0.0
aaI4
aa(lp3743
I1
a(lp3744
F0.0
aaI4
aa(lp3745
I1
a(lp3746
F0.0
aaI4
aaa(lp3747
g1101
ag1102
aa(lp3748
g1104
ag1105
a(lp3749
I1
a(lp3750
F0.275862
aaI29
aa(lp3751
I1
a(lp3752
F0.3125
aaI16
aa(lp3753
I1
a(lp3754
F0.294118
aaI17
aa(lp3755
I1
a(lp3756
F0.521739
aaI23
aa(lp3757
I1
a(lp3758
F0.52
aaI25
aa(lp3759
I1
a(lp3760
F0.56
aaI25
aa(lp3761
I1
a(lp3762
F0.583333
aaI24
aa(lp3763
I1
a(lp3764
F0.590909
aaI22
aa(lp3765
I1
a(lp3766
F0.5
aaI18
aaa(lp3767
g1109
ag1110
a(lp3768
I1
a(lp3769
F0.405405
aaI37
aa(lp3770
I1
a(lp3771
F0.486486
aaI37
aa(lp3772
I1
a(lp3773
F0.714286
aaI35
aa(lp3774
I1
a(lp3775
F0.285714
aaI21
aa(lp3776
I1
a(lp3777
F0.291667
aaI24
aa(lp3778
I1
a(lp3779
F0.28
aaI25
aa(lp3780
I1
a(lp3781
F0.315789
aaI19
aa(lp3782
I1
a(lp3783
F0.315789
aaI19
aa(lp3784
I1
a(lp3785
F0.277778
aaI18
aa(lp3786
I1
a(lp3787
F0.454545
aaI22
aa(lp3788
I1
a(lp3789
F0.304348
aaI23
aa(lp3790
I1
a(lp3791
F0.208333
aaI24
aaa(lp3792
g1118
ag1119
a(lp3793
I1
a(lp3794
F0.222222
aaI9
aa(lp3795
I1
a(lp3796
F0.294118
aaI17
aaa(lp3797
g1121
ag1122
aa(lp3798
g1124
ag1125
a(lp3799
I1
a(lp3800
F0.302326
aaI43
aa(lp3801
I1
a(lp3802
F0.25
aaI24
aaa(lp3803
g1131
ag1132
aa(lp3804
g1134
ag1135
a(lp3805
I1
a(lp3806
F0.375
aaI16
aaa(lp3807
g1137
ag1138
aa(lp3808
g1142
ag1143
aa(lp3809
g1145
ag1146
aa(lp3810
g1150
ag1151
a(lp3811
I1
a(lp3812
F0.0
aaI12
aa(lp3813
I1
a(lp3814
F0.0
aaI18
aa(lp3815
I1
a(lp3816
F0.3125
aaI16
aa(lp3817
I1
a(lp3818
F0.368421
aaI19
aa(lp3819
I1
a(lp3820
F0.441176
aaI34
aa(lp3821
I1
a(lp3822
F0.451613
aaI31
aa(lp3823
I1
a(lp3824
F0.454545
aaI33
aa(lp3825
I1
a(lp3826
F0.25
aaI24
aa(lp3827
I1
a(lp3828
F0.28
aaI25
aa(lp3829
I1
a(lp3830
F0.36
aaI25
aa(lp3831
I1
a(lp3832
F0.36
aaI25
aa(lp3833
I1
a(lp3834
F0.285714
aaI21
aa(lp3835
I1
a(lp3836
F0.357143
aaI28
aaa(lp3837
g1157
ag1158
a(lp3838
I1
a(lp3839
F0.5
aaI20
aaa(lp3840
g1162
ag1163
a(lp3841
I1
a(lp3842
F0.3125
aaI16
aa(lp3843
I1
a(lp3844
F0.25
aaI16
aa(lp3845
I1
a(lp3846
F0.0
aaI35
aa(lp3847
I1
a(lp3848
F0.322581
aaI31
aa(lp3849
I1
a(lp3850
F0.392857
aaI28
aa(lp3851
I1
a(lp3852
F0.294118
aaI17
aaa(lp3853
g1167
ag1168
a(lp3854
I1
a(lp3855
F0.5
aaI26
aa(lp3856
I1
a(lp3857
F0.458333
aaI24
aa(lp3858
I1
a(lp3859
F0.235294
aaI17
aa(lp3860
I1
a(lp3861
F0.263158
aaI19
aa(lp3862
I1
a(lp3863
F0.2
aaI25
aa(lp3864
I1
a(lp3865
F0.2
aaI25
aa(lp3866
I1
a(lp3867
F0.493976
aaI83
aa(lp3868
I1
a(lp3869
F0.294118
aaI17
aa(lp3870
I1
a(lp3871
F0.32
aaI25
aa(lp3872
I1
a(lp3873
F0.238095
aaI21
aa(lp3874
I1
a(lp3875
F0.25
aaI20
aa(lp3876
I1
a(lp3877
F0.227273
aaI22
aa(lp3878
I1
a(lp3879
F0.25
aaI12
aa(lp3880
I1
a(lp3881
F0.2
aaI15
aa(lp3882
I1
a(lp3883
F0.227273
aaI22
aa(lp3884
I1
a(lp3885
F0.447368
aaI38
aa(lp3886
I1
a(lp3887
F0.423077
aaI26
aa(lp3888
I1
a(lp3889
F0.26087
aaI23
aaa(lp3890
g1170
ag1171
aa(lp3891
g1173
ag1174
a(lp3892
I1
a(lp3893
F0.0
aaI23
aa(lp3894
I1
a(lp3895
F0.0
aaI16
aa(lp3896
I1
a(lp3897
F0.0
aaI15
aa(lp3898
I1
a(lp3899
F0.0
aaI15
aa(lp3900
I1
a(lp3901
F0.0
aaI11
aaa(lp3902
g1176
ag1177
a(lp3903
I1
a(lp3904
F0.0
aaI13
aa(lp3905
I1
a(lp3906
F0.0
aaI20
aa(lp3907
I1
a(lp3908
F0.0
aaI4
aa(lp3909
I1
a(lp3910
F0.0
aaI4
aa(lp3911
I1
a(lp3912
F0.0
aaI17
aa(lp3913
I1
a(lp3914
F0.0
aaI7
aa(lp3915
I1
a(lp3916
F0.0
aaI14
aa(lp3917
I1
a(lp3918
F0.0
aaI11
aa(lp3919
I1
a(lp3920
F0.0
aaI6
aa(lp3921
I1
a(lp3922
F0.0
aaI3
aa(lp3923
I1
a(lp3924
F0.0
aaI6
aa(lp3925
I1
a(lp3926
F0.0
aaI29
aa(lp3927
I1
a(lp3928
F0.0
aaI4
aa(lp3929
I1
a(lp3930
F0.0
aaI5
aa(lp3931
I1
a(lp3932
F0.0
aaI6
aa(lp3933
I1
a(lp3934
F0.0
aaI5
aa(lp3935
I1
a(lp3936
F0.0
aaI21
aa(lp3937
I1
a(lp3938
F0.0
aaI18
aa(lp3939
I1
a(lp3940
F0.0
aaI18
aa(lp3941
I1
a(lp3942
F0.0
aaI20
aa(lp3943
I1
a(lp3944
F0.0
aaI19
aa(lp3945
I1
a(lp3946
F0.454545
aaI22
aa(lp3947
I1
a(lp3948
F0.0
aaI14
aa(lp3949
I1
a(lp3950
F0.0
aaI2
aa(lp3951
I1
a(lp3952
F0.0
aaI2
aa(lp3953
I1
a(lp3954
F0.0
aaI3
aa(lp3955
I1
a(lp3956
F0.0
aaI2
aa(lp3957
I1
a(lp3958
F0.0
aaI2
aa(lp3959
I1
a(lp3960
F0.0
aaI2
aa(lp3961
I1
a(lp3962
F0.0
aaI3
aa(lp3963
I1
a(lp3964
F0.0
aaI2
aa(lp3965
I1
a(lp3966
F0.0
aaI2
aa(lp3967
I1
a(lp3968
F0.0
aaI2
aa(lp3969
I1
a(lp3970
F0.0
aaI7
aa(lp3971
I1
a(lp3972
F0.0
aaI3
aa(lp3973
I1
a(lp3974
F0.0
aaI4
aa(lp3975
I1
a(lp3976
F0.0
aaI4
aaa(lp3977
g1193
ag1194
a(lp3978
I1
a(lp3979
F0.235294
aaI17
aa(lp3980
I1
a(lp3981
F0.25
aaI16
aa(lp3982
I1
a(lp3983
F0.26087
aaI23
aa(lp3984
I1
a(lp3985
F0.25
aaI24
aa(lp3986
I1
a(lp3987
F0.206897
aaI29
aa(lp3988
I1
a(lp3989
F0.222222
aaI9
aa(lp3990
I1
a(lp3991
F0.222222
aaI9
aa(lp3992
I1
a(lp3993
F0.222222
aaI9
aaa(lp3994
g1200
ag1201
aa(lp3995
g1203
ag1204
a(lp3996
I1
a(lp3997
F0.0
aaI9
aa(lp3998
I1
a(lp3999
F0.3125
aaI16
aaa(lp4000
g1260
ag1261
aa(lp4001
g1263
ag1264
a(lp4002
I1
a(lp4003
F0.533333
aaI30
aa(lp4004
I1
a(lp4005
F0.470588
aaI17
aa(lp4006
I1
a(lp4007
F0.515152
aaI33
aa(lp4008
I1
a(lp4009
F0.5
aaI22
aa(lp4010
I1
a(lp4011
F0.461538
aaI39
aa(lp4012
I1
a(lp4013
F0.4
aaI35
aa(lp4014
I1
a(lp4015
F0.230769
aaI26
aa(lp4016
I1
a(lp4017
F0.647059
aaI34
aaa(lp4018
g1268
ag1269
aa(lp4019
g1271
ag1272
a(lp4020
I1
a(lp4021
F0.285714
aaI14
aa(lp4022
I1
a(lp4023
F0.0
aaI2
aa(lp4024
I1
a(lp4025
F0.333333
aaI15
aa(lp4026
I1
a(lp4027
F0.210526
aaI19
aa(lp4028
I1
a(lp4029
F0.210526
aaI19
aa(lp4030
I1
a(lp4031
F0.222222
aaI9
aa(lp4032
I1
a(lp4033
F0.291667
aaI24
aaa(lp4034
g1274
ag1275
aa(lp4035
g1277
ag1278
a(lp4036
I1
a(lp4037
F0.0
aaI12
aa(lp4038
I1
a(lp4039
F0.0
aaI9
aa(lp4040
I1
a(lp4041
F0.4
aaI20
aa(lp4042
I1
a(lp4043
F0.388889
aaI18
aa(lp4044
I1
a(lp4045
F0.259259
aaI27
aa(lp4046
I1
a(lp4047
F0.392857
aaI28
aa(lp4048
I1
a(lp4049
F0.4
aaI25
aaa(lp4050
g1280
ag1281
aa(lp4051
g1283
ag1284
a(lp4052
I1
a(lp4053
F0.444444
aaI18
aa(lp4054
I1
a(lp4055
F0.333333
aaI15
aa(lp4056
I1
a(lp4057
F0.214286
aaI14
aa(lp4058
I1
a(lp4059
F0.230769
aaI13
aa(lp4060
I1
a(lp4061
F0.473684
aaI19
aa(lp4062
I1
a(lp4063
F0.470588
aaI17
aa(lp4064
I1
a(lp4065
F0.588235
aaI17
aa(lp4066
I1
a(lp4067
F0.272727
aaI11
aa(lp4068
I1
a(lp4069
F0.583333
aaI12
aa(lp4070
I1
a(lp4071
F0.222222
aaI18
aa(lp4072
I1
a(lp4073
F0.217391
aaI23
aaa(lp4074
g1290
ag1291
aa(lp4075
g1293
ag1294
aa(lp4076
g1298
ag1299
a(lp4077
I1
a(lp4078
F0.214286
aaI56
aa(lp4079
I1
a(lp4080
F0.291667
aaI24
aaa(lp4081
g1301
ag1302
aa(lp4082
g1306
ag1307
a(lp4083
I1
a(lp4084
F0.0
aaI14
aa(lp4085
I1
a(lp4086
F0.0
aaI16
aa(lp4087
I1
a(lp4088
F0.0
aaI14
aa(lp4089
I1
a(lp4090
F0.0
aaI14
aa(lp4091
I1
a(lp4092
F0.0
aaI7
aa(lp4093
I1
a(lp4094
F0.0
aaI7
aa(lp4095
I1
a(lp4096
F0.795918
aaI49
aa(lp4097
I1
a(lp4098
F0.0
aaI14
aa(lp4099
I1
a(lp4100
F0.0
aaI16
aa(lp4101
I1
a(lp4102
F0.0
aaI12
aa(lp4103
I1
a(lp4104
F0.0
aaI13
aa(lp4105
I1
a(lp4106
F0.0
aaI16
aa(lp4107
I1
a(lp4108
F0.0
aaI15
aaa(lp4109
g1323
ag1324
a(lp4110
I1
a(lp4111
F0.6
aaI25
aa(lp4112
I1
a(lp4113
F0.5
aaI34
aaa(lp4114
g1330
ag1331
a(lp4115
I1
a(lp4116
F0.214286
aaI14
aa(lp4117
I1
a(lp4118
F0.333333
aaI18
aa(lp4119
I1
a(lp4120
F0.24
aaI25
aaa(lp4121
g1335
ag1336
a(lp4122
I1
a(lp4123
F0.235294
aaI17
aa(lp4124
I1
a(lp4125
F0.3
aaI20
aa(lp4126
I1
a(lp4127
F0.3
aaI20
aa(lp4128
I1
a(lp4129
F0.46875
aaI32
aa(lp4130
I1
a(lp4131
F0.259259
aaI27
aa(lp4132
I1
a(lp4133
F0.294118
aaI17
aa(lp4134
I1
a(lp4135
F0.45
aaI20
aa(lp4136
I1
a(lp4137
F0.458333
aaI24
aa(lp4138
I1
a(lp4139
F0.565217
aaI23
aa(lp4140
I1
a(lp4141
F0.521739
aaI23
aa(lp4142
I1
a(lp4143
F0.357143
aaI14
aa(lp4144
I1
a(lp4145
F0.3125
aaI16
aa(lp4146
I1
a(lp4147
F0.214286
aaI14
aaa(lp4148
g1338
ag1339
a(lp4149
I1
a(lp4150
F0.434783
aaI23
aa(lp4151
I1
a(lp4152
F0.409091
aaI22
aaa(lp4153
g1341
ag1342
a(lp4154
I1
a(lp4155
F0.458333
aaI24
aaa(lp4156
g1350
ag1351
a(lp4157
I1
a(lp4158
F0.318182
aaI22
aa(lp4159
I1
a(lp4160
F0.347826
aaI23
aa(lp4161
I1
a(lp4162
F0.285714
aaI21
aa(lp4163
I1
a(lp4164
F0.3125
aaI16
aa(lp4165
I1
a(lp4166
F0.307692
aaI13
aa(lp4167
I1
a(lp4168
F0.285714
aaI14
aa(lp4169
I1
a(lp4170
F0.227273
aaI22
aa(lp4171
I1
a(lp4172
F0.238095
aaI21
aa(lp4173
I1
a(lp4174
F0.269231
aaI26
aa(lp4175
I1
a(lp4176
F0.212121
aaI33
aa(lp4177
I1
a(lp4178
F0.214286
aaI28
aa(lp4179
I1
a(lp4180
F0.228571
aaI35
aa(lp4181
I1
a(lp4182
F0.321429
aaI28
aa(lp4183
I1
a(lp4184
F0.357143
aaI28
aa(lp4185
I1
a(lp4186
F0.0
aaI9
aa(lp4187
I1
a(lp4188
F0.277778
aaI18
aa(lp4189
I1
a(lp4190
F0.4
aaI15
aa(lp4191
I1
a(lp4192
F0.4
aaI15
aa(lp4193
I1
a(lp4194
F0.214286
aaI14
aa(lp4195
I1
a(lp4196
F0.214286
aaI14
aa(lp4197
I1
a(lp4198
F0.37037
aaI27
aa(lp4199
I1
a(lp4200
F0.52
aaI25
aa(lp4201
I1
a(lp4202
F0.363636
aaI22
aaa(lp4203
g1353
ag1354
aa(lp4204
g1356
ag1357
a(lp4205
I1
a(lp4206
F0.409091
aaI22
aaa(lp4207
g1363
ag1364
a(lp4208
I1
a(lp4209
F0.222222
aaI18
aa(lp4210
I1
a(lp4211
F0.222222
aaI18
aa(lp4212
I1
a(lp4213
F0.210526
aaI19
aa(lp4214
I1
a(lp4215
F0.0
aaI25
aa(lp4216
I1
a(lp4217
F0.0
aaI8
aa(lp4218
I1
a(lp4219
F0.0
aaI10
aa(lp4220
I1
a(lp4221
F0.25
aaI20
aaa(lp4222
g1366
ag1367
aa(lp4223
g1381
ag1382
aa(lp4224
g1384
ag1385
aa(lp4225
g1403
ag1404
aa(lp4226
g1432
ag1433
a(lp4227
I1
a(lp4228
F0.321429
aaI28
aa(lp4229
I1
a(lp4230
F0.545455
aaI22
aa(lp4231
I1
a(lp4232
F0.352941
aaI17
aa(lp4233
I1
a(lp4234
F0.25
aaI16
aa(lp4235
I1
a(lp4236
F0.6
aaI10
aa(lp4237
I1
a(lp4238
F0.454545
aaI11
aa(lp4239
I1
a(lp4240
F0.3
aaI10
aa(lp4241
I1
a(lp4242
F0.5
aaI50
aa(lp4243
I1
a(lp4244
F0.25
aaI16
aa(lp4245
I1
a(lp4246
F0.294118
aaI17
aa(lp4247
I1
a(lp4248
F0.272727
aaI22
aa(lp4249
I1
a(lp4250
F0.235294
aaI17
aa(lp4251
I1
a(lp4252
F0.5
aaI28
aa(lp4253
I1
a(lp4254
F0.48
aaI25
aa(lp4255
I1
a(lp4256
F0.380952
aaI21
aa(lp4257
I1
a(lp4258
F0.333333
aaI21
aa(lp4259
I1
a(lp4260
F0.444444
aaI18
aa(lp4261
I1
a(lp4262
F0.5
aaI18
aa(lp4263
I1
a(lp4264
F0.25
aaI24
aa(lp4265
I1
a(lp4266
F0.5625
aaI16
aa(lp4267
I1
a(lp4268
F0.5
aaI18
aa(lp4269
I1
a(lp4270
F0.40625
aaI32
aaa(lp4271
g1459
ag1460
a(lp4272
I1
a(lp4273
F0.344828
aaI29
aa(lp4274
I1
a(lp4275
F0.333333
aaI21
aa(lp4276
I1
a(lp4277
F0.4
aaI20
aa(lp4278
I1
a(lp4279
F0.4
aaI20
aa(lp4280
I1
a(lp4281
F0.272727
aaI22
aa(lp4282
I1
a(lp4283
F0.3
aaI20
aa(lp4284
I1
a(lp4285
F0.26087
aaI23
aa(lp4286
I1
a(lp4287
F0.2
aaI15
aa(lp4288
I1
a(lp4289
F0.2
aaI15
aa(lp4290
I1
a(lp4291
F0.0
aaI18
aaa(lp4292
g1462
ag1463
aa(lp4293
g1465
ag1466
a(lp4294
I1
a(lp4295
F0.307692
aaI26
aa(lp4296
I1
a(lp4297
F0.435374
aaI147
aa(lp4298
I1
a(lp4299
F0.2
aaI25
aa(lp4300
I1
a(lp4301
F0.208333
aaI24
aa(lp4302
I1
a(lp4303
F0.227273
aaI22
aa(lp4304
I1
a(lp4305
F0.25
aaI24
aa(lp4306
I1
a(lp4307
F0.227273
aaI22
aa(lp4308
I1
a(lp4309
F0.526316
aaI19
aa(lp4310
I1
a(lp4311
F0.352941
aaI17
aa(lp4312
I1
a(lp4313
F0.333333
aaI21
aa(lp4314
I1
a(lp4315
F0.368421
aaI19
aaa(lp4316
g1468
ag1469
aa(lp4317
g1471
ag1472
a(lp4318
I1
a(lp4319
F0.0
aaI17
aa(lp4320
I1
a(lp4321
F0.733333
aaI15
aa(lp4322
I1
a(lp4323
F0.611111
aaI36
aa(lp4324
I1
a(lp4325
F0.0
aaI21
aa(lp4326
I1
a(lp4327
F0.333333
aaI30
aa(lp4328
I1
a(lp4329
F0.25
aaI12
aa(lp4330
I1
a(lp4331
F0.2
aaI15
aa(lp4332
I1
a(lp4333
F0.25
aaI20
aa(lp4334
I1
a(lp4335
F0.210526
aaI19
aa(lp4336
I1
a(lp4337
F0.222222
aaI18
aa(lp4338
I1
a(lp4339
F0.318182
aaI22
aa(lp4340
I1
a(lp4341
F0.375
aaI24
aa(lp4342
I1
a(lp4343
F0.392857
aaI28
aaa(lp4344
g1480
ag1481
a(lp4345
I1
a(lp4346
F0.291667
aaI24
aa(lp4347
I1
a(lp4348
F0.291667
aaI24
aa(lp4349
I1
a(lp4350
F0.24
aaI25
aa(lp4351
I1
a(lp4352
F0.368421
aaI19
aa(lp4353
I1
a(lp4354
F0.212121
aaI33
aa(lp4355
I1
a(lp4356
F0.222222
aaI18
aa(lp4357
I1
a(lp4358
F0.5
aaI24
aa(lp4359
I1
a(lp4360
F0.521739
aaI23
aa(lp4361
I1
a(lp4362
F0.3125
aaI16
aa(lp4363
I1
a(lp4364
F0.777778
aaI9
aaa(lp4365
g1489
ag1490
a(lp4366
I1
a(lp4367
F0.372093
aaI43
aa(lp4368
I1
a(lp4369
F0.275862
aaI29
aa(lp4370
I1
a(lp4371
F0.3
aaI20
aa(lp4372
I1
a(lp4373
F0.28
aaI25
aa(lp4374
I1
a(lp4375
F0.214286
aaI14
aa(lp4376
I1
a(lp4377
F0.421053
aaI38
aa(lp4378
I1
a(lp4379
F0.444444
aaI27
aa(lp4380
I1
a(lp4381
F0.333333
aaI24
aa(lp4382
I1
a(lp4383
F0.4
aaI25
aa(lp4384
I1
a(lp4385
F0.266667
aaI15
aa(lp4386
I1
a(lp4387
F0.208333
aaI24
aa(lp4388
I1
a(lp4389
F0.217391
aaI23
aa(lp4390
I2
a(lp4391
F0.263158
aF0.736842
aaI19
aa(lp4392
I1
a(lp4393
F0.263158
aaI19
aa(lp4394
I1
a(lp4395
F0.26087
aaI23
aa(lp4396
I1
a(lp4397
F0.230769
aaI26
aa(lp4398
I1
a(lp4399
F0.26087
aaI23
aa(lp4400
I1
a(lp4401
F0.333333
aaI18
aa(lp4402
I1
a(lp4403
F0.25
aaI12
aaa(lp4404
g1494
ag1495
a(lp4405
I1
a(lp4406
F0.217391
aaI23
aa(lp4407
I1
a(lp4408
F0.227273
aaI22
aa(lp4409
I1
a(lp4410
F0.25
aaI20
aa(lp4411
I1
a(lp4412
F0.391304
aaI23
aaa(lp4413
g1507
ag1508
aa(lp4414
g1512
ag1513
a(lp4415
I1
a(lp4416
F0.333333
aaI15
aa(lp4417
I1
a(lp4418
F0.357143
aaI14
aa(lp4419
I1
a(lp4420
F0.384615
aaI13
aa(lp4421
I1
a(lp4422
F0.384615
aaI13
aa(lp4423
I1
a(lp4424
F0.363636
aaI22
aa(lp4425
I1
a(lp4426
F0.347826
aaI23
aa(lp4427
I1
a(lp4428
F0.258065
aaI31
aa(lp4429
I1
a(lp4430
F0.233333
aaI30
aaa(lp4431
g1515
ag1516
aa(lp4432
g1518
ag1519
aa(lp4433
g1521
ag1522
aa(lp4434
g1524
ag1525
a(lp4435
I1
a(lp4436
F0.0
aaI32
aa(lp4437
I1
a(lp4438
F0.0
aaI8
aa(lp4439
I1
a(lp4440
F0.0
aaI8
aa(lp4441
I1
a(lp4442
F0.0
aaI9
aa(lp4443
I1
a(lp4444
F0.0
aaI9
aa(lp4445
I1
a(lp4446
F0.0
aaI35
aa(lp4447
I1
a(lp4448
F0.0
aaI2
aa(lp4449
I1
a(lp4450
F0.0
aaI3
aa(lp4451
I1
a(lp4452
F0.0
aaI3
aa(lp4453
I1
a(lp4454
F0.0
aaI5
aa(lp4455
I1
a(lp4456
F0.0
aaI3
aaa(lp4457
g1547
ag1548
a(lp4458
I1
a(lp4459
F0.448276
aaI29
aa(lp4460
I1
a(lp4461
F0.44
aaI25
aa(lp4462
I1
a(lp4463
F0.269231
aaI26
aa(lp4464
I1
a(lp4465
F0.259259
aaI27
aa(lp4466
I1
a(lp4467
F0.26087
aaI23
aa(lp4468
I1
a(lp4469
F0.238095
aaI21
aa(lp4470
I1
a(lp4471
F0.217391
aaI23
aa(lp4472
I1
a(lp4473
F0.238095
aaI21
aa(lp4474
I1
a(lp4475
F0.4375
aaI32
aa(lp4476
I1
a(lp4477
F0.52
aaI25
aaa(lp4478
g1568
ag1569
a(lp4479
I1
a(lp4480
F0.0
aaI38
aaa(lp4481
g1571
ag1572
aa(lp4482
g1574
ag1575
a(lp4483
I1
a(lp4484
F0.5
aaI18
aa(lp4485
I1
a(lp4486
F0.533333
aaI15
aa(lp4487
I1
a(lp4488
F0.466667
aaI15
aa(lp4489
I1
a(lp4490
F0.529412
aaI17
aaa(lp4491
g1577
ag1578
a(lp4492
I1
a(lp4493
F0.461538
aaI26
aa(lp4494
I1
a(lp4495
F0.461538
aaI26
aa(lp4496
I1
a(lp4497
F0.454545
aaI22
aa(lp4498
I1
a(lp4499
F0.315789
aaI19
aa(lp4500
I1
a(lp4501
F0.40625
aaI32
aa(lp4502
I1
a(lp4503
F0.48
aaI25
aaa(lp4504
g1580
ag1581
a(lp4505
I1
a(lp4506
F0.421053
aaI38
aa(lp4507
I1
a(lp4508
F0.307692
aaI13
aaa(lp4509
g1591
ag1592
aa(lp4510
g1594
ag1595
a(lp4511
I1
a(lp4512
F0.210526
aaI19
aa(lp4513
I1
a(lp4514
F0.307692
aaI13
aa(lp4515
I1
a(lp4516
F0.266667
aaI15
aa(lp4517
I1
a(lp4518
F0.266667
aaI15
aa(lp4519
I1
a(lp4520
F0.222222
aaI18
aa(lp4521
I1
a(lp4522
F0.2
aaI20
aa(lp4523
I1
a(lp4524
F0.516129
aaI31
aa(lp4525
I1
a(lp4526
F0.291667
aaI24
aa(lp4527
I1
a(lp4528
F0.222222
aaI18
aaa(lp4529
g1597
ag1598
a(lp4530
I1
a(lp4531
F0.444444
aaI27
aa(lp4532
I1
a(lp4533
F0.448276
aaI29
aa(lp4534
I1
a(lp4535
F0.285714
aaI28
aa(lp4536
I1
a(lp4537
F0.307692
aaI26
aa(lp4538
I1
a(lp4539
F0.318182
aaI22
aa(lp4540
I1
a(lp4541
F0.2
aaI20
aa(lp4542
I1
a(lp4543
F0.238095
aaI21
aa(lp4544
I1
a(lp4545
F0.291667
aaI24
aa(lp4546
I1
a(lp4547
F0.3
aaI20
aa(lp4548
I1
a(lp4549
F0.35
aaI20
aa(lp4550
I1
a(lp4551
F0.2
aaI20
aa(lp4552
I1
a(lp4553
F0.46875
aaI32
aa(lp4554
I1
a(lp4555
F0.447368
aaI38
aa(lp4556
I1
a(lp4557
F0.322581
aaI31
aa(lp4558
I1
a(lp4559
F0.322581
aaI31
aa(lp4560
I1
a(lp4561
F0.294118
aaI34
aa(lp4562
I1
a(lp4563
F0.294118
aaI34
aa(lp4564
I1
a(lp4565
F0.333333
aaI39
aa(lp4566
I1
a(lp4567
F0.575758
aaI33
aa(lp4568
I1
a(lp4569
F0.2
aaI20
aa(lp4570
I1
a(lp4571
F0.294118
aaI17
aa(lp4572
I1
a(lp4573
F0.24
aaI25
aa(lp4574
I1
a(lp4575
F0.28
aaI25
aa(lp4576
I1
a(lp4577
F0.363636
aaI22
aa(lp4578
I1
a(lp4579
F0.272727
aaI22
aaa(lp4580
g1600
ag1601
a(lp4581
I1
a(lp4582
F0.26087
aaI23
aa(lp4583
I1
a(lp4584
F0.2
aaI15
aa(lp4585
I1
a(lp4586
F0.2
aaI15
aa(lp4587
I1
a(lp4588
F0.272727
aaI33
aa(lp4589
I1
a(lp4590
F0.264706
aaI34
aaa(lp4591
g1605
ag1606
a(lp4592
I1
a(lp4593
F0.266667
aaI15
aa(lp4594
I1
a(lp4595
F0.263158
aaI19
aa(lp4596
I1
a(lp4597
F0.3125
aaI16
aa(lp4598
I1
a(lp4599
F0.423077
aaI26
aa(lp4600
I1
a(lp4601
F0.538462
aaI52
aa(lp4602
I1
a(lp4603
F0.307692
aaI13
aaa(lp4604
g1608
ag1609
aa(lp4605
g1611
ag1612
a(lp4606
I1
a(lp4607
F0.210526
aaI19
aa(lp4608
I1
a(lp4609
F0.222222
aaI18
aa(lp4610
I1
a(lp4611
F0.333333
aaI12
aaa(lp4612
g1614
ag1615
aa(lp4613
g1619
ag1620
a(lp4614
I1
a(lp4615
F0.212121
aaI33
aaa(lp4616
g1622
ag1623
aa(lp4617
g1625
ag1626
a(lp4618
I1
a(lp4619
F0.363636
aaI33
aa(lp4620
I1
a(lp4621
F0.230769
aaI26
aaa(lp4622
g1628
ag1629
a(lp4623
I1
a(lp4624
F0.227273
aaI22
aa(lp4625
I1
a(lp4626
F0.294118
aaI17
aa(lp4627
I1
a(lp4628
F0.235294
aaI17
aa(lp4629
I1
a(lp4630
F0.882353
aaI17
aa(lp4631
I1
a(lp4632
F0.285714
aaI21
aa(lp4633
I1
a(lp4634
F0.272727
aaI22
aa(lp4635
I1
a(lp4636
F0.272727
aaI22
aaa(lp4637
g1645
ag1646
aa(lp4638
g1648
ag1649
aa(lp4639
g1651
ag1652
aa(lp4640
g1654
ag1655
aa(lp4641
g1659
ag1660
aa(lp4642
g1680
ag1681
a(lp4643
I1
a(lp4644
F0.0
aaI14
aaa(lp4645
g1685
ag1686
a(lp4646
I1
a(lp4647
F0.5
aaI28
aaa(lp4648
g1688
ag1689
a(lp4649
I1
a(lp4650
F0.424242
aaI33
aa(lp4651
I1
a(lp4652
F0.375
aaI32
aa(lp4653
I1
a(lp4654
F0.266667
aaI30
aa(lp4655
I1
a(lp4656
F0.483871
aaI31
aa(lp4657
I1
a(lp4658
F0.32
aaI25
aa(lp4659
I1
a(lp4660
F0.244444
aaI45
aaa(lp4661
g1693
ag1694
a(lp4662
I1
a(lp4663
F0.214286
aaI28
aaa(lp4664
g1696
ag1697
a(lp4665
I1
a(lp4666
F0.466667
aaI45
aa(lp4667
I1
a(lp4668
F0.2
aaI45
aaa(lp4669
g1703
ag1704
aa(lp4670
g1706
ag1707
aa(lp4671
g1715
ag1716
aa(lp4672
g1718
ag1719
aa(lp4673
g1721
ag1722
aa(lp4674
g1734
ag1735
aa(lp4675
g1745
ag1746
a(lp4676
I1
a(lp4677
F0.517241
aaI29
aa(lp4678
I1
a(lp4679
F0.25
aaI20
aa(lp4680
I1
a(lp4681
F0.277778
aaI18
aa(lp4682
I1
a(lp4683
F0.277778
aaI18
aa(lp4684
I1
a(lp4685
F0.368421
aaI19
aa(lp4686
I1
a(lp4687
F0.315789
aaI19
aa(lp4688
I1
a(lp4689
F0.315789
aaI19
aa(lp4690
I1
a(lp4691
F0.3
aaI20
aa(lp4692
I1
a(lp4693
F0.291667
aaI24
aa(lp4694
I1
a(lp4695
F0.277778
aaI18
aa(lp4696
I1
a(lp4697
F0.357143
aaI14
aa(lp4698
I1
a(lp4699
F0.214286
aaI14
aaa(lp4700
g1750
ag1751
aa(lp4701
g1753
ag1754
aa(lp4702
g1756
ag1757
a(lp4703
I1
a(lp4704
F0.208333
aaI24
aa(lp4705
I1
a(lp4706
F0.208333
aaI24
aa(lp4707
I1
a(lp4708
F0.25
aaI20
aa(lp4709
I1
a(lp4710
F0.35
aaI20
aa(lp4711
I1
a(lp4712
F0.2
aaI25
aa(lp4713
I1
a(lp4714
F0.2
aaI25
aa(lp4715
I1
a(lp4716
F0.217391
aaI23
aa(lp4717
I1
a(lp4718
F0.230769
aaI26
aa(lp4719
I1
a(lp4720
F0.208333
aaI24
aa(lp4721
I1
a(lp4722
F0.354839
aaI31
aa(lp4723
I1
a(lp4724
F0.294118
aaI34
aa(lp4725
I1
a(lp4726
F0.4375
aaI16
aa(lp4727
I1
a(lp4728
F0.454545
aaI22
aa(lp4729
I1
a(lp4730
F0.558824
aaI34
aaa(lp4731
g1759
ag1760
a(lp4732
I1
a(lp4733
F0.0
aaI17
aa(lp4734
I1
a(lp4735
F0.352941
aaI17
aa(lp4736
I1
a(lp4737
F0.2
aaI15
aa(lp4738
I1
a(lp4739
F0.238095
aaI21
aa(lp4740
I1
a(lp4741
F0.3125
aaI32
aa(lp4742
I1
a(lp4743
F0.333333
aaI33
aa(lp4744
I1
a(lp4745
F0.333333
aaI30
aa(lp4746
I1
a(lp4747
F0.210526
aaI19
aa(lp4748
I1
a(lp4749
F0.2
aaI10
aa(lp4750
I1
a(lp4751
F0.214286
aaI14
aa(lp4752
I1
a(lp4753
F0.315789
aaI19
aaa(lp4754
g1762
ag1763
aa(lp4755
g1765
ag1766
aa(lp4756
g1768
ag1769
aa(lp4757
g1777
ag1778
a(lp4758
I1
a(lp4759
F0.2
aaI20
aa(lp4760
I1
a(lp4761
F0.25
aaI20
aa(lp4762
I1
a(lp4763
F0.421053
aaI19
aa(lp4764
I1
a(lp4765
F0.0
aaI45
aa(lp4766
I1
a(lp4767
F0.205882
aaI34
aaa(lp4768
g1794
ag1795
a(lp4769
I1
a(lp4770
F0.32
aaI25
aa(lp4771
I1
a(lp4772
F0.307692
aaI26
aa(lp4773
I1
a(lp4774
F0.461538
aaI52
aa(lp4775
I1
a(lp4776
F0.333333
aaI21
aa(lp4777
I1
a(lp4778
F0.521739
aaI23
aa(lp4779
I1
a(lp4780
F0.2
aaI20
aa(lp4781
I1
a(lp4782
F0.8
aaI5
aa(lp4783
I1
a(lp4784
F0.333333
aaI9
aa(lp4785
I1
a(lp4786
F0.478261
aaI23
aa(lp4787
I1
a(lp4788
F0.227273
aaI22
aa(lp4789
I1
a(lp4790
F0.333333
aaI27
aa(lp4791
I1
a(lp4792
F0.346154
aaI26
aa(lp4793
I1
a(lp4794
F0.37037
aaI27
aa(lp4795
I1
a(lp4796
F0.357143
aaI28
aa(lp4797
I1
a(lp4798
F0.28
aaI25
aa(lp4799
I1
a(lp4800
F0.307692
aaI26
aa(lp4801
I1
a(lp4802
F0.238095
aaI21
aaa(lp4803
g1823
ag1824
a(lp4804
I1
a(lp4805
F0.4
aaI35
aa(lp4806
I1
a(lp4807
F0.222222
aaI18
aa(lp4808
I1
a(lp4809
F0.351351
aaI37
aa(lp4810
I1
a(lp4811
F0.388889
aaI36
aa(lp4812
I1
a(lp4813
F0.269231
aaI26
aa(lp4814
I1
a(lp4815
F0.24
aaI25
aa(lp4816
I1
a(lp4817
F0.272727
aaI22
aa(lp4818
I1
a(lp4819
F0.208333
aaI24
aa(lp4820
I1
a(lp4821
F0.25
aaI20
aa(lp4822
I1
a(lp4823
F0.214286
aaI42
aa(lp4824
I1
a(lp4825
F0.222222
aaI18
aa(lp4826
I1
a(lp4827
F0.222222
aaI18
aa(lp4828
I1
a(lp4829
F0.361111
aaI36
aa(lp4830
I1
a(lp4831
F0.3
aaI20
aa(lp4832
I1
a(lp4833
F0.25
aaI20
aa(lp4834
I1
a(lp4835
F0.238095
aaI21
aa(lp4836
I1
a(lp4837
F0.3125
aaI16
aa(lp4838
I1
a(lp4839
F0.310345
aaI29
aa(lp4840
I1
a(lp4841
F0.296296
aaI27
aa(lp4842
I1
a(lp4843
F0.2
aaI25
aa(lp4844
I1
a(lp4845
F0.0
aaI19
aa(lp4846
I1
a(lp4847
F0.0
aaI19
aa(lp4848
I1
a(lp4849
F0.0
aaI17
aaa(lp4850
g1832
ag1833
a(lp4851
I1
a(lp4852
F0.333333
aaI45
aa(lp4853
I1
a(lp4854
F0.309524
aaI42
aa(lp4855
I1
a(lp4856
F0.307692
aaI39
aa(lp4857
I1
a(lp4858
F0.222222
aaI18
aa(lp4859
I1
a(lp4860
F0.214286
aaI14
aa(lp4861
I1
a(lp4862
F0.25
aaI16
aa(lp4863
I1
a(lp4864
F0.266667
aaI15
aa(lp4865
I1
a(lp4866
F0.0
aaI7
aa(lp4867
I1
a(lp4868
F0.333333
aaI9
aa(lp4869
I1
a(lp4870
F0.534884
aaI43
aa(lp4871
I1
a(lp4872
F0.522727
aaI44
aa(lp4873
I1
a(lp4874
F0.333333
aaI30
aa(lp4875
I1
a(lp4876
F0.378378
aaI37
aaa(lp4877
g1861
ag1862
aa(lp4878
g1864
ag1865
a(lp4879
I1
a(lp4880
F0.233333
aaI30
aa(lp4881
I1
a(lp4882
F0.26087
aaI23
aa(lp4883
I1
a(lp4884
F0.0
aaI13
aaa(lp4885
g1881
ag1882
a(lp4886
I1
a(lp4887
F0.301075
aaI93
aa(lp4888
I1
a(lp4889
F0.52439
aaI82
aaa(lp4890
g1884
ag1885
aa(lp4891
g1887
ag1888
aa(lp4892
g1892
ag1893
a(lp4893
I1
a(lp4894
F0.3
aaI20
aa(lp4895
I1
a(lp4896
F0.368421
aaI19
aa(lp4897
I1
a(lp4898
F0.235294
aaI17
aa(lp4899
I1
a(lp4900
F0.235294
aaI17
aa(lp4901
I1
a(lp4902
F0.235294
aaI17
aa(lp4903
I1
a(lp4904
F0.25
aaI20
aa(lp4905
I1
a(lp4906
F0.291667
aaI24
aa(lp4907
I1
a(lp4908
F0.375
aaI32
aa(lp4909
I1
a(lp4910
F0.269231
aaI26
aa(lp4911
I1
a(lp4912
F0.230769
aaI26
aaa(lp4913
g1897
ag1898
a(lp4914
I1
a(lp4915
F0.222222
aaI18
aa(lp4916
I1
a(lp4917
F0.210526
aaI19
aa(lp4918
I1
a(lp4919
F0.2
aaI30
aaa(lp4920
g1916
ag1917
a(lp4921
I1
a(lp4922
F0.214286
aaI14
aa(lp4923
I1
a(lp4924
F0.214286
aaI14
aaa(lp4925
g1927
ag1928
a(lp4926
I1
a(lp4927
F0.0
aaI28
aa(lp4928
I1
a(lp4929
F0.0
aaI24
aa(lp4930
I1
a(lp4931
F0.0
aaI20
aaa(lp4932
g1952
ag1953
a(lp4933
I1
a(lp4934
F0.416667
aaI36
aa(lp4935
I1
a(lp4936
F0.241379
aaI29
aa(lp4937
I1
a(lp4938
F0.259259
aaI27
aa(lp4939
I1
a(lp4940
F0.26087
aaI23
aa(lp4941
I1
a(lp4942
F0.2
aaI25
aa(lp4943
I1
a(lp4944
F0.217391
aaI23
aaa(lp4945
g1955
ag1956
aa(lp4946
g1958
ag1959
aa(lp4947
g1961
ag1962
a(lp4948
I1
a(lp4949
F0.631579
aaI19
aa(lp4950
I1
a(lp4951
F0.0
aaI29
aa(lp4952
I1
a(lp4953
F0.263158
aaI19
aa(lp4954
I1
a(lp4955
F0.258065
aaI31
aa(lp4956
I1
a(lp4957
F0.375
aaI24
aa(lp4958
I1
a(lp4959
F0.363636
aaI22
aaa(lp4960
g1966
ag1967
a(lp4961
I1
a(lp4962
F0.2
aaI20
aa(lp4963
I1
a(lp4964
F0.37931
aaI29
aa(lp4965
I1
a(lp4966
F0.368421
aaI19
aa(lp4967
I1
a(lp4968
F0.4
aaI20
aa(lp4969
I1
a(lp4970
F0.263158
aaI19
aaa(lp4971
g1969
ag1970
a(lp4972
I1
a(lp4973
F0.2
aaI10
aa(lp4974
I1
a(lp4975
F0.5
aaI12
aa(lp4976
I1
a(lp4977
F0.5
aaI14
aa(lp4978
I1
a(lp4979
F0.5
aaI16
aa(lp4980
I1
a(lp4981
F0.291667
aaI24
aa(lp4982
I1
a(lp4983
F0.238095
aaI21
aa(lp4984
I1
a(lp4985
F0.32
aaI25
aa(lp4986
I1
a(lp4987
F0.26087
aaI23
aa(lp4988
I1
a(lp4989
F0.24
aaI25
aa(lp4990
I1
a(lp4991
F0.2
aaI30
aa(lp4992
I1
a(lp4993
F0.304348
aaI23
aa(lp4994
I1
a(lp4995
F0.34375
aaI32
aa(lp4996
I1
a(lp4997
F0.277778
aaI18
aa(lp4998
I1
a(lp4999
F0.458333
aaI24
aa(lp5000
I1
a(lp5001
F0.259259
aaI27
aa(lp5002
I1
a(lp5003
F0.304348
aaI23
aa(lp5004
I1
a(lp5005
F0.304348
aaI23
aa(lp5006
I1
a(lp5007
F0.285714
aaI21
aa(lp5008
I1
a(lp5009
F0.210526
aaI19
aa(lp5010
I1
a(lp5011
F0.433333
aaI30
aa(lp5012
I1
a(lp5013
F0.4375
aaI32
aa(lp5014
I1
a(lp5015
F0.375
aaI32
aa(lp5016
I1
a(lp5017
F0.391304
aaI23
aa(lp5018
I1
a(lp5019
F0.333333
aaI24
aa(lp5020
I1
a(lp5021
F0.541667
aaI24
aa(lp5022
I1
a(lp5023
F0.294118
aaI51
aa(lp5024
I1
a(lp5025
F0.239437
aaI71
aa(lp5026
I1
a(lp5027
F0.220339
aaI59
aa(lp5028
I1
a(lp5029
F0.4
aaI50
aaa(lp5030
g1972
ag1973
a(lp5031
I1
a(lp5032
F0.3125
aaI16
aa(lp5033
I1
a(lp5034
F0.538462
aaI13
aa(lp5035
I1
a(lp5036
F0.25
aaI16
aa(lp5037
I1
a(lp5038
F0.210526
aaI19
aa(lp5039
I1
a(lp5040
F0.428571
aaI21
aa(lp5041
I1
a(lp5042
F0.363636
aaI22
aa(lp5043
I1
a(lp5044
F0.4
aaI25
aa(lp5045
I1
a(lp5046
F0.307692
aaI26
aa(lp5047
I1
a(lp5048
F0.375
aaI24
aa(lp5049
I1
a(lp5050
F0.375
aaI24
aa(lp5051
I1
a(lp5052
F0.411765
aaI17
aa(lp5053
I1
a(lp5054
F0.25
aaI24
aa(lp5055
I1
a(lp5056
F0.217391
aaI23
aa(lp5057
I1
a(lp5058
F0.222222
aaI18
aa(lp5059
I1
a(lp5060
F0.2
aaI25
aa(lp5061
I1
a(lp5062
F0.222222
aaI18
aa(lp5063
I1
a(lp5064
F0.0
aaI15
aa(lp5065
I1
a(lp5066
F0.391304
aaI23
aa(lp5067
I1
a(lp5068
F0.266667
aaI15
aa(lp5069
I1
a(lp5070
F0.266667
aaI15
aa(lp5071
I1
a(lp5072
F0.277778
aaI18
aa(lp5073
I1
a(lp5074
F0.277778
aaI18
aa(lp5075
I1
a(lp5076
F0.3125
aaI16
aaa(lp5077
g1977
ag1978
aa(lp5078
g1980
ag1981
a(lp5079
I1
a(lp5080
F0.27907
aaI43
aaa(lp5081
g1983
ag1984
aa(lp5082
g1986
ag1987
a(lp5083
I1
a(lp5084
F0.44
aaI25
aa(lp5085
I1
a(lp5086
F0.490909
aaI55
aa(lp5087
I1
a(lp5088
F0.296875
aaI64
aa(lp5089
I1
a(lp5090
F0.735849
aaI53
aa(lp5091
I1
a(lp5092
F0.642857
aaI42
aa(lp5093
I1
a(lp5094
F0.340909
aaI44
aa(lp5095
I1
a(lp5096
F0.7
aaI40
aa(lp5097
I1
a(lp5098
F0.472222
aaI36
aa(lp5099
I1
a(lp5100
F0.594595
aaI37
aa(lp5101
I1
a(lp5102
F0.478261
aaI23
aa(lp5103
I1
a(lp5104
F0.34375
aaI32
aa(lp5105
I1
a(lp5106
F0.423077
aaI26
aa(lp5107
I1
a(lp5108
F0.333333
aaI27
aa(lp5109
I1
a(lp5110
F0.321429
aaI28
aa(lp5111
I1
a(lp5112
F0.322581
aaI31
aa(lp5113
I1
a(lp5114
F0.25
aaI12
aa(lp5115
I1
a(lp5116
F0.25
aaI12
aa(lp5117
I1
a(lp5118
F0.272727
aaI11
aa(lp5119
I1
a(lp5120
F0.357143
aaI14
aa(lp5121
I1
a(lp5122
F0.363636
aaI11
aa(lp5123
I1
a(lp5124
F0.363636
aaI11
aa(lp5125
I1
a(lp5126
F0.333333
aaI12
aa(lp5127
I1
a(lp5128
F0.272727
aaI11
aa(lp5129
I1
a(lp5130
F0.52381
aaI21
aa(lp5131
I1
a(lp5132
F0.52381
aaI21
aaa(lp5133
g1991
ag1992
aa(lp5134
g1994
ag1995
aa(lp5135
g2001
ag2002
aa(lp5136
g2004
ag2005
a(lp5137
I1
a(lp5138
F0.272727
aaI11
aa(lp5139
I1
a(lp5140
F0.2
aaI15
aa(lp5141
I1
a(lp5142
F0.4
aaI15
aa(lp5143
I1
a(lp5144
F0.294118
aaI17
aa(lp5145
I1
a(lp5146
F0.315789
aaI19
aa(lp5147
I1
a(lp5148
F0.296296
aaI27
aa(lp5149
I1
a(lp5150
F0.26087
aaI23
aa(lp5151
I1
a(lp5152
F0.26087
aaI23
aa(lp5153
I1
a(lp5154
F0.25
aaI20
aa(lp5155
I1
a(lp5156
F0.2
aaI20
aa(lp5157
I1
a(lp5158
F0.222222
aaI18
aa(lp5159
I1
a(lp5160
F0.25
aaI16
aa(lp5161
I1
a(lp5162
F0.3125
aaI16
aa(lp5163
I1
a(lp5164
F0.263158
aaI19
aa(lp5165
I1
a(lp5166
F0.5
aaI20
aa(lp5167
I1
a(lp5168
F0.45
aaI20
aa(lp5169
I1
a(lp5170
F0.434783
aaI23
aa(lp5171
I1
a(lp5172
F0.454545
aaI22
aa(lp5173
I1
a(lp5174
F0.4
aaI20
aa(lp5175
I1
a(lp5176
F0.538462
aaI13
aa(lp5177
I1
a(lp5178
F0.266667
aaI15
aa(lp5179
I1
a(lp5180
F0.214286
aaI14
aa(lp5181
I1
a(lp5182
F0.3
aaI10
aa(lp5183
I1
a(lp5184
F0.307692
aaI13
aa(lp5185
I1
a(lp5186
F0.25
aaI12
aa(lp5187
I1
a(lp5188
F0.25
aaI12
aa(lp5189
I1
a(lp5190
F0.25
aaI12
aa(lp5191
I1
a(lp5192
F0.25
aaI12
aa(lp5193
I1
a(lp5194
F0.25
aaI12
aa(lp5195
I1
a(lp5196
F0.25
aaI12
aa(lp5197
I1
a(lp5198
F0.333333
aaI12
aa(lp5199
I1
a(lp5200
F0.222222
aaI9
aa(lp5201
I1
a(lp5202
F0.391304
aaI23
aa(lp5203
I1
a(lp5204
F0.0
aaI13
aaa(lp5205
g2009
ag2010
a(lp5206
I1
a(lp5207
F0.4
aaI25
aa(lp5208
I1
a(lp5209
F0.416667
aaI24
aa(lp5210
I1
a(lp5211
F0.307692
aaI13
aa(lp5212
I1
a(lp5213
F0.333333
aaI9
aaa(lp5214
g2012
ag2013
a(lp5215
I1
a(lp5216
F0.3
aaI20
aaa(lp5217
g2015
ag2016
a(lp5218
I1
a(lp5219
F0.433333
aaI30
aa(lp5220
I1
a(lp5221
F0.5
aaI36
aa(lp5222
I1
a(lp5223
F0.483871
aaI31
aa(lp5224
I1
a(lp5225
F0.518519
aaI27
aa(lp5226
I1
a(lp5227
F0.444444
aaI27
aaa(lp5228
g2018
ag2019
aa(lp5229
g2021
ag2022
aa(lp5230
g2024
ag2025
aa(lp5231
g2027
ag2028
a(lp5232
I1
a(lp5233
F0.5
aaI20
aa(lp5234
I1
a(lp5235
F0.615385
aaI26
aa(lp5236
I1
a(lp5237
F0.583333
aaI24
aaa(lp5238
g2032
ag2033
a(lp5239
I1
a(lp5240
F0.461538
aaI13
aa(lp5241
I1
a(lp5242
F0.5
aaI10
aa(lp5243
I1
a(lp5244
F0.352941
aaI17
aa(lp5245
I1
a(lp5246
F0.2
aaI10
aa(lp5247
I1
a(lp5248
F0.0
aaI16
aa(lp5249
I1
a(lp5250
F0.0
aaI17
aaa(lp5251
g2035
ag2036
a(lp5252
I1
a(lp5253
F0.238095
aaI21
aa(lp5254
I1
a(lp5255
F0.45
aaI20
aa(lp5256
I1
a(lp5257
F0.333333
aaI18
aa(lp5258
I1
a(lp5259
F0.35
aaI20
aaa(lp5260
g2046
ag2047
aa(lp5261
g2049
ag2050
aa(lp5262
g2052
ag2053
aa(lp5263
g2055
ag2056
aa(lp5264
g2060
ag2061
a(lp5265
I1
a(lp5266
F0.0
aaI32
aa(lp5267
I1
a(lp5268
F0.461538
aaI13
aa(lp5269
I1
a(lp5270
F0.352941
aaI17
aa(lp5271
I1
a(lp5272
F0.5
aaI22
aa(lp5273
I1
a(lp5274
F0.285714
aaI28
aa(lp5275
I1
a(lp5276
F0.32
aaI25
aa(lp5277
I1
a(lp5278
F0.4
aaI25
aa(lp5279
I1
a(lp5280
F0.416667
aaI12
aa(lp5281
I1
a(lp5282
F0.45
aaI20
aa(lp5283
I1
a(lp5284
F0.333333
aaI6
aa(lp5285
I1
a(lp5286
F1.0
aaI2
aa(lp5287
I1
a(lp5288
F0.0
aaI3
aa(lp5289
I1
a(lp5290
F0.407407
aaI27
aa(lp5291
I1
a(lp5292
F0.307692
aaI26
aa(lp5293
I1
a(lp5294
F0.304348
aaI23
aa(lp5295
I1
a(lp5296
F0.3
aaI20
aa(lp5297
I1
a(lp5298
F0.0
aaI7
aa(lp5299
I1
a(lp5300
F0.0
aaI10
aa(lp5301
I1
a(lp5302
F0.222222
aaI18
aa(lp5303
I1
a(lp5304
F0.263158
aaI19
aa(lp5305
I1
a(lp5306
F0.5
aaI14
aa(lp5307
I1
a(lp5308
F0.25
aaI16
aa(lp5309
I1
a(lp5310
F0.411765
aaI17
aa(lp5311
I1
a(lp5312
F0.26087
aaI23
aaa(lp5313
g2073
ag2074
aa(lp5314
g2076
ag2077
aa(lp5315
g2079
ag2080
a(lp5316
I1
a(lp5317
F0.4
aaI20
aa(lp5318
I1
a(lp5319
F0.277778
aaI18
aa(lp5320
I1
a(lp5321
F0.294118
aaI17
aa(lp5322
I1
a(lp5323
F0.368421
aaI19
aa(lp5324
I1
a(lp5325
F0.5
aaI14
aaa(lp5326
g2082
ag2083
aa(lp5327
g2085
ag2086
a(lp5328
I1
a(lp5329
F0.25
aaI16
aa(lp5330
I1
a(lp5331
F0.25
aaI16
aa(lp5332
I1
a(lp5333
F0.266667
aaI15
aa(lp5334
I1
a(lp5335
F0.296296
aaI27
aa(lp5336
I1
a(lp5337
F0.4
aaI10
aa(lp5338
I1
a(lp5339
F0.222222
aaI9
aa(lp5340
I1
a(lp5341
F0.333333
aaI9
aa(lp5342
I1
a(lp5343
F0.5
aaI8
aa(lp5344
I1
a(lp5345
F0.416667
aaI12
aa(lp5346
I1
a(lp5347
F0.409091
aaI22
aa(lp5348
I1
a(lp5349
F0.363636
aaI22
aa(lp5350
I1
a(lp5351
F0.363636
aaI22
aa(lp5352
I1
a(lp5353
F0.25
aaI24
aa(lp5354
I1
a(lp5355
F0.540541
aaI37
aa(lp5356
I1
a(lp5357
F0.285714
aaI21
aaa(lp5358
g2090
ag2091
a(lp5359
I1
a(lp5360
F0.327586
aaI58
aaa(lp5361
g2097
ag2098
a(lp5362
I1
a(lp5363
F0.259259
aaI27
aa(lp5364
I1
a(lp5365
F0.0
aaI17
aa(lp5366
I1
a(lp5367
F0.681818
aaI22
aa(lp5368
I1
a(lp5369
F0.666667
aaI18
aa(lp5370
I1
a(lp5371
F0.625
aaI16
aa(lp5372
I1
a(lp5373
F0.6875
aaI16
aaa(lp5374
g2106
ag2107
a(lp5375
I1
a(lp5376
F0.277778
aaI18
aa(lp5377
I1
a(lp5378
F0.35
aaI20
aa(lp5379
I1
a(lp5380
F0.5625
aaI16
aa(lp5381
I1
a(lp5382
F0.380952
aaI21
aa(lp5383
I1
a(lp5384
F0.222222
aaI18
aa(lp5385
I1
a(lp5386
F0.222222
aaI18
aa(lp5387
I1
a(lp5388
F0.235294
aaI17
aa(lp5389
I1
a(lp5390
F0.478261
aaI23
aa(lp5391
I1
a(lp5392
F0.444444
aaI27
aa(lp5393
I1
a(lp5394
F0.458333
aaI24
aa(lp5395
I1
a(lp5396
F0.541667
aaI24
aa(lp5397
I1
a(lp5398
F0.56
aaI25
aa(lp5399
I1
a(lp5400
F0.551724
aaI29
aa(lp5401
I1
a(lp5402
F0.2
aaI20
aa(lp5403
I1
a(lp5404
F0.214286
aaI28
aa(lp5405
I1
a(lp5406
F0.238095
aaI21
aa(lp5407
I1
a(lp5408
F0.294118
aaI17
aa(lp5409
I1
a(lp5410
F0.294118
aaI17
aa(lp5411
I1
a(lp5412
F0.25
aaI20
aa(lp5413
I1
a(lp5414
F0.238095
aaI21
aa(lp5415
I1
a(lp5416
F0.263158
aaI19
aa(lp5417
I1
a(lp5418
F0.263158
aaI19
aa(lp5419
I1
a(lp5420
F0.277778
aaI18
aa(lp5421
I1
a(lp5422
F0.315789
aaI19
aa(lp5423
I1
a(lp5424
F0.352941
aaI17
aa(lp5425
I1
a(lp5426
F0.352941
aaI17
aa(lp5427
I1
a(lp5428
F0.333333
aaI18
aa(lp5429
I1
a(lp5430
F0.352941
aaI17
aa(lp5431
I1
a(lp5432
F0.470588
aaI17
aa(lp5433
I1
a(lp5434
F0.461538
aaI13
aa(lp5435
I1
a(lp5436
F0.3125
aaI16
aa(lp5437
I1
a(lp5438
F0.315789
aaI19
aa(lp5439
I1
a(lp5440
F0.44
aaI25
aa(lp5441
I1
a(lp5442
F0.5
aaI34
aa(lp5443
I1
a(lp5444
F0.387097
aaI31
aa(lp5445
I1
a(lp5446
F0.37931
aaI29
aa(lp5447
I1
a(lp5448
F0.770833
aaI96
aa(lp5449
I1
a(lp5450
F0.746835
aaI79
aa(lp5451
I1
a(lp5452
F0.222222
aaI18
aa(lp5453
I1
a(lp5454
F0.238095
aaI21
aa(lp5455
I1
a(lp5456
F0.263158
aaI19
aa(lp5457
I1
a(lp5458
F0.35
aaI20
aa(lp5459
I1
a(lp5460
F0.208333
aaI24
aa(lp5461
I1
a(lp5462
F0.657895
aaI38
aa(lp5463
I1
a(lp5464
F0.22449
aaI49
aaa(lp5465
g2151
ag2152
a(lp5466
I1
a(lp5467
F0.3
aaI20
aa(lp5468
I1
a(lp5469
F0.263158
aaI19
aa(lp5470
I1
a(lp5471
F0.235294
aaI17
aaa(lp5472
g2160
ag2161
a(lp5473
I1
a(lp5474
F0.434783
aaI23
aa(lp5475
I1
a(lp5476
F0.478261
aaI23
aa(lp5477
I1
a(lp5478
F0.631579
aaI19
aa(lp5479
I1
a(lp5480
F0.611111
aaI18
aa(lp5481
I1
a(lp5482
F0.588235
aaI17
aa(lp5483
I1
a(lp5484
F0.304348
aaI23
aa(lp5485
I1
a(lp5486
F0.269231
aaI26
aa(lp5487
I1
a(lp5488
F0.6
aaI20
aa(lp5489
I1
a(lp5490
F0.391304
aaI23
aa(lp5491
I1
a(lp5492
F0.333333
aaI18
aa(lp5493
I1
a(lp5494
F0.3
aaI20
aa(lp5495
I1
a(lp5496
F0.25
aaI20
aa(lp5497
I1
a(lp5498
F0.2
aaI15
aa(lp5499
I1
a(lp5500
F0.2
aaI15
aa(lp5501
I1
a(lp5502
F0.285714
aaI14
aa(lp5503
I1
a(lp5504
F0.428571
aaI14
aa(lp5505
I1
a(lp5506
F0.0
aaI11
aaa(lp5507
g2163
ag2164
aa(lp5508
g2168
ag2169
a(lp5509
I1
a(lp5510
F0.363636
aaI22
aaa(lp5511
g2171
ag2172
a(lp5512
I1
a(lp5513
F0.333333
aaI18
aa(lp5514
I1
a(lp5515
F0.318182
aaI22
aa(lp5516
I1
a(lp5517
F0.2
aaI25
aa(lp5518
I1
a(lp5519
F0.235294
aaI34
aa(lp5520
I1
a(lp5521
F0.32
aaI25
aa(lp5522
I1
a(lp5523
F0.333333
aaI24
aa(lp5524
I1
a(lp5525
F0.32
aaI25
aa(lp5526
I1
a(lp5527
F0.25
aaI20
aa(lp5528
I1
a(lp5529
F0.448276
aaI29
aa(lp5530
I1
a(lp5531
F0.413793
aaI29
aa(lp5532
I1
a(lp5533
F0.52381
aaI21
aa(lp5534
I1
a(lp5535
F0.35
aaI20
aa(lp5536
I1
a(lp5537
F0.235294
aaI17
aa(lp5538
I1
a(lp5539
F0.222222
aaI18
aa(lp5540
I1
a(lp5541
F0.263158
aaI19
aa(lp5542
I1
a(lp5543
F0.217391
aaI23
aa(lp5544
I1
a(lp5545
F0.484848
aaI33
aa(lp5546
I1
a(lp5547
F0.5
aaI32
aaa(lp5548
g2174
ag2175
a(lp5549
I1
a(lp5550
F0.615385
aaI26
aaa(lp5551
g2177
ag2178
a(lp5552
I1
a(lp5553
F0.857143
aaI14
aa(lp5554
I1
a(lp5555
F0.259259
aaI27
aa(lp5556
I1
a(lp5557
F0.321429
aaI28
aa(lp5558
I1
a(lp5559
F0.230769
aaI26
aa(lp5560
I1
a(lp5561
F0.230769
aaI26
aa(lp5562
I1
a(lp5563
F0.230769
aaI26
aa(lp5564
I1
a(lp5565
F0.263158
aaI19
aa(lp5566
I1
a(lp5567
F0.363636
aaI22
aaa(lp5568
g2180
ag2181
a(lp5569
I1
a(lp5570
F0.266667
aaI15
aa(lp5571
I1
a(lp5572
F0.368421
aaI19
aa(lp5573
I1
a(lp5574
F0.478261
aaI23
aa(lp5575
I1
a(lp5576
F0.48
aaI25
aa(lp5577
I1
a(lp5578
F0.444444
aaI27
aa(lp5579
I1
a(lp5580
F0.428571
aaI28
aa(lp5581
I1
a(lp5582
F0.384615
aaI26
aa(lp5583
I1
a(lp5584
F0.333333
aaI27
aa(lp5585
I1
a(lp5586
F0.392857
aaI28
aa(lp5587
I1
a(lp5588
F0.428571
aaI28
aa(lp5589
I1
a(lp5590
F0.466667
aaI30
aa(lp5591
I1
a(lp5592
F0.2
aaI30
aaa(lp5593
g2185
ag2186
aa(lp5594
g2188
ag2189
a(lp5595
I1
a(lp5596
F0.291667
aaI24
aaa(lp5597
g2191
ag2192
aa(lp5598
g2196
ag2197
aa(lp5599
g2201
ag2202
aa(lp5600
g2204
ag2205
a(lp5601
I1
a(lp5602
F0.473684
aaI38
aaa(lp5603
g2207
ag2208
a(lp5604
I1
a(lp5605
F0.380952
aaI21
aaa(lp5606
g2226
ag2227
aa(lp5607
g2235
ag2236
a(lp5608
I1
a(lp5609
F0.391304
aaI23
aa(lp5610
I1
a(lp5611
F0.222222
aaI27
aa(lp5612
I1
a(lp5613
F0.272727
aaI22
aa(lp5614
I1
a(lp5615
F0.217391
aaI23
aa(lp5616
I1
a(lp5617
F0.416667
aaI36
aa(lp5618
I1
a(lp5619
F0.388889
aaI36
aa(lp5620
I1
a(lp5621
F0.333333
aaI39
aa(lp5622
I1
a(lp5623
F0.348837
aaI43
aa(lp5624
I1
a(lp5625
F0.580645
aaI31
aa(lp5626
I1
a(lp5627
F0.516129
aaI31
aa(lp5628
I1
a(lp5629
F0.222222
aaI9
aa(lp5630
I1
a(lp5631
F0.230769
aaI13
aa(lp5632
I1
a(lp5633
F0.25
aaI12
aa(lp5634
I1
a(lp5635
F0.4
aaI10
aa(lp5636
I1
a(lp5637
F0.357143
aaI14
aa(lp5638
I1
a(lp5639
F0.384615
aaI13
aa(lp5640
I1
a(lp5641
F0.333333
aaI15
aa(lp5642
I1
a(lp5643
F0.235294
aaI17
aa(lp5644
I1
a(lp5645
F0.578947
aaI19
aa(lp5646
I1
a(lp5647
F0.357143
aaI14
aa(lp5648
I1
a(lp5649
F0.357143
aaI14
aag5033
a(lp5650
I1
a(lp5651
F0.4
aaI15
aa(lp5652
I1
a(lp5653
F0.4375
aaI16
aa(lp5654
I1
a(lp5655
F0.421053
aaI19
aa(lp5656
I1
a(lp5657
F0.666667
aaI9
aa(lp5658
I1
a(lp5659
F0.333333
aaI9
aa(lp5660
I1
a(lp5661
F0.222222
aaI9
aa(lp5662
I1
a(lp5663
F0.222222
aaI9
aa(lp5664
I1
a(lp5665
F0.375
aaI8
aa(lp5666
I1
a(lp5667
F0.333333
aaI9
aa(lp5668
I1
a(lp5669
F0.235294
aaI17
aag5059
a(lp5670
I1
a(lp5671
F0.235294
aaI17
aa(lp5672
I1
a(lp5673
F0.222222
aaI18
aa(lp5674
I1
a(lp5675
F0.380952
aaI21
aa(lp5676
I1
a(lp5677
F0.375
aaI24
aa(lp5678
I1
a(lp5679
F0.391304
aaI23
aa(lp5680
I1
a(lp5681
F0.368421
aaI19
aaa(lp5682
g2258
ag2259
aa(lp5683
g2263
ag2264
a(lp5684
I1
a(lp5685
F0.464286
aaI28
aa(lp5686
I1
a(lp5687
F0.392857
aaI28
aa(lp5688
I1
a(lp5689
F0.444444
aaI27
aaa(lp5690
g2266
ag2267
aa(lp5691
g2269
ag2270
aa(lp5692
g2274
ag2275
a(lp5693
I1
a(lp5694
F0.344828
aaI29
aa(lp5695
I1
a(lp5696
F0.217391
aaI23
aa(lp5697
I1
a(lp5698
F0.25
aaI40
aa(lp5699
I1
a(lp5700
F0.28
aaI25
aa(lp5701
I1
a(lp5702
F0.304348
aaI23
aa(lp5703
I1
a(lp5704
F0.263158
aaI19
aa(lp5705
I1
a(lp5706
F0.24
aaI25
aaa(lp5707
g2277
ag2278
a(lp5708
I1
a(lp5709
F0.357143
aaI14
aa(lp5710
I1
a(lp5711
F0.333333
aaI33
aa(lp5712
I1
a(lp5713
F0.478261
aaI46
aa(lp5714
I1
a(lp5715
F0.384615
aaI26
aa(lp5716
I1
a(lp5717
F0.291667
aaI24
aaa(lp5718
g2280
ag2281
aa(lp5719
g2283
ag2284
aa(lp5720
g2286
ag2287
a(lp5721
I1
a(lp5722
F0.214286
aaI14
aa(lp5723
I1
a(lp5724
F0.567568
aaI37
aa(lp5725
I1
a(lp5726
F0.25
aaI24
aa(lp5727
I1
a(lp5728
F0.24
aaI25
aa(lp5729
I1
a(lp5730
F0.208333
aaI24
aa(lp5731
I1
a(lp5732
F0.238095
aaI21
aa(lp5733
I1
a(lp5734
F0.26087
aaI23
aa(lp5735
I1
a(lp5736
F0.307692
aaI221
aa(lp5737
I1
a(lp5738
F0.579365
aaI126
aaa(lp5739
g2289
ag2290
a(lp5740
I1
a(lp5741
F0.235294
aaI17
aa(lp5742
I1
a(lp5743
F0.44
aaI25
aa(lp5744
I1
a(lp5745
F0.3125
aaI16
aa(lp5746
I1
a(lp5747
F0.217391
aaI46
aaa(lp5748
g2292
ag2293
a(lp5749
I1
a(lp5750
F0.2
aaI25
aa(lp5751
I1
a(lp5752
F0.3125
aaI16
aa(lp5753
I1
a(lp5754
F0.2
aaI15
aa(lp5755
I1
a(lp5756
F0.25
aaI16
aa(lp5757
I1
a(lp5758
F0.607143
aaI28
aa(lp5759
I1
a(lp5760
F0.25
aaI24
aa(lp5761
I1
a(lp5762
F0.291667
aaI24
aa(lp5763
I1
a(lp5764
F0.612903
aaI31
aaa(lp5765
g2297
ag2298
a(lp5766
I1
a(lp5767
F0.333333
aaI30
aa(lp5768
I1
a(lp5769
F0.25
aaI20
aa(lp5770
I1
a(lp5771
F0.263158
aaI19
aa(lp5772
I1
a(lp5773
F0.315789
aaI19
aa(lp5774
I1
a(lp5775
F0.428571
aaI14
aa(lp5776
I1
a(lp5777
F0.428571
aaI14
aa(lp5778
I1
a(lp5779
F0.4375
aaI16
aa(lp5780
I1
a(lp5781
F0.25
aaI28
aa(lp5782
I1
a(lp5783
F0.21875
aaI32
aa(lp5784
I1
a(lp5785
F0.242424
aaI33
aa(lp5786
I1
a(lp5787
F0.566667
aaI30
aa(lp5788
I1
a(lp5789
F0.586207
aaI29
aa(lp5790
I1
a(lp5791
F0.52
aaI25
aa(lp5792
I1
a(lp5793
F0.333333
aaI24
aa(lp5794
I1
a(lp5795
F0.318182
aaI22
aaa(lp5796
g2300
ag2301
aassS'diploids'
p5797
(dp5798
g3
(lp5799
(lp5800
S'scaffold17315_cov142'
p5801
aS'scaffold17316_cov65'
p5802
aa(lp5803
S'scaffold1868_cov136'
p5804
aS'scaffold7102_cov63'
p5805
a(lp5806
I1
a(lp5807
F0.25
aaI32
aa(lp5808
I1
a(lp5809
F0.264706
aaI34
aa(lp5810
I1
a(lp5811
F0.259259
aaI27
aa(lp5812
I1
a(lp5813
F0.391304
aaI23
aaa(lp5814
S'scaffold19614_cov87'
p5815
aS'scaffold74444_cov64'
p5816
aa(lp5817
S'scaffold166740_cov68'
p5818
aS'scaffold167477_cov80'
p5819
a(lp5820
I1
a(lp5821
F0.25
aaI24
aa(lp5822
I1
a(lp5823
F0.304348
aaI23
aa(lp5824
I1
a(lp5825
F0.263158
aaI19
aa(lp5826
I1
a(lp5827
F0.2
aaI20
aaa(lp5828
S'scaffold50322_cov70'
p5829
aS'scaffold50494_cov83'
p5830
aa(lp5831
S'scaffold27148_cov73'
p5832
aS'scaffold860_cov64'
p5833
aa(lp5834
S'scaffold31513_cov82'
p5835
aS'scaffold5259_cov70'
p5836
a(lp5837
I1
a(lp5838
F0.3125
aaI16
aa(lp5839
I1
a(lp5840
F0.210526
aaI19
aa(lp5841
I1
a(lp5842
F0.333333
aaI27
aaa(lp5843
S'scaffold6054_cov102'
p5844
aS'scaffold661_cov69'
p5845
aa(lp5846
S'scaffold16609_cov69'
p5847
aS'scaffold52798_cov134'
p5848
aa(lp5849
S'scaffold23999_cov72'
p5850
aS'scaffold3701_cov67'
p5851
aa(lp5852
S'scaffold15237_cov73'
p5853
aS'scaffold24301_cov102'
p5854
a(lp5855
I1
a(lp5856
F0.357143
aaI28
aa(lp5857
I1
a(lp5858
F0.4
aaI35
aa(lp5859
I1
a(lp5860
F0.0
aaI11
aaa(lp5861
S'scaffold12706_cov81'
p5862
aS'scaffold16044_cov69'
p5863
a(lp5864
I1
a(lp5865
F0.272727
aaI22
aa(lp5866
I1
a(lp5867
F0.3
aaI20
aa(lp5868
I1
a(lp5869
F0.391304
aaI23
aa(lp5870
I1
a(lp5871
F0.32
aaI25
aa(lp5872
I1
a(lp5873
F0.26087
aaI23
aaa(lp5874
S'scaffold30966_cov62'
p5875
aS'scaffold3133_cov141'
p5876
aa(lp5877
S'scaffold1143_cov170'
p5878
aS'scaffold1145_cov65'
p5879
aa(lp5880
S'scaffold25513_cov91'
p5881
aS'scaffold92575_cov70'
p5882
aa(lp5883
S'scaffold166345_cov136'
p5884
aS'scaffold367_cov102'
p5885
aa(lp5886
S'scaffold1143_cov170'
p5887
aS'scaffold185565_cov204'
p5888
aa(lp5889
S'scaffold2987_cov88'
p5890
aS'scaffold4224_cov73'
p5891
a(lp5892
I1
a(lp5893
F0.25
aaI8
aa(lp5894
I1
a(lp5895
F0.387097
aaI31
aa(lp5896
I1
a(lp5897
F0.516129
aaI31
aa(lp5898
I1
a(lp5899
F0.384615
aaI26
aa(lp5900
I1
a(lp5901
F0.3
aaI20
aa(lp5902
I1
a(lp5903
F0.277778
aaI18
aa(lp5904
I1
a(lp5905
F0.333333
aaI21
aa(lp5906
I1
a(lp5907
F0.444444
aaI18
aa(lp5908
I1
a(lp5909
F0.428571
aaI14
aa(lp5910
I1
a(lp5911
F0.25
aaI28
aa(lp5912
I1
a(lp5913
F0.214286
aaI14
aaa(lp5914
S'scaffold10491_cov66'
p5915
aS'scaffold165461_cov100'
p5916
aa(lp5917
S'scaffold18411_cov77'
p5918
aS'scaffold3448_cov89'
p5919
aa(lp5920
S'scaffold12557_cov77'
p5921
aS'scaffold167464_cov86'
p5922
aa(lp5923
S'scaffold13891_cov62'
p5924
aS'scaffold26778_cov137'
p5925
aa(lp5926
S'scaffold166767_cov133'
p5927
aS'scaffold166788_cov64'
p5928
a(lp5929
I1
a(lp5930
F0.0
aaI10
aaa(lp5931
S'scaffold5059_cov70'
p5932
aS'scaffold5060_cov136'
p5933
a(lp5934
I1
a(lp5935
F0.886364
aaI88
aa(lp5936
I1
a(lp5937
F0.888889
aaI99
aa(lp5938
I1
a(lp5939
F0.0
aaI95
aa(lp5940
I1
a(lp5941
F0.885135
aaI148
aa(lp5942
I1
a(lp5943
F0.833333
aaI6
aa(lp5944
I1
a(lp5945
F0.264706
aaI34
aa(lp5946
I1
a(lp5947
F0.257143
aaI35
aa(lp5948
I1
a(lp5949
F0.0
aaI12
aa(lp5950
I1
a(lp5951
F0.0
aaI6
aaa(lp5952
S'scaffold2398_cov98'
p5953
aS'scaffold2617_cov76'
p5954
a(lp5955
I1
a(lp5956
F0.0
aaI16
aa(lp5957
I1
a(lp5958
F0.0
aaI21
aa(lp5959
I1
a(lp5960
F0.0
aaI24
aa(lp5961
I1
a(lp5962
F0.0
aaI44
aa(lp5963
I1
a(lp5964
F0.0
aaI7
aa(lp5965
I1
a(lp5966
F0.0
aaI7
aa(lp5967
I1
a(lp5968
F0.0
aaI6
aa(lp5969
I1
a(lp5970
F0.0
aaI6
aa(lp5971
I1
a(lp5972
F0.0
aaI5
aa(lp5973
I1
a(lp5974
F0.0
aaI4
aa(lp5975
I1
a(lp5976
F0.0
aaI4
aa(lp5977
I1
a(lp5978
F0.0
aaI10
aa(lp5979
I1
a(lp5980
F0.0
aaI11
aa(lp5981
I1
a(lp5982
F0.0
aaI11
aa(lp5983
I1
a(lp5984
F0.0
aaI11
aa(lp5985
I1
a(lp5986
F0.0
aaI9
aa(lp5987
I1
a(lp5988
F0.0
aaI2
aa(lp5989
I1
a(lp5990
F0.0
aaI2
aa(lp5991
I1
a(lp5992
F0.0
aaI2
aa(lp5993
I1
a(lp5994
F0.0
aaI4
aa(lp5995
I1
a(lp5996
F0.0
aaI4
aa(lp5997
I1
a(lp5998
F0.0
aaI4
aa(lp5999
I1
a(lp6000
F0.75
aaI4
aa(lp6001
I1
a(lp6002
F0.0
aaI5
aa(lp6003
I1
a(lp6004
F0.0
aaI35
aa(lp6005
I1
a(lp6006
F0.0
aaI6
aa(lp6007
I1
a(lp6008
F0.0
aaI8
aa(lp6009
I1
a(lp6010
F0.0
aaI9
aa(lp6011
I1
a(lp6012
F0.0
aaI22
aa(lp6013
I1
a(lp6014
F0.0
aaI24
aa(lp6015
I1
a(lp6016
F0.0
aaI8
aa(lp6017
I1
a(lp6018
F0.266667
aaI225
aa(lp6019
I1
a(lp6020
F0.0
aaI2
aa(lp6021
I1
a(lp6022
F0.0
aaI2
aa(lp6023
I1
a(lp6024
F0.0
aaI2
aa(lp6025
I1
a(lp6026
F0.0
aaI2
aa(lp6027
I1
a(lp6028
F0.0
aaI4
aa(lp6029
I1
a(lp6030
F0.6
aaI5
aa(lp6031
I1
a(lp6032
F0.0
aaI2
aa(lp6033
I1
a(lp6034
F0.0
aaI3
aa(lp6035
I1
a(lp6036
F0.0
aaI12
aa(lp6037
I1
a(lp6038
F0.0
aaI8
aa(lp6039
I1
a(lp6040
F0.875
aaI8
aa(lp6041
I1
a(lp6042
F0.0
aaI3
aa(lp6043
I1
a(lp6044
F0.0
aaI3
aaa(lp6045
S'scaffold2061_cov67'
p6046
aS'scaffold90706_cov103'
p6047
a(lp6048
I1
a(lp6049
F0.0
aaI5
aa(lp6050
I1
a(lp6051
F0.0
aaI5
aa(lp6052
I1
a(lp6053
F0.0
aaI3
aa(lp6054
I1
a(lp6055
F0.0
aaI5
aa(lp6056
I1
a(lp6057
F0.0
aaI2
aa(lp6058
I1
a(lp6059
F0.0
aaI3
aa(lp6060
I1
a(lp6061
F0.0
aaI3
aa(lp6062
I1
a(lp6063
F0.0
aaI3
aa(lp6064
I1
a(lp6065
F0.0
aaI3
aa(lp6066
I1
a(lp6067
F0.0
aaI3
aa(lp6068
I1
a(lp6069
F0.0
aaI3
aa(lp6070
I1
a(lp6071
F0.0
aaI3
aa(lp6072
I1
a(lp6073
F0.0
aaI3
aa(lp6074
I1
a(lp6075
F0.0
aaI3
aa(lp6076
I1
a(lp6077
F0.0
aaI3
aa(lp6078
I1
a(lp6079
F0.0
aaI6
aa(lp6080
I1
a(lp6081
F0.0
aaI8
aa(lp6082
I1
a(lp6083
F0.0
aaI9
aa(lp6084
I1
a(lp6085
F0.0
aaI12
aa(lp6086
I1
a(lp6087
F0.0
aaI8
aa(lp6088
I1
a(lp6089
F0.0
aaI8
aa(lp6090
I1
a(lp6091
F0.0
aaI10
aa(lp6092
I1
a(lp6093
F0.0
aaI8
aa(lp6094
I1
a(lp6095
F0.0
aaI8
aa(lp6096
I1
a(lp6097
F0.0
aaI8
aa(lp6098
I1
a(lp6099
F0.0
aaI11
aa(lp6100
I1
a(lp6101
F0.461538
aaI13
aa(lp6102
I1
a(lp6103
F0.384615
aaI13
aa(lp6104
I1
a(lp6105
F0.315789
aaI19
aa(lp6106
I1
a(lp6107
F0.366667
aaI30
aa(lp6108
I1
a(lp6109
F0.238095
aaI21
aa(lp6110
I1
a(lp6111
F0.238095
aaI21
aa(lp6112
I1
a(lp6113
F0.285714
aaI14
aa(lp6114
I1
a(lp6115
F0.0
aaI8
aa(lp6116
I1
a(lp6117
F0.307692
aaI26
aa(lp6118
I1
a(lp6119
F0.269231
aaI26
aaa(lp6120
S'scaffold20641_cov90'
p6121
aS'scaffold8011_cov68'
p6122
aa(lp6123
S'scaffold3002_cov145'
p6124
aS'scaffold32103_cov132'
p6125
aa(lp6126
S'scaffold15785_cov113'
p6127
aS'scaffold66380_cov110'
p6128
aa(lp6129
S'scaffold11081_cov88'
p6130
aS'scaffold26032_cov70'
p6131
a(lp6132
I1
a(lp6133
F0.421053
aaI19
aa(lp6134
I1
a(lp6135
F0.541667
aaI24
aa(lp6136
I1
a(lp6137
F0.5
aaI20
aa(lp6138
I1
a(lp6139
F0.227273
aaI22
aa(lp6140
I1
a(lp6141
F0.294118
aaI17
aaa(lp6142
S'scaffold3630_cov66'
p6143
aS'scaffold9757_cov95'
p6144
a(lp6145
I1
a(lp6146
F0.333333
aaI21
aa(lp6147
I1
a(lp6148
F0.44
aaI50
aa(lp6149
I1
a(lp6150
F0.210526
aaI19
aa(lp6151
I1
a(lp6152
F0.2
aaI15
aa(lp6153
I1
a(lp6154
F0.52
aaI25
aa(lp6155
I1
a(lp6156
F0.266667
aaI15
aa(lp6157
I1
a(lp6158
F0.285714
aaI14
aa(lp6159
I1
a(lp6160
F0.222222
aaI18
aa(lp6161
I1
a(lp6162
F0.25
aaI16
aa(lp6163
I1
a(lp6164
F0.25
aaI24
aa(lp6165
I1
a(lp6166
F0.222222
aaI18
aa(lp6167
I1
a(lp6168
F0.434783
aaI23
aa(lp6169
I1
a(lp6170
F0.565217
aaI23
aaa(lp6171
S'scaffold166682_cov143'
p6172
aS'scaffold374_cov71'
p6173
a(lp6174
I1
a(lp6175
F0.25
aaI16
aa(lp6176
I1
a(lp6177
F0.3125
aaI16
aa(lp6178
I1
a(lp6179
F0.222222
aaI18
aa(lp6180
I1
a(lp6181
F0.210526
aaI19
aa(lp6182
I1
a(lp6183
F0.235294
aaI17
aa(lp6184
I1
a(lp6185
F0.235294
aaI17
aa(lp6186
I1
a(lp6187
F0.222222
aaI18
aa(lp6188
I1
a(lp6189
F0.2
aaI15
aa(lp6190
I1
a(lp6191
F0.638889
aaI36
aa(lp6192
I1
a(lp6193
F0.628571
aaI35
aa(lp6194
I1
a(lp6195
F0.25
aaI12
aa(lp6196
I1
a(lp6197
F0.25
aaI12
aa(lp6198
I1
a(lp6199
F0.2
aaI10
aa(lp6200
I1
a(lp6201
F0.2
aaI10
aaa(lp6202
S'scaffold4585_cov69'
p6203
aS'scaffold6268_cov78'
p6204
a(lp6205
I1
a(lp6206
F0.222222
aaI18
aa(lp6207
I1
a(lp6208
F0.25
aaI20
aa(lp6209
I1
a(lp6210
F0.210526
aaI19
aa(lp6211
I1
a(lp6212
F0.3
aaI20
aa(lp6213
I1
a(lp6214
F0.315789
aaI19
aa(lp6215
I1
a(lp6216
F0.210526
aaI19
aaa(lp6217
S'scaffold3566_cov79'
p6218
aS'scaffold4610_cov62'
p6219
aa(lp6220
S'scaffold3133_cov141'
p6221
aS'scaffold3135_cov68'
p6222
a(lp6223
I1
a(lp6224
F0.307692
aaI26
aa(lp6225
I1
a(lp6226
F0.5
aaI22
aa(lp6227
I1
a(lp6228
F0.333333
aaI6
aaa(lp6229
S'scaffold195195_cov811'
p6230
aS'scaffold5496_cov92'
p6231
aa(lp6232
S'scaffold16044_cov69'
p6233
aS'scaffold182_cov83'
p6234
aa(lp6235
S'scaffold10491_cov66'
p6236
aS'scaffold12903_cov71'
p6237
a(lp6238
I1
a(lp6239
F0.244444
aaI45
aa(lp6240
I1
a(lp6241
F0.2
aaI15
aaa(lp6242
S'scaffold2350_cov77'
p6243
aS'scaffold95123_cov91'
p6244
aa(lp6245
S'scaffold19197_cov73'
p6246
aS'scaffold4030_cov67'
p6247
aa(lp6248
S'scaffold36738_cov76'
p6249
aS'scaffold6580_cov70'
p6250
aa(lp6251
S'scaffold26715_cov65'
p6252
aS'scaffold27251_cov134'
p6253
aa(lp6254
S'scaffold5995_cov84'
p6255
aS'scaffold6502_cov73'
p6256
aa(lp6257
S'scaffold1760_cov96'
p6258
aS'scaffold1762_cov75'
p6259
a(lp6260
I1
a(lp6261
F0.0
aaI18
aa(lp6262
I1
a(lp6263
F0.25
aaI12
aa(lp6264
I1
a(lp6265
F0.448276
aaI29
aa(lp6266
I1
a(lp6267
F0.206897
aaI29
aa(lp6268
I1
a(lp6269
F0.25
aaI16
aa(lp6270
I1
a(lp6271
F0.357143
aaI56
aaa(lp6272
S'scaffold114629_cov63'
p6273
aS'scaffold15395_cov68'
p6274
aa(lp6275
S'scaffold4052_cov74'
p6276
aS'scaffold5847_cov85'
p6277
a(lp6278
I1
a(lp6279
F0.333333
aaI12
aa(lp6280
I1
a(lp6281
F0.363636
aaI11
aa(lp6282
I1
a(lp6283
F0.363636
aaI11
aaa(lp6284
S'scaffold10337_cov80'
p6285
aS'scaffold21068_cov65'
p6286
a(lp6287
I1
a(lp6288
F0.0
aaI7
aa(lp6289
I1
a(lp6290
F0.4
aaI5
aa(lp6291
I1
a(lp6292
F0.0
aaI2
aa(lp6293
I1
a(lp6294
F0.0
aaI2
aa(lp6295
I1
a(lp6296
F0.0
aaI2
aa(lp6297
I1
a(lp6298
F0.0
aaI2
aa(lp6299
I1
a(lp6300
F0.0
aaI3
aaasg2306
(lp6301
(lp6302
g5801
ag5802
aa(lp6303
g5804
ag5805
a(lp6304
I1
a(lp6305
F0.857143
aaI7
aaa(lp6306
g5815
ag5816
aa(lp6307
g5818
ag5819
aa(lp6308
g5829
ag5830
aa(lp6309
g5832
ag5833
aa(lp6310
g5835
ag5836
a(lp6311
I1
a(lp6312
F0.272727
aaI22
aa(lp6313
I1
a(lp6314
F0.272727
aaI22
aa(lp6315
I1
a(lp6316
F0.294118
aaI17
aa(lp6317
I1
a(lp6318
F0.44
aaI25
aa(lp6319
I1
a(lp6320
F0.357143
aaI14
aa(lp6321
I1
a(lp6322
F0.0
aaI16
aa(lp6323
I1
a(lp6324
F0.0
aaI22
aa(lp6325
I1
a(lp6326
F0.0
aaI21
aaa(lp6327
g5844
ag5845
a(lp6328
I1
a(lp6329
F0.272727
aaI22
aa(lp6330
I1
a(lp6331
F0.357143
aaI28
aaa(lp6332
g5847
ag5848
aa(lp6333
g5850
ag5851
a(lp6334
I1
a(lp6335
F0.0
aaI14
aaa(lp6336
g5853
ag5854
aa(lp6337
g5862
ag5863
a(lp6338
I1
a(lp6339
F0.266667
aaI15
aa(lp6340
I1
a(lp6341
F0.2
aaI15
aa(lp6342
I1
a(lp6343
F0.28
aaI25
aaa(lp6344
g5875
ag5876
aa(lp6345
g5878
ag5879
aa(lp6346
g5881
ag5882
aa(lp6347
g5884
ag5885
aa(lp6348
g5887
ag5888
aa(lp6349
g5890
ag5891
a(lp6350
I1
a(lp6351
F0.333333
aaI24
aa(lp6352
I1
a(lp6353
F0.375
aaI24
aa(lp6354
I1
a(lp6355
F0.318182
aaI22
aa(lp6356
I1
a(lp6357
F0.409091
aaI22
aa(lp6358
I1
a(lp6359
F0.225
aaI80
aa(lp6360
I1
a(lp6361
F0.24
aaI75
aa(lp6362
I1
a(lp6363
F0.307692
aaI13
aa(lp6364
I1
a(lp6365
F0.285714
aaI14
aa(lp6366
I1
a(lp6367
F0.266667
aaI15
aa(lp6368
I1
a(lp6369
F0.285714
aaI14
aa(lp6370
I1
a(lp6371
F0.285714
aaI21
aa(lp6372
I1
a(lp6373
F0.304348
aaI23
aa(lp6374
I1
a(lp6375
F0.0
aaI6
aa(lp6376
I1
a(lp6377
F0.0
aaI6
aa(lp6378
I1
a(lp6379
F0.0
aaI6
aa(lp6380
I1
a(lp6381
F0.0
aaI6
aa(lp6382
I1
a(lp6383
F0.0
aaI3
aa(lp6384
I1
a(lp6385
F0.238095
aaI21
aa(lp6386
I1
a(lp6387
F0.217391
aaI23
aa(lp6388
I1
a(lp6389
F0.26087
aaI23
aa(lp6390
I1
a(lp6391
F0.32
aaI25
aa(lp6392
I1
a(lp6393
F0.225806
aaI31
aa(lp6394
I1
a(lp6395
F0.2
aaI20
aa(lp6396
I1
a(lp6397
F0.294118
aaI17
aa(lp6398
I1
a(lp6399
F0.3
aaI10
aa(lp6400
I1
a(lp6401
F0.272727
aaI11
aa(lp6402
I1
a(lp6403
F0.272727
aaI11
aa(lp6404
I1
a(lp6405
F0.272727
aaI11
aa(lp6406
I1
a(lp6407
F0.25
aaI12
aa(lp6408
I1
a(lp6409
F0.307692
aaI26
aa(lp6410
I1
a(lp6411
F0.333333
aaI6
aa(lp6412
I1
a(lp6413
F0.375
aaI32
aa(lp6414
I1
a(lp6415
F0.375
aaI40
aa(lp6416
I1
a(lp6417
F0.3
aaI30
aa(lp6418
I1
a(lp6419
F0.0
aaI22
aa(lp6420
I1
a(lp6421
F0.512821
aaI39
aa(lp6422
I1
a(lp6423
F0.5
aaI20
aa(lp6424
I1
a(lp6425
F0.347826
aaI23
aa(lp6426
I1
a(lp6427
F0.380952
aaI21
aaa(lp6428
g5915
ag5916
aa(lp6429
g5918
ag5919
a(lp6430
I1
a(lp6431
F0.65
aaI40
aaa(lp6432
g5921
ag5922
a(lp6433
I1
a(lp6434
F0.44
aaI25
aa(lp6435
I1
a(lp6436
F0.25
aaI16
aa(lp6437
I1
a(lp6438
F0.2
aaI15
aa(lp6439
I1
a(lp6440
F0.388889
aaI18
aa(lp6441
I1
a(lp6442
F0.470588
aaI17
aaa(lp6443
g5924
ag5925
aa(lp6444
g5927
ag5928
aa(lp6445
g5932
ag5933
a(lp6446
I1
a(lp6447
F0.208333
aaI24
aaa(lp6448
g5953
ag5954
a(lp6449
I1
a(lp6450
F0.272727
aaI11
aa(lp6451
I1
a(lp6452
F0.333333
aaI18
aa(lp6453
I1
a(lp6454
F0.294118
aaI17
aa(lp6455
I1
a(lp6456
F0.277778
aaI18
aa(lp6457
I1
a(lp6458
F0.5
aaI16
aa(lp6459
I1
a(lp6460
F0.5
aaI16
aa(lp6461
I1
a(lp6462
F0.0
aaI14
aa(lp6463
I1
a(lp6464
F0.235294
aaI17
aa(lp6465
I1
a(lp6466
F0.235294
aaI17
aa(lp6467
I1
a(lp6468
F0.0
aaI17
aa(lp6469
I1
a(lp6470
F0.238095
aaI21
aa(lp6471
I1
a(lp6472
F0.238095
aaI21
aa(lp6473
I1
a(lp6474
F0.227273
aaI22
aa(lp6475
I1
a(lp6476
F0.666667
aaI36
aa(lp6477
I1
a(lp6478
F0.4
aaI35
aa(lp6479
I1
a(lp6480
F0.678571
aaI28
aa(lp6481
I1
a(lp6482
F0.709677
aaI31
aa(lp6483
I1
a(lp6484
F0.242424
aaI33
aa(lp6485
I1
a(lp6486
F0.0
aaI34
aa(lp6487
I1
a(lp6488
F0.2
aaI30
aa(lp6489
I1
a(lp6490
F0.488372
aaI43
aa(lp6491
I1
a(lp6492
F0.2
aaI15
aa(lp6493
I1
a(lp6494
F0.2
aaI15
aa(lp6495
I1
a(lp6496
F0.333333
aaI12
aaa(lp6497
g6046
ag6047
a(lp6498
I1
a(lp6499
F0.0
aaI500
aa(lp6500
I1
a(lp6501
F0.459459
aaI37
aa(lp6502
I1
a(lp6503
F0.0
aaI9
aa(lp6504
I1
a(lp6505
F0.4375
aaI16
aaa(lp6506
g6121
ag6122
aa(lp6507
g6124
ag6125
aa(lp6508
g6127
ag6128
aa(lp6509
g6130
ag6131
aa(lp6510
g6143
ag6144
a(lp6511
I1
a(lp6512
F0.666667
aaI18
aa(lp6513
I1
a(lp6514
F0.681818
aaI22
aa(lp6515
I1
a(lp6516
F0.2
aaI30
aaa(lp6517
g6172
ag6173
aa(lp6518
g6203
ag6204
aa(lp6519
g6218
ag6219
aa(lp6520
g6221
ag6222
a(lp6521
I1
a(lp6522
F0.785714
aaI14
aa(lp6523
I1
a(lp6524
F0.785714
aaI14
aa(lp6525
I1
a(lp6526
F0.72
aaI25
aaa(lp6527
g6230
ag6231
aa(lp6528
g6233
ag6234
aa(lp6529
g6236
ag6237
aa(lp6530
g6243
ag6244
a(lp6531
I1
a(lp6532
F0.0
aaI15
aa(lp6533
I1
a(lp6534
F0.0
aaI14
aa(lp6535
I1
a(lp6536
F0.0
aaI13
aaa(lp6537
g6246
ag6247
a(lp6538
I1
a(lp6539
F0.0
aaI5
aa(lp6540
I1
a(lp6541
F0.0
aaI5
aa(lp6542
I1
a(lp6543
F0.0
aaI5
aa(lp6544
I1
a(lp6545
F0.0
aaI2
aa(lp6546
I1
a(lp6547
F0.0
aaI26
aa(lp6548
I1
a(lp6549
F0.0
aaI22
aa(lp6550
I1
a(lp6551
F0.307692
aaI13
aa(lp6552
I1
a(lp6553
F0.444444
aaI18
aa(lp6554
I1
a(lp6555
F0.0
aaI16
aa(lp6556
I1
a(lp6557
F0.0
aaI14
aa(lp6558
I1
a(lp6559
F0.230769
aaI26
aa(lp6560
I1
a(lp6561
F0.259259
aaI27
aaa(lp6562
g6249
ag6250
aa(lp6563
g6252
ag6253
a(lp6564
I1
a(lp6565
F0.0
aaI10
aaa(lp6566
g6255
ag6256
a(lp6567
I1
a(lp6568
F0.0
aaI16
aa(lp6569
I1
a(lp6570
F0.472222
aaI36
aa(lp6571
I1
a(lp6572
F0.346154
aaI26
aa(lp6573
I1
a(lp6574
F0.4
aaI25
aa(lp6575
I1
a(lp6576
F0.375
aaI24
aa(lp6577
I1
a(lp6578
F0.411765
aaI17
aaa(lp6579
g6258
ag6259
a(lp6580
I1
a(lp6581
F0.25
aaI16
aa(lp6582
I1
a(lp6583
F0.35
aaI20
aa(lp6584
I1
a(lp6585
F0.28125
aaI32
aa(lp6586
I1
a(lp6587
F0.266667
aaI30
aa(lp6588
I1
a(lp6589
F0.263158
aaI19
aa(lp6590
I1
a(lp6591
F0.25
aaI20
aa(lp6592
I1
a(lp6593
F0.0
aaI17
aaa(lp6594
g6273
ag6274
aa(lp6595
g6276
ag6277
a(lp6596
I1
a(lp6597
F0.2
aaI15
aa(lp6598
I1
a(lp6599
F0.25
aaI24
aa(lp6600
I1
a(lp6601
F0.238095
aaI21
aa(lp6602
I1
a(lp6603
F0.352941
aaI17
aa(lp6604
I1
a(lp6605
F0.375
aaI16
aa(lp6606
I1
a(lp6607
F0.411765
aaI17
aa(lp6608
I1
a(lp6609
F0.5
aaI14
aa(lp6610
I1
a(lp6611
F0.411765
aaI17
aaa(lp6612
g6285
ag6286
aass.