(dp0
S'triploids'
p1
(dp2
S'down'
p3
(lp4
(lp5
S'scaffold362_cov88'
p6
aS'scaffold361_cov52'
p7
aa(lp8
S'scaffold6032_cov86'
p9
aS'scaffold6010_cov62'
p10
a(lp11
I1
a(lp12
F0.269663
aaI89
aa(lp13
I1
a(lp14
F0.333333
aaI78
aa(lp15
I1
a(lp16
F0.382353
aaI34
aa(lp17
I1
a(lp18
F0.208333
aaI48
aa(lp19
I1
a(lp20
F0.367347
aaI49
aa(lp21
I1
a(lp22
F0.225806
aaI31
aa(lp23
I1
a(lp24
F0.0
aaI28
aa(lp25
I1
a(lp26
F0.265306
aaI49
aa(lp27
I1
a(lp28
F0.348837
aaI43
aa(lp29
I1
a(lp30
F0.236842
aaI38
aaa(lp31
S'scaffold14_cov100'
p32
aS'scaffold8499_cov57'
p33
aa(lp34
S'scaffold37470_cov151'
p35
aS'scaffold23346_cov53'
p36
aa(lp37
S'scaffold16801_cov94'
p38
aS'scaffold20051_cov88'
p39
a(lp40
I1
a(lp41
F0.515625
aaI64
aa(lp42
I1
a(lp43
F0.290909
aaI55
aa(lp44
I1
a(lp45
F0.28125
aaI32
aaa(lp46
S'scaffold32_cov80'
p47
aS'scaffold9366_cov65'
p48
aa(lp49
S'scaffold5664_cov97'
p50
aS'scaffold8637_cov48'
p51
aa(lp52
S'scaffold9935_cov102'
p53
aS'scaffold15216_cov95'
p54
aa(lp55
S'scaffold1778_cov83'
p56
aS'scaffold1307_cov71'
p57
a(lp58
I1
a(lp59
F0.304348
aaI46
aa(lp60
I1
a(lp61
F0.282609
aaI46
aaa(lp62
S'scaffold146_cov83'
p63
aS'scaffold6515_cov62'
p64
a(lp65
I1
a(lp66
F0.212121
aaI33
aaa(lp67
S'scaffold42461_cov100'
p68
aS'scaffold7156_cov63'
p69
aa(lp70
S'scaffold37339_cov109'
p71
aS'scaffold7846_cov55'
p72
aa(lp73
S'scaffold3183_cov139'
p74
aS'scaffold3621_cov101'
p75
aa(lp76
S'scaffold5118_cov85'
p77
aS'scaffold5119_cov50'
p78
a(lp79
I1
a(lp80
F0.302326
aaI86
aa(lp81
I1
a(lp82
F0.313725
aaI51
aaa(lp83
S'scaffold174_cov95'
p84
aS'scaffold1036_cov100'
p85
aa(lp86
S'scaffold37758_cov123'
p87
aS'scaffold878_cov66'
p88
a(lp89
I1
a(lp90
F0.462963
aaI54
aa(lp91
I1
a(lp92
F0.410714
aaI56
aa(lp93
I1
a(lp94
F0.422222
aaI45
aaa(lp95
S'scaffold8360_cov69'
p96
aS'scaffold2212_cov51'
p97
a(lp98
I1
a(lp99
F0.22
aaI50
aa(lp100
I1
a(lp101
F0.222222
aaI27
aaa(lp102
S'scaffold4094_cov85'
p103
aS'scaffold4328_cov64'
p104
aa(lp105
S'scaffold5823_cov93'
p106
aS'scaffold687_cov68'
p107
aa(lp108
S'scaffold26400_cov107'
p109
aS'scaffold26402_cov46'
p110
aa(lp111
S'scaffold28921_cov145'
p112
aS'scaffold41142_cov161'
p113
aa(lp114
S'scaffold5663_cov69'
p115
aS'scaffold5328_cov53'
p116
a(lp117
I1
a(lp118
F0.294118
aaI51
aa(lp119
I1
a(lp120
F0.242424
aaI33
aa(lp121
I1
a(lp122
F0.25
aaI32
aa(lp123
I1
a(lp124
F0.235294
aaI34
aa(lp125
I1
a(lp126
F0.212766
aaI47
aaa(lp127
S'scaffold497_cov71'
p128
aS'scaffold35984_cov60'
p129
a(lp130
I1
a(lp131
F0.458333
aaI48
aa(lp132
I1
a(lp133
F0.469388
aaI49
aa(lp134
I1
a(lp135
F0.428571
aaI42
aaa(lp136
S'scaffold1537_cov77'
p137
aS'scaffold772_cov56'
p138
aa(lp139
S'scaffold1673_cov68'
p140
aS'scaffold1672_cov57'
p141
a(lp142
I1
a(lp143
F0.325581
aaI43
aaa(lp144
S'scaffold10915_cov72'
p145
aS'scaffold5164_cov59'
p146
aa(lp147
S'scaffold16656_cov56'
p148
aS'scaffold1461_cov54'
p149
aa(lp150
S'scaffold12036_cov77'
p151
aS'scaffold2530_cov71'
p152
a(lp153
I1
a(lp154
F0.315789
aaI57
aa(lp155
I1
a(lp156
F0.310345
aaI58
aa(lp157
I1
a(lp158
F0.259259
aaI54
aa(lp159
I1
a(lp160
F0.454545
aaI66
aa(lp161
I1
a(lp162
F0.419355
aaI62
aaa(lp163
S'scaffold39016_cov111'
p164
aS'scaffold2786_cov74'
p165
aa(lp166
S'scaffold33286_cov88'
p167
aS'scaffold10537_cov54'
p168
aa(lp169
S'scaffold3719_cov93'
p170
aS'scaffold28403_cov55'
p171
a(lp172
I1
a(lp173
F0.235294
aaI34
aa(lp174
I1
a(lp175
F0.377358
aaI53
aa(lp176
I1
a(lp177
F0.355932
aaI59
aa(lp178
I1
a(lp179
F0.37931
aaI58
aa(lp180
I1
a(lp181
F0.344828
aaI58
aa(lp182
I1
a(lp183
F0.344828
aaI58
aaa(lp184
S'scaffold20937_cov59'
p185
aS'scaffold7528_cov114'
p186
aa(lp187
S'scaffold16506_cov55'
p188
aS'scaffold19259_cov55'
p189
aa(lp190
S'scaffold52619_cov115'
p191
aS'scaffold6959_cov64'
p192
aa(lp193
S'scaffold1981_cov53'
p194
aS'scaffold1561_cov50'
p195
aa(lp196
S'scaffold7470_cov77'
p197
aS'scaffold5211_cov57'
p198
aa(lp199
S'scaffold10002_cov126'
p200
aS'scaffold57_cov62'
p201
a(lp202
I1
a(lp203
F0.236842
aaI38
aa(lp204
I1
a(lp205
F0.230769
aaI39
aa(lp206
I1
a(lp207
F0.3125
aaI32
aa(lp208
I1
a(lp209
F0.333333
aaI36
aa(lp210
I1
a(lp211
F0.325
aaI40
aa(lp212
I1
a(lp213
F0.354167
aaI48
aaa(lp214
S'scaffold13919_cov66'
p215
aS'scaffold7244_cov53'
p216
aa(lp217
S'scaffold40182_cov165'
p218
aS'scaffold2317_cov61'
p219
aa(lp220
S'scaffold9133_cov84'
p221
aS'scaffold507_cov73'
p222
aa(lp223
S'scaffold34228_cov83'
p224
aS'scaffold12788_cov56'
p225
a(lp226
I1
a(lp227
F0.324324
aaI37
aa(lp228
I1
a(lp229
F0.210526
aaI38
aa(lp230
I1
a(lp231
F0.225806
aaI31
aaa(lp232
S'scaffold3118_cov72'
p233
aS'scaffold11587_cov65'
p234
a(lp235
I1
a(lp236
F0.205882
aaI34
aa(lp237
I1
a(lp238
F0.244444
aaI45
aaa(lp239
S'scaffold36090_cov104'
p240
aS'scaffold33623_cov60'
p241
aa(lp242
S'scaffold2297_cov70'
p243
aS'scaffold5466_cov54'
p244
a(lp245
I1
a(lp246
F0.294416
aaI197
aaa(lp247
S'scaffold11940_cov99'
p248
aS'scaffold607_cov59'
p249
a(lp250
I1
a(lp251
F0.325
aaI40
aa(lp252
I1
a(lp253
F0.2
aaI40
aaa(lp254
S'scaffold832_cov72'
p255
aS'scaffold19517_cov60'
p256
aa(lp257
S'scaffold3771_cov131'
p258
aS'scaffold487_cov56'
p259
aa(lp260
S'scaffold35981_cov85'
p261
aS'scaffold4668_cov92'
p262
aa(lp263
S'scaffold13336_cov75'
p264
aS'scaffold5700_cov54'
p265
a(lp266
I1
a(lp267
F0.392157
aaI51
aaa(lp268
S'scaffold1671_cov114'
p269
aS'scaffold16650_cov62'
p270
aa(lp271
S'scaffold23308_cov74'
p272
aS'scaffold5768_cov48'
p273
aa(lp274
S'scaffold17489_cov70'
p275
aS'scaffold36821_cov56'
p276
aa(lp277
S'scaffold6606_cov160'
p278
aS'scaffold36583_cov64'
p279
aa(lp280
S'scaffold2945_cov79'
p281
aS'scaffold2786_cov74'
p282
a(lp283
I1
a(lp284
F0.383333
aaI60
aa(lp285
I1
a(lp286
F0.357143
aaI56
aa(lp287
I1
a(lp288
F0.40678
aaI59
aa(lp289
I1
a(lp290
F0.363636
aaI55
aa(lp291
I1
a(lp292
F0.354167
aaI48
aa(lp293
I1
a(lp294
F0.333333
aaI48
aa(lp295
I1
a(lp296
F0.347826
aaI46
aa(lp297
I1
a(lp298
F0.535714
aaI56
aa(lp299
I1
a(lp300
F0.4
aaI50
aa(lp301
I1
a(lp302
F0.355556
aaI45
aa(lp303
I1
a(lp304
F0.34
aaI50
aaa(lp305
S'scaffold7572_cov84'
p306
aS'scaffold7573_cov53'
p307
a(lp308
I1
a(lp309
F0.259259
aaI27
aaa(lp310
S'scaffold6021_cov51'
p311
aS'scaffold9331_cov54'
p312
aa(lp313
S'scaffold5817_cov105'
p314
aS'scaffold480_cov57'
p315
a(lp316
I1
a(lp317
F0.285714
aaI28
aa(lp318
I1
a(lp319
F0.0
aaI27
aa(lp320
I1
a(lp321
F0.342857
aaI35
aa(lp322
I1
a(lp323
F0.225
aaI40
aa(lp324
I1
a(lp325
F0.225
aaI40
aaa(lp326
S'scaffold15659_cov85'
p327
aS'scaffold713_cov67'
p328
a(lp329
I1
a(lp330
F0.24
aaI50
aa(lp331
I1
a(lp332
F0.2
aaI45
aaa(lp333
S'scaffold33586_cov59'
p334
aS'scaffold10095_cov71'
p335
a(lp336
I1
a(lp337
F0.393939
aaI33
aa(lp338
I1
a(lp339
F0.236842
aaI38
aa(lp340
I1
a(lp341
F0.0
aaI37
aa(lp342
I1
a(lp343
F0.304348
aaI46
aa(lp344
I1
a(lp345
F0.212766
aaI47
aa(lp346
I1
a(lp347
F0.22449
aaI49
aa(lp348
I1
a(lp349
F0.235294
aaI51
aa(lp350
I1
a(lp351
F0.34
aaI50
aa(lp352
I1
a(lp353
F0.294118
aaI51
aa(lp354
I1
a(lp355
F0.244444
aaI45
aa(lp356
I1
a(lp357
F0.357143
aaI42
aa(lp358
I1
a(lp359
F0.289474
aaI38
aa(lp360
I1
a(lp361
F0.31746
aaI63
aa(lp362
I1
a(lp363
F0.319149
aaI47
aaa(lp364
S'scaffold27913_cov149'
p365
aS'scaffold565_cov58'
p366
a(lp367
I1
a(lp368
F0.367347
aaI49
aaa(lp369
S'scaffold608_cov87'
p370
aS'scaffold1828_cov67'
p371
aa(lp372
S'scaffold10188_cov85'
p373
aS'scaffold3646_cov69'
p374
a(lp375
I1
a(lp376
F0.245283
aaI53
aa(lp377
I1
a(lp378
F0.25
aaI44
aa(lp379
I1
a(lp380
F0.25
aaI36
aa(lp381
I1
a(lp382
F0.454545
aaI66
aa(lp383
I1
a(lp384
F0.319149
aaI47
aa(lp385
I1
a(lp386
F0.413793
aaI29
aa(lp387
I1
a(lp388
F0.246154
aaI65
aaa(lp389
S'scaffold14528_cov78'
p390
aS'scaffold7703_cov52'
p391
aa(lp392
S'scaffold35197_cov159'
p393
aS'scaffold1670_cov61'
p394
aa(lp395
S'scaffold1281_cov80'
p396
aS'scaffold33702_cov55'
p397
a(lp398
I1
a(lp399
F0.227848
aaI79
aa(lp400
I1
a(lp401
F0.5125
aaI80
aa(lp402
I1
a(lp403
F0.492754
aaI69
aa(lp404
I1
a(lp405
F0.283582
aaI67
aa(lp406
I1
a(lp407
F0.228571
aaI35
aa(lp408
I1
a(lp409
F0.461538
aaI52
aa(lp410
I1
a(lp411
F0.227273
aaI44
aa(lp412
I1
a(lp413
F0.263158
aaI57
aa(lp414
I1
a(lp415
F0.3
aaI60
aa(lp416
I1
a(lp417
F0.275362
aaI69
aa(lp418
I1
a(lp419
F0.57971
aaI69
aaa(lp420
S'scaffold34231_cov91'
p421
aS'scaffold39009_cov103'
p422
aa(lp423
S'scaffold34360_cov143'
p424
aS'scaffold35_cov50'
p425
aa(lp426
S'scaffold5777_cov82'
p427
aS'scaffold6784_cov56'
p428
a(lp429
I1
a(lp430
F0.236842
aaI38
aa(lp431
I1
a(lp432
F0.257143
aaI35
aaa(lp433
S'scaffold23743_cov66'
p434
aS'scaffold10910_cov53'
p435
a(lp436
I1
a(lp437
F0.205882
aaI34
aaa(lp438
S'scaffold15690_cov108'
p439
aS'scaffold36775_cov68'
p440
a(lp441
I1
a(lp442
F0.461538
aaI65
aa(lp443
I1
a(lp444
F0.372549
aaI51
aa(lp445
I1
a(lp446
F0.367347
aaI49
aa(lp447
I1
a(lp448
F0.380952
aaI63
aa(lp449
I1
a(lp450
F0.349206
aaI63
aa(lp451
I1
a(lp452
F0.344262
aaI61
aa(lp453
I1
a(lp454
F0.344262
aaI61
aa(lp455
I1
a(lp456
F0.383333
aaI60
aa(lp457
I1
a(lp458
F0.355556
aaI45
aaa(lp459
S'scaffold826_cov79'
p460
aS'scaffold1933_cov76'
p461
a(lp462
I1
a(lp463
F0.32
aaI50
aa(lp464
I1
a(lp465
F0.271186
aaI59
aaa(lp466
S'scaffold14170_cov69'
p467
aS'scaffold47_cov51'
p468
aa(lp469
S'scaffold8073_cov71'
p470
aS'scaffold7766_cov56'
p471
aa(lp472
S'scaffold8487_cov70'
p473
aS'scaffold1201_cov53'
p474
a(lp475
I1
a(lp476
F0.2
aaI35
aaa(lp477
S'scaffold1740_cov88'
p478
aS'scaffold19477_cov64'
p479
a(lp480
I1
a(lp481
F0.25641
aaI39
aa(lp482
I1
a(lp483
F0.392857
aaI56
aa(lp484
I1
a(lp485
F0.36
aaI50
aa(lp486
I1
a(lp487
F0.347826
aaI46
aa(lp488
I1
a(lp489
F0.230769
aaI39
aa(lp490
I1
a(lp491
F0.23913
aaI46
aa(lp492
I1
a(lp493
F0.2
aaI50
aa(lp494
I1
a(lp495
F0.2
aaI50
aa(lp496
I1
a(lp497
F0.465517
aaI58
aa(lp498
I1
a(lp499
F0.457627
aaI59
aa(lp500
I1
a(lp501
F0.473684
aaI57
aa(lp502
I1
a(lp503
F0.492537
aaI67
aa(lp504
I1
a(lp505
F0.433962
aaI53
aa(lp506
I1
a(lp507
F0.5
aaI66
aa(lp508
I1
a(lp509
F0.530303
aaI66
aa(lp510
I1
a(lp511
F0.578125
aaI64
aa(lp512
I1
a(lp513
F0.552239
aaI67
aa(lp514
I1
a(lp515
F0.3375
aaI80
aa(lp516
I1
a(lp517
F0.25
aaI112
aa(lp518
I1
a(lp519
F0.7
aaI90
aaa(lp520
S'scaffold2946_cov99'
p521
aS'scaffold8059_cov49'
p522
aa(lp523
S'scaffold7406_cov97'
p524
aS'scaffold4048_cov55'
p525
a(lp526
I1
a(lp527
F0.233333
aaI30
aa(lp528
I1
a(lp529
F0.290323
aaI31
aa(lp530
I1
a(lp531
F0.363636
aaI33
aa(lp532
I1
a(lp533
F0.270833
aaI48
aa(lp534
I1
a(lp535
F0.272727
aaI33
aa(lp536
I1
a(lp537
F0.413793
aaI58
aa(lp538
I1
a(lp539
F0.244444
aaI45
aaa(lp540
S'scaffold5498_cov103'
p541
aS'scaffold10506_cov79'
p542
aa(lp543
S'scaffold34278_cov88'
p544
aS'scaffold23473_cov56'
p545
aa(lp546
S'scaffold11518_cov107'
p547
aS'scaffold11517_cov58'
p548
aa(lp549
S'scaffold11140_cov73'
p550
aS'scaffold5096_cov57'
p551
aa(lp552
S'scaffold7234_cov93'
p553
aS'scaffold7575_cov56'
p554
aa(lp555
S'scaffold10758_cov137'
p556
aS'scaffold1943_cov61'
p557
aa(lp558
S'scaffold23544_cov102'
p559
aS'scaffold6429_cov65'
p560
aa(lp561
S'scaffold3688_cov96'
p562
aS'scaffold8941_cov89'
p563
a(lp564
I1
a(lp565
F0.27027
aaI37
aa(lp566
I1
a(lp567
F0.264706
aaI34
aa(lp568
I1
a(lp569
F0.542373
aaI59
aaa(lp570
S'scaffold22301_cov147'
p571
aS'scaffold28236_cov103'
p572
aa(lp573
S'scaffold16639_cov75'
p574
aS'scaffold2248_cov58'
p575
a(lp576
I1
a(lp577
F0.2
aaI35
aaa(lp578
S'scaffold29903_cov123'
p579
aS'scaffold33612_cov72'
p580
aa(lp581
S'scaffold44933_cov138'
p582
aS'scaffold34976_cov99'
p583
a(lp584
I1
a(lp585
F0.305085
aaI59
aaa(lp586
S'scaffold34278_cov88'
p587
aS'scaffold21922_cov80'
p588
a(lp589
I1
a(lp590
F0.232558
aaI43
aa(lp591
I1
a(lp592
F0.3125
aaI48
aaa(lp593
S'scaffold11533_cov113'
p594
aS'scaffold9543_cov100'
p595
a(lp596
I1
a(lp597
F0.282051
aaI39
aa(lp598
I1
a(lp599
F0.414634
aaI41
aa(lp600
I1
a(lp601
F0.491228
aaI57
aa(lp602
I1
a(lp603
F0.526316
aaI57
aaa(lp604
S'scaffold35156_cov134'
p605
aS'scaffold720_cov51'
p606
aa(lp607
S'scaffold34199_cov83'
p608
aS'scaffold886_cov63'
p609
a(lp610
I1
a(lp611
F0.222222
aaI54
aaa(lp612
S'scaffold827_cov76'
p613
aS'scaffold3365_cov65'
p614
a(lp615
I1
a(lp616
F0.27907
aaI43
aa(lp617
I1
a(lp618
F0.409091
aaI44
aa(lp619
I1
a(lp620
F0.519231
aaI52
aa(lp621
I1
a(lp622
F0.68
aaI50
aaa(lp623
S'scaffold34599_cov98'
p624
aS'scaffold10866_cov51'
p625
aa(lp626
S'scaffold7200_cov64'
p627
aS'scaffold8638_cov55'
p628
aa(lp629
S'scaffold1950_cov58'
p630
aS'scaffold2587_cov45'
p631
a(lp632
I1
a(lp633
F0.814961
aaI254
aaa(lp634
S'scaffold3303_cov130'
p635
aS'scaffold4478_cov57'
p636
a(lp637
I1
a(lp638
F0.25
aaI68
aa(lp639
I1
a(lp640
F0.673077
aaI104
aaa(lp641
S'scaffold16314_cov97'
p642
aS'scaffold6478_cov57'
p643
aa(lp644
S'scaffold3443_cov80'
p645
aS'scaffold2211_cov55'
p646
a(lp647
I1
a(lp648
F0.310345
aaI87
aa(lp649
I1
a(lp650
F0.44186
aaI86
aa(lp651
I1
a(lp652
F0.604396
aaI91
aa(lp653
I1
a(lp654
F0.561798
aaI89
aa(lp655
I1
a(lp656
F0.466667
aaI60
aa(lp657
I1
a(lp658
F0.225806
aaI31
aa(lp659
I1
a(lp660
F0.238095
aaI42
aa(lp661
I1
a(lp662
F0.225
aaI40
aa(lp663
I1
a(lp664
F0.0
aaI37
aa(lp665
I1
a(lp666
F0.228571
aaI35
aa(lp667
I1
a(lp668
F0.0
aaI30
aaa(lp669
S'scaffold7965_cov102'
p670
aS'scaffold36789_cov57'
p671
a(lp672
I1
a(lp673
F0.21875
aaI32
aa(lp674
I1
a(lp675
F0.235294
aaI34
aaa(lp676
S'scaffold3742_cov92'
p677
aS'scaffold33263_cov56'
p678
aa(lp679
S'scaffold5955_cov136'
p680
aS'scaffold13833_cov52'
p681
aa(lp682
S'scaffold9707_cov86'
p683
aS'scaffold2016_cov55'
p684
a(lp685
I1
a(lp686
F0.212121
aaI33
aaa(lp687
S'scaffold2676_cov98'
p688
aS'scaffold1670_cov61'
p689
a(lp690
I1
a(lp691
F0.205128
aaI39
aa(lp692
I1
a(lp693
F0.255814
aaI43
aa(lp694
I1
a(lp695
F0.240741
aaI54
aa(lp696
I1
a(lp697
F0.264151
aaI53
aa(lp698
I1
a(lp699
F0.297872
aaI47
aa(lp700
I1
a(lp701
F0.255319
aaI47
aa(lp702
I1
a(lp703
F0.27027
aaI37
aa(lp704
I1
a(lp705
F0.210526
aaI38
aa(lp706
I1
a(lp707
F0.464286
aaI56
aa(lp708
I1
a(lp709
F0.45
aaI60
aaa(lp710
S'scaffold6173_cov81'
p711
aS'scaffold161_cov85'
p712
a(lp713
I1
a(lp714
F0.26087
aaI23
aa(lp715
I1
a(lp716
F0.2
aaI50
aa(lp717
I1
a(lp718
F0.363636
aaI44
aa(lp719
I1
a(lp720
F0.349206
aaI63
aaa(lp721
S'scaffold10735_cov120'
p722
aS'scaffold15562_cov57'
p723
aa(lp724
S'scaffold5970_cov74'
p725
aS'scaffold12766_cov71'
p726
aa(lp727
S'scaffold767_cov66'
p728
aS'scaffold20490_cov67'
p729
a(lp730
I1
a(lp731
F0.326531
aaI49
aa(lp732
I1
a(lp733
F0.301887
aaI53
aa(lp734
I1
a(lp735
F0.358491
aaI53
aa(lp736
I1
a(lp737
F0.4
aaI55
aa(lp738
I1
a(lp739
F0.205882
aaI34
aaa(lp740
S'scaffold24509_cov66'
p741
aS'scaffold14430_cov83'
p742
aa(lp743
S'scaffold17734_cov54'
p744
aS'scaffold4093_cov55'
p745
a(lp746
I1
a(lp747
F0.309091
aaI55
aa(lp748
I1
a(lp749
F0.214286
aaI28
aa(lp750
I1
a(lp751
F0.387097
aaI31
aaa(lp752
S'scaffold4097_cov96'
p753
aS'scaffold1525_cov58'
p754
a(lp755
I1
a(lp756
F0.835294
aaI255
aaa(lp757
S'scaffold5688_cov67'
p758
aS'scaffold25903_cov62'
p759
a(lp760
I1
a(lp761
F0.354167
aaI48
aa(lp762
I1
a(lp763
F0.2
aaI35
aa(lp764
I1
a(lp765
F0.205882
aaI34
aa(lp766
I1
a(lp767
F0.2
aaI35
aa(lp768
I1
a(lp769
F0.277778
aaI18
aaa(lp770
S'scaffold55_cov132'
p771
aS'scaffold33949_cov53'
p772
aa(lp773
S'scaffold9666_cov95'
p774
aS'scaffold9665_cov44'
p775
aa(lp776
S'scaffold21076_cov99'
p777
aS'scaffold8059_cov49'
p778
aa(lp779
S'scaffold35940_cov79'
p780
aS'scaffold5213_cov135'
p781
aa(lp782
S'scaffold33245_cov72'
p783
aS'scaffold2355_cov59'
p784
a(lp785
I1
a(lp786
F0.446154
aaI65
aa(lp787
I1
a(lp788
F0.351351
aaI37
aa(lp789
I1
a(lp790
F0.368421
aaI38
aa(lp791
I1
a(lp792
F0.358974
aaI39
aaa(lp793
S'scaffold35057_cov143'
p794
aS'scaffold34175_cov92'
p795
a(lp796
I1
a(lp797
F0.509091
aaI55
aa(lp798
I1
a(lp799
F0.404255
aaI47
aa(lp800
I1
a(lp801
F0.407407
aaI54
aaa(lp802
S'scaffold9871_cov55'
p803
aS'scaffold3224_cov53'
p804
a(lp805
I1
a(lp806
F0.30303
aaI33
aaa(lp807
S'scaffold1390_cov116'
p808
aS'scaffold4621_cov57'
p809
a(lp810
I1
a(lp811
F0.377049
aaI61
aaa(lp812
S'scaffold14725_cov115'
p813
aS'scaffold1554_cov54'
p814
aa(lp815
S'scaffold36895_cov67'
p816
aS'scaffold14776_cov55'
p817
a(lp818
I1
a(lp819
F0.264151
aaI53
aaa(lp820
S'scaffold13613_cov67'
p821
aS'scaffold12316_cov62'
p822
aa(lp823
S'scaffold1036_cov100'
p824
aS'scaffold5066_cov51'
p825
aa(lp826
S'scaffold79_cov102'
p827
aS'scaffold1680_cov53'
p828
aa(lp829
S'scaffold5161_cov62'
p830
aS'scaffold1379_cov53'
p831
aa(lp832
S'scaffold154_cov94'
p833
aS'scaffold3622_cov63'
p834
aa(lp835
S'scaffold36370_cov147'
p836
aS'scaffold35874_cov101'
p837
aa(lp838
S'scaffold8496_cov75'
p839
aS'scaffold10687_cov51'
p840
aa(lp841
S'scaffold3130_cov88'
p842
aS'scaffold36033_cov68'
p843
a(lp844
I1
a(lp845
F0.558824
aaI34
aa(lp846
I1
a(lp847
F0.393939
aaI33
aa(lp848
I1
a(lp849
F0.4375
aaI32
aa(lp850
I1
a(lp851
F0.310345
aaI58
aa(lp852
I1
a(lp853
F0.338983
aaI59
aa(lp854
I1
a(lp855
F0.311111
aaI135
aa(lp856
I1
a(lp857
F0.266667
aaI45
aa(lp858
I1
a(lp859
F0.243902
aaI41
aa(lp860
I1
a(lp861
F0.416667
aaI60
aa(lp862
I1
a(lp863
F0.415385
aaI65
aa(lp864
I1
a(lp865
F0.339286
aaI56
aa(lp866
I1
a(lp867
F0.254545
aaI55
aa(lp868
I1
a(lp869
F0.388889
aaI72
aa(lp870
I1
a(lp871
F0.378378
aaI74
aa(lp872
I1
a(lp873
F0.382716
aaI81
aa(lp874
I1
a(lp875
F0.238095
aaI42
aa(lp876
I1
a(lp877
F0.355556
aaI45
aa(lp878
I1
a(lp879
F0.315789
aaI38
aa(lp880
I1
a(lp881
F0.3125
aaI32
aa(lp882
I1
a(lp883
F0.631579
aaI57
aa(lp884
I1
a(lp885
F0.222222
aaI45
aa(lp886
I1
a(lp887
F0.285714
aaI42
aa(lp888
I1
a(lp889
F0.446429
aaI56
aa(lp890
I1
a(lp891
F0.333333
aaI45
aa(lp892
I1
a(lp893
F0.25641
aaI39
aa(lp894
I1
a(lp895
F0.242424
aaI33
aa(lp896
I1
a(lp897
F0.235294
aaI34
aa(lp898
I1
a(lp899
F0.25
aaI32
aa(lp900
I1
a(lp901
F0.389831
aaI59
aaa(lp902
S'scaffold5962_cov96'
p903
aS'scaffold20541_cov54'
p904
aa(lp905
S'scaffold3915_cov75'
p906
aS'scaffold1101_cov58'
p907
a(lp908
I1
a(lp909
F0.0
aaI290
aa(lp910
I1
a(lp911
F0.329843
aaI191
aa(lp912
I1
a(lp913
F0.320755
aaI106
aa(lp914
I1
a(lp915
F0.242038
aaI314
aaa(lp916
S'scaffold19950_cov56'
p917
aS'scaffold8908_cov58'
p918
aa(lp919
S'scaffold2412_cov121'
p920
aS'scaffold37060_cov73'
p921
aa(lp922
S'scaffold3966_cov89'
p923
aS'scaffold33587_cov72'
p924
aa(lp925
S'scaffold4278_cov90'
p926
aS'scaffold12774_cov55'
p927
aa(lp928
S'scaffold101_cov106'
p929
aS'scaffold9445_cov50'
p930
aa(lp931
S'scaffold1402_cov78'
p932
aS'scaffold3254_cov78'
p933
a(lp934
I1
a(lp935
F0.351351
aaI37
aa(lp936
I1
a(lp937
F0.333333
aaI39
aa(lp938
I1
a(lp939
F0.438356
aaI73
aa(lp940
I1
a(lp941
F0.26087
aaI46
aa(lp942
I1
a(lp943
F0.285714
aaI35
aa(lp944
I1
a(lp945
F0.289474
aaI38
aa(lp946
I1
a(lp947
F0.295455
aaI44
aa(lp948
I1
a(lp949
F0.24
aaI50
aa(lp950
I1
a(lp951
F0.453333
aaI75
aa(lp952
I1
a(lp953
F0.44186
aaI43
aa(lp954
I1
a(lp955
F0.290323
aaI31
aa(lp956
I1
a(lp957
F0.378378
aaI37
aa(lp958
I1
a(lp959
F0.243243
aaI37
aa(lp960
I1
a(lp961
F0.290323
aaI31
aa(lp962
I1
a(lp963
F0.0
aaI45
aa(lp964
I1
a(lp965
F0.484848
aaI66
aa(lp966
I1
a(lp967
F0.383333
aaI60
aa(lp968
I1
a(lp969
F0.383333
aaI60
aa(lp970
I1
a(lp971
F0.244898
aaI49
aa(lp972
I1
a(lp973
F0.272727
aaI55
aa(lp974
I1
a(lp975
F0.267857
aaI56
aa(lp976
I1
a(lp977
F0.34375
aaI64
aa(lp978
I1
a(lp979
F0.373134
aaI67
aa(lp980
I1
a(lp981
F0.347222
aaI72
aa(lp982
I1
a(lp983
F0.422535
aaI71
aa(lp984
I1
a(lp985
F0.402778
aaI72
aa(lp986
I1
a(lp987
F0.376812
aaI69
aa(lp988
I1
a(lp989
F0.393939
aaI66
aa(lp990
I1
a(lp991
F0.650602
aaI249
aa(lp992
I1
a(lp993
F0.223776
aaI286
aa(lp994
I1
a(lp995
F0.257525
aaI299
aa(lp996
I1
a(lp997
F0.214047
aaI299
aa(lp998
I1
a(lp999
F0.215488
aaI297
aa(lp1000
I1
a(lp1001
F0.21267
aaI221
aaa(lp1002
S'scaffold15918_cov54'
p1003
aS'scaffold5262_cov49'
p1004
aa(lp1005
S'scaffold12329_cov67'
p1006
aS'scaffold2853_cov69'
p1007
a(lp1008
I1
a(lp1009
F0.333333
aaI48
aa(lp1010
I1
a(lp1011
F0.25
aaI44
aaa(lp1012
S'scaffold1554_cov54'
p1013
aS'scaffold7086_cov54'
p1014
aa(lp1015
S'scaffold4147_cov76'
p1016
aS'scaffold36003_cov57'
p1017
aa(lp1018
S'scaffold2637_cov103'
p1019
aS'scaffold3877_cov78'
p1020
a(lp1021
I1
a(lp1022
F0.36
aaI50
aa(lp1023
I1
a(lp1024
F0.409836
aaI61
aa(lp1025
I1
a(lp1026
F0.326087
aaI46
aa(lp1027
I1
a(lp1028
F0.326087
aaI46
aa(lp1029
I1
a(lp1030
F0.508475
aaI59
aa(lp1031
I1
a(lp1032
F0.533333
aaI75
aa(lp1033
I1
a(lp1034
F0.478261
aaI69
aa(lp1035
I1
a(lp1036
F0.410714
aaI56
aaa(lp1037
S'scaffold42399_cov165'
p1038
aS'scaffold4701_cov56'
p1039
aa(lp1040
S'scaffold19063_cov80'
p1041
aS'scaffold3937_cov54'
p1042
a(lp1043
I1
a(lp1044
F0.230769
aaI39
aa(lp1045
I1
a(lp1046
F0.510638
aaI47
aa(lp1047
I1
a(lp1048
F0.216216
aaI37
aaa(lp1049
S'scaffold53087_cov191'
p1050
aS'scaffold19558_cov55'
p1051
aa(lp1052
S'scaffold35995_cov87'
p1053
aS'scaffold36022_cov58'
p1054
a(lp1055
I1
a(lp1056
F0.592593
aaI54
aa(lp1057
I1
a(lp1058
F0.222222
aaI36
aa(lp1059
I1
a(lp1060
F0.333333
aaI42
aaa(lp1061
S'scaffold16447_cov76'
p1062
aS'scaffold1525_cov58'
p1063
a(lp1064
I1
a(lp1065
F0.234043
aaI47
aa(lp1066
I1
a(lp1067
F0.291667
aaI48
aa(lp1068
I1
a(lp1069
F0.285714
aaI49
aa(lp1070
I1
a(lp1071
F0.4375
aaI64
aa(lp1072
I1
a(lp1073
F0.204082
aaI49
aa(lp1074
I1
a(lp1075
F0.212121
aaI33
aa(lp1076
I1
a(lp1077
F0.2
aaI35
aa(lp1078
I1
a(lp1079
F0.2
aaI35
aaa(lp1080
S'scaffold9352_cov77'
p1081
aS'scaffold7181_cov86'
p1082
aa(lp1083
S'scaffold34289_cov136'
p1084
aS'scaffold23854_cov126'
p1085
aa(lp1086
S'scaffold4050_cov108'
p1087
aS'scaffold15254_cov56'
p1088
aa(lp1089
S'scaffold45026_cov161'
p1090
aS'scaffold9651_cov60'
p1091
aa(lp1092
S'scaffold426_cov79'
p1093
aS'scaffold15290_cov65'
p1094
a(lp1095
I1
a(lp1096
F0.272727
aaI33
aaa(lp1097
S'scaffold41262_cov172'
p1098
aS'scaffold36919_cov73'
p1099
a(lp1100
I1
a(lp1101
F0.410714
aaI56
aa(lp1102
I1
a(lp1103
F0.333333
aaI51
aa(lp1104
I1
a(lp1105
F0.361702
aaI47
aaa(lp1106
S'scaffold6480_cov125'
p1107
aS'scaffold968_cov57'
p1108
a(lp1109
I1
a(lp1110
F0.292683
aaI41
aa(lp1111
I1
a(lp1112
F0.210526
aaI38
aa(lp1113
I1
a(lp1114
F0.40678
aaI59
aa(lp1115
I1
a(lp1116
F0.418182
aaI55
aa(lp1117
I1
a(lp1118
F0.438596
aaI57
aa(lp1119
I1
a(lp1120
F0.446809
aaI47
aa(lp1121
I1
a(lp1122
F0.295455
aaI44
aa(lp1123
I1
a(lp1124
F0.307692
aaI39
aa(lp1125
I1
a(lp1126
F0.269231
aaI52
aa(lp1127
I1
a(lp1128
F0.291667
aaI48
aa(lp1129
I1
a(lp1130
F0.264706
aaI34
aaa(lp1131
S'scaffold159_cov87'
p1132
aS'scaffold19164_cov60'
p1133
aa(lp1134
S'scaffold1007_cov77'
p1135
aS'scaffold2714_cov57'
p1136
a(lp1137
I1
a(lp1138
F0.315789
aaI38
aa(lp1139
I1
a(lp1140
F0.289474
aaI38
aa(lp1141
I1
a(lp1142
F0.275
aaI40
aa(lp1143
I1
a(lp1144
F0.45
aaI60
aaa(lp1145
S'scaffold6200_cov128'
p1146
aS'scaffold878_cov66'
p1147
a(lp1148
I1
a(lp1149
F0.346154
aaI52
aa(lp1150
I1
a(lp1151
F0.297872
aaI47
aa(lp1152
I1
a(lp1153
F0.230769
aaI39
aa(lp1154
I1
a(lp1155
F0.425926
aaI54
aa(lp1156
I1
a(lp1157
F0.507692
aaI65
aaa(lp1158
S'scaffold4287_cov88'
p1159
aS'scaffold2530_cov71'
p1160
a(lp1161
I1
a(lp1162
F0.292683
aaI41
aa(lp1163
I1
a(lp1164
F0.282609
aaI46
aa(lp1165
I1
a(lp1166
F0.270833
aaI48
aa(lp1167
I1
a(lp1168
F0.272727
aaI33
aa(lp1169
I1
a(lp1170
F0.227273
aaI44
aa(lp1171
I1
a(lp1172
F0.26087
aaI46
aa(lp1173
I1
a(lp1174
F0.272727
aaI44
aaa(lp1175
S'scaffold2428_cov67'
p1176
aS'scaffold8055_cov67'
p1177
aa(lp1178
S'scaffold35040_cov139'
p1179
aS'scaffold2731_cov57'
p1180
aa(lp1181
S'scaffold36499_cov103'
p1182
aS'scaffold34177_cov82'
p1183
a(lp1184
I1
a(lp1185
F0.455882
aaI68
aa(lp1186
I1
a(lp1187
F0.485294
aaI68
aa(lp1188
I1
a(lp1189
F0.5
aaI54
aa(lp1190
I1
a(lp1191
F0.233766
aaI77
aa(lp1192
I1
a(lp1193
F0.228571
aaI70
aaa(lp1194
S'scaffold4081_cov103'
p1195
aS'scaffold4410_cov60'
p1196
aa(lp1197
S'scaffold33066_cov68'
p1198
aS'scaffold4048_cov55'
p1199
a(lp1200
I1
a(lp1201
F0.233333
aaI30
aaa(lp1202
S'scaffold9125_cov84'
p1203
aS'scaffold4874_cov72'
p1204
a(lp1205
I1
a(lp1206
F0.411765
aaI51
aa(lp1207
I1
a(lp1208
F0.571429
aaI63
aa(lp1209
I1
a(lp1210
F0.555556
aaI63
aa(lp1211
I1
a(lp1212
F0.233333
aaI30
aa(lp1213
I1
a(lp1214
F0.2
aaI85
aaa(lp1215
S'scaffold33314_cov52'
p1216
aS'scaffold6612_cov63'
p1217
aa(lp1218
S'scaffold44657_cov149'
p1219
aS'scaffold4089_cov52'
p1220
aa(lp1221
S'scaffold3582_cov122'
p1222
aS'scaffold720_cov51'
p1223
aa(lp1224
S'scaffold36509_cov117'
p1225
aS'scaffold2683_cov54'
p1226
aa(lp1227
S'scaffold9959_cov130'
p1228
aS'scaffold16604_cov60'
p1229
aa(lp1230
S'scaffold56598_cov161'
p1231
aS'scaffold5176_cov58'
p1232
aa(lp1233
S'scaffold34682_cov108'
p1234
aS'scaffold411_cov59'
p1235
a(lp1236
I1
a(lp1237
F0.484848
aaI66
aaa(lp1238
S'scaffold24304_cov59'
p1239
aS'scaffold359_cov50'
p1240
aa(lp1241
S'scaffold3293_cov67'
p1242
aS'scaffold1467_cov54'
p1243
a(lp1244
I1
a(lp1245
F0.307692
aaI39
aa(lp1246
I1
a(lp1247
F0.2
aaI30
aaa(lp1248
S'scaffold14721_cov66'
p1249
aS'scaffold17264_cov49'
p1250
aa(lp1251
S'scaffold4369_cov78'
p1252
aS'scaffold1727_cov50'
p1253
aa(lp1254
S'scaffold2164_cov100'
p1255
aS'scaffold6159_cov60'
p1256
aa(lp1257
S'scaffold2998_cov77'
p1258
aS'scaffold9604_cov73'
p1259
aa(lp1260
S'scaffold53971_cov161'
p1261
aS'scaffold5146_cov52'
p1262
aa(lp1263
S'scaffold5065_cov145'
p1264
aS'scaffold1207_cov107'
p1265
a(lp1266
I1
a(lp1267
F0.489796
aaI49
aaa(lp1268
S'scaffold33155_cov116'
p1269
aS'scaffold10894_cov83'
p1270
a(lp1271
I1
a(lp1272
F0.254545
aaI55
aa(lp1273
I1
a(lp1274
F0.531646
aaI79
aa(lp1275
I1
a(lp1276
F0.301887
aaI53
aa(lp1277
I1
a(lp1278
F0.290909
aaI55
aa(lp1279
I1
a(lp1280
F0.296296
aaI54
aa(lp1281
I1
a(lp1282
F0.35
aaI60
aa(lp1283
I1
a(lp1284
F0.408163
aaI49
aa(lp1285
I1
a(lp1286
F0.384615
aaI52
aa(lp1287
I1
a(lp1288
F0.425532
aaI47
aaa(lp1289
S'scaffold2390_cov64'
p1290
aS'scaffold8942_cov56'
p1291
aa(lp1292
S'scaffold35419_cov111'
p1293
aS'scaffold6807_cov54'
p1294
aa(lp1295
S'scaffold25181_cov79'
p1296
aS'scaffold7198_cov59'
p1297
a(lp1298
I1
a(lp1299
F0.4
aaI60
aa(lp1300
I1
a(lp1301
F0.0
aaI45
aa(lp1302
I1
a(lp1303
F0.259259
aaI54
aa(lp1304
I1
a(lp1305
F0.2
aaI55
aaa(lp1306
S'scaffold2637_cov103'
p1307
aS'scaffold19626_cov63'
p1308
aa(lp1309
S'scaffold10711_cov58'
p1310
aS'scaffold7920_cov76'
p1311
a(lp1312
I1
a(lp1313
F0.212121
aaI33
aaa(lp1314
S'scaffold33560_cov76'
p1315
aS'scaffold8879_cov52'
p1316
a(lp1317
I1
a(lp1318
F0.306122
aaI49
aaa(lp1319
S'scaffold645_cov79'
p1320
aS'scaffold33884_cov75'
p1321
a(lp1322
I1
a(lp1323
F0.25
aaI28
aa(lp1324
I1
a(lp1325
F0.2
aaI35
aa(lp1326
I1
a(lp1327
F0.243902
aaI41
aa(lp1328
I1
a(lp1329
F0.47541
aaI61
aa(lp1330
I1
a(lp1331
F0.311111
aaI45
aa(lp1332
I1
a(lp1333
F0.272727
aaI44
aa(lp1334
I1
a(lp1335
F0.361111
aaI36
aa(lp1336
I1
a(lp1337
F0.277778
aaI36
aaa(lp1338
S'scaffold22301_cov147'
p1339
aS'scaffold6472_cov101'
p1340
aa(lp1341
S'scaffold50891_cov398'
p1342
aS'scaffold909_cov73'
p1343
a(lp1344
I1
a(lp1345
F0.48
aaI75
aa(lp1346
I1
a(lp1347
F0.382353
aaI68
aa(lp1348
I1
a(lp1349
F0.367647
aaI68
aa(lp1350
I1
a(lp1351
F0.344828
aaI58
aaa(lp1352
S'scaffold17539_cov88'
p1353
aS'scaffold14622_cov56'
p1354
a(lp1355
I1
a(lp1356
F0.25
aaI40
aa(lp1357
I1
a(lp1358
F0.390244
aaI41
aa(lp1359
I1
a(lp1360
F0.456522
aaI46
aa(lp1361
I1
a(lp1362
F0.309091
aaI55
aa(lp1363
I1
a(lp1364
F0.551724
aaI58
aa(lp1365
I1
a(lp1366
F0.206349
aaI63
aa(lp1367
I1
a(lp1368
F0.263158
aaI57
aa(lp1369
I1
a(lp1370
F0.218182
aaI55
aa(lp1371
I1
a(lp1372
F0.277778
aaI54
aa(lp1373
I1
a(lp1374
F0.580645
aaI62
aa(lp1375
I1
a(lp1376
F0.59322
aaI59
aa(lp1377
I1
a(lp1378
F0.615385
aaI78
aa(lp1379
I1
a(lp1380
F0.585366
aaI82
aaa(lp1381
S'scaffold1103_cov83'
p1382
aS'scaffold1104_cov68'
p1383
a(lp1384
I1
a(lp1385
F0.423729
aaI59
aa(lp1386
I1
a(lp1387
F0.428571
aaI63
aa(lp1388
I1
a(lp1389
F0.306122
aaI49
aa(lp1390
I1
a(lp1391
F0.276596
aaI47
aa(lp1392
I1
a(lp1393
F0.238095
aaI42
aaa(lp1394
S'scaffold12642_cov74'
p1395
aS'scaffold1985_cov52'
p1396
a(lp1397
I1
a(lp1398
F0.244898
aaI49
aaa(lp1399
S'scaffold3014_cov60'
p1400
aS'scaffold398_cov53'
p1401
aa(lp1402
S'scaffold617_cov62'
p1403
aS'scaffold3051_cov52'
p1404
a(lp1405
I1
a(lp1406
F0.2
aaI35
aa(lp1407
I1
a(lp1408
F0.348837
aaI43
aa(lp1409
I1
a(lp1410
F0.333333
aaI48
aa(lp1411
I1
a(lp1412
F0.27907
aaI43
aa(lp1413
I1
a(lp1414
F0.258065
aaI31
aa(lp1415
I1
a(lp1416
F0.242424
aaI33
aa(lp1417
I1
a(lp1418
F0.264706
aaI34
aa(lp1419
I1
a(lp1420
F0.228571
aaI35
aa(lp1421
I1
a(lp1422
F0.243243
aaI37
aa(lp1423
I1
a(lp1424
F0.245902
aaI61
aa(lp1425
I1
a(lp1426
F0.315789
aaI57
aa(lp1427
I1
a(lp1428
F0.384615
aaI52
aa(lp1429
I1
a(lp1430
F0.283019
aaI53
aa(lp1431
I1
a(lp1432
F0.254545
aaI55
aa(lp1433
I1
a(lp1434
F0.484375
aaI64
aa(lp1435
I1
a(lp1436
F0.23913
aaI46
aa(lp1437
I1
a(lp1438
F0.255814
aaI43
aa(lp1439
I1
a(lp1440
F0.405405
aaI37
aa(lp1441
I1
a(lp1442
F0.209302
aaI43
aa(lp1443
I1
a(lp1444
F0.444444
aaI45
aa(lp1445
I1
a(lp1446
F0.306122
aaI49
aa(lp1447
I1
a(lp1448
F0.441176
aaI34
aa(lp1449
I1
a(lp1450
F0.241758
aaI91
aa(lp1451
I1
a(lp1452
F0.27907
aaI86
aa(lp1453
I1
a(lp1454
F0.555556
aaI36
aa(lp1455
I1
a(lp1456
F0.526316
aaI38
aa(lp1457
I1
a(lp1458
F0.37037
aaI54
aaa(lp1459
S'scaffold53939_cov149'
p1460
aS'scaffold8942_cov56'
p1461
aa(lp1462
S'scaffold306_cov97'
p1463
aS'scaffold1432_cov55'
p1464
aa(lp1465
S'scaffold5491_cov58'
p1466
aS'scaffold10112_cov50'
p1467
aa(lp1468
S'scaffold4550_cov107'
p1469
aS'scaffold3432_cov48'
p1470
aa(lp1471
S'scaffold11820_cov72'
p1472
aS'scaffold3429_cov57'
p1473
a(lp1474
I1
a(lp1475
F0.454545
aaI66
aa(lp1476
I1
a(lp1477
F0.405405
aaI37
aa(lp1478
I1
a(lp1479
F0.235294
aaI34
aa(lp1480
I1
a(lp1481
F0.222222
aaI36
aa(lp1482
I1
a(lp1483
F0.261905
aaI42
aa(lp1484
I1
a(lp1485
F0.261905
aaI42
aa(lp1486
I1
a(lp1487
F0.238095
aaI42
aa(lp1488
I1
a(lp1489
F0.232558
aaI43
aa(lp1490
I1
a(lp1491
F0.209302
aaI43
aa(lp1492
I1
a(lp1493
F0.243243
aaI37
aa(lp1494
I1
a(lp1495
F0.215686
aaI51
aaa(lp1496
S'scaffold13367_cov89'
p1497
aS'scaffold37302_cov74'
p1498
a(lp1499
I1
a(lp1500
F0.630435
aaI46
aa(lp1501
I1
a(lp1502
F0.352113
aaI71
aaa(lp1503
S'scaffold11190_cov116'
p1504
aS'scaffold12855_cov52'
p1505
aa(lp1506
S'scaffold33248_cov88'
p1507
aS'scaffold1972_cov88'
p1508
aa(lp1509
S'scaffold32491_cov104'
p1510
aS'scaffold23375_cov83'
p1511
a(lp1512
I1
a(lp1513
F0.204082
aaI49
aa(lp1514
I1
a(lp1515
F0.405797
aaI69
aa(lp1516
I1
a(lp1517
F0.272727
aaI77
aa(lp1518
I1
a(lp1519
F0.266667
aaI75
aaa(lp1520
S'scaffold4313_cov91'
p1521
aS'scaffold21487_cov54'
p1522
aa(lp1523
S'scaffold33155_cov116'
p1524
aS'scaffold6384_cov82'
p1525
a(lp1526
I1
a(lp1527
F0.444444
aaI36
aaa(lp1528
S'scaffold14844_cov71'
p1529
aS'scaffold985_cov66'
p1530
a(lp1531
I1
a(lp1532
F0.228571
aaI35
aa(lp1533
I1
a(lp1534
F0.342105
aaI38
aa(lp1535
I1
a(lp1536
F0.309524
aaI42
aa(lp1537
I1
a(lp1538
F0.282609
aaI46
aa(lp1539
I1
a(lp1540
F0.340909
aaI44
aa(lp1541
I1
a(lp1542
F0.333333
aaI48
aa(lp1543
I1
a(lp1544
F0.325581
aaI43
aa(lp1545
I1
a(lp1546
F0.333333
aaI42
aa(lp1547
I1
a(lp1548
F0.409091
aaI44
aa(lp1549
I1
a(lp1550
F0.439024
aaI41
aa(lp1551
I1
a(lp1552
F0.351351
aaI37
aa(lp1553
I1
a(lp1554
F0.25641
aaI39
aa(lp1555
I1
a(lp1556
F0.294118
aaI34
aa(lp1557
I1
a(lp1558
F0.290323
aaI31
aaa(lp1559
S'scaffold8270_cov118'
p1560
aS'scaffold872_cov49'
p1561
a(lp1562
I1
a(lp1563
F0.208333
aaI72
aa(lp1564
I1
a(lp1565
F0.230769
aaI78
aa(lp1566
I1
a(lp1567
F0.0
aaI9
aaa(lp1568
S'scaffold58002_cov168'
p1569
aS'scaffold27769_cov112'
p1570
a(lp1571
I1
a(lp1572
F0.588235
aaI51
aa(lp1573
I1
a(lp1574
F0.588235
aaI51
aaa(lp1575
S'scaffold35910_cov137'
p1576
aS'scaffold3418_cov60'
p1577
a(lp1578
I1
a(lp1579
F0.0
aaI40
aa(lp1580
I1
a(lp1581
F0.0
aaI39
aaa(lp1582
S'scaffold33201_cov53'
p1583
aS'scaffold7428_cov49'
p1584
aa(lp1585
S'scaffold3013_cov87'
p1586
aS'scaffold2494_cov73'
p1587
a(lp1588
I1
a(lp1589
F0.333333
aaI42
aa(lp1590
I1
a(lp1591
F0.325
aaI40
aa(lp1592
I1
a(lp1593
F0.235294
aaI51
aa(lp1594
I1
a(lp1595
F0.291667
aaI48
aa(lp1596
I1
a(lp1597
F0.304348
aaI46
aa(lp1598
I1
a(lp1599
F0.355556
aaI45
aa(lp1600
I1
a(lp1601
F0.4
aaI70
aa(lp1602
I1
a(lp1603
F0.491525
aaI59
aaa(lp1604
S'scaffold3175_cov115'
p1605
aS'scaffold733_cov57'
p1606
a(lp1607
I1
a(lp1608
F0.261905
aaI42
aa(lp1609
I1
a(lp1610
F0.225
aaI40
aa(lp1611
I1
a(lp1612
F0.27451
aaI51
aa(lp1613
I1
a(lp1614
F0.269231
aaI52
aa(lp1615
I1
a(lp1616
F0.230769
aaI52
aa(lp1617
I1
a(lp1618
F0.227273
aaI44
aa(lp1619
I1
a(lp1620
F0.268293
aaI41
aaa(lp1621
S'scaffold53186_cov165'
p1622
aS'scaffold2900_cov54'
p1623
aa(lp1624
S'scaffold17628_cov108'
p1625
aS'scaffold1969_cov52'
p1626
aa(lp1627
S'scaffold4178_cov79'
p1628
aS'scaffold331_cov56'
p1629
a(lp1630
I1
a(lp1631
F0.384615
aaI52
aa(lp1632
I1
a(lp1633
F0.0
aaI46
aa(lp1634
I1
a(lp1635
F0.25
aaI48
aa(lp1636
I1
a(lp1637
F0.606061
aaI66
aaa(lp1638
S'scaffold18_cov68'
p1639
aS'scaffold4080_cov54'
p1640
a(lp1641
I1
a(lp1642
F0.210526
aaI38
aa(lp1643
I1
a(lp1644
F0.25
aaI16
aaa(lp1645
S'scaffold9907_cov91'
p1646
aS'scaffold2126_cov70'
p1647
a(lp1648
I1
a(lp1649
F0.339623
aaI53
aa(lp1650
I1
a(lp1651
F0.428571
aaI42
aa(lp1652
I1
a(lp1653
F0.485714
aaI35
aa(lp1654
I1
a(lp1655
F0.352941
aaI34
aa(lp1656
I1
a(lp1657
F0.272727
aaI33
aa(lp1658
I1
a(lp1659
F0.257143
aaI35
aa(lp1660
I1
a(lp1661
F0.270833
aaI48
aa(lp1662
I1
a(lp1663
F0.304348
aaI46
aa(lp1664
I1
a(lp1665
F0.285714
aaI42
aa(lp1666
I1
a(lp1667
F0.243243
aaI37
aa(lp1668
I1
a(lp1669
F0.342105
aaI38
aa(lp1670
I1
a(lp1671
F0.307692
aaI39
aa(lp1672
I1
a(lp1673
F0.3
aaI40
aa(lp1674
I1
a(lp1675
F0.212121
aaI33
aa(lp1676
I1
a(lp1677
F0.619048
aaI42
aa(lp1678
I1
a(lp1679
F0.636364
aaI44
aa(lp1680
I1
a(lp1681
F0.435897
aaI39
aa(lp1682
I1
a(lp1683
F0.368421
aaI38
aa(lp1684
I1
a(lp1685
F0.35
aaI40
aa(lp1686
I1
a(lp1687
F0.269231
aaI52
aa(lp1688
I1
a(lp1689
F0.245283
aaI53
aa(lp1690
I1
a(lp1691
F0.230769
aaI52
aa(lp1692
I1
a(lp1693
F0.235294
aaI34
aa(lp1694
I1
a(lp1695
F0.243902
aaI41
aa(lp1696
I1
a(lp1697
F0.361702
aaI47
aa(lp1698
I1
a(lp1699
F0.395349
aaI43
aa(lp1700
I1
a(lp1701
F0.377778
aaI45
aa(lp1702
I1
a(lp1703
F0.392157
aaI51
aa(lp1704
I1
a(lp1705
F0.391304
aaI46
aa(lp1706
I1
a(lp1707
F0.326087
aaI46
aa(lp1708
I1
a(lp1709
F0.277778
aaI54
aa(lp1710
I1
a(lp1711
F0.5
aaI46
aa(lp1712
I1
a(lp1713
F0.442308
aaI52
aa(lp1714
I1
a(lp1715
F0.295455
aaI44
aa(lp1716
I1
a(lp1717
F0.27907
aaI43
aa(lp1718
I1
a(lp1719
F0.302326
aaI43
aa(lp1720
I1
a(lp1721
F0.292683
aaI41
aa(lp1722
I1
a(lp1723
F0.243243
aaI37
aa(lp1724
I1
a(lp1725
F0.205128
aaI39
aa(lp1726
I1
a(lp1727
F0.258065
aaI31
aa(lp1728
I1
a(lp1729
F0.0
aaI24
aa(lp1730
I1
a(lp1731
F0.25
aaI32
aa(lp1732
I1
a(lp1733
F0.321429
aaI28
aa(lp1734
I1
a(lp1735
F0.258065
aaI31
aa(lp1736
I1
a(lp1737
F0.326923
aaI52
aa(lp1738
I1
a(lp1739
F0.351351
aaI37
aa(lp1740
I1
a(lp1741
F0.404762
aaI42
aa(lp1742
I1
a(lp1743
F0.425
aaI40
aa(lp1744
I1
a(lp1745
F0.488889
aaI45
aaa(lp1746
S'scaffold50244_cov161'
p1747
aS'scaffold4391_cov53'
p1748
aa(lp1749
S'scaffold24718_cov103'
p1750
aS'scaffold26220_cov52'
p1751
aa(lp1752
S'scaffold9958_cov63'
p1753
aS'scaffold4040_cov52'
p1754
aa(lp1755
S'scaffold38360_cov207'
p1756
aS'scaffold20375_cov54'
p1757
a(lp1758
I1
a(lp1759
F0.264151
aaI53
aa(lp1760
I1
a(lp1761
F0.245283
aaI53
aaa(lp1762
S'scaffold931_cov102'
p1763
aS'scaffold3401_cov49'
p1764
a(lp1765
I1
a(lp1766
F0.568966
aaI116
aa(lp1767
I1
a(lp1768
F0.227273
aaI22
aaa(lp1769
S'scaffold10310_cov117'
p1770
aS'scaffold2088_cov50'
p1771
a(lp1772
I1
a(lp1773
F0.27907
aaI43
aaa(lp1774
S'scaffold32857_cov74'
p1775
aS'scaffold9215_cov55'
p1776
aa(lp1777
S'scaffold11819_cov105'
p1778
aS'scaffold25653_cov54'
p1779
aa(lp1780
S'scaffold11537_cov147'
p1781
aS'scaffold37592_cov59'
p1782
aa(lp1783
S'scaffold344_cov95'
p1784
aS'scaffold2245_cov55'
p1785
a(lp1786
I1
a(lp1787
F0.275862
aaI29
aa(lp1788
I1
a(lp1789
F0.289474
aaI38
aa(lp1790
I1
a(lp1791
F0.340909
aaI44
aa(lp1792
I1
a(lp1793
F0.644068
aaI59
aaa(lp1794
S'scaffold38060_cov100'
p1795
aS'scaffold4757_cov67'
p1796
a(lp1797
I1
a(lp1798
F0.282609
aaI46
aa(lp1799
I1
a(lp1800
F0.27907
aaI43
aa(lp1801
I1
a(lp1802
F0.4
aaI60
aaa(lp1803
S'scaffold33284_cov157'
p1804
aS'scaffold14343_cov60'
p1805
aa(lp1806
S'scaffold25369_cov123'
p1807
aS'scaffold2248_cov58'
p1808
aa(lp1809
S'scaffold34289_cov136'
p1810
aS'scaffold4085_cov106'
p1811
aa(lp1812
S'scaffold37745_cov103'
p1813
aS'scaffold756_cov60'
p1814
aa(lp1815
S'scaffold18292_cov125'
p1816
aS'scaffold11042_cov64'
p1817
a(lp1818
I1
a(lp1819
F0.219512
aaI41
aa(lp1820
I1
a(lp1821
F0.204082
aaI49
aa(lp1822
I1
a(lp1823
F0.321429
aaI28
aa(lp1824
I1
a(lp1825
F0.333333
aaI39
aa(lp1826
I1
a(lp1827
F0.219512
aaI41
aaa(lp1828
S'scaffold7097_cov101'
p1829
aS'scaffold1054_cov57'
p1830
aa(lp1831
S'scaffold3846_cov88'
p1832
aS'scaffold1776_cov57'
p1833
a(lp1834
I1
a(lp1835
F0.209877
aaI81
aa(lp1836
I1
a(lp1837
F0.0
aaI27
aa(lp1838
I1
a(lp1839
F0.363636
aaI66
aa(lp1840
I1
a(lp1841
F0.333333
aaI63
aaa(lp1842
S'scaffold17701_cov112'
p1843
aS'scaffold7423_cov56'
p1844
aa(lp1845
S'scaffold5382_cov123'
p1846
aS'scaffold143_cov57'
p1847
a(lp1848
I1
a(lp1849
F0.268293
aaI41
aaa(lp1850
S'scaffold34267_cov108'
p1851
aS'scaffold643_cov63'
p1852
aa(lp1853
S'scaffold1111_cov107'
p1854
aS'scaffold479_cov51'
p1855
a(lp1856
I1
a(lp1857
F0.404255
aaI47
aa(lp1858
I1
a(lp1859
F0.230769
aaI26
aa(lp1860
I1
a(lp1861
F0.2
aaI55
aaa(lp1862
S'scaffold5454_cov72'
p1863
aS'scaffold5517_cov53'
p1864
a(lp1865
I1
a(lp1866
F0.384615
aaI39
aa(lp1867
I1
a(lp1868
F0.313725
aaI51
aa(lp1869
I1
a(lp1870
F0.461538
aaI52
aa(lp1871
I1
a(lp1872
F0.555556
aaI45
aa(lp1873
I1
a(lp1874
F0.208333
aaI24
aa(lp1875
I1
a(lp1876
F0.275862
aaI29
aa(lp1877
I1
a(lp1878
F0.258065
aaI31
aa(lp1879
I1
a(lp1880
F0.210526
aaI38
aaa(lp1881
S'scaffold19720_cov60'
p1882
aS'scaffold8038_cov51'
p1883
a(lp1884
I1
a(lp1885
F0.65
aaI40
aaa(lp1886
S'scaffold5562_cov105'
p1887
aS'scaffold6247_cov68'
p1888
a(lp1889
I1
a(lp1890
F0.296296
aaI54
aa(lp1891
I1
a(lp1892
F0.217391
aaI69
aa(lp1893
I1
a(lp1894
F0.340909
aaI44
aa(lp1895
I1
a(lp1896
F0.472727
aaI55
aa(lp1897
I1
a(lp1898
F0.46
aaI50
aa(lp1899
I1
a(lp1900
F0.44898
aaI49
aa(lp1901
I1
a(lp1902
F0.454545
aaI44
aa(lp1903
I1
a(lp1904
F0.292683
aaI41
aaa(lp1905
S'scaffold36032_cov131'
p1906
aS'scaffold15508_cov90'
p1907
aa(lp1908
S'scaffold37060_cov73'
p1909
aS'scaffold3248_cov70'
p1910
aa(lp1911
S'scaffold10343_cov61'
p1912
aS'scaffold3106_cov64'
p1913
aa(lp1914
S'scaffold14767_cov109'
p1915
aS'scaffold32828_cov78'
p1916
aa(lp1917
S'scaffold3769_cov71'
p1918
aS'scaffold18525_cov53'
p1919
a(lp1920
I1
a(lp1921
F0.352941
aaI34
aa(lp1922
I1
a(lp1923
F0.280702
aaI57
aa(lp1924
I1
a(lp1925
F0.293103
aaI58
aa(lp1926
I1
a(lp1927
F0.306452
aaI62
aa(lp1928
I1
a(lp1929
F0.327586
aaI58
aa(lp1930
I1
a(lp1931
F0.604167
aaI48
aa(lp1932
I1
a(lp1933
F0.242424
aaI33
aa(lp1934
I1
a(lp1935
F0.257143
aaI35
aaa(lp1936
S'scaffold39987_cov111'
p1937
aS'scaffold7461_cov76'
p1938
aa(lp1939
S'scaffold25106_cov104'
p1940
aS'scaffold55592_cov107'
p1941
aa(lp1942
S'scaffold14610_cov136'
p1943
aS'scaffold2598_cov61'
p1944
aa(lp1945
S'scaffold2694_cov89'
p1946
aS'scaffold36033_cov68'
p1947
ag900
a(lp1948
I1
a(lp1949
F0.428571
aaI42
aa(lp1950
I1
a(lp1951
F0.395833
aaI48
aa(lp1952
I1
a(lp1953
F0.481481
aaI54
aa(lp1954
I1
a(lp1955
F0.448276
aaI58
aa(lp1956
I1
a(lp1957
F0.232558
aaI43
aa(lp1958
I1
a(lp1959
F0.25641
aaI39
aa(lp1960
I1
a(lp1961
F0.357143
aaI42
aa(lp1962
I1
a(lp1963
F0.342105
aaI38
aa(lp1964
I1
a(lp1965
F0.384615
aaI39
aa(lp1966
I1
a(lp1967
F0.418605
aaI43
aa(lp1968
I1
a(lp1969
F0.272727
aaI33
aa(lp1970
I1
a(lp1971
F0.230769
aaI39
aa(lp1972
I1
a(lp1973
F0.243243
aaI37
aa(lp1974
I1
a(lp1975
F0.230769
aaI39
aa(lp1976
I1
a(lp1977
F0.229167
aaI48
aa(lp1978
I1
a(lp1979
F0.423077
aaI52
aa(lp1980
I1
a(lp1981
F0.46
aaI50
aaa(lp1982
S'scaffold17143_cov73'
p1983
aS'scaffold18659_cov51'
p1984
aa(lp1985
S'scaffold32858_cov151'
p1986
aS'scaffold255_cov58'
p1987
aa(lp1988
S'scaffold6209_cov128'
p1989
aS'scaffold1667_cov55'
p1990
a(lp1991
I1
a(lp1992
F0.227273
aaI44
aa(lp1993
I1
a(lp1994
F0.435897
aaI39
aa(lp1995
I1
a(lp1996
F0.255319
aaI47
aa(lp1997
I1
a(lp1998
F0.42623
aaI61
aa(lp1999
I1
a(lp2000
F0.266667
aaI60
aa(lp2001
I1
a(lp2002
F0.453125
aaI64
aa(lp2003
I1
a(lp2004
F0.339623
aaI53
aa(lp2005
I1
a(lp2006
F0.321429
aaI56
aa(lp2007
I1
a(lp2008
F0.411765
aaI68
aa(lp2009
I1
a(lp2010
F0.4
aaI70
aa(lp2011
I1
a(lp2012
F0.253968
aaI63
aa(lp2013
I1
a(lp2014
F0.25
aaI44
aa(lp2015
I1
a(lp2016
F0.205128
aaI39
aa(lp2017
I1
a(lp2018
F0.454545
aaI55
aa(lp2019
I1
a(lp2020
F0.3125
aaI64
aa(lp2021
I1
a(lp2022
F0.483871
aaI62
aa(lp2023
I1
a(lp2024
F0.264706
aaI34
aaa(lp2025
S'scaffold40047_cov153'
p2026
aS'scaffold36009_cov57'
p2027
aa(lp2028
S'scaffold4668_cov92'
p2029
aS'scaffold2804_cov64'
p2030
a(lp2031
I1
a(lp2032
F0.214286
aaI42
aa(lp2033
I1
a(lp2034
F0.396396
aaI111
aaa(lp2035
S'scaffold462_cov72'
p2036
aS'scaffold10361_cov51'
p2037
aa(lp2038
S'scaffold20873_cov79'
p2039
aS'scaffold85_cov56'
p2040
a(lp2041
I1
a(lp2042
F0.315789
aaI38
aaa(lp2043
S'scaffold13738_cov105'
p2044
aS'scaffold11516_cov50'
p2045
aa(lp2046
S'scaffold15562_cov57'
p2047
aS'scaffold17331_cov117'
p2048
a(lp2049
I1
a(lp2050
F0.390625
aaI64
aa(lp2051
I1
a(lp2052
F0.618421
aaI76
aa(lp2053
I1
a(lp2054
F0.592105
aaI76
aaa(lp2055
S'scaffold18040_cov61'
p2056
aS'scaffold4891_cov78'
p2057
a(lp2058
I1
a(lp2059
F0.220339
aaI59
aa(lp2060
I1
a(lp2061
F0.2
aaI45
aa(lp2062
I1
a(lp2063
F0.294118
aaI51
aa(lp2064
I1
a(lp2065
F0.481481
aaI54
aaa(lp2066
S'scaffold1364_cov77'
p2067
aS'scaffold2830_cov52'
p2068
aa(lp2069
S'scaffold2388_cov79'
p2070
aS'scaffold3457_cov55'
p2071
a(lp2072
I1
a(lp2073
F0.25
aaI44
aaa(lp2074
S'scaffold14804_cov81'
p2075
aS'scaffold8576_cov64'
p2076
a(lp2077
I1
a(lp2078
F0.243902
aaI41
aa(lp2079
I1
a(lp2080
F0.333333
aaI45
aa(lp2081
I1
a(lp2082
F0.434783
aaI46
aa(lp2083
I1
a(lp2084
F0.355556
aaI45
aa(lp2085
I1
a(lp2086
F0.32
aaI25
aa(lp2087
I1
a(lp2088
F0.2
aaI25
aa(lp2089
I1
a(lp2090
F0.228571
aaI35
aa(lp2091
I1
a(lp2092
F0.228571
aaI35
aa(lp2093
I1
a(lp2094
F0.228571
aaI35
aa(lp2095
I1
a(lp2096
F0.210526
aaI38
aaa(lp2097
S'scaffold5284_cov102'
p2098
aS'scaffold18868_cov79'
p2099
a(lp2100
I1
a(lp2101
F0.354167
aaI48
aa(lp2102
I1
a(lp2103
F0.432836
aaI67
aa(lp2104
I1
a(lp2105
F0.301887
aaI53
aa(lp2106
I1
a(lp2107
F0.385965
aaI57
aa(lp2108
I1
a(lp2109
F0.458333
aaI48
aa(lp2110
I1
a(lp2111
F0.341463
aaI41
aa(lp2112
I1
a(lp2113
F0.454545
aaI66
aa(lp2114
I1
a(lp2115
F0.25
aaI48
aa(lp2116
I1
a(lp2117
F0.404255
aaI47
aaa(lp2118
S'scaffold37571_cov118'
p2119
aS'scaffold14485_cov58'
p2120
aa(lp2121
S'scaffold1151_cov99'
p2122
aS'scaffold5881_cov87'
p2123
aa(lp2124
S'scaffold14755_cov58'
p2125
aS'scaffold1835_cov54'
p2126
a(lp2127
I1
a(lp2128
F0.225
aaI40
aaa(lp2129
S'scaffold34989_cov66'
p2130
aS'scaffold5980_cov50'
p2131
aa(lp2132
S'scaffold7261_cov132'
p2133
aS'scaffold6018_cov72'
p2134
a(lp2135
I1
a(lp2136
F0.377778
aaI45
aa(lp2137
I1
a(lp2138
F0.529412
aaI51
aaa(lp2139
S'scaffold25187_cov99'
p2140
aS'scaffold3835_cov72'
p2141
a(lp2142
I1
a(lp2143
F0.446429
aaI56
aa(lp2144
I1
a(lp2145
F0.396226
aaI53
aa(lp2146
I1
a(lp2147
F0.431818
aaI44
aa(lp2148
I1
a(lp2149
F0.444444
aaI45
aa(lp2150
I1
a(lp2151
F0.461538
aaI39
aa(lp2152
I1
a(lp2153
F0.431818
aaI44
aa(lp2154
I1
a(lp2155
F0.583333
aaI36
aa(lp2156
I1
a(lp2157
F0.307692
aaI39
aa(lp2158
I1
a(lp2159
F0.333333
aaI42
aa(lp2160
I1
a(lp2161
F0.491803
aaI61
aa(lp2162
I1
a(lp2163
F0.470588
aaI51
aa(lp2164
I1
a(lp2165
F0.285714
aaI49
aa(lp2166
I1
a(lp2167
F0.435484
aaI62
aa(lp2168
I1
a(lp2169
F0.462687
aaI67
aa(lp2170
I1
a(lp2171
F0.466667
aaI60
aa(lp2172
I1
a(lp2173
F0.388889
aaI54
aa(lp2174
I1
a(lp2175
F0.363636
aaI33
aaa(lp2176
S'scaffold16649_cov90'
p2177
aS'scaffold33204_cov76'
p2178
a(lp2179
I1
a(lp2180
F0.460317
aaI63
aa(lp2181
I1
a(lp2182
F0.282051
aaI39
aa(lp2183
I1
a(lp2184
F0.245283
aaI53
aa(lp2185
I1
a(lp2186
F0.324324
aaI37
aa(lp2187
I1
a(lp2188
F0.318182
aaI22
aa(lp2189
I1
a(lp2190
F0.235294
aaI34
aaa(lp2191
S'scaffold2088_cov50'
p2192
aS'scaffold21479_cov41'
p2193
aa(lp2194
S'scaffold14030_cov122'
p2195
aS'scaffold350_cov52'
p2196
aa(lp2197
S'scaffold6757_cov85'
p2198
aS'scaffold10114_cov67'
p2199
a(lp2200
I1
a(lp2201
F0.533333
aaI60
aa(lp2202
I1
a(lp2203
F0.25
aaI24
aa(lp2204
I1
a(lp2205
F0.24
aaI25
aa(lp2206
I1
a(lp2207
F0.21875
aaI32
aa(lp2208
I1
a(lp2209
F0.242424
aaI33
aa(lp2210
I1
a(lp2211
F0.405405
aaI37
aa(lp2212
I1
a(lp2213
F0.4
aaI35
aa(lp2214
I1
a(lp2215
F0.419355
aaI31
aa(lp2216
I1
a(lp2217
F0.258065
aaI62
aa(lp2218
I1
a(lp2219
F0.237288
aaI59
aaa(lp2220
S'scaffold8823_cov89'
p2221
aS'scaffold8357_cov58'
p2222
a(lp2223
I1
a(lp2224
F0.358974
aaI39
aa(lp2225
I1
a(lp2226
F0.384615
aaI39
aa(lp2227
I1
a(lp2228
F0.340909
aaI44
aa(lp2229
I1
a(lp2230
F0.302326
aaI43
aa(lp2231
I1
a(lp2232
F0.209302
aaI43
aa(lp2233
I1
a(lp2234
F0.23913
aaI46
aa(lp2235
I1
a(lp2236
F0.243902
aaI41
aa(lp2237
I1
a(lp2238
F0.277778
aaI36
aa(lp2239
I1
a(lp2240
F0.307692
aaI39
aa(lp2241
I1
a(lp2242
F0.314286
aaI35
aa(lp2243
I1
a(lp2244
F0.2
aaI30
aa(lp2245
I1
a(lp2246
F0.290323
aaI31
aa(lp2247
I1
a(lp2248
F0.3125
aaI32
aa(lp2249
I1
a(lp2250
F0.3
aaI30
aa(lp2251
I1
a(lp2252
F0.432432
aaI37
aa(lp2253
I1
a(lp2254
F0.472222
aaI36
aa(lp2255
I1
a(lp2256
F0.444444
aaI36
aa(lp2257
I1
a(lp2258
F0.333333
aaI27
aa(lp2259
I1
a(lp2260
F0.255814
aaI43
aaa(lp2261
S'scaffold21582_cov121'
p2262
aS'scaffold5370_cov101'
p2263
aa(lp2264
S'scaffold34332_cov81'
p2265
aS'scaffold4339_cov63'
p2266
aa(lp2267
S'scaffold3128_cov90'
p2268
aS'scaffold570_cov75'
p2269
a(lp2270
I1
a(lp2271
F0.232143
aaI56
aa(lp2272
I1
a(lp2273
F0.26087
aaI46
aa(lp2274
I1
a(lp2275
F0.340426
aaI47
aa(lp2276
I1
a(lp2277
F0.352941
aaI51
aa(lp2278
I1
a(lp2279
F0.311111
aaI45
aa(lp2280
I1
a(lp2281
F0.277778
aaI36
aa(lp2282
I1
a(lp2283
F0.257143
aaI35
aa(lp2284
I1
a(lp2285
F0.28125
aaI32
aa(lp2286
I1
a(lp2287
F0.222222
aaI36
aa(lp2288
I1
a(lp2289
F0.285714
aaI42
aa(lp2290
I1
a(lp2291
F0.289855
aaI69
aa(lp2292
I1
a(lp2293
F0.30303
aaI66
aa(lp2294
I1
a(lp2295
F0.372549
aaI51
aa(lp2296
I1
a(lp2297
F0.382979
aaI47
aa(lp2298
I1
a(lp2299
F0.468085
aaI47
aa(lp2300
I1
a(lp2301
F0.203704
aaI54
aa(lp2302
I1
a(lp2303
F0.216216
aaI37
aa(lp2304
I1
a(lp2305
F0.261905
aaI42
aa(lp2306
I1
a(lp2307
F0.222222
aaI36
aa(lp2308
I1
a(lp2309
F0.2
aaI30
aa(lp2310
I1
a(lp2311
F0.21875
aaI32
aa(lp2312
I1
a(lp2313
F0.368421
aaI57
aa(lp2314
I1
a(lp2315
F0.345455
aaI55
aa(lp2316
I1
a(lp2317
F0.238095
aaI42
aa(lp2318
I1
a(lp2319
F0.333333
aaI36
aa(lp2320
I1
a(lp2321
F0.433333
aaI30
aa(lp2322
I1
a(lp2323
F0.435897
aaI39
aa(lp2324
I1
a(lp2325
F0.45
aaI40
aa(lp2326
I1
a(lp2327
F0.45
aaI40
aa(lp2328
I1
a(lp2329
F0.355556
aaI45
aa(lp2330
I1
a(lp2331
F0.272727
aaI55
aa(lp2332
I1
a(lp2333
F0.272727
aaI55
aa(lp2334
I1
a(lp2335
F0.277778
aaI54
aa(lp2336
I1
a(lp2337
F0.314815
aaI54
aa(lp2338
I1
a(lp2339
F0.381818
aaI55
aa(lp2340
I1
a(lp2341
F0.270833
aaI48
aa(lp2342
I1
a(lp2343
F0.225
aaI40
aa(lp2344
I1
a(lp2345
F0.230769
aaI26
aa(lp2346
I1
a(lp2347
F0.387755
aaI49
aa(lp2348
I1
a(lp2349
F0.395349
aaI43
aa(lp2350
I1
a(lp2351
F0.490566
aaI53
aa(lp2352
I1
a(lp2353
F0.42
aaI50
aa(lp2354
I1
a(lp2355
F0.428571
aaI49
aa(lp2356
I1
a(lp2357
F0.44
aaI50
aa(lp2358
I1
a(lp2359
F0.226415
aaI53
aa(lp2360
I1
a(lp2361
F0.319149
aaI47
aa(lp2362
I1
a(lp2363
F0.290909
aaI55
aa(lp2364
I1
a(lp2365
F0.319149
aaI47
aa(lp2366
I1
a(lp2367
F0.282051
aaI39
aa(lp2368
I1
a(lp2369
F0.26087
aaI46
aa(lp2370
I1
a(lp2371
F0.507246
aaI69
aa(lp2372
I1
a(lp2373
F0.261905
aaI42
aa(lp2374
I1
a(lp2375
F0.302326
aaI43
aa(lp2376
I1
a(lp2377
F0.25
aaI60
aa(lp2378
I1
a(lp2379
F0.272727
aaI55
aa(lp2380
I1
a(lp2381
F0.313725
aaI51
aa(lp2382
I1
a(lp2383
F0.319149
aaI47
aa(lp2384
I1
a(lp2385
F0.302326
aaI43
aa(lp2386
I1
a(lp2387
F0.318182
aaI44
aa(lp2388
I1
a(lp2389
F0.2
aaI45
aa(lp2390
I1
a(lp2391
F0.28
aaI50
aa(lp2392
I1
a(lp2393
F0.306122
aaI49
aa(lp2394
I1
a(lp2395
F0.365385
aaI52
aa(lp2396
I1
a(lp2397
F0.2
aaI30
aa(lp2398
I1
a(lp2399
F0.59375
aaI64
aa(lp2400
I1
a(lp2401
F0.460526
aaI76
aa(lp2402
I1
a(lp2403
F0.349206
aaI63
aa(lp2404
I1
a(lp2405
F0.367647
aaI68
aa(lp2406
I1
a(lp2407
F0.257143
aaI35
aa(lp2408
I1
a(lp2409
F0.275
aaI40
aa(lp2410
I1
a(lp2411
F0.285714
aaI42
aa(lp2412
I1
a(lp2413
F0.25641
aaI39
aa(lp2414
I1
a(lp2415
F0.282051
aaI39
aa(lp2416
I1
a(lp2417
F0.380952
aaI42
aa(lp2418
I1
a(lp2419
F0.223881
aaI67
aa(lp2420
I1
a(lp2421
F0.25
aaI44
aa(lp2422
I1
a(lp2423
F0.454545
aaI66
aaa(lp2424
S'scaffold36145_cov66'
p2425
aS'scaffold5517_cov53'
p2426
aa(lp2427
S'scaffold23886_cov86'
p2428
aS'scaffold5357_cov53'
p2429
a(lp2430
I1
a(lp2431
F0.485714
aaI70
aa(lp2432
I1
a(lp2433
F0.231884
aaI69
aaa(lp2434
S'scaffold37745_cov103'
p2435
aS'scaffold9100_cov54'
p2436
aa(lp2437
S'scaffold14596_cov132'
p2438
aS'scaffold36584_cov77'
p2439
aa(lp2440
S'scaffold34367_cov119'
p2441
aS'scaffold33612_cov72'
p2442
aa(lp2443
S'scaffold3077_cov95'
p2444
aS'scaffold5136_cov47'
p2445
aa(lp2446
S'scaffold5283_cov61'
p2447
aS'scaffold2790_cov71'
p2448
a(lp2449
I1
a(lp2450
F0.232558
aaI43
aaa(lp2451
S'scaffold14887_cov139'
p2452
aS'scaffold7284_cov54'
p2453
aa(lp2454
S'scaffold37624_cov98'
p2455
aS'scaffold14365_cov55'
p2456
aa(lp2457
S'scaffold5841_cov52'
p2458
aS'scaffold8765_cov54'
p2459
aa(lp2460
S'scaffold12169_cov151'
p2461
aS'scaffold2317_cov61'
p2462
aa(lp2463
S'scaffold10508_cov75'
p2464
aS'scaffold5982_cov55'
p2465
a(lp2466
I1
a(lp2467
F0.222222
aaI45
aa(lp2468
I1
a(lp2469
F0.26087
aaI46
aa(lp2470
I1
a(lp2471
F0.236842
aaI38
aa(lp2472
I1
a(lp2473
F0.318841
aaI69
aa(lp2474
I1
a(lp2475
F0.773109
aaI119
aaa(lp2476
S'scaffold2637_cov103'
p2477
aS'scaffold12063_cov48'
p2478
aa(lp2479
S'scaffold12489_cov66'
p2480
aS'scaffold12509_cov75'
p2481
a(lp2482
I1
a(lp2483
F0.263158
aaI19
aaa(lp2484
S'scaffold5049_cov79'
p2485
aS'scaffold9910_cov51'
p2486
a(lp2487
I1
a(lp2488
F0.493333
aaI75
aa(lp2489
I1
a(lp2490
F0.488372
aaI43
aaa(lp2491
S'scaffold7154_cov101'
p2492
aS'scaffold11306_cov90'
p2493
a(lp2494
I1
a(lp2495
F0.346154
aaI52
aa(lp2496
I1
a(lp2497
F0.333333
aaI54
aa(lp2498
I1
a(lp2499
F0.352941
aaI51
aa(lp2500
I1
a(lp2501
F0.413043
aaI46
aa(lp2502
I1
a(lp2503
F0.491525
aaI59
aa(lp2504
I1
a(lp2505
F0.351351
aaI74
aa(lp2506
I1
a(lp2507
F0.394366
aaI71
aa(lp2508
I1
a(lp2509
F0.365385
aaI52
aa(lp2510
I1
a(lp2511
F0.4
aaI55
aa(lp2512
I1
a(lp2513
F0.55102
aaI49
aa(lp2514
I1
a(lp2515
F0.261905
aaI42
aa(lp2516
I1
a(lp2517
F0.333333
aaI51
aaa(lp2518
S'scaffold14510_cov60'
p2519
aS'scaffold11820_cov72'
p2520
aa(lp2521
S'scaffold1343_cov77'
p2522
aS'scaffold34185_cov69'
p2523
a(lp2524
I1
a(lp2525
F0.563636
aaI55
aa(lp2526
I1
a(lp2527
F0.596154
aaI52
aa(lp2528
I1
a(lp2529
F0.740385
aaI104
aa(lp2530
I1
a(lp2531
F0.666667
aaI84
aa(lp2532
I1
a(lp2533
F0.365079
aaI126
aa(lp2534
I1
a(lp2535
F0.272109
aaI147
aa(lp2536
I1
a(lp2537
F0.25
aaI36
aaa(lp2538
S'scaffold663_cov79'
p2539
aS'scaffold2057_cov66'
p2540
a(lp2541
I1
a(lp2542
F0.325
aaI40
aa(lp2543
I1
a(lp2544
F0.350877
aaI57
aa(lp2545
I1
a(lp2546
F0.320755
aaI53
aaa(lp2547
S'scaffold8668_cov57'
p2548
aS'scaffold11818_cov100'
p2549
a(lp2550
I1
a(lp2551
F0.285714
aaI56
aa(lp2552
I1
a(lp2553
F0.448276
aaI58
aa(lp2554
I1
a(lp2555
F0.479167
aaI48
aa(lp2556
I1
a(lp2557
F0.333333
aaI57
aa(lp2558
I1
a(lp2559
F0.28169
aaI71
aa(lp2560
I1
a(lp2561
F0.462687
aaI67
aaa(lp2562
S'scaffold154_cov94'
p2563
aS'scaffold14496_cov57'
p2564
aa(lp2565
S'scaffold32065_cov59'
p2566
aS'scaffold28048_cov54'
p2567
aa(lp2568
S'scaffold20331_cov77'
p2569
aS'scaffold3358_cov56'
p2570
aa(lp2571
S'scaffold18278_cov58'
p2572
aS'scaffold2739_cov53'
p2573
aa(lp2574
S'scaffold4918_cov110'
p2575
aS'scaffold1432_cov55'
p2576
aa(lp2577
S'scaffold9750_cov109'
p2578
aS'scaffold23746_cov60'
p2579
aa(lp2580
S'scaffold6457_cov56'
p2581
aS'scaffold36776_cov56'
p2582
aa(lp2583
S'scaffold36466_cov115'
p2584
aS'scaffold6807_cov54'
p2585
a(lp2586
I1
a(lp2587
F0.352941
aaI51
aa(lp2588
I1
a(lp2589
F0.341463
aaI41
aaa(lp2590
S'scaffold1850_cov129'
p2591
aS'scaffold4085_cov106'
p2592
aa(lp2593
S'scaffold5518_cov59'
p2594
aS'scaffold21109_cov47'
p2595
aa(lp2596
S'scaffold3753_cov79'
p2597
aS'scaffold1680_cov53'
p2598
aa(lp2599
S'scaffold29404_cov53'
p2600
aS'scaffold10537_cov54'
p2601
aa(lp2602
S'scaffold15110_cov149'
p2603
aS'scaffold1645_cov55'
p2604
aa(lp2605
S'scaffold4816_cov61'
p2606
aS'scaffold4606_cov54'
p2607
a(lp2608
I1
a(lp2609
F0.326531
aaI49
aa(lp2610
I1
a(lp2611
F0.265306
aaI49
aaa(lp2612
S'scaffold16801_cov94'
p2613
aS'scaffold2603_cov89'
p2614
aasS'up'
p2615
(lp2616
(lp2617
g6
ag7
a(lp2618
I1
a(lp2619
F0.227273
aaI44
aa(lp2620
I1
a(lp2621
F0.363636
aaI44
aa(lp2622
I1
a(lp2623
F0.34
aaI50
aa(lp2624
I1
a(lp2625
F0.361111
aaI72
aa(lp2626
I1
a(lp2627
F0.313433
aaI67
aa(lp2628
I1
a(lp2629
F0.333333
aaI54
aa(lp2630
I1
a(lp2631
F0.2
aaI40
aa(lp2632
I1
a(lp2633
F0.243902
aaI41
aa(lp2634
I1
a(lp2635
F0.244444
aaI45
aa(lp2636
I1
a(lp2637
F0.311475
aaI61
aa(lp2638
I1
a(lp2639
F0.297297
aaI37
aa(lp2640
I1
a(lp2641
F0.428571
aaI42
aa(lp2642
I1
a(lp2643
F0.233333
aaI30
aa(lp2644
I1
a(lp2645
F0.395349
aaI43
aa(lp2646
I1
a(lp2647
F0.264706
aaI34
aa(lp2648
I1
a(lp2649
F0.363636
aaI55
aa(lp2650
I1
a(lp2651
F0.454545
aaI55
aa(lp2652
I1
a(lp2653
F0.391304
aaI46
aa(lp2654
I1
a(lp2655
F0.372093
aaI43
aa(lp2656
I1
a(lp2657
F0.285714
aaI56
aa(lp2658
I1
a(lp2659
F0.464286
aaI56
aa(lp2660
I1
a(lp2661
F0.377778
aaI45
aa(lp2662
I1
a(lp2663
F0.377778
aaI45
aa(lp2664
I1
a(lp2665
F0.386364
aaI44
aa(lp2666
I1
a(lp2667
F0.425532
aaI47
aa(lp2668
I1
a(lp2669
F0.25
aaI44
aa(lp2670
I1
a(lp2671
F0.205882
aaI34
aa(lp2672
I1
a(lp2673
F0.431818
aaI44
aa(lp2674
I1
a(lp2675
F0.434783
aaI46
aa(lp2676
I1
a(lp2677
F0.435897
aaI39
aa(lp2678
I1
a(lp2679
F0.394737
aaI38
aa(lp2680
I1
a(lp2681
F0.457143
aaI35
aa(lp2682
I1
a(lp2683
F0.263158
aaI38
aa(lp2684
I1
a(lp2685
F0.372549
aaI51
aa(lp2686
I1
a(lp2687
F0.466667
aaI45
aa(lp2688
I1
a(lp2689
F0.350877
aaI57
aa(lp2690
I1
a(lp2691
F0.372549
aaI51
aa(lp2692
I1
a(lp2693
F0.2
aaI30
aa(lp2694
I1
a(lp2695
F0.44
aaI50
aa(lp2696
I1
a(lp2697
F0.45283
aaI53
aa(lp2698
I1
a(lp2699
F0.551282
aaI78
aa(lp2700
I1
a(lp2701
F0.354167
aaI48
aa(lp2702
I1
a(lp2703
F0.459016
aaI61
aa(lp2704
I1
a(lp2705
F0.418182
aaI55
aa(lp2706
I1
a(lp2707
F0.403509
aaI57
aa(lp2708
I1
a(lp2709
F0.53125
aaI64
aa(lp2710
I1
a(lp2711
F0.277778
aaI36
aaa(lp2712
g9
ag10
a(lp2713
I1
a(lp2714
F0.510204
aaI49
aa(lp2715
I1
a(lp2716
F0.456522
aaI46
aa(lp2717
I1
a(lp2718
F0.403846
aaI52
aa(lp2719
I1
a(lp2720
F0.368421
aaI57
aa(lp2721
I1
a(lp2722
F0.479452
aaI73
aa(lp2723
I1
a(lp2724
F0.428571
aaI49
aa(lp2725
I1
a(lp2726
F0.416667
aaI48
aa(lp2727
I1
a(lp2728
F0.350877
aaI57
aa(lp2729
I1
a(lp2730
F0.461538
aaI52
aa(lp2731
I1
a(lp2732
F0.345455
aaI55
aa(lp2733
I1
a(lp2734
F0.363636
aaI33
aa(lp2735
I1
a(lp2736
F0.272727
aaI33
aa(lp2737
I1
a(lp2738
F0.25
aaI28
aa(lp2739
I1
a(lp2740
F0.225806
aaI31
aa(lp2741
I1
a(lp2742
F0.25
aaI28
aa(lp2743
I1
a(lp2744
F0.21875
aaI32
aa(lp2745
I1
a(lp2746
F0.282609
aaI46
aa(lp2747
I1
a(lp2748
F0.0
aaI45
aa(lp2749
I1
a(lp2750
F0.2
aaI45
aa(lp2751
I1
a(lp2752
F0.413043
aaI46
aa(lp2753
I1
a(lp2754
F0.422222
aaI45
aa(lp2755
I1
a(lp2756
F0.54386
aaI57
aa(lp2757
I1
a(lp2758
F0.458333
aaI48
aa(lp2759
I1
a(lp2760
F0.40625
aaI64
aa(lp2761
I1
a(lp2762
F0.355932
aaI59
aa(lp2763
I1
a(lp2764
F0.472973
aaI74
aaa(lp2765
g32
ag33
a(lp2766
I1
a(lp2767
F0.347826
aaI92
aaa(lp2768
g35
ag36
aa(lp2769
g38
ag39
a(lp2770
I1
a(lp2771
F0.46875
aaI64
aa(lp2772
I1
a(lp2773
F0.403226
aaI62
aa(lp2774
I1
a(lp2775
F0.366667
aaI60
aa(lp2776
I1
a(lp2777
F0.622642
aaI53
aa(lp2778
I1
a(lp2779
F0.416667
aaI48
aa(lp2780
I1
a(lp2781
F0.395833
aaI48
aa(lp2782
I1
a(lp2783
F0.413043
aaI46
aa(lp2784
I1
a(lp2785
F0.391304
aaI46
aaa(lp2786
g47
ag48
a(lp2787
I1
a(lp2788
F0.409836
aaI61
aa(lp2789
I1
a(lp2790
F0.557377
aaI61
aa(lp2791
I1
a(lp2792
F0.285714
aaI42
aa(lp2793
I1
a(lp2794
F0.47619
aaI42
aa(lp2795
I1
a(lp2796
F0.361111
aaI36
aa(lp2797
I1
a(lp2798
F0.517241
aaI58
aaa(lp2799
g50
ag51
aa(lp2800
g53
ag54
aa(lp2801
g56
ag57
aa(lp2802
g63
ag64
a(lp2803
I1
a(lp2804
F0.21875
aaI32
aa(lp2805
I1
a(lp2806
F0.305556
aaI36
aa(lp2807
I1
a(lp2808
F0.333333
aaI18
aa(lp2809
I1
a(lp2810
F0.357143
aaI56
aa(lp2811
I1
a(lp2812
F0.339623
aaI53
aaa(lp2813
g68
ag69
aa(lp2814
g71
ag72
a(lp2815
I1
a(lp2816
F0.307692
aaI52
aa(lp2817
I1
a(lp2818
F0.275862
aaI58
aa(lp2819
I1
a(lp2820
F0.320755
aaI53
aa(lp2821
I1
a(lp2822
F0.476923
aaI65
aa(lp2823
I1
a(lp2824
F0.333333
aaI57
aa(lp2825
I1
a(lp2826
F0.511628
aaI86
aaa(lp2827
g74
ag75
aa(lp2828
g77
ag78
a(lp2829
I1
a(lp2830
F0.302326
aaI43
aa(lp2831
I1
a(lp2832
F0.462963
aaI54
aa(lp2833
I1
a(lp2834
F0.351852
aaI54
aa(lp2835
I1
a(lp2836
F0.321429
aaI56
aa(lp2837
I1
a(lp2838
F0.318182
aaI66
aa(lp2839
I1
a(lp2840
F0.261538
aaI65
aaa(lp2841
g84
ag85
aa(lp2842
g87
ag88
aa(lp2843
g96
ag97
a(lp2844
I1
a(lp2845
F0.333333
aaI54
aa(lp2846
I1
a(lp2847
F0.333333
aaI60
aa(lp2848
I1
a(lp2849
F0.291667
aaI48
aa(lp2850
I1
a(lp2851
F0.354167
aaI48
aa(lp2852
I1
a(lp2853
F0.532258
aaI62
aa(lp2854
I1
a(lp2855
F0.5
aaI58
aa(lp2856
I1
a(lp2857
F0.555556
aaI63
aaa(lp2858
g103
ag104
a(lp2859
I1
a(lp2860
F0.38
aaI50
aa(lp2861
I1
a(lp2862
F0.553571
aaI56
aa(lp2863
I1
a(lp2864
F0.548387
aaI62
aa(lp2865
I1
a(lp2866
F0.304348
aaI69
aa(lp2867
I1
a(lp2868
F0.448276
aaI58
aa(lp2869
I1
a(lp2870
F0.325581
aaI43
aa(lp2871
I1
a(lp2872
F0.566667
aaI60
aa(lp2873
I1
a(lp2874
F0.627119
aaI59
aa(lp2875
I1
a(lp2876
F0.474576
aaI59
aa(lp2877
I1
a(lp2878
F0.261905
aaI42
aa(lp2879
I1
a(lp2880
F0.465116
aaI43
aa(lp2881
I1
a(lp2882
F0.428571
aaI42
aa(lp2883
I1
a(lp2884
F0.390244
aaI41
aa(lp2885
I1
a(lp2886
F0.333333
aaI42
aa(lp2887
I1
a(lp2888
F0.377778
aaI45
aa(lp2889
I1
a(lp2890
F0.333333
aaI12
aa(lp2891
I1
a(lp2892
F0.666667
aaI6
aa(lp2893
I1
a(lp2894
F0.285714
aaI28
aa(lp2895
I1
a(lp2896
F0.209302
aaI43
aa(lp2897
I1
a(lp2898
F0.5625
aaI48
aa(lp2899
I1
a(lp2900
F0.2
aaI35
aa(lp2901
I1
a(lp2902
F0.230769
aaI39
aa(lp2903
I1
a(lp2904
F0.289474
aaI38
aa(lp2905
I1
a(lp2906
F0.39726
aaI73
aa(lp2907
I1
a(lp2908
F0.594203
aaI69
aa(lp2909
I1
a(lp2910
F0.564516
aaI62
aa(lp2911
I1
a(lp2912
F0.517241
aaI58
aa(lp2913
I1
a(lp2914
F0.490909
aaI55
aaa(lp2915
g106
ag107
aa(lp2916
g109
ag110
a(lp2917
I1
a(lp2918
F0.512195
aaI82
aaa(lp2919
g112
ag113
aa(lp2920
g115
ag116
a(lp2921
I1
a(lp2922
F0.373494
aaI83
aa(lp2923
I1
a(lp2924
F0.396825
aaI63
aa(lp2925
I1
a(lp2926
F0.35
aaI60
aa(lp2927
I1
a(lp2928
F0.327869
aaI61
aa(lp2929
I1
a(lp2930
F0.270833
aaI48
aaa(lp2931
g128
ag129
aa(lp2932
g137
ag138
a(lp2933
I2
a(lp2934
F0.24
aF0.213333
aaI75
aa(lp2935
I1
a(lp2936
F0.390244
aaI82
aa(lp2937
I1
a(lp2938
F0.223881
aaI67
aa(lp2939
I1
a(lp2940
F0.461538
aaI78
aa(lp2941
I1
a(lp2942
F0.430769
aaI65
aa(lp2943
I1
a(lp2944
F0.219512
aaI41
aaa(lp2945
g140
ag141
a(lp2946
I1
a(lp2947
F0.205882
aaI34
aa(lp2948
I1
a(lp2949
F0.266667
aaI45
aa(lp2950
I1
a(lp2951
F0.243902
aaI41
aa(lp2952
I1
a(lp2953
F0.25641
aaI39
aaa(lp2954
g145
ag146
aa(lp2955
g148
ag149
aa(lp2956
g151
ag152
a(lp2957
I1
a(lp2958
F0.440678
aaI59
aa(lp2959
I1
a(lp2960
F0.317073
aaI41
aaa(lp2961
g164
ag165
aa(lp2962
g167
ag168
aa(lp2963
g170
ag171
a(lp2964
I1
a(lp2965
F0.441176
aaI68
aa(lp2966
I1
a(lp2967
F0.237288
aaI59
aa(lp2968
I1
a(lp2969
F0.233333
aaI60
aa(lp2970
I1
a(lp2971
F0.355556
aaI45
aa(lp2972
I1
a(lp2973
F0.276596
aaI47
aa(lp2974
I1
a(lp2975
F0.355263
aaI76
aa(lp2976
I1
a(lp2977
F0.473684
aaI38
aa(lp2978
I1
a(lp2979
F0.487805
aaI41
aa(lp2980
I1
a(lp2981
F0.552239
aaI67
aa(lp2982
I1
a(lp2983
F0.432836
aaI67
aa(lp2984
I1
a(lp2985
F0.220339
aaI59
aa(lp2986
I1
a(lp2987
F0.203125
aaI64
aa(lp2988
I1
a(lp2989
F0.333333
aaI48
aa(lp2990
I1
a(lp2991
F0.588235
aaI51
aaa(lp2992
g185
ag186
aa(lp2993
g188
ag189
aa(lp2994
g191
ag192
aa(lp2995
g194
ag195
a(lp2996
I1
a(lp2997
F0.666667
aaI21
aa(lp2998
I1
a(lp2999
F0.431818
aaI44
aa(lp3000
I1
a(lp3001
F0.317073
aaI41
aa(lp3002
I1
a(lp3003
F0.227273
aaI44
aa(lp3004
I1
a(lp3005
F0.295455
aaI44
aa(lp3006
I1
a(lp3007
F0.413043
aaI46
aa(lp3008
I1
a(lp3009
F0.425532
aaI47
aa(lp3010
I1
a(lp3011
F0.395833
aaI48
aa(lp3012
I1
a(lp3013
F0.375
aaI48
aaa(lp3014
g197
ag198
aa(lp3015
g200
ag201
aa(lp3016
g215
ag216
a(lp3017
I1
a(lp3018
F0.266667
aaI30
aa(lp3019
I1
a(lp3020
F0.314286
aaI35
aaa(lp3021
g218
ag219
aa(lp3022
g221
ag222
a(lp3023
I1
a(lp3024
F0.581818
aaI55
aa(lp3025
I1
a(lp3026
F0.491525
aaI59
aa(lp3027
I1
a(lp3028
F0.516129
aaI62
aa(lp3029
I1
a(lp3030
F0.411765
aaI51
aa(lp3031
I1
a(lp3032
F0.5
aaI60
aa(lp3033
I1
a(lp3034
F0.40678
aaI59
aaa(lp3035
g224
ag225
a(lp3036
I1
a(lp3037
F0.216216
aaI37
aa(lp3038
I1
a(lp3039
F0.302326
aaI43
aa(lp3040
I1
a(lp3041
F0.413333
aaI75
aa(lp3042
I1
a(lp3043
F0.280702
aaI57
aa(lp3044
I1
a(lp3045
F0.295455
aaI44
aa(lp3046
I1
a(lp3047
F0.26087
aaI46
aa(lp3048
I1
a(lp3049
F0.272727
aaI44
aa(lp3050
I1
a(lp3051
F0.205128
aaI39
aa(lp3052
I1
a(lp3053
F0.32
aaI50
aaa(lp3054
g233
ag234
aa(lp3055
g240
ag241
aa(lp3056
g243
ag244
a(lp3057
I1
a(lp3058
F0.236842
aaI76
aa(lp3059
I1
a(lp3060
F0.439394
aaI66
aa(lp3061
I1
a(lp3062
F0.424658
aaI73
aaa(lp3063
g248
ag249
aa(lp3064
g255
ag256
aa(lp3065
g258
ag259
aa(lp3066
g261
ag262
aa(lp3067
g264
ag265
aa(lp3068
g269
ag270
aa(lp3069
g272
ag273
a(lp3070
I1
a(lp3071
F0.72
aaI100
aa(lp3072
I1
a(lp3073
F0.742574
aaI101
aa(lp3074
I1
a(lp3075
F0.686275
aaI102
aaa(lp3076
g275
ag276
aa(lp3077
g278
ag279
aa(lp3078
g281
ag282
a(lp3079
I1
a(lp3080
F0.359375
aaI64
aa(lp3081
I1
a(lp3082
F0.566265
aaI83
aa(lp3083
I1
a(lp3084
F0.435484
aaI62
aa(lp3085
I1
a(lp3086
F0.47541
aaI61
aa(lp3087
I1
a(lp3088
F0.285714
aaI42
aa(lp3089
I1
a(lp3090
F0.0
aaI49
aa(lp3091
I1
a(lp3092
F0.325
aaI40
aa(lp3093
I1
a(lp3094
F0.242424
aaI33
aa(lp3095
I1
a(lp3096
F0.27027
aaI37
aa(lp3097
I1
a(lp3098
F0.5
aaI62
aa(lp3099
I1
a(lp3100
F0.354167
aaI48
aa(lp3101
I1
a(lp3102
F0.419355
aaI62
aa(lp3103
I1
a(lp3104
F0.418182
aaI55
aa(lp3105
I1
a(lp3106
F0.329268
aaI82
aa(lp3107
I1
a(lp3108
F0.412698
aaI63
aa(lp3109
I1
a(lp3110
F0.255814
aaI43
aa(lp3111
I1
a(lp3112
F0.25641
aaI39
aaa(lp3113
g306
ag307
a(lp3114
I1
a(lp3115
F0.269231
aaI52
aa(lp3116
I1
a(lp3117
F0.394737
aaI38
aa(lp3118
I1
a(lp3119
F0.326923
aaI52
aa(lp3120
I1
a(lp3121
F0.282609
aaI46
aa(lp3122
I1
a(lp3123
F0.264706
aaI34
aaa(lp3124
g311
ag312
aa(lp3125
g314
ag315
aa(lp3126
g327
ag328
a(lp3127
I1
a(lp3128
F0.277778
aaI54
aa(lp3129
I1
a(lp3130
F0.375
aaI40
aa(lp3131
I1
a(lp3132
F0.384615
aaI39
aa(lp3133
I1
a(lp3134
F0.508475
aaI59
aa(lp3135
I1
a(lp3136
F0.390625
aaI64
aa(lp3137
I1
a(lp3138
F0.421053
aaI57
aa(lp3139
I1
a(lp3140
F0.446429
aaI56
aa(lp3141
I1
a(lp3142
F0.451613
aaI62
aa(lp3143
I1
a(lp3144
F0.282828
aaI99
aaa(lp3145
g334
ag335
a(lp3146
I1
a(lp3147
F0.32
aaI50
aa(lp3148
I1
a(lp3149
F0.3
aaI40
aa(lp3150
I1
a(lp3151
F0.307692
aaI39
aa(lp3152
I1
a(lp3153
F0.324324
aaI37
aa(lp3154
I1
a(lp3155
F0.405405
aaI37
aa(lp3156
I1
a(lp3157
F0.388889
aaI36
aa(lp3158
I1
a(lp3159
F0.205128
aaI39
aa(lp3160
I1
a(lp3161
F0.263158
aaI57
aa(lp3162
I1
a(lp3163
F0.27451
aaI51
aa(lp3164
I1
a(lp3165
F0.210526
aaI38
aa(lp3166
I1
a(lp3167
F0.324324
aaI37
aa(lp3168
I1
a(lp3169
F0.333333
aaI39
aa(lp3170
I1
a(lp3171
F0.333333
aaI39
aaa(lp3172
g365
ag366
aa(lp3173
g370
ag371
aa(lp3174
g373
ag374
a(lp3175
I1
a(lp3176
F0.243902
aaI41
aa(lp3177
I1
a(lp3178
F0.455882
aaI68
aa(lp3179
I1
a(lp3180
F0.33871
aaI62
aa(lp3181
I1
a(lp3182
F0.3125
aaI48
aa(lp3183
I1
a(lp3184
F0.241379
aaI29
aa(lp3185
I1
a(lp3186
F0.242424
aaI33
aa(lp3187
I1
a(lp3188
F0.537037
aaI54
aa(lp3189
I1
a(lp3190
F0.509804
aaI51
aa(lp3191
I1
a(lp3192
F0.283019
aaI53
aa(lp3193
I1
a(lp3194
F0.266667
aaI45
aa(lp3195
I1
a(lp3196
F0.5
aaI64
aa(lp3197
I1
a(lp3198
F0.406593
aaI91
aa(lp3199
I1
a(lp3200
F0.593023
aaI86
aaa(lp3201
g390
ag391
aa(lp3202
g393
ag394
aa(lp3203
g396
ag397
a(lp3204
I1
a(lp3205
F0.358974
aaI39
aa(lp3206
I1
a(lp3207
F0.342857
aaI35
aa(lp3208
I1
a(lp3209
F0.634615
aaI52
aa(lp3210
I1
a(lp3211
F0.4
aaI35
aa(lp3212
I1
a(lp3213
F0.433333
aaI30
aa(lp3214
I1
a(lp3215
F0.37931
aaI29
aa(lp3216
I1
a(lp3217
F0.393939
aaI33
aa(lp3218
I1
a(lp3219
F0.393939
aaI33
aa(lp3220
I1
a(lp3221
F0.366667
aaI30
aa(lp3222
I1
a(lp3223
F0.375
aaI32
aa(lp3224
I1
a(lp3225
F0.433962
aaI53
aa(lp3226
I1
a(lp3227
F0.53125
aaI64
aa(lp3228
I1
a(lp3229
F0.52381
aaI63
aa(lp3230
I1
a(lp3231
F0.531915
aaI47
aaa(lp3232
g421
ag422
a(lp3233
I1
a(lp3234
F0.282051
aaI39
aa(lp3235
I1
a(lp3236
F0.588235
aaI51
aaa(lp3237
g424
ag425
aa(lp3238
g427
ag428
aa(lp3239
g434
ag435
aa(lp3240
g439
ag440
a(lp3241
I1
a(lp3242
F0.342342
aaI111
aa(lp3243
I1
a(lp3244
F0.201835
aaI109
aa(lp3245
I1
a(lp3246
F0.252033
aaI123
aaa(lp3247
g460
ag461
a(lp3248
I1
a(lp3249
F0.46
aaI50
aa(lp3250
I1
a(lp3251
F0.370968
aaI62
aa(lp3252
I1
a(lp3253
F0.309091
aaI55
aa(lp3254
I1
a(lp3255
F0.459459
aaI74
aa(lp3256
I1
a(lp3257
F0.315789
aaI57
aa(lp3258
I1
a(lp3259
F0.369565
aaI46
aa(lp3260
I1
a(lp3261
F0.433962
aaI53
aa(lp3262
I1
a(lp3263
F0.446429
aaI56
aa(lp3264
I1
a(lp3265
F0.428571
aaI56
aa(lp3266
I1
a(lp3267
F0.4375
aaI48
aa(lp3268
I1
a(lp3269
F0.38
aaI50
aa(lp3270
I1
a(lp3271
F0.36
aaI50
aa(lp3272
I1
a(lp3273
F0.375
aaI48
aa(lp3274
I1
a(lp3275
F0.395349
aaI43
aa(lp3276
I1
a(lp3277
F0.382979
aaI47
aa(lp3278
I1
a(lp3279
F0.447368
aaI38
aa(lp3280
I1
a(lp3281
F0.289474
aaI38
aa(lp3282
I1
a(lp3283
F0.340426
aaI47
aa(lp3284
I1
a(lp3285
F0.506494
aaI77
aa(lp3286
I1
a(lp3287
F0.555556
aaI72
aa(lp3288
I1
a(lp3289
F0.271186
aaI59
aaa(lp3290
g467
ag468
aa(lp3291
g470
ag471
aa(lp3292
g473
ag474
aa(lp3293
g478
ag479
a(lp3294
I1
a(lp3295
F0.5
aaI62
aa(lp3296
I1
a(lp3297
F0.477612
aaI67
aa(lp3298
I1
a(lp3299
F0.458333
aaI48
aaa(lp3300
g521
ag522
aa(lp3301
g524
ag525
aa(lp3302
g541
ag542
a(lp3303
I1
a(lp3304
F0.482759
aaI58
aa(lp3305
I1
a(lp3306
F0.52381
aaI63
aa(lp3307
I1
a(lp3308
F0.466667
aaI75
aa(lp3309
I1
a(lp3310
F0.368421
aaI57
aa(lp3311
I1
a(lp3312
F0.365079
aaI63
aa(lp3313
I1
a(lp3314
F0.46
aaI50
aa(lp3315
I1
a(lp3316
F0.333333
aaI36
aa(lp3317
I1
a(lp3318
F0.425926
aaI54
aa(lp3319
I1
a(lp3320
F0.23913
aaI46
aa(lp3321
I1
a(lp3322
F0.358491
aaI53
aaa(lp3323
g544
ag545
a(lp3324
I1
a(lp3325
F0.434783
aaI69
aa(lp3326
I1
a(lp3327
F0.414286
aaI70
aa(lp3328
I1
a(lp3329
F0.389831
aaI59
aa(lp3330
I1
a(lp3331
F0.358491
aaI53
aa(lp3332
I1
a(lp3333
F0.304348
aaI46
aa(lp3334
I1
a(lp3335
F0.319149
aaI47
aa(lp3336
I1
a(lp3337
F0.407407
aaI54
aaa(lp3338
g547
ag548
aa(lp3339
g550
ag551
a(lp3340
I1
a(lp3341
F0.428571
aaI49
aa(lp3342
I1
a(lp3343
F0.38
aaI50
aa(lp3344
I1
a(lp3345
F0.341463
aaI41
aa(lp3346
I1
a(lp3347
F0.509804
aaI51
aa(lp3348
I1
a(lp3349
F0.5
aaI42
aa(lp3350
I1
a(lp3351
F0.5
aaI44
aa(lp3352
I1
a(lp3353
F0.381818
aaI55
aa(lp3354
I1
a(lp3355
F0.433962
aaI53
aa(lp3356
I1
a(lp3357
F0.4
aaI45
aa(lp3358
I1
a(lp3359
F0.418182
aaI55
aa(lp3360
I1
a(lp3361
F0.40625
aaI64
aa(lp3362
I1
a(lp3363
F0.559322
aaI59
aa(lp3364
I1
a(lp3365
F0.571429
aaI56
aa(lp3366
I1
a(lp3367
F0.523077
aaI65
aa(lp3368
I1
a(lp3369
F0.52381
aaI63
aa(lp3370
I1
a(lp3371
F0.339286
aaI56
aa(lp3372
I1
a(lp3373
F0.492537
aaI67
aa(lp3374
I1
a(lp3375
F0.464789
aaI71
aa(lp3376
I1
a(lp3377
F0.45098
aaI51
aa(lp3378
I1
a(lp3379
F0.391304
aaI46
aaa(lp3380
g553
ag554
aa(lp3381
g556
ag557
aa(lp3382
g559
ag560
aa(lp3383
g562
ag563
a(lp3384
I1
a(lp3385
F0.446809
aaI47
aaa(lp3386
g571
ag572
aa(lp3387
g574
ag575
aa(lp3388
g579
ag580
aa(lp3389
g582
ag583
a(lp3390
I1
a(lp3391
F0.333333
aaI78
aaa(lp3392
g587
ag588
a(lp3393
I1
a(lp3394
F0.365854
aaI41
aa(lp3395
I1
a(lp3396
F0.4
aaI40
aa(lp3397
I1
a(lp3398
F0.583333
aaI48
aa(lp3399
I1
a(lp3400
F0.490196
aaI51
aa(lp3401
I1
a(lp3402
F0.423729
aaI59
aa(lp3403
I1
a(lp3404
F0.362319
aaI69
aa(lp3405
I1
a(lp3406
F0.483871
aaI62
aag3326
ag3328
ag3330
a(lp3407
I1
a(lp3408
F0.396825
aaI63
aag3336
a(lp3409
I1
a(lp3410
F0.482143
aaI56
aa(lp3411
I1
a(lp3412
F0.283019
aaI53
aa(lp3413
I1
a(lp3414
F0.222222
aaI54
aa(lp3415
I1
a(lp3416
F0.254902
aaI51
aa(lp3417
I1
a(lp3418
F0.244898
aaI49
aa(lp3419
I1
a(lp3420
F0.22
aaI50
aa(lp3421
I1
a(lp3422
F0.492537
aaI67
aaa(lp3423
g594
ag595
a(lp3424
I1
a(lp3425
F0.5
aaI66
aaa(lp3426
g605
ag606
aa(lp3427
g608
ag609
a(lp3428
I1
a(lp3429
F0.489796
aaI49
aa(lp3430
I1
a(lp3431
F0.217391
aaI23
aa(lp3432
I1
a(lp3433
F0.217391
aaI23
aaa(lp3434
g613
ag614
a(lp3435
I1
a(lp3436
F0.508772
aaI57
aa(lp3437
I1
a(lp3438
F0.411765
aaI51
aa(lp3439
I1
a(lp3440
F0.372549
aaI51
aa(lp3441
I1
a(lp3442
F0.2
aaI45
aaa(lp3443
g624
ag625
aa(lp3444
g627
ag628
a(lp3445
I1
a(lp3446
F0.212766
aaI47
aaa(lp3447
g630
ag631
a(lp3448
I1
a(lp3449
F0.333333
aaI45
aa(lp3450
I1
a(lp3451
F0.490196
aaI51
aa(lp3452
I1
a(lp3453
F0.52
aaI50
aa(lp3454
I1
a(lp3455
F0.530612
aaI49
aa(lp3456
I1
a(lp3457
F0.428571
aaI35
aa(lp3458
I1
a(lp3459
F0.296296
aaI54
aa(lp3460
I1
a(lp3461
F0.451613
aaI62
aa(lp3462
I1
a(lp3463
F0.45
aaI60
aa(lp3464
I1
a(lp3465
F0.230769
aaI39
aa(lp3466
I1
a(lp3467
F0.216216
aaI37
aa(lp3468
I1
a(lp3469
F0.222222
aaI36
aaa(lp3470
g635
ag636
a(lp3471
I1
a(lp3472
F0.298851
aaI87
aa(lp3473
I1
a(lp3474
F0.202381
aaI84
aaa(lp3475
g642
ag643
aa(lp3476
g645
ag646
aa(lp3477
g670
ag671
a(lp3478
I1
a(lp3479
F0.424242
aaI66
aaa(lp3480
g677
ag678
a(lp3481
I1
a(lp3482
F0.465753
aaI73
aa(lp3483
I1
a(lp3484
F0.0
aaI10
aaa(lp3485
g680
ag681
a(lp3486
I1
a(lp3487
F0.223529
aaI85
aa(lp3488
I1
a(lp3489
F0.291667
aaI96
aa(lp3490
I1
a(lp3491
F0.27957
aaI93
aa(lp3492
I1
a(lp3493
F0.293478
aaI92
aa(lp3494
I1
a(lp3495
F0.25
aaI88
aa(lp3496
I1
a(lp3497
F0.244444
aaI90
aa(lp3498
I1
a(lp3499
F0.247191
aaI89
aa(lp3500
I1
a(lp3501
F0.729167
aaI96
aa(lp3502
I1
a(lp3503
F0.403846
aaI52
aa(lp3504
I1
a(lp3505
F0.208333
aaI48
aa(lp3506
I1
a(lp3507
F0.25
aaI48
aaa(lp3508
g683
ag684
aa(lp3509
g688
ag689
aa(lp3510
g711
ag712
aa(lp3511
g722
ag723
aa(lp3512
g725
ag726
a(lp3513
I1
a(lp3514
F0.225352
aaI71
aa(lp3515
I1
a(lp3516
F0.238806
aaI67
aaa(lp3517
g728
ag729
a(lp3518
I1
a(lp3519
F0.2
aaI40
aa(lp3520
I1
a(lp3521
F0.392157
aaI51
aa(lp3522
I1
a(lp3523
F0.319149
aaI47
aa(lp3524
I1
a(lp3525
F0.3
aaI40
aa(lp3526
I1
a(lp3527
F0.311111
aaI45
aa(lp3528
I1
a(lp3529
F0.25
aaI44
aa(lp3530
I1
a(lp3531
F0.302326
aaI43
aa(lp3532
I1
a(lp3533
F0.318182
aaI44
aa(lp3534
I1
a(lp3535
F0.333333
aaI39
aa(lp3536
I1
a(lp3537
F0.326923
aaI52
aa(lp3538
I1
a(lp3539
F0.32
aaI50
aa(lp3540
I1
a(lp3541
F0.264151
aaI53
aa(lp3542
I1
a(lp3543
F0.27907
aaI43
aa(lp3544
I1
a(lp3545
F0.222222
aaI36
aa(lp3546
I1
a(lp3547
F0.23913
aaI46
aaa(lp3548
g741
ag742
a(lp3549
I1
a(lp3550
F0.512821
aaI78
aa(lp3551
I1
a(lp3552
F0.387097
aaI62
aa(lp3553
I1
a(lp3554
F0.365079
aaI63
aa(lp3555
I1
a(lp3556
F0.472727
aaI55
aa(lp3557
I1
a(lp3558
F0.576271
aaI59
aaa(lp3559
g744
ag745
a(lp3560
I1
a(lp3561
F0.206897
aaI29
aa(lp3562
I1
a(lp3563
F0.387097
aaI62
aa(lp3564
I1
a(lp3565
F0.42623
aaI61
aa(lp3566
I1
a(lp3567
F0.297297
aaI37
aa(lp3568
I1
a(lp3569
F0.297297
aaI37
aa(lp3570
I1
a(lp3571
F0.205882
aaI34
aa(lp3572
I1
a(lp3573
F0.365854
aaI41
aa(lp3574
I1
a(lp3575
F0.341463
aaI41
aa(lp3576
I1
a(lp3577
F0.340909
aaI44
aaa(lp3578
g753
ag754
aa(lp3579
g758
ag759
a(lp3580
I1
a(lp3581
F0.422222
aaI45
aa(lp3582
I1
a(lp3583
F0.358974
aaI39
aa(lp3584
I1
a(lp3585
F0.352941
aaI34
aa(lp3586
I1
a(lp3587
F0.219512
aaI41
aa(lp3588
I1
a(lp3589
F0.305556
aaI36
aa(lp3590
I1
a(lp3591
F0.259259
aaI27
aaa(lp3592
g771
ag772
aa(lp3593
g774
ag775
aa(lp3594
g777
ag778
a(lp3595
I1
a(lp3596
F0.301887
aaI53
aa(lp3597
I1
a(lp3598
F0.265625
aaI64
aa(lp3599
I1
a(lp3600
F0.275362
aaI69
aa(lp3601
I1
a(lp3602
F0.297297
aaI74
aaa(lp3603
g780
ag781
aa(lp3604
g783
ag784
a(lp3605
I1
a(lp3606
F0.25641
aaI39
aa(lp3607
I1
a(lp3608
F0.5625
aaI64
aaa(lp3609
g794
ag795
aa(lp3610
g803
ag804
a(lp3611
I1
a(lp3612
F0.425
aaI40
aa(lp3613
I1
a(lp3614
F0.461538
aaI39
aa(lp3615
I1
a(lp3616
F0.425532
aaI47
aa(lp3617
I1
a(lp3618
F0.409091
aaI44
aa(lp3619
I1
a(lp3620
F0.382979
aaI47
aa(lp3621
I1
a(lp3622
F0.307692
aaI52
aa(lp3623
I1
a(lp3624
F0.34
aaI50
aa(lp3625
I1
a(lp3626
F0.5
aaI38
aa(lp3627
I1
a(lp3628
F0.461538
aaI39
aaa(lp3629
g808
ag809
a(lp3630
I1
a(lp3631
F0.222222
aaI117
aa(lp3632
I1
a(lp3633
F0.4
aaI110
aa(lp3634
I1
a(lp3635
F0.560606
aaI66
aa(lp3636
I1
a(lp3637
F0.457627
aaI59
aa(lp3638
I1
a(lp3639
F0.346154
aaI52
aa(lp3640
I1
a(lp3641
F0.478261
aaI46
aa(lp3642
I1
a(lp3643
F0.354167
aaI48
aa(lp3644
I1
a(lp3645
F0.323077
aaI65
aaa(lp3646
g813
ag814
aa(lp3647
g816
ag817
a(lp3648
I1
a(lp3649
F0.242424
aaI33
aa(lp3650
I1
a(lp3651
F0.317073
aaI41
aaa(lp3652
g821
ag822
aa(lp3653
g824
ag825
aa(lp3654
g827
ag828
aa(lp3655
g830
ag831
aa(lp3656
g833
ag834
aa(lp3657
g836
ag837
a(lp3658
I1
a(lp3659
F0.240506
aaI79
aaa(lp3660
g839
ag840
aa(lp3661
g842
ag843
a(lp3662
I1
a(lp3663
F0.360656
aaI61
aa(lp3664
I1
a(lp3665
F0.468085
aaI47
aa(lp3666
I1
a(lp3667
F0.433962
aaI53
aa(lp3668
I1
a(lp3669
F0.333333
aaI51
aa(lp3670
I1
a(lp3671
F0.540984
aaI61
aa(lp3672
I1
a(lp3673
F0.436364
aaI55
aa(lp3674
I1
a(lp3675
F0.479167
aaI48
aa(lp3676
I1
a(lp3677
F0.304348
aaI46
aa(lp3678
I1
a(lp3679
F0.386364
aaI44
aa(lp3680
I1
a(lp3681
F0.575758
aaI33
aa(lp3682
I1
a(lp3683
F0.43662
aaI71
aa(lp3684
I1
a(lp3685
F0.380952
aaI63
aa(lp3686
I1
a(lp3687
F0.4
aaI50
aa(lp3688
I1
a(lp3689
F0.352941
aaI51
aa(lp3690
I1
a(lp3691
F0.451613
aaI62
aa(lp3692
I1
a(lp3693
F0.403846
aaI52
aa(lp3694
I1
a(lp3695
F0.433333
aaI60
aa(lp3696
I1
a(lp3697
F0.521127
aaI71
aa(lp3698
I1
a(lp3699
F0.520833
aaI48
aa(lp3700
I1
a(lp3701
F0.257143
aaI35
aa(lp3702
I1
a(lp3703
F0.4375
aaI48
aa(lp3704
I1
a(lp3705
F0.386364
aaI44
aa(lp3706
I1
a(lp3707
F0.592593
aaI54
aaa(lp3708
g903
ag904
a(lp3709
I1
a(lp3710
F0.321429
aaI56
aa(lp3711
I1
a(lp3712
F0.358491
aaI53
aa(lp3713
I1
a(lp3714
F0.352941
aaI51
aa(lp3715
I1
a(lp3716
F0.276596
aaI47
aaa(lp3717
g906
ag907
aa(lp3718
g917
ag918
aa(lp3719
g920
ag921
aa(lp3720
g923
ag924
a(lp3721
I1
a(lp3722
F0.5
aaI50
aa(lp3723
I1
a(lp3724
F0.467742
aaI62
aa(lp3725
I1
a(lp3726
F0.616667
aaI60
aa(lp3727
I1
a(lp3728
F0.404255
aaI47
aa(lp3729
I1
a(lp3730
F0.333333
aaI42
aa(lp3731
I1
a(lp3732
F0.375
aaI40
aa(lp3733
I1
a(lp3734
F0.368421
aaI38
aa(lp3735
I1
a(lp3736
F0.407407
aaI54
aa(lp3737
I1
a(lp3738
F0.26087
aaI46
aa(lp3739
I1
a(lp3740
F0.25
aaI44
aa(lp3741
I1
a(lp3742
F0.25
aaI40
aa(lp3743
I1
a(lp3744
F0.423729
aaI59
aa(lp3745
I1
a(lp3746
F0.434783
aaI23
aa(lp3747
I1
a(lp3748
F0.4
aaI30
aaa(lp3749
g926
ag927
aa(lp3750
g929
ag930
aa(lp3751
g932
ag933
a(lp3752
I1
a(lp3753
F0.457143
aaI70
aa(lp3754
I1
a(lp3755
F0.372881
aaI59
aa(lp3756
I1
a(lp3757
F0.307692
aaI65
aa(lp3758
I1
a(lp3759
F0.42
aaI50
aa(lp3760
I1
a(lp3761
F0.416667
aaI60
aa(lp3762
I1
a(lp3763
F0.344262
aaI61
aa(lp3764
I1
a(lp3765
F0.535714
aaI56
aa(lp3766
I1
a(lp3767
F0.471698
aaI53
aa(lp3768
I1
a(lp3769
F0.459459
aaI37
aa(lp3770
I1
a(lp3771
F0.586667
aaI75
aa(lp3772
I1
a(lp3773
F0.509804
aaI51
aa(lp3774
I1
a(lp3775
F0.365079
aaI63
aa(lp3776
I1
a(lp3777
F0.355556
aaI45
aa(lp3778
I1
a(lp3779
F0.276596
aaI47
aa(lp3780
I1
a(lp3781
F0.206897
aaI29
aa(lp3782
I1
a(lp3783
F0.275862
aaI29
aa(lp3784
I1
a(lp3785
F0.47619
aaI42
aa(lp3786
I1
a(lp3787
F0.533333
aaI45
aa(lp3788
I1
a(lp3789
F0.55814
aaI43
aa(lp3790
I1
a(lp3791
F0.212766
aaI47
aa(lp3792
I1
a(lp3793
F0.208333
aaI48
aa(lp3794
I1
a(lp3795
F0.204082
aaI49
aa(lp3796
I1
a(lp3797
F0.261905
aaI42
aa(lp3798
I1
a(lp3799
F0.375
aaI56
aa(lp3800
I1
a(lp3801
F0.288136
aaI59
aa(lp3802
I1
a(lp3803
F0.25
aaI52
aa(lp3804
I1
a(lp3805
F0.4
aaI50
aa(lp3806
I1
a(lp3807
F0.333333
aaI36
aa(lp3808
I1
a(lp3809
F0.235294
aaI34
aa(lp3810
I1
a(lp3811
F0.563636
aaI55
aa(lp3812
I1
a(lp3813
F0.243902
aaI41
aa(lp3814
I1
a(lp3815
F0.216216
aaI37
aa(lp3816
I1
a(lp3817
F0.238095
aaI42
aaa(lp3818
g1003
ag1004
aa(lp3819
g1006
ag1007
aa(lp3820
g1013
ag1014
a(lp3821
I1
a(lp3822
F0.447368
aaI38
aa(lp3823
I1
a(lp3824
F0.390244
aaI41
aa(lp3825
I1
a(lp3826
F0.333333
aaI30
aa(lp3827
I1
a(lp3828
F0.259259
aaI27
aa(lp3829
I1
a(lp3830
F0.25
aaI28
aa(lp3831
I1
a(lp3832
F0.241379
aaI29
aa(lp3833
I1
a(lp3834
F0.258065
aaI31
aa(lp3835
I1
a(lp3836
F0.228571
aaI35
aa(lp3837
I1
a(lp3838
F0.2
aaI40
aa(lp3839
I1
a(lp3840
F0.205882
aaI34
aa(lp3841
I1
a(lp3842
F0.384615
aaI52
aaa(lp3843
g1016
ag1017
a(lp3844
I1
a(lp3845
F0.491525
aaI59
aaa(lp3846
g1019
ag1020
a(lp3847
I1
a(lp3848
F0.365079
aaI63
aa(lp3849
I1
a(lp3850
F0.421053
aaI57
aa(lp3851
I1
a(lp3852
F0.269231
aaI52
aa(lp3853
I1
a(lp3854
F0.55102
aaI49
aa(lp3855
I1
a(lp3856
F0.365385
aaI52
aa(lp3857
I1
a(lp3858
F0.326087
aaI46
aa(lp3859
I1
a(lp3860
F0.484848
aaI66
aa(lp3861
I1
a(lp3862
F0.852041
aaI196
aa(lp3863
I1
a(lp3864
F0.234043
aaI141
aaa(lp3865
g1038
ag1039
aa(lp3866
g1041
ag1042
a(lp3867
I1
a(lp3868
F0.586207
aaI58
aa(lp3869
I1
a(lp3870
F0.561404
aaI57
aa(lp3871
I1
a(lp3872
F0.362069
aaI58
aa(lp3873
I1
a(lp3874
F0.366667
aaI60
aaa(lp3875
g1050
ag1051
aa(lp3876
g1053
ag1054
a(lp3877
I1
a(lp3878
F0.216667
aaI60
aa(lp3879
I1
a(lp3880
F0.321429
aaI56
aa(lp3881
I1
a(lp3882
F0.338983
aaI59
aa(lp3883
I1
a(lp3884
F0.352941
aaI68
aa(lp3885
I1
a(lp3886
F0.444444
aaI63
aa(lp3887
I1
a(lp3888
F0.21875
aaI32
aa(lp3889
I1
a(lp3890
F0.322581
aaI31
aa(lp3891
I1
a(lp3892
F0.341463
aaI41
aa(lp3893
I1
a(lp3894
F0.4
aaI65
aa(lp3895
I1
a(lp3896
F0.315789
aaI38
aaa(lp3897
g1062
ag1063
aa(lp3898
g1081
ag1082
a(lp3899
I1
a(lp3900
F0.761589
aaI151
aa(lp3901
I1
a(lp3902
F0.564356
aaI101
aa(lp3903
I1
a(lp3904
F0.592593
aaI81
aa(lp3905
I1
a(lp3906
F0.625
aaI72
aaa(lp3907
g1084
ag1085
aa(lp3908
g1087
ag1088
aa(lp3909
g1090
ag1091
aa(lp3910
g1093
ag1094
a(lp3911
I1
a(lp3912
F0.434783
aaI23
aa(lp3913
I1
a(lp3914
F0.393443
aaI61
aa(lp3915
I1
a(lp3916
F0.43662
aaI71
aa(lp3917
I1
a(lp3918
F0.451613
aaI62
aa(lp3919
I1
a(lp3920
F0.42623
aaI61
aa(lp3921
I1
a(lp3922
F0.446809
aaI47
aa(lp3923
I1
a(lp3924
F0.339286
aaI56
aa(lp3925
I1
a(lp3926
F0.409091
aaI44
aa(lp3927
I1
a(lp3928
F0.22807
aaI57
aaa(lp3929
g1098
ag1099
aa(lp3930
g1107
ag1108
a(lp3931
I1
a(lp3932
F0.224138
aaI58
aa(lp3933
I1
a(lp3934
F0.344262
aaI61
aa(lp3935
I1
a(lp3936
F0.333333
aaI60
aa(lp3937
I1
a(lp3938
F0.217391
aaI69
aaa(lp3939
g1132
ag1133
a(lp3940
I1
a(lp3941
F0.333333
aaI57
aa(lp3942
I1
a(lp3943
F0.363636
aaI55
aa(lp3944
I1
a(lp3945
F0.294118
aaI51
aa(lp3946
I1
a(lp3947
F0.277778
aaI54
aa(lp3948
I1
a(lp3949
F0.474576
aaI59
aa(lp3950
I1
a(lp3951
F0.45614
aaI57
aa(lp3952
I1
a(lp3953
F0.54878
aaI82
aa(lp3954
I1
a(lp3955
F0.538462
aaI65
aa(lp3956
I1
a(lp3957
F0.270833
aaI48
aa(lp3958
I1
a(lp3959
F0.339286
aaI56
aa(lp3960
I1
a(lp3961
F0.58
aaI50
aa(lp3962
I1
a(lp3963
F0.571429
aaI70
aa(lp3964
I1
a(lp3965
F0.392157
aaI51
aa(lp3966
I1
a(lp3967
F0.235294
aaI51
aa(lp3968
I1
a(lp3969
F0.208333
aaI48
aa(lp3970
I1
a(lp3971
F0.204082
aaI49
aaa(lp3972
g1135
ag1136
a(lp3973
I1
a(lp3974
F0.314815
aaI54
aa(lp3975
I1
a(lp3976
F0.47541
aaI61
aa(lp3977
I1
a(lp3978
F0.325
aaI40
aa(lp3979
I1
a(lp3980
F0.5
aaI26
aa(lp3981
I1
a(lp3982
F0.694444
aaI36
aa(lp3983
I1
a(lp3984
F0.442308
aaI52
aa(lp3985
I1
a(lp3986
F0.90393
aaI229
aa(lp3987
I1
a(lp3988
F0.592593
aaI81
aa(lp3989
I1
a(lp3990
F0.404762
aaI42
aa(lp3991
I1
a(lp3992
F0.45
aaI60
aa(lp3993
I1
a(lp3994
F0.465517
aaI58
aa(lp3995
I1
a(lp3996
F0.454545
aaI55
aa(lp3997
I1
a(lp3998
F0.387097
aaI62
aa(lp3999
I1
a(lp4000
F0.459016
aaI61
aa(lp4001
I1
a(lp4002
F0.5
aaI54
aa(lp4003
I1
a(lp4004
F0.537037
aaI54
aa(lp4005
I1
a(lp4006
F0.647059
aaI51
aa(lp4007
I1
a(lp4008
F0.64
aaI50
aa(lp4009
I1
a(lp4010
F0.571429
aaI49
aa(lp4011
I1
a(lp4012
F0.391304
aaI46
aa(lp4013
I1
a(lp4014
F0.315789
aaI38
aa(lp4015
I1
a(lp4016
F0.282609
aaI46
aa(lp4017
I1
a(lp4018
F0.433962
aaI53
aa(lp4019
I1
a(lp4020
F0.46
aaI50
aa(lp4021
I1
a(lp4022
F0.378378
aaI37
aa(lp4023
I1
a(lp4024
F0.340909
aaI44
aa(lp4025
I1
a(lp4026
F0.319149
aaI47
aa(lp4027
I1
a(lp4028
F0.382979
aaI47
aa(lp4029
I1
a(lp4030
F0.210526
aaI38
aa(lp4031
I1
a(lp4032
F0.473684
aaI38
aa(lp4033
I1
a(lp4034
F0.508475
aaI59
aa(lp4035
I1
a(lp4036
F0.55
aaI40
aa(lp4037
I1
a(lp4038
F0.235294
aaI34
aa(lp4039
I1
a(lp4040
F0.222222
aaI36
aaa(lp4041
g1146
ag1147
aa(lp4042
g1159
ag1160
aa(lp4043
g1176
ag1177
a(lp4044
I1
a(lp4045
F0.48
aaI50
aa(lp4046
I1
a(lp4047
F0.434783
aaI46
aa(lp4048
I1
a(lp4049
F0.434783
aaI46
aa(lp4050
I1
a(lp4051
F0.365854
aaI41
aa(lp4052
I1
a(lp4053
F0.228571
aaI35
aa(lp4054
I1
a(lp4055
F0.228571
aaI35
aa(lp4056
I1
a(lp4057
F0.205882
aaI34
aa(lp4058
I1
a(lp4059
F0.294118
aaI34
aa(lp4060
I1
a(lp4061
F0.297297
aaI37
aa(lp4062
I1
a(lp4063
F0.282051
aaI39
aa(lp4064
I1
a(lp4065
F0.235294
aaI34
aaa(lp4066
g1179
ag1180
aa(lp4067
g1182
ag1183
aa(lp4068
g1195
ag1196
aa(lp4069
g1198
ag1199
aa(lp4070
g1203
ag1204
aa(lp4071
g1216
ag1217
aa(lp4072
g1219
ag1220
aa(lp4073
g1222
ag1223
aa(lp4074
g1225
ag1226
aa(lp4075
g1228
ag1229
aa(lp4076
g1231
ag1232
aa(lp4077
g1234
ag1235
aa(lp4078
g1239
ag1240
a(lp4079
I1
a(lp4080
F0.25641
aaI39
aa(lp4081
I1
a(lp4082
F0.422222
aaI45
aaa(lp4083
g1242
ag1243
a(lp4084
I1
a(lp4085
F0.264151
aaI53
aa(lp4086
I1
a(lp4087
F0.553191
aaI47
aa(lp4088
I1
a(lp4089
F0.216216
aaI37
aa(lp4090
I1
a(lp4091
F0.358491
aaI53
aa(lp4092
I1
a(lp4093
F0.479452
aaI73
aa(lp4094
I1
a(lp4095
F0.485294
aaI68
aa(lp4096
I1
a(lp4097
F0.537313
aaI67
aa(lp4098
I1
a(lp4099
F0.510638
aaI47
aa(lp4100
I1
a(lp4101
F0.446809
aaI47
aa(lp4102
I1
a(lp4103
F0.272727
aaI55
aa(lp4104
I1
a(lp4105
F0.272727
aaI55
aa(lp4106
I1
a(lp4107
F0.285714
aaI42
aa(lp4108
I1
a(lp4109
F0.25
aaI44
aa(lp4110
I1
a(lp4111
F0.384615
aaI39
aa(lp4112
I1
a(lp4113
F0.294118
aaI34
aa(lp4114
I1
a(lp4115
F0.470588
aaI51
aa(lp4116
I1
a(lp4117
F0.408163
aaI49
aa(lp4118
I1
a(lp4119
F0.258065
aaI31
aa(lp4120
I1
a(lp4121
F0.219512
aaI41
aa(lp4122
I1
a(lp4123
F0.283019
aaI53
aa(lp4124
I1
a(lp4125
F0.464286
aaI56
aaa(lp4126
g1249
ag1250
a(lp4127
I1
a(lp4128
F0.235294
aaI51
aaa(lp4129
g1252
ag1253
aa(lp4130
g1255
ag1256
a(lp4131
I1
a(lp4132
F0.382716
aaI81
aaa(lp4133
g1258
ag1259
a(lp4134
I1
a(lp4135
F0.369048
aaI84
aa(lp4136
I1
a(lp4137
F0.333333
aaI36
aa(lp4138
I1
a(lp4139
F0.444444
aaI45
aa(lp4140
I1
a(lp4141
F0.297872
aaI47
aa(lp4142
I1
a(lp4143
F0.344828
aaI29
aaa(lp4144
g1261
ag1262
aa(lp4145
g1264
ag1265
aa(lp4146
g1269
ag1270
a(lp4147
I1
a(lp4148
F0.222222
aaI27
aa(lp4149
I1
a(lp4150
F0.217949
aaI78
aa(lp4151
I1
a(lp4152
F0.341463
aaI82
aa(lp4153
I1
a(lp4154
F0.298701
aaI77
aa(lp4155
I1
a(lp4156
F0.208
aaI125
aa(lp4157
I1
a(lp4158
F0.294737
aaI95
aaa(lp4159
g1290
ag1291
a(lp4160
I1
a(lp4161
F0.413793
aaI58
aa(lp4162
I1
a(lp4163
F0.423729
aaI59
aa(lp4164
I1
a(lp4165
F0.277778
aaI54
aaa(lp4166
g1293
ag1294
aa(lp4167
g1296
ag1297
aa(lp4168
g1307
ag1308
a(lp4169
I1
a(lp4170
F0.482143
aaI56
aa(lp4171
I1
a(lp4172
F0.517241
aaI58
aa(lp4173
I1
a(lp4174
F0.448276
aaI58
aaa(lp4175
g1310
ag1311
a(lp4176
I1
a(lp4177
F0.294118
aaI34
aa(lp4178
I1
a(lp4179
F0.3125
aaI32
aa(lp4180
I1
a(lp4181
F0.298246
aaI57
aa(lp4182
I1
a(lp4183
F0.293103
aaI58
aaa(lp4184
g1315
ag1316
a(lp4185
I1
a(lp4186
F0.277778
aaI36
aa(lp4187
I1
a(lp4188
F0.365854
aaI41
aa(lp4189
I1
a(lp4190
F0.326087
aaI46
aa(lp4191
I1
a(lp4192
F0.270833
aaI48
aa(lp4193
I1
a(lp4194
F0.26
aaI50
aa(lp4195
I1
a(lp4196
F0.28
aaI50
aa(lp4197
I1
a(lp4198
F0.244444
aaI45
aa(lp4199
I1
a(lp4200
F0.298246
aaI57
aa(lp4201
I1
a(lp4202
F0.333333
aaI51
aa(lp4203
I1
a(lp4204
F0.289474
aaI38
aa(lp4205
I1
a(lp4206
F0.393443
aaI61
aa(lp4207
I1
a(lp4208
F0.266667
aaI60
aaa(lp4209
g1320
ag1321
a(lp4210
I1
a(lp4211
F0.393939
aaI33
aa(lp4212
I1
a(lp4213
F0.588235
aaI85
aa(lp4214
I1
a(lp4215
F0.326087
aaI46
aa(lp4216
I1
a(lp4217
F0.377778
aaI45
aaa(lp4218
g1339
ag1340
aa(lp4219
g1342
ag1343
aa(lp4220
g1353
ag1354
a(lp4221
I1
a(lp4222
F0.216216
aaI74
aa(lp4223
I1
a(lp4224
F0.275362
aaI69
aa(lp4225
I1
a(lp4226
F0.225
aaI40
aa(lp4227
I1
a(lp4228
F0.296875
aaI64
aa(lp4229
I1
a(lp4230
F0.277778
aaI54
aa(lp4231
I1
a(lp4232
F0.296296
aaI54
aa(lp4233
I1
a(lp4234
F0.296296
aaI54
aa(lp4235
I1
a(lp4236
F0.255319
aaI47
aa(lp4237
I1
a(lp4238
F0.244898
aaI49
aa(lp4239
I1
a(lp4240
F0.292683
aaI41
aa(lp4241
I1
a(lp4242
F0.276596
aaI47
aa(lp4243
I1
a(lp4244
F0.2
aaI50
aaa(lp4245
g1382
ag1383
a(lp4246
I1
a(lp4247
F0.348837
aaI43
aa(lp4248
I1
a(lp4249
F0.5
aaI50
aa(lp4250
I1
a(lp4251
F0.45098
aaI51
aa(lp4252
I1
a(lp4253
F0.459016
aaI61
aa(lp4254
I1
a(lp4255
F0.536232
aaI69
aa(lp4256
I1
a(lp4257
F0.446154
aaI65
aa(lp4258
I1
a(lp4259
F0.405797
aaI69
aa(lp4260
I1
a(lp4261
F0.318182
aaI44
aaa(lp4262
g1395
ag1396
a(lp4263
I1
a(lp4264
F0.282051
aaI39
aa(lp4265
I1
a(lp4266
F0.270833
aaI48
aa(lp4267
I1
a(lp4268
F0.276596
aaI47
aa(lp4269
I1
a(lp4270
F0.25
aaI80
aaa(lp4271
g1400
ag1401
aa(lp4272
g1403
ag1404
aa(lp4273
g1460
ag1461
aa(lp4274
g1463
ag1464
aa(lp4275
g1466
ag1467
a(lp4276
I1
a(lp4277
F0.206897
aaI29
aa(lp4278
I1
a(lp4279
F0.270833
aaI48
aa(lp4280
I1
a(lp4281
F0.421053
aaI38
aa(lp4282
I1
a(lp4283
F0.26087
aaI46
aa(lp4284
I1
a(lp4285
F0.444444
aaI54
aa(lp4286
I1
a(lp4287
F0.586957
aaI46
aa(lp4288
I1
a(lp4289
F0.323529
aaI34
aa(lp4290
I1
a(lp4291
F0.25
aaI32
aa(lp4292
I1
a(lp4293
F0.275
aaI40
aa(lp4294
I1
a(lp4295
F0.309524
aaI42
aaa(lp4296
g1469
ag1470
aa(lp4297
g1472
ag1473
a(lp4298
I1
a(lp4299
F0.255556
aaI90
aa(lp4300
I1
a(lp4301
F0.418182
aaI55
aa(lp4302
I1
a(lp4303
F0.263158
aaI38
aa(lp4304
I1
a(lp4305
F0.377778
aaI45
aa(lp4306
I1
a(lp4307
F0.310345
aaI58
aa(lp4308
I1
a(lp4309
F0.311475
aaI61
aaa(lp4310
g1497
ag1498
a(lp4311
I1
a(lp4312
F0.225
aaI40
aa(lp4313
I1
a(lp4314
F0.471698
aaI53
aa(lp4315
I1
a(lp4316
F0.454545
aaI55
aa(lp4317
I1
a(lp4318
F0.394737
aaI38
aaa(lp4319
g1504
ag1505
a(lp4320
I1
a(lp4321
F0.355263
aaI76
aaa(lp4322
g1507
ag1508
a(lp4323
I1
a(lp4324
F0.530303
aaI66
aa(lp4325
I1
a(lp4326
F0.433962
aaI53
aa(lp4327
I1
a(lp4328
F0.392857
aaI56
aa(lp4329
I1
a(lp4330
F0.255814
aaI43
aa(lp4331
I1
a(lp4332
F0.304348
aaI46
aa(lp4333
I1
a(lp4334
F0.276596
aaI47
aa(lp4335
I1
a(lp4336
F0.25
aaI44
aa(lp4337
I1
a(lp4338
F0.421053
aaI57
aa(lp4339
I1
a(lp4340
F0.410714
aaI56
aaa(lp4341
g1510
ag1511
a(lp4342
I1
a(lp4343
F0.246106
aaI321
aa(lp4344
I1
a(lp4345
F0.301325
aaI302
aaa(lp4346
g1521
ag1522
a(lp4347
I1
a(lp4348
F0.509804
aaI51
aa(lp4349
I1
a(lp4350
F0.513158
aaI76
aa(lp4351
I1
a(lp4352
F0.40678
aaI59
aaa(lp4353
g1524
ag1525
a(lp4354
I1
a(lp4355
F0.27
aaI100
aaa(lp4356
g1529
ag1530
a(lp4357
I1
a(lp4358
F0.40678
aaI59
aaa(lp4359
g1560
ag1561
a(lp4360
I1
a(lp4361
F0.8
aaI5
aa(lp4362
I1
a(lp4363
F0.259259
aaI54
aa(lp4364
I1
a(lp4365
F0.304348
aaI69
aa(lp4366
I1
a(lp4367
F0.229167
aaI96
aa(lp4368
I1
a(lp4369
F0.228916
aaI83
aa(lp4370
I1
a(lp4371
F0.275362
aaI69
aa(lp4372
I1
a(lp4373
F0.222222
aaI63
aa(lp4374
I1
a(lp4375
F0.220339
aaI59
aa(lp4376
I1
a(lp4377
F0.213115
aaI61
aaa(lp4378
g1569
ag1570
aa(lp4379
g1576
ag1577
aa(lp4380
g1583
ag1584
a(lp4381
I1
a(lp4382
F0.2
aaI35
aa(lp4383
I1
a(lp4384
F0.340909
aaI44
aa(lp4385
I1
a(lp4386
F0.391304
aaI46
aa(lp4387
I1
a(lp4388
F0.56
aaI50
aa(lp4389
I1
a(lp4390
F0.211538
aaI52
aa(lp4391
I1
a(lp4392
F0.204082
aaI49
aa(lp4393
I1
a(lp4394
F0.297297
aaI37
aa(lp4395
I1
a(lp4396
F0.458333
aaI24
aa(lp4397
I1
a(lp4398
F0.431373
aaI51
aa(lp4399
I1
a(lp4400
F0.44898
aaI49
aa(lp4401
I1
a(lp4402
F0.509434
aaI53
aaa(lp4403
g1586
ag1587
a(lp4404
I1
a(lp4405
F0.375
aaI56
aa(lp4406
I1
a(lp4407
F0.381818
aaI55
aa(lp4408
I1
a(lp4409
F0.446429
aaI56
aa(lp4410
I1
a(lp4411
F0.484375
aaI64
aa(lp4412
I1
a(lp4413
F0.225
aaI40
aa(lp4414
I1
a(lp4415
F0.34
aaI50
aa(lp4416
I1
a(lp4417
F0.508197
aaI61
aa(lp4418
I1
a(lp4419
F0.375
aaI48
aa(lp4420
I1
a(lp4421
F0.409091
aaI44
aa(lp4422
I1
a(lp4423
F0.423077
aaI52
aa(lp4424
I1
a(lp4425
F0.238095
aaI42
aa(lp4426
I1
a(lp4427
F0.255814
aaI43
aa(lp4428
I1
a(lp4429
F0.333333
aaI36
aa(lp4430
I1
a(lp4431
F0.428571
aaI56
aa(lp4432
I1
a(lp4433
F0.353846
aaI65
aa(lp4434
I1
a(lp4435
F0.47619
aaI63
aa(lp4436
I1
a(lp4437
F0.530612
aaI49
aa(lp4438
I1
a(lp4439
F0.304348
aaI46
aa(lp4440
I1
a(lp4441
F0.317073
aaI41
aa(lp4442
I1
a(lp4443
F0.396825
aaI63
aa(lp4444
I1
a(lp4445
F0.447761
aaI67
aa(lp4446
I1
a(lp4447
F0.342857
aaI35
aa(lp4448
I1
a(lp4449
F0.471429
aaI70
aa(lp4450
I1
a(lp4451
F0.47619
aaI42
aa(lp4452
I1
a(lp4453
F0.463415
aaI41
aa(lp4454
I1
a(lp4455
F0.5
aaI48
aa(lp4456
I1
a(lp4457
F0.466667
aaI45
aa(lp4458
I1
a(lp4459
F0.340426
aaI47
aa(lp4460
I1
a(lp4461
F0.411765
aaI51
aa(lp4462
I1
a(lp4463
F0.407407
aaI54
aa(lp4464
I1
a(lp4465
F0.353846
aaI65
aa(lp4466
I1
a(lp4467
F0.320755
aaI53
aa(lp4468
I1
a(lp4469
F0.296296
aaI54
aa(lp4470
I1
a(lp4471
F0.392857
aaI56
aa(lp4472
I1
a(lp4473
F0.470588
aaI51
aaa(lp4474
g1605
ag1606
aa(lp4475
g1622
ag1623
aa(lp4476
g1625
ag1626
aa(lp4477
g1628
ag1629
aa(lp4478
g1639
ag1640
aa(lp4479
g1646
ag1647
a(lp4480
I1
a(lp4481
F0.295455
aaI44
aa(lp4482
I1
a(lp4483
F0.545455
aaI55
aa(lp4484
I1
a(lp4485
F0.446154
aaI65
aa(lp4486
I1
a(lp4487
F0.404255
aaI47
aa(lp4488
I1
a(lp4489
F0.363636
aaI44
aa(lp4490
I1
a(lp4491
F0.341463
aaI41
aa(lp4492
I1
a(lp4493
F0.477612
aaI67
aa(lp4494
I1
a(lp4495
F0.359375
aaI64
aa(lp4496
I1
a(lp4497
F0.512195
aaI41
aa(lp4498
I1
a(lp4499
F0.555556
aaI54
aa(lp4500
I1
a(lp4501
F0.477273
aaI44
aa(lp4502
I1
a(lp4503
F0.25
aaI40
aa(lp4504
I1
a(lp4505
F0.531915
aaI47
aa(lp4506
I1
a(lp4507
F0.527273
aaI55
aa(lp4508
I1
a(lp4509
F0.622642
aaI53
aa(lp4510
I1
a(lp4511
F0.366667
aaI60
aa(lp4512
I1
a(lp4513
F0.3
aaI40
aa(lp4514
I1
a(lp4515
F0.293103
aaI58
aa(lp4516
I1
a(lp4517
F0.245283
aaI53
aa(lp4518
I1
a(lp4519
F0.288889
aaI45
aa(lp4520
I1
a(lp4521
F0.227273
aaI44
aa(lp4522
I1
a(lp4523
F0.380952
aaI42
aa(lp4524
I1
a(lp4525
F0.347826
aaI46
aa(lp4526
I1
a(lp4527
F0.509091
aaI55
aa(lp4528
I1
a(lp4529
F0.583333
aaI60
aa(lp4530
I1
a(lp4531
F0.651515
aaI66
aa(lp4532
I1
a(lp4533
F0.211268
aaI71
aa(lp4534
I1
a(lp4535
F0.246575
aaI73
aa(lp4536
I1
a(lp4537
F0.521739
aaI69
aa(lp4538
I1
a(lp4539
F0.444444
aaI81
aa(lp4540
I1
a(lp4541
F0.45
aaI60
aa(lp4542
I1
a(lp4543
F0.484848
aaI66
aa(lp4544
I1
a(lp4545
F0.4
aaI60
aa(lp4546
I1
a(lp4547
F0.465753
aaI73
aa(lp4548
I1
a(lp4549
F0.42623
aaI61
aa(lp4550
I1
a(lp4551
F0.387755
aaI49
aa(lp4552
I1
a(lp4553
F0.436364
aaI55
aa(lp4554
I1
a(lp4555
F0.492754
aaI69
aa(lp4556
I1
a(lp4557
F0.466667
aaI60
aa(lp4558
I1
a(lp4559
F0.54902
aaI51
aa(lp4560
I1
a(lp4561
F0.350877
aaI57
aa(lp4562
I1
a(lp4563
F0.240741
aaI54
aa(lp4564
I1
a(lp4565
F0.209677
aaI62
aa(lp4566
I1
a(lp4567
F0.428571
aaI70
aa(lp4568
I1
a(lp4569
F0.44
aaI50
aa(lp4570
I1
a(lp4571
F0.375
aaI48
aa(lp4572
I1
a(lp4573
F0.415094
aaI53
aa(lp4574
I1
a(lp4575
F0.425926
aaI54
aa(lp4576
I1
a(lp4577
F0.455882
aaI68
aa(lp4578
I1
a(lp4579
F0.54902
aaI51
aa(lp4580
I1
a(lp4581
F0.490909
aaI55
aa(lp4582
I1
a(lp4583
F0.540984
aaI61
aa(lp4584
I1
a(lp4585
F0.539683
aaI63
aa(lp4586
I1
a(lp4587
F0.464286
aaI56
aa(lp4588
I1
a(lp4589
F0.403846
aaI52
aa(lp4590
I1
a(lp4591
F0.45
aaI40
aa(lp4592
I1
a(lp4593
F0.454545
aaI55
aa(lp4594
I1
a(lp4595
F0.355932
aaI59
aa(lp4596
I1
a(lp4597
F0.35
aaI60
aa(lp4598
I1
a(lp4599
F0.424242
aaI66
aa(lp4600
I1
a(lp4601
F0.627119
aaI59
aa(lp4602
I1
a(lp4603
F0.473684
aaI57
aa(lp4604
I1
a(lp4605
F0.37037
aaI54
aa(lp4606
I1
a(lp4607
F0.4
aaI55
aa(lp4608
I1
a(lp4609
F0.408163
aaI49
aa(lp4610
I1
a(lp4611
F0.324324
aaI37
aa(lp4612
I1
a(lp4613
F0.384615
aaI39
aa(lp4614
I1
a(lp4615
F0.456522
aaI46
aa(lp4616
I1
a(lp4617
F0.531915
aaI47
aa(lp4618
I1
a(lp4619
F0.358491
aaI53
aa(lp4620
I1
a(lp4621
F0.581081
aaI74
aa(lp4622
I1
a(lp4623
F0.541667
aaI72
aa(lp4624
I1
a(lp4625
F0.521739
aaI69
aa(lp4626
I1
a(lp4627
F0.537313
aaI67
aa(lp4628
I1
a(lp4629
F0.538462
aaI65
aa(lp4630
I1
a(lp4631
F0.516129
aaI62
aa(lp4632
I1
a(lp4633
F0.516667
aaI60
aa(lp4634
I1
a(lp4635
F0.490909
aaI55
aa(lp4636
I1
a(lp4637
F0.471698
aaI53
aa(lp4638
I1
a(lp4639
F0.454545
aaI44
aa(lp4640
I1
a(lp4641
F0.418919
aaI74
aa(lp4642
I1
a(lp4643
F0.418919
aaI74
aa(lp4644
I1
a(lp4645
F0.430556
aaI72
aa(lp4646
I1
a(lp4647
F0.484848
aaI66
aa(lp4648
I1
a(lp4649
F0.380952
aaI42
aa(lp4650
I1
a(lp4651
F0.537037
aaI54
aa(lp4652
I1
a(lp4653
F0.59322
aaI59
aa(lp4654
I1
a(lp4655
F0.46875
aaI64
aa(lp4656
I1
a(lp4657
F0.409836
aaI61
aa(lp4658
I1
a(lp4659
F0.384615
aaI65
aa(lp4660
I1
a(lp4661
F0.233333
aaI30
aaa(lp4662
g1747
ag1748
aa(lp4663
g1750
ag1751
aa(lp4664
g1753
ag1754
aa(lp4665
g1756
ag1757
aa(lp4666
g1763
ag1764
aa(lp4667
g1770
ag1771
a(lp4668
I1
a(lp4669
F0.296296
aaI27
aaa(lp4670
g1775
ag1776
aa(lp4671
g1778
ag1779
a(lp4672
I1
a(lp4673
F0.225352
aaI71
aa(lp4674
I1
a(lp4675
F0.508197
aaI61
aa(lp4676
I1
a(lp4677
F0.527273
aaI55
aaa(lp4678
g1781
ag1782
aa(lp4679
g1784
ag1785
a(lp4680
I1
a(lp4681
F0.293478
aaI92
aaa(lp4682
g1795
ag1796
a(lp4683
I1
a(lp4684
F0.393939
aaI33
aaa(lp4685
g1804
ag1805
aa(lp4686
g1807
ag1808
aa(lp4687
g1810
ag1811
aa(lp4688
g1813
ag1814
a(lp4689
I1
a(lp4690
F0.507246
aaI69
aaa(lp4691
g1816
ag1817
aa(lp4692
g1829
ag1830
aa(lp4693
g1832
ag1833
a(lp4694
I1
a(lp4695
F0.25
aaI40
aa(lp4696
I1
a(lp4697
F0.341463
aaI41
aa(lp4698
I1
a(lp4699
F0.412698
aaI63
aa(lp4700
I1
a(lp4701
F0.412698
aaI63
aa(lp4702
I1
a(lp4703
F0.431034
aaI58
aa(lp4704
I1
a(lp4705
F0.366197
aaI71
aa(lp4706
I1
a(lp4707
F0.6
aaI75
aa(lp4708
I1
a(lp4709
F0.719101
aaI89
aaa(lp4710
g1843
ag1844
aa(lp4711
g1846
ag1847
aa(lp4712
g1851
ag1852
a(lp4713
I1
a(lp4714
F0.816667
aaI120
aaa(lp4715
g1854
ag1855
aa(lp4716
g1863
ag1864
aa(lp4717
g1882
ag1883
aa(lp4718
g1887
ag1888
a(lp4719
I1
a(lp4720
F0.3125
aaI80
aa(lp4721
I1
a(lp4722
F0.219178
aaI73
aa(lp4723
I1
a(lp4724
F0.294118
aaI85
aa(lp4725
I1
a(lp4726
F0.303797
aaI79
aa(lp4727
I1
a(lp4728
F0.254902
aaI51
aa(lp4729
I1
a(lp4730
F0.209677
aaI62
aa(lp4731
I1
a(lp4732
F0.367089
aaI79
aa(lp4733
I1
a(lp4734
F0.319149
aaI47
aa(lp4735
I1
a(lp4736
F0.21875
aaI32
aa(lp4737
I1
a(lp4738
F0.252525
aaI99
aa(lp4739
I1
a(lp4740
F0.307692
aaI91
aaa(lp4741
g1906
ag1907
aa(lp4742
g1909
ag1910
aa(lp4743
g1912
ag1913
a(lp4744
I1
a(lp4745
F0.25
aaI48
aaa(lp4746
g1915
ag1916
aa(lp4747
g1918
ag1919
a(lp4748
I1
a(lp4749
F0.383333
aaI60
aa(lp4750
I1
a(lp4751
F0.365079
aaI63
aa(lp4752
I1
a(lp4753
F0.229167
aaI48
aaa(lp4754
g1937
ag1938
aa(lp4755
g1940
ag1941
aa(lp4756
g1943
ag1944
aa(lp4757
g1946
ag1947
aa(lp4758
g1983
ag1984
a(lp4759
I1
a(lp4760
F0.243243
aaI37
aaa(lp4761
g1986
ag1987
aa(lp4762
g1989
ag1990
aa(lp4763
g2026
ag2027
aa(lp4764
g2029
ag2030
a(lp4765
I1
a(lp4766
F0.3125
aaI48
aa(lp4767
I1
a(lp4768
F0.344828
aaI58
aa(lp4769
I1
a(lp4770
F0.432836
aaI67
aaa(lp4771
g2036
ag2037
a(lp4772
I1
a(lp4773
F0.236364
aaI55
aa(lp4774
I1
a(lp4775
F0.382979
aaI47
aa(lp4776
I1
a(lp4777
F0.317073
aaI41
aa(lp4778
I1
a(lp4779
F0.388889
aaI54
aa(lp4780
I1
a(lp4781
F0.522388
aaI67
aa(lp4782
I1
a(lp4783
F0.0
aaI32
aa(lp4784
I1
a(lp4785
F0.27027
aaI37
aa(lp4786
I1
a(lp4787
F0.263158
aaI38
aa(lp4788
I1
a(lp4789
F0.25
aaI40
aaa(lp4790
g2039
ag2040
aa(lp4791
g2044
ag2045
aa(lp4792
g2047
ag2048
aa(lp4793
g2056
ag2057
a(lp4794
I1
a(lp4795
F0.609756
aaI41
aa(lp4796
I1
a(lp4797
F0.594595
aaI37
aa(lp4798
I1
a(lp4799
F0.583333
aaI36
aa(lp4800
I1
a(lp4801
F0.6
aaI30
aaa(lp4802
g2067
ag2068
a(lp4803
I1
a(lp4804
F0.275362
aaI69
aaa(lp4805
g2070
ag2071
aa(lp4806
g2075
ag2076
aa(lp4807
g2098
ag2099
aa(lp4808
g2119
ag2120
aa(lp4809
g2122
ag2123
a(lp4810
I1
a(lp4811
F0.253521
aaI71
aa(lp4812
I1
a(lp4813
F0.636364
aaI66
aa(lp4814
I1
a(lp4815
F0.346154
aaI52
aa(lp4816
I1
a(lp4817
F0.574074
aaI54
aa(lp4818
I1
a(lp4819
F0.454545
aaI55
aaa(lp4820
g2125
ag2126
aa(lp4821
g2130
ag2131
a(lp4822
I1
a(lp4823
F0.823204
aaI181
aa(lp4824
I1
a(lp4825
F0.375
aaI48
aa(lp4826
I1
a(lp4827
F0.387755
aaI49
aaa(lp4828
g2133
ag2134
aa(lp4829
g2140
ag2141
aa(lp4830
g2177
ag2178
a(lp4831
I1
a(lp4832
F0.268293
aaI41
aa(lp4833
I1
a(lp4834
F0.3125
aaI48
aa(lp4835
I1
a(lp4836
F0.436364
aaI55
aa(lp4837
I1
a(lp4838
F0.548387
aaI62
aa(lp4839
I1
a(lp4840
F0.530303
aaI66
aa(lp4841
I1
a(lp4842
F0.469697
aaI66
aa(lp4843
I1
a(lp4844
F0.326923
aaI52
aa(lp4845
I1
a(lp4846
F0.595238
aaI84
aa(lp4847
I1
a(lp4848
F0.214286
aaI98
aaa(lp4849
g2192
ag2193
aa(lp4850
g2195
ag2196
aa(lp4851
g2198
ag2199
a(lp4852
I1
a(lp4853
F0.405405
aaI74
aa(lp4854
I1
a(lp4855
F0.263158
aaI38
aa(lp4856
I1
a(lp4857
F0.26
aaI50
aa(lp4858
I1
a(lp4859
F0.449275
aaI69
aa(lp4860
I1
a(lp4861
F0.342857
aaI70
aa(lp4862
I1
a(lp4863
F0.484848
aaI66
aa(lp4864
I1
a(lp4865
F0.414634
aaI41
aa(lp4866
I1
a(lp4867
F0.423729
aaI59
aa(lp4868
I1
a(lp4869
F0.319149
aaI47
aa(lp4870
I1
a(lp4871
F0.214286
aaI42
aa(lp4872
I1
a(lp4873
F0.204545
aaI44
aa(lp4874
I1
a(lp4875
F0.204545
aaI44
aa(lp4876
I1
a(lp4877
F0.222222
aaI45
aa(lp4878
I1
a(lp4879
F0.219512
aaI41
aa(lp4880
I1
a(lp4881
F0.225
aaI40
aa(lp4882
I1
a(lp4883
F0.363636
aaI44
aa(lp4884
I1
a(lp4885
F0.4
aaI45
aa(lp4886
I1
a(lp4887
F0.45614
aaI57
aa(lp4888
I1
a(lp4889
F0.45614
aaI57
aa(lp4890
I1
a(lp4891
F0.436364
aaI55
aa(lp4892
I1
a(lp4893
F0.5
aaI52
aa(lp4894
I1
a(lp4895
F0.479167
aaI48
aa(lp4896
I1
a(lp4897
F0.5
aaI58
aaa(lp4898
g2221
ag2222
a(lp4899
I1
a(lp4900
F0.229167
aaI48
aa(lp4901
I1
a(lp4902
F0.47619
aaI63
aa(lp4903
I1
a(lp4904
F0.339286
aaI56
aa(lp4905
I1
a(lp4906
F0.377358
aaI53
aa(lp4907
I1
a(lp4908
F0.258621
aaI58
aa(lp4909
I1
a(lp4910
F0.529412
aaI51
aa(lp4911
I1
a(lp4912
F0.333333
aaI42
aa(lp4913
I1
a(lp4914
F0.466667
aaI45
aa(lp4915
I1
a(lp4916
F0.44
aaI50
aa(lp4917
I1
a(lp4918
F0.246377
aaI69
aa(lp4919
I1
a(lp4920
F0.28169
aaI71
aa(lp4921
I1
a(lp4922
F0.564516
aaI62
aa(lp4923
I1
a(lp4924
F0.212766
aaI47
aa(lp4925
I1
a(lp4926
F0.2
aaI40
aa(lp4927
I1
a(lp4928
F0.483333
aaI60
aaa(lp4929
g2262
ag2263
aa(lp4930
g2265
ag2266
aa(lp4931
g2268
ag2269
a(lp4932
I1
a(lp4933
F0.25
aaI40
aa(lp4934
I1
a(lp4935
F0.25641
aaI39
aa(lp4936
I1
a(lp4937
F0.361111
aaI36
aa(lp4938
I1
a(lp4939
F0.382353
aaI34
aa(lp4940
I1
a(lp4941
F0.5
aaI64
aa(lp4942
I1
a(lp4943
F0.47619
aaI63
aa(lp4944
I1
a(lp4945
F0.37037
aaI54
aa(lp4946
I1
a(lp4947
F0.346939
aaI49
aa(lp4948
I1
a(lp4949
F0.268293
aaI41
aa(lp4950
I1
a(lp4951
F0.42623
aaI61
aa(lp4952
I1
a(lp4953
F0.340909
aaI44
aa(lp4954
I1
a(lp4955
F0.37037
aaI54
aa(lp4956
I1
a(lp4957
F0.464789
aaI71
aa(lp4958
I1
a(lp4959
F0.309091
aaI55
aa(lp4960
I1
a(lp4961
F0.311111
aaI45
aa(lp4962
I1
a(lp4963
F0.365385
aaI52
aa(lp4964
I1
a(lp4965
F0.367347
aaI49
aa(lp4966
I1
a(lp4967
F0.333333
aaI45
aa(lp4968
I1
a(lp4969
F0.266667
aaI45
aa(lp4970
I1
a(lp4971
F0.553571
aaI56
aa(lp4972
I1
a(lp4973
F0.518519
aaI54
aa(lp4974
I1
a(lp4975
F0.542373
aaI59
aa(lp4976
I1
a(lp4977
F0.311111
aaI45
aa(lp4978
I1
a(lp4979
F0.452381
aaI42
aa(lp4980
I1
a(lp4981
F0.265625
aaI64
aa(lp4982
I1
a(lp4983
F0.346667
aaI75
aa(lp4984
I1
a(lp4985
F0.421875
aaI64
aa(lp4986
I1
a(lp4987
F0.352941
aaI51
aa(lp4988
I1
a(lp4989
F0.375
aaI48
aa(lp4990
I1
a(lp4991
F0.492063
aaI63
aa(lp4992
I1
a(lp4993
F0.564516
aaI62
aa(lp4994
I1
a(lp4995
F0.277778
aaI54
aa(lp4996
I1
a(lp4997
F0.542857
aaI70
aa(lp4998
I1
a(lp4999
F0.391892
aaI74
aa(lp5000
I1
a(lp5001
F0.35
aaI60
aa(lp5002
I1
a(lp5003
F0.297297
aaI37
aa(lp5004
I1
a(lp5005
F0.297297
aaI37
aa(lp5006
I1
a(lp5007
F0.526316
aaI57
aa(lp5008
I1
a(lp5009
F0.302326
aaI43
aa(lp5010
I1
a(lp5011
F0.333333
aaI33
aa(lp5012
I1
a(lp5013
F0.382979
aaI47
aa(lp5014
I1
a(lp5015
F0.541667
aaI48
aa(lp5016
I1
a(lp5017
F0.385965
aaI57
aa(lp5018
I1
a(lp5019
F0.416667
aaI60
aa(lp5020
I1
a(lp5021
F0.52
aaI50
aa(lp5022
I1
a(lp5023
F0.468085
aaI47
aa(lp5024
I1
a(lp5025
F0.513514
aaI74
aa(lp5026
I1
a(lp5027
F0.571429
aaI49
aa(lp5028
I1
a(lp5029
F0.44898
aaI49
aa(lp5030
I1
a(lp5031
F0.433962
aaI53
aa(lp5032
I1
a(lp5033
F0.538462
aaI52
aa(lp5034
I1
a(lp5035
F0.385965
aaI57
aa(lp5036
I1
a(lp5037
F0.421053
aaI57
aa(lp5038
I1
a(lp5039
F0.40625
aaI64
aaa(lp5040
g2425
ag2426
a(lp5041
I1
a(lp5042
F0.2
aaI35
aa(lp5043
I1
a(lp5044
F0.205882
aaI34
aa(lp5045
I1
a(lp5046
F0.225806
aaI31
aa(lp5047
I1
a(lp5048
F0.205882
aaI34
aa(lp5049
I1
a(lp5050
F0.25
aaI36
aa(lp5051
I1
a(lp5052
F0.236842
aaI38
aaa(lp5053
g2428
ag2429
a(lp5054
I1
a(lp5055
F0.395833
aaI48
aa(lp5056
I1
a(lp5057
F0.481481
aaI54
aa(lp5058
I1
a(lp5059
F0.446429
aaI56
aa(lp5060
I1
a(lp5061
F0.442308
aaI52
aa(lp5062
I1
a(lp5063
F0.44
aaI50
aa(lp5064
I1
a(lp5065
F0.2
aaI80
aa(lp5066
I1
a(lp5067
F0.228916
aaI83
aa(lp5068
I1
a(lp5069
F0.253165
aaI79
aaa(lp5070
g2435
ag2436
a(lp5071
I1
a(lp5072
F0.293478
aaI92
aaa(lp5073
g2438
ag2439
a(lp5074
I1
a(lp5075
F0.240506
aaI79
aaa(lp5076
g2441
ag2442
aa(lp5077
g2444
ag2445
a(lp5078
I1
a(lp5079
F0.245455
aaI220
aaa(lp5080
g2447
ag2448
a(lp5081
I1
a(lp5082
F0.340909
aaI44
aa(lp5083
I1
a(lp5084
F0.3125
aaI48
aa(lp5085
I1
a(lp5086
F0.313725
aaI51
aa(lp5087
I1
a(lp5088
F0.326923
aaI52
aaa(lp5089
g2452
ag2453
aa(lp5090
g2455
ag2456
aa(lp5091
g2458
ag2459
a(lp5092
I1
a(lp5093
F0.354839
aaI31
aa(lp5094
I1
a(lp5095
F0.264706
aaI34
aa(lp5096
I1
a(lp5097
F0.404255
aaI47
aa(lp5098
I1
a(lp5099
F0.326531
aaI49
aa(lp5100
I1
a(lp5101
F0.333333
aaI24
aa(lp5102
I1
a(lp5103
F0.227273
aaI44
aaa(lp5104
g2461
ag2462
aa(lp5105
g2464
ag2465
aa(lp5106
g2477
ag2478
aa(lp5107
g2480
ag2481
aa(lp5108
g2485
ag2486
a(lp5109
I1
a(lp5110
F0.5
aaI56
aa(lp5111
I1
a(lp5112
F0.416667
aaI48
aa(lp5113
I1
a(lp5114
F0.285714
aaI35
aa(lp5115
I1
a(lp5116
F0.285714
aaI35
aa(lp5117
I1
a(lp5118
F0.25
aaI56
aa(lp5119
I1
a(lp5120
F0.268293
aaI41
aa(lp5121
I1
a(lp5122
F0.320755
aaI53
aa(lp5123
I1
a(lp5124
F0.294118
aaI51
aa(lp5125
I1
a(lp5126
F0.306122
aaI49
aa(lp5127
I1
a(lp5128
F0.36
aaI50
aa(lp5129
I1
a(lp5130
F0.222222
aaI36
aa(lp5131
I1
a(lp5132
F0.431818
aaI44
aa(lp5133
I1
a(lp5134
F0.561404
aaI57
aa(lp5135
I1
a(lp5136
F0.268293
aaI41
aa(lp5137
I1
a(lp5138
F0.447368
aaI76
aa(lp5139
I1
a(lp5140
F0.241935
aaI62
aa(lp5141
I1
a(lp5142
F0.258065
aaI31
aa(lp5143
I1
a(lp5144
F0.482759
aaI29
aa(lp5145
I1
a(lp5146
F0.411765
aaI51
aa(lp5147
I1
a(lp5148
F0.367347
aaI49
aa(lp5149
I1
a(lp5150
F0.333333
aaI45
aa(lp5151
I1
a(lp5152
F0.326531
aaI49
aa(lp5153
I1
a(lp5154
F0.392157
aaI51
aa(lp5155
I1
a(lp5156
F0.23913
aaI46
aa(lp5157
I1
a(lp5158
F0.481481
aaI54
aa(lp5159
I1
a(lp5160
F0.596154
aaI52
aaa(lp5161
g2492
ag2493
a(lp5162
I1
a(lp5163
F0.342857
aaI70
aa(lp5164
I1
a(lp5165
F0.423729
aaI59
aa(lp5166
I1
a(lp5167
F0.37931
aaI58
aa(lp5168
I1
a(lp5169
F0.403509
aaI57
aa(lp5170
I1
a(lp5171
F0.403226
aaI62
aa(lp5172
I1
a(lp5173
F0.507463
aaI67
aaa(lp5174
g2519
ag2520
aa(lp5175
g2522
ag2523
a(lp5176
I1
a(lp5177
F0.3125
aaI48
aa(lp5178
I1
a(lp5179
F0.377778
aaI45
aa(lp5180
I1
a(lp5181
F0.483871
aaI62
aa(lp5182
I1
a(lp5183
F0.292683
aaI41
aa(lp5184
I1
a(lp5185
F0.36
aaI50
aa(lp5186
I1
a(lp5187
F0.355556
aaI45
aa(lp5188
I1
a(lp5189
F0.248387
aaI310
aaa(lp5190
g2539
ag2540
a(lp5191
I1
a(lp5192
F0.377358
aaI53
aa(lp5193
I1
a(lp5194
F0.377358
aaI53
aaa(lp5195
g2548
ag2549
a(lp5196
I1
a(lp5197
F0.26087
aaI46
aa(lp5198
I1
a(lp5199
F0.282609
aaI46
aa(lp5200
I1
a(lp5201
F0.340426
aaI47
aa(lp5202
I1
a(lp5203
F0.333333
aaI45
aa(lp5204
I1
a(lp5205
F0.603448
aaI58
aaa(lp5206
g2563
ag2564
aa(lp5207
g2566
ag2567
aa(lp5208
g2569
ag2570
aa(lp5209
g2572
ag2573
aa(lp5210
g2575
ag2576
a(lp5211
I1
a(lp5212
F0.575342
aaI73
aa(lp5213
I1
a(lp5214
F0.328125
aaI64
aa(lp5215
I1
a(lp5216
F0.571429
aaI35
aaa(lp5217
g2578
ag2579
aa(lp5218
g2581
ag2582
aa(lp5219
g2584
ag2585
a(lp5220
I1
a(lp5221
F0.514706
aaI68
aaa(lp5222
g2591
ag2592
aa(lp5223
g2594
ag2595
aa(lp5224
g2597
ag2598
aa(lp5225
g2600
ag2601
aa(lp5226
g2603
ag2604
aa(lp5227
g2606
ag2607
aa(lp5228
g2613
ag2614
aassS'diploids'
p5229
(dp5230
g3
(lp5231
(lp5232
S'scaffold2285_cov92'
p5233
aS'scaffold34413_cov63'
p5234
aa(lp5235
S'scaffold19386_cov101'
p5236
aS'scaffold34060_cov96'
p5237
aa(lp5238
S'scaffold18737_cov72'
p5239
aS'scaffold38243_cov111'
p5240
a(lp5241
I1
a(lp5242
F0.229167
aaI48
aa(lp5243
I1
a(lp5244
F0.353846
aaI65
aa(lp5245
I1
a(lp5246
F0.391304
aaI69
aa(lp5247
I1
a(lp5248
F0.25
aaI48
aa(lp5249
I1
a(lp5250
F0.272727
aaI44
aa(lp5251
I1
a(lp5252
F0.303571
aaI56
aa(lp5253
I1
a(lp5254
F0.222222
aaI36
aa(lp5255
I1
a(lp5256
F0.216216
aaI37
aaa(lp5257
S'scaffold12434_cov50'
p5258
aS'scaffold8329_cov54'
p5259
aa(lp5260
S'scaffold11244_cov56'
p5261
aS'scaffold7401_cov60'
p5262
aa(lp5263
S'scaffold6252_cov63'
p5264
aS'scaffold9548_cov63'
p5265
a(lp5266
I1
a(lp5267
F0.27027
aaI37
aa(lp5268
I1
a(lp5269
F0.209302
aaI43
aa(lp5270
I1
a(lp5271
F0.276596
aaI47
aa(lp5272
I1
a(lp5273
F0.28125
aaI32
aaa(lp5274
S'scaffold35008_cov71'
p5275
aS'scaffold617_cov62'
p5276
a(lp5277
I1
a(lp5278
F1.0
aaI6
aa(lp5279
I1
a(lp5280
F0.454545
aaI11
aa(lp5281
I1
a(lp5282
F0.4375
aaI16
aaa(lp5283
S'scaffold13232_cov62'
p5284
aS'scaffold846_cov98'
p5285
aa(lp5286
S'scaffold10198_cov57'
p5287
aS'scaffold36443_cov67'
p5288
a(lp5289
I1
a(lp5290
F0.377778
aaI45
aa(lp5291
I1
a(lp5292
F0.257143
aaI35
aa(lp5293
I1
a(lp5294
F0.282051
aaI39
aa(lp5295
I1
a(lp5296
F0.462963
aaI54
aa(lp5297
I1
a(lp5298
F0.434783
aaI46
aa(lp5299
I1
a(lp5300
F0.53125
aaI64
aaa(lp5301
S'scaffold8961_cov96'
p5302
aS'scaffold9651_cov60'
p5303
aa(lp5304
S'scaffold30712_cov54'
p5305
aS'scaffold8059_cov49'
p5306
aa(lp5307
S'scaffold44255_cov165'
p5308
aS'scaffold46292_cov180'
p5309
aa(lp5310
S'scaffold2570_cov56'
p5311
aS'scaffold33937_cov139'
p5312
aa(lp5313
S'scaffold138_cov63'
p5314
aS'scaffold24311_cov69'
p5315
a(lp5316
I1
a(lp5317
F0.388889
aaI54
aa(lp5318
I1
a(lp5319
F0.36
aaI50
aa(lp5320
I1
a(lp5321
F0.306122
aaI49
aa(lp5322
I1
a(lp5323
F0.294118
aaI34
aa(lp5324
I1
a(lp5325
F0.272727
aaI33
aaa(lp5326
S'scaffold2592_cov100'
p5327
aS'scaffold466_cov101'
p5328
aa(lp5329
S'scaffold1040_cov63'
p5330
aS'scaffold2393_cov71'
p5331
aa(lp5332
S'scaffold15420_cov62'
p5333
aS'scaffold6640_cov57'
p5334
aa(lp5335
S'scaffold17407_cov65'
p5336
aS'scaffold9695_cov86'
p5337
a(lp5338
I1
a(lp5339
F0.348837
aaI43
aa(lp5340
I1
a(lp5341
F0.423077
aaI52
aa(lp5342
I1
a(lp5343
F0.2
aaI35
aa(lp5344
I1
a(lp5345
F0.547619
aaI84
aa(lp5346
I1
a(lp5347
F0.283019
aaI53
aa(lp5348
I1
a(lp5349
F0.21875
aaI32
aa(lp5350
I1
a(lp5351
F0.27027
aaI37
aa(lp5352
I1
a(lp5353
F0.27027
aaI37
aaa(lp5354
S'scaffold35877_cov69'
p5355
aS'scaffold5395_cov50'
p5356
a(lp5357
I1
a(lp5358
F0.22449
aaI49
aa(lp5359
I1
a(lp5360
F0.255814
aaI43
aaa(lp5361
S'scaffold22352_cov39'
p5362
aS'scaffold37380_cov122'
p5363
aa(lp5364
S'scaffold3247_cov88'
p5365
aS'scaffold33782_cov98'
p5366
a(lp5367
I1
a(lp5368
F0.408163
aaI49
aa(lp5369
I1
a(lp5370
F0.395833
aaI48
aa(lp5371
I1
a(lp5372
F0.333333
aaI51
aa(lp5373
I1
a(lp5374
F0.236842
aaI38
aa(lp5375
I1
a(lp5376
F0.236842
aaI38
aa(lp5377
I1
a(lp5378
F0.459459
aaI74
aa(lp5379
I1
a(lp5380
F0.5
aaI74
aa(lp5381
I1
a(lp5382
F0.416667
aaI48
aa(lp5383
I1
a(lp5384
F0.431373
aaI51
aa(lp5385
I1
a(lp5386
F0.403226
aaI62
aa(lp5387
I1
a(lp5388
F0.327586
aaI58
aa(lp5389
I1
a(lp5390
F0.237624
aaI101
aa(lp5391
I1
a(lp5392
F0.217822
aaI101
aa(lp5393
I1
a(lp5394
F0.418919
aaI148
aa(lp5395
I1
a(lp5396
F0.42
aaI50
aa(lp5397
I1
a(lp5398
F0.26
aaI50
aa(lp5399
I1
a(lp5400
F0.451613
aaI62
aa(lp5401
I1
a(lp5402
F0.52459
aaI61
aa(lp5403
I1
a(lp5404
F0.431373
aaI51
aa(lp5405
I1
a(lp5406
F0.430769
aaI65
aa(lp5407
I1
a(lp5408
F0.4
aaI45
aa(lp5409
I1
a(lp5410
F0.216216
aaI37
aa(lp5411
I1
a(lp5412
F0.228571
aaI35
aa(lp5413
I1
a(lp5414
F0.367089
aaI316
aaa(lp5415
S'scaffold4034_cov67'
p5416
aS'scaffold866_cov53'
p5417
a(lp5418
I1
a(lp5419
F0.236842
aaI38
aa(lp5420
I1
a(lp5421
F0.21875
aaI32
aa(lp5422
I1
a(lp5423
F0.266667
aaI45
aaa(lp5424
S'scaffold30472_cov70'
p5425
aS'scaffold4544_cov85'
p5426
a(lp5427
I1
a(lp5428
F0.277778
aaI54
aa(lp5429
I1
a(lp5430
F0.296296
aaI54
aaa(lp5431
S'scaffold35970_cov109'
p5432
aS'scaffold7217_cov99'
p5433
aa(lp5434
S'scaffold6317_cov51'
p5435
aS'scaffold874_cov68'
p5436
aa(lp5437
S'scaffold3440_cov56'
p5438
aS'scaffold582_cov57'
p5439
a(lp5440
I1
a(lp5441
F0.219512
aaI41
aaa(lp5442
S'scaffold5487_cov69'
p5443
aS'scaffold7228_cov62'
p5444
aa(lp5445
S'scaffold1774_cov51'
p5446
aS'scaffold707_cov65'
p5447
aa(lp5448
S'scaffold35963_cov95'
p5449
aS'scaffold36297_cov113'
p5450
aa(lp5451
S'scaffold1455_cov53'
p5452
aS'scaffold8021_cov59'
p5453
a(lp5454
I1
a(lp5455
F0.319149
aaI47
aa(lp5456
I1
a(lp5457
F0.452779
aaI5506
aa(lp5458
I1
a(lp5459
F0.779064
aaI1987
aaa(lp5460
S'scaffold35021_cov83'
p5461
aS'scaffold43367_cov115'
p5462
a(lp5463
I1
a(lp5464
F0.428571
aaI35
aa(lp5465
I1
a(lp5466
F0.227273
aaI44
aaa(lp5467
S'scaffold11579_cov94'
p5468
aS'scaffold14662_cov55'
p5469
aa(lp5470
S'scaffold12811_cov99'
p5471
aS'scaffold8082_cov74'
p5472
a(lp5473
I1
a(lp5474
F0.262295
aaI61
aa(lp5475
I1
a(lp5476
F0.205128
aaI39
aa(lp5477
I1
a(lp5478
F0.232558
aaI43
aa(lp5479
I1
a(lp5480
F0.232558
aaI43
aa(lp5481
I1
a(lp5482
F0.294118
aaI51
aa(lp5483
I1
a(lp5484
F0.285714
aaI56
aa(lp5485
I1
a(lp5486
F0.254902
aaI51
aa(lp5487
I1
a(lp5488
F0.310345
aaI58
aa(lp5489
I1
a(lp5490
F0.262295
aaI61
aa(lp5491
I1
a(lp5492
F0.25
aaI56
aa(lp5493
I1
a(lp5494
F0.283333
aaI60
aa(lp5495
I1
a(lp5496
F0.263158
aaI38
aa(lp5497
I1
a(lp5498
F0.25
aaI40
aa(lp5499
I1
a(lp5500
F0.285714
aaI35
aaa(lp5501
S'scaffold144_cov60'
p5502
aS'scaffold36050_cov70'
p5503
aa(lp5504
S'scaffold1651_cov81'
p5505
aS'scaffold2084_cov95'
p5506
a(lp5507
I1
a(lp5508
F0.427083
aaI96
aa(lp5509
I1
a(lp5510
F0.318681
aaI91
aaa(lp5511
S'scaffold28625_cov54'
p5512
aS'scaffold51283_cov119'
p5513
aa(lp5514
S'scaffold19735_cov56'
p5515
aS'scaffold52556_cov103'
p5516
aa(lp5517
S'scaffold18184_cov66'
p5518
aS'scaffold5184_cov86'
p5519
aa(lp5520
S'scaffold34270_cov89'
p5521
aS'scaffold5071_cov113'
p5522
a(lp5523
I1
a(lp5524
F0.407407
aaI54
aa(lp5525
I1
a(lp5526
F0.2
aaI35
aaa(lp5527
S'scaffold16119_cov63'
p5528
aS'scaffold311_cov53'
p5529
a(lp5530
I1
a(lp5531
F0.490909
aaI55
aa(lp5532
I1
a(lp5533
F0.321429
aaI28
aaa(lp5534
S'scaffold5587_cov95'
p5535
aS'scaffold6763_cov50'
p5536
aa(lp5537
S'scaffold1156_cov80'
p5538
aS'scaffold6497_cov85'
p5539
a(lp5540
I1
a(lp5541
F0.351351
aaI37
aa(lp5542
I1
a(lp5543
F0.291667
aaI48
aa(lp5544
I1
a(lp5545
F0.428571
aaI42
aa(lp5546
I1
a(lp5547
F0.290323
aaI31
aa(lp5548
I1
a(lp5549
F0.272727
aaI33
aa(lp5550
I1
a(lp5551
F0.242424
aaI33
aa(lp5552
I1
a(lp5553
F0.2
aaI30
aa(lp5554
I1
a(lp5555
F0.421053
aaI38
aa(lp5556
I1
a(lp5557
F0.488889
aaI45
aa(lp5558
I1
a(lp5559
F0.533333
aaI45
aa(lp5560
I1
a(lp5561
F0.512821
aaI39
aa(lp5562
I1
a(lp5563
F0.533333
aaI30
aa(lp5564
I1
a(lp5565
F0.461538
aaI65
aa(lp5566
I1
a(lp5567
F0.470588
aaI68
aa(lp5568
I1
a(lp5569
F0.507692
aaI65
aa(lp5570
I1
a(lp5571
F0.419753
aaI81
aa(lp5572
I1
a(lp5573
F0.272727
aaI44
aa(lp5574
I1
a(lp5575
F0.307692
aaI52
aa(lp5576
I1
a(lp5577
F0.2
aaI45
aa(lp5578
I1
a(lp5579
F0.277778
aaI54
aa(lp5580
I1
a(lp5581
F0.255814
aaI43
aa(lp5582
I1
a(lp5583
F0.265306
aaI49
aa(lp5584
I1
a(lp5585
F0.571429
aaI56
aa(lp5586
I1
a(lp5587
F0.210526
aaI38
aa(lp5588
I1
a(lp5589
F0.313725
aaI51
aa(lp5590
I1
a(lp5591
F0.551724
aaI58
aa(lp5592
I1
a(lp5593
F0.319149
aaI47
aa(lp5594
I1
a(lp5595
F0.333333
aaI51
aa(lp5596
I1
a(lp5597
F0.328358
aaI67
aa(lp5598
I1
a(lp5599
F0.418919
aaI74
aa(lp5600
I1
a(lp5601
F0.414286
aaI70
aa(lp5602
I1
a(lp5603
F0.355932
aaI59
aaa(lp5604
S'scaffold10939_cov60'
p5605
aS'scaffold1726_cov57'
p5606
a(lp5607
I1
a(lp5608
F0.22
aaI50
aa(lp5609
I1
a(lp5610
F0.295455
aaI44
aa(lp5611
I1
a(lp5612
F0.205128
aaI39
aa(lp5613
I1
a(lp5614
F0.288889
aaI45
aa(lp5615
I1
a(lp5616
F0.387755
aaI49
aa(lp5617
I1
a(lp5618
F0.234043
aaI47
aaa(lp5619
S'scaffold15336_cov60'
p5620
aS'scaffold5295_cov55'
p5621
aa(lp5622
S'scaffold35055_cov91'
p5623
aS'scaffold9739_cov94'
p5624
a(lp5625
I1
a(lp5626
F0.469697
aaI66
aaa(lp5627
S'scaffold5602_cov57'
p5628
aS'scaffold5604_cov55'
p5629
a(lp5630
I1
a(lp5631
F0.297297
aaI37
aa(lp5632
I1
a(lp5633
F0.214286
aaI70
aa(lp5634
I1
a(lp5635
F0.246377
aaI69
aaa(lp5636
S'scaffold5185_cov80'
p5637
aS'scaffold5186_cov71'
p5638
a(lp5639
I1
a(lp5640
F0.357143
aaI56
aa(lp5641
I1
a(lp5642
F0.340426
aaI47
aa(lp5643
I1
a(lp5644
F0.351351
aaI37
aa(lp5645
I1
a(lp5646
F0.342105
aaI38
aa(lp5647
I1
a(lp5648
F0.368421
aaI38
aa(lp5649
I1
a(lp5650
F0.390244
aaI41
aa(lp5651
I1
a(lp5652
F0.46
aaI50
aa(lp5653
I1
a(lp5654
F0.216216
aaI37
aa(lp5655
I1
a(lp5656
F0.285714
aaI42
aaa(lp5657
S'scaffold13650_cov74'
p5658
aS'scaffold54888_cov107'
p5659
aa(lp5660
S'scaffold7874_cov52'
p5661
aS'scaffold7875_cov69'
p5662
aa(lp5663
S'scaffold32906_cov106'
p5664
aS'scaffold683_cov92'
p5665
aa(lp5666
S'scaffold34177_cov82'
p5667
aS'scaffold35974_cov80'
p5668
a(lp5669
I1
a(lp5670
F0.46
aaI50
aa(lp5671
I1
a(lp5672
F0.403846
aaI52
aa(lp5673
I1
a(lp5674
F0.234043
aaI47
aa(lp5675
I1
a(lp5676
F0.304348
aaI69
aa(lp5677
I1
a(lp5678
F0.362319
aaI69
aa(lp5679
I1
a(lp5680
F0.410714
aaI56
aa(lp5681
I1
a(lp5682
F0.354839
aaI62
aa(lp5683
I1
a(lp5684
F0.5
aaI50
aa(lp5685
I1
a(lp5686
F0.327273
aaI55
aa(lp5687
I1
a(lp5688
F0.345455
aaI55
aa(lp5689
I1
a(lp5690
F0.510204
aaI49
aa(lp5691
I1
a(lp5692
F0.425532
aaI47
aa(lp5693
I1
a(lp5694
F0.4
aaI65
aa(lp5695
I1
a(lp5696
F0.413793
aaI58
aa(lp5697
I1
a(lp5698
F0.527273
aaI55
aa(lp5699
I1
a(lp5700
F0.457143
aaI70
aa(lp5701
I1
a(lp5702
F0.293103
aaI58
aa(lp5703
I1
a(lp5704
F0.314815
aaI54
aa(lp5705
I1
a(lp5706
F0.288136
aaI59
aa(lp5707
I1
a(lp5708
F0.55
aaI40
aa(lp5709
I1
a(lp5710
F0.301887
aaI53
aa(lp5711
I1
a(lp5712
F0.4
aaI50
aaa(lp5713
S'scaffold13494_cov55'
p5714
aS'scaffold444_cov67'
p5715
aa(lp5716
S'scaffold13550_cov68'
p5717
aS'scaffold8803_cov55'
p5718
aa(lp5719
S'scaffold570_cov75'
p5720
aS'scaffold6452_cov95'
p5721
a(lp5722
I1
a(lp5723
F0.297297
aaI37
aaa(lp5724
S'scaffold28599_cov95'
p5725
aS'scaffold54186_cov103'
p5726
a(lp5727
I1
a(lp5728
F0.389831
aaI59
aa(lp5729
I1
a(lp5730
F0.404255
aaI47
aaa(lp5731
S'scaffold289_cov71'
p5732
aS'scaffold3757_cov64'
p5733
a(lp5734
I1
a(lp5735
F0.209302
aaI43
aa(lp5736
I1
a(lp5737
F0.333333
aaI45
aa(lp5738
I1
a(lp5739
F0.27907
aaI43
aa(lp5740
I1
a(lp5741
F0.325
aaI40
aa(lp5742
I1
a(lp5743
F0.25
aaI32
aa(lp5744
I1
a(lp5745
F0.368421
aaI38
aaa(lp5746
S'scaffold14859_cov92'
p5747
aS'scaffold34162_cov105'
p5748
a(lp5749
I1
a(lp5750
F0.311475
aaI61
aa(lp5751
I1
a(lp5752
F0.435484
aaI62
aa(lp5753
I1
a(lp5754
F0.423729
aaI59
aa(lp5755
I1
a(lp5756
F0.393443
aaI61
aa(lp5757
I1
a(lp5758
F0.580645
aaI62
aaa(lp5759
S'scaffold1175_cov49'
p5760
aS'scaffold4917_cov59'
p5761
a(lp5762
I1
a(lp5763
F0.25
aaI32
aa(lp5764
I1
a(lp5765
F0.385965
aaI57
aaa(lp5766
S'scaffold28521_cov53'
p5767
aS'scaffold5310_cov60'
p5768
aa(lp5769
S'scaffold13115_cov55'
p5770
aS'scaffold6977_cov64'
p5771
aa(lp5772
S'scaffold13474_cov57'
p5773
aS'scaffold4565_cov62'
p5774
aa(lp5775
S'scaffold7133_cov53'
p5776
aS'scaffold8457_cov52'
p5777
a(lp5778
I1
a(lp5779
F0.314286
aaI35
aa(lp5780
I1
a(lp5781
F0.388889
aaI54
aa(lp5782
I1
a(lp5783
F0.204545
aaI44
aa(lp5784
I1
a(lp5785
F0.363636
aaI44
aa(lp5786
I1
a(lp5787
F0.410256
aaI39
aaa(lp5788
S'scaffold15333_cov101'
p5789
aS'scaffold36026_cov97'
p5790
aa(lp5791
S'scaffold200_cov51'
p5792
aS'scaffold5829_cov52'
p5793
aa(lp5794
S'scaffold10360_cov60'
p5795
aS'scaffold6609_cov59'
p5796
a(lp5797
I1
a(lp5798
F0.387097
aaI62
aa(lp5799
I1
a(lp5800
F0.4
aaI70
aa(lp5801
I1
a(lp5802
F0.243243
aaI37
aa(lp5803
I1
a(lp5804
F0.212766
aaI47
aa(lp5805
I1
a(lp5806
F0.225
aaI40
aa(lp5807
I1
a(lp5808
F0.309524
aaI42
aa(lp5809
I1
a(lp5810
F0.318182
aaI44
aa(lp5811
I1
a(lp5812
F0.485714
aaI35
aa(lp5813
I1
a(lp5814
F0.366667
aaI30
aa(lp5815
I1
a(lp5816
F0.44186
aaI43
aa(lp5817
I1
a(lp5818
F0.53125
aaI64
aaa(lp5819
S'scaffold1231_cov53'
p5820
aS'scaffold15012_cov64'
p5821
aa(lp5822
S'scaffold33248_cov88'
p5823
aS'scaffold8659_cov78'
p5824
a(lp5825
I1
a(lp5826
F0.454545
aaI66
aa(lp5827
I1
a(lp5828
F0.396825
aaI63
aaa(lp5829
S'scaffold33082_cov85'
p5830
aS'scaffold41869_cov103'
p5831
aa(lp5832
S'scaffold21958_cov101'
p5833
aS'scaffold2626_cov102'
p5834
aa(lp5835
S'scaffold10405_cov56'
p5836
aS'scaffold33245_cov72'
p5837
a(lp5838
I1
a(lp5839
F0.375
aaI48
aa(lp5840
I1
a(lp5841
F0.340909
aaI44
aa(lp5842
I1
a(lp5843
F0.268293
aaI41
aa(lp5844
I1
a(lp5845
F0.25641
aaI39
aa(lp5846
I1
a(lp5847
F0.209302
aaI43
aaa(lp5848
S'scaffold13368_cov73'
p5849
aS'scaffold47_cov51'
p5850
aa(lp5851
S'scaffold2786_cov74'
p5852
aS'scaffold6624_cov86'
p5853
aa(lp5854
S'scaffold33440_cov107'
p5855
aS'scaffold7192_cov111'
p5856
aa(lp5857
S'scaffold18560_cov75'
p5858
aS'scaffold46285_cov153'
p5859
aa(lp5860
S'scaffold1082_cov61'
p5861
aS'scaffold8217_cov58'
p5862
a(lp5863
I1
a(lp5864
F0.227273
aaI44
aaa(lp5865
S'scaffold4874_cov72'
p5866
aS'scaffold7806_cov72'
p5867
a(lp5868
I1
a(lp5869
F0.553571
aaI56
aa(lp5870
I1
a(lp5871
F0.354167
aaI48
aa(lp5872
I1
a(lp5873
F0.339623
aaI53
aa(lp5874
I1
a(lp5875
F0.254902
aaI51
aa(lp5876
I1
a(lp5877
F0.24
aaI50
aa(lp5878
I1
a(lp5879
F0.203704
aaI54
aa(lp5880
I1
a(lp5881
F0.277778
aaI36
aaa(lp5882
S'scaffold15567_cov64'
p5883
aS'scaffold5760_cov53'
p5884
aa(lp5885
S'scaffold10858_cov54'
p5886
aS'scaffold33183_cov87'
p5887
aa(lp5888
S'scaffold6110_cov55'
p5889
aS'scaffold861_cov54'
p5890
aa(lp5891
S'scaffold33204_cov76'
p5892
aS'scaffold6201_cov79'
p5893
a(lp5894
I1
a(lp5895
F0.277778
aaI36
aa(lp5896
I1
a(lp5897
F0.289474
aaI38
aa(lp5898
I1
a(lp5899
F0.365385
aaI52
aa(lp5900
I1
a(lp5901
F0.363636
aaI55
aa(lp5902
I1
a(lp5903
F0.27027
aaI37
aa(lp5904
I1
a(lp5905
F0.35
aaI40
aa(lp5906
I1
a(lp5907
F0.363636
aaI33
aa(lp5908
I1
a(lp5909
F0.241379
aaI29
aa(lp5910
I1
a(lp5911
F0.212121
aaI33
aa(lp5912
I1
a(lp5913
F0.2
aaI35
aa(lp5914
I1
a(lp5915
F0.205882
aaI34
aa(lp5916
I1
a(lp5917
F0.225806
aaI31
aa(lp5918
I1
a(lp5919
F0.233333
aaI30
aaa(lp5920
S'scaffold18342_cov147'
p5921
aS'scaffold5966_cov74'
p5922
aa(lp5923
S'scaffold2697_cov65'
p5924
aS'scaffold3230_cov72'
p5925
a(lp5926
I1
a(lp5927
F0.373134
aaI67
aa(lp5928
I1
a(lp5929
F0.526316
aaI57
aa(lp5930
I1
a(lp5931
F0.269231
aaI52
aa(lp5932
I1
a(lp5933
F0.305556
aaI36
aa(lp5934
I1
a(lp5935
F0.305556
aaI36
aa(lp5936
I1
a(lp5937
F0.261905
aaI42
aaa(lp5938
S'scaffold34162_cov105'
p5939
aS'scaffold4290_cov94'
p5940
a(lp5941
I1
a(lp5942
F0.377778
aaI45
aa(lp5943
I1
a(lp5944
F0.428571
aaI42
aa(lp5945
I1
a(lp5946
F0.47619
aaI42
aa(lp5947
I1
a(lp5948
F0.333333
aaI36
aaa(lp5949
S'scaffold17719_cov52'
p5950
aS'scaffold7882_cov53'
p5951
aa(lp5952
S'scaffold11052_cov59'
p5953
aS'scaffold2304_cov65'
p5954
a(lp5955
I1
a(lp5956
F0.217391
aaI23
aa(lp5957
I1
a(lp5958
F0.28
aaI25
aa(lp5959
I1
a(lp5960
F0.2
aaI25
aa(lp5961
I1
a(lp5962
F0.321429
aaI56
aa(lp5963
I1
a(lp5964
F0.441176
aaI68
aa(lp5965
I1
a(lp5966
F0.463768
aaI69
aa(lp5967
I1
a(lp5968
F0.424242
aaI66
aa(lp5969
I1
a(lp5970
F0.483333
aaI60
aaa(lp5971
S'scaffold1902_cov64'
p5972
aS'scaffold4418_cov65'
p5973
aa(lp5974
S'scaffold2541_cov64'
p5975
aS'scaffold9591_cov85'
p5976
a(lp5977
I1
a(lp5978
F0.553191
aaI47
aa(lp5979
I1
a(lp5980
F0.325581
aaI43
aa(lp5981
I1
a(lp5982
F0.459016
aaI61
aa(lp5983
I1
a(lp5984
F0.230769
aaI26
aa(lp5985
I1
a(lp5986
F0.487179
aaI39
aaa(lp5987
S'scaffold2571_cov70'
p5988
aS'scaffold27216_cov96'
p5989
aa(lp5990
S'scaffold10187_cov86'
p5991
aS'scaffold10455_cov70'
p5992
aa(lp5993
S'scaffold9240_cov92'
p5994
aS'scaffold952_cov71'
p5995
aa(lp5996
S'scaffold10374_cov51'
p5997
aS'scaffold37747_cov56'
p5998
aasg2615
(lp5999
(lp6000
g5233
ag5234
aa(lp6001
g5236
ag5237
a(lp6002
I1
a(lp6003
F0.426471
aaI68
aa(lp6004
I1
a(lp6005
F0.451613
aaI62
aa(lp6006
I1
a(lp6007
F0.387097
aaI62
aa(lp6008
I1
a(lp6009
F0.358209
aaI67
aa(lp6010
I1
a(lp6011
F0.305556
aaI72
aaa(lp6012
g5239
ag5240
a(lp6013
I1
a(lp6014
F0.622951
aaI61
aa(lp6015
I1
a(lp6016
F0.567164
aaI67
aa(lp6017
I1
a(lp6018
F0.327586
aaI58
aa(lp6019
I1
a(lp6020
F0.266667
aaI60
aa(lp6021
I1
a(lp6022
F0.237288
aaI59
aa(lp6023
I1
a(lp6024
F0.211538
aaI52
aaa(lp6025
g5258
ag5259
aa(lp6026
g5261
ag5262
a(lp6027
I1
a(lp6028
F0.369565
aaI46
aaa(lp6029
g5264
ag5265
aa(lp6030
g5275
ag5276
a(lp6031
I1
a(lp6032
F0.353659
aaI82
aaa(lp6033
g5284
ag5285
a(lp6034
I1
a(lp6035
F0.244898
aaI49
aaa(lp6036
g5287
ag5288
a(lp6037
I1
a(lp6038
F0.3
aaI30
aa(lp6039
I1
a(lp6040
F0.290323
aaI31
aa(lp6041
I1
a(lp6042
F0.324324
aaI37
aa(lp6043
I1
a(lp6044
F0.342857
aaI35
aa(lp6045
I1
a(lp6046
F0.228571
aaI35
aa(lp6047
I1
a(lp6048
F0.425
aaI40
aa(lp6049
I1
a(lp6050
F0.377778
aaI45
aa(lp6051
I1
a(lp6052
F0.391304
aaI46
aa(lp6053
I1
a(lp6054
F0.285714
aaI28
aa(lp6055
I1
a(lp6056
F0.27027
aaI74
aa(lp6057
I1
a(lp6058
F0.294118
aaI68
aa(lp6059
I1
a(lp6060
F0.36
aaI75
aa(lp6061
I1
a(lp6062
F0.311475
aaI61
aa(lp6063
I1
a(lp6064
F0.205128
aaI39
aaa(lp6065
g5302
ag5303
aa(lp6066
g5305
ag5306
aa(lp6067
g5308
ag5309
aa(lp6068
g5311
ag5312
aa(lp6069
g5314
ag5315
a(lp6070
I1
a(lp6071
F0.348837
aaI43
aa(lp6072
I1
a(lp6073
F0.514286
aaI70
aa(lp6074
I1
a(lp6075
F0.37931
aaI58
aa(lp6076
I1
a(lp6077
F0.459459
aaI37
aa(lp6078
I1
a(lp6079
F0.442308
aaI52
aa(lp6080
I1
a(lp6081
F0.630435
aaI46
aa(lp6082
I1
a(lp6083
F0.547619
aaI42
aa(lp6084
I1
a(lp6085
F0.543478
aaI46
aa(lp6086
I1
a(lp6087
F0.453333
aaI75
aaa(lp6088
g5327
ag5328
aa(lp6089
g5330
ag5331
aa(lp6090
g5333
ag5334
aa(lp6091
g5336
ag5337
a(lp6092
I1
a(lp6093
F0.25
aaI40
aa(lp6094
I1
a(lp6095
F0.309524
aaI42
aa(lp6096
I1
a(lp6097
F0.346154
aaI52
aa(lp6098
I1
a(lp6099
F0.361702
aaI47
aa(lp6100
I1
a(lp6101
F0.472222
aaI36
aa(lp6102
I1
a(lp6103
F0.416667
aaI60
aa(lp6104
I1
a(lp6105
F0.444444
aaI36
aa(lp6106
I1
a(lp6107
F0.302326
aaI43
aa(lp6108
I1
a(lp6109
F0.3125
aaI48
aa(lp6110
I1
a(lp6111
F0.230769
aaI39
aa(lp6112
I1
a(lp6113
F0.324324
aaI37
aa(lp6114
I1
a(lp6115
F0.268293
aaI41
aa(lp6116
I1
a(lp6117
F0.413043
aaI46
aa(lp6118
I1
a(lp6119
F0.439394
aaI66
aaa(lp6120
g5355
ag5356
aa(lp6121
g5362
ag5363
aa(lp6122
g5365
ag5366
a(lp6123
I1
a(lp6124
F0.528302
aaI53
aa(lp6125
I1
a(lp6126
F0.577778
aaI45
aa(lp6127
I1
a(lp6128
F0.534884
aaI43
aa(lp6129
I1
a(lp6130
F0.511628
aaI43
aa(lp6131
I1
a(lp6132
F0.5625
aaI48
aa(lp6133
I1
a(lp6134
F0.440678
aaI59
aa(lp6135
I1
a(lp6136
F0.430769
aaI65
aa(lp6137
I1
a(lp6138
F0.578125
aaI64
aa(lp6139
I1
a(lp6140
F0.4
aaI55
aa(lp6141
I1
a(lp6142
F0.376812
aaI69
aa(lp6143
I1
a(lp6144
F0.416667
aaI48
aa(lp6145
I1
a(lp6146
F0.403226
aaI62
aa(lp6147
I1
a(lp6148
F0.433962
aaI53
aa(lp6149
I1
a(lp6150
F0.508772
aaI57
aa(lp6151
I1
a(lp6152
F0.295455
aaI44
aa(lp6153
I1
a(lp6154
F0.491525
aaI59
aa(lp6155
I1
a(lp6156
F0.4
aaI40
aa(lp6157
I1
a(lp6158
F0.421053
aaI38
aa(lp6159
I1
a(lp6160
F0.534884
aaI43
aa(lp6161
I1
a(lp6162
F0.285714
aaI35
aa(lp6163
I1
a(lp6164
F0.288889
aaI45
aa(lp6165
I1
a(lp6166
F0.333333
aaI48
aa(lp6167
I1
a(lp6168
F0.476923
aaI65
aa(lp6169
I1
a(lp6170
F0.538462
aaI52
aa(lp6171
I1
a(lp6172
F0.589286
aaI56
aa(lp6173
I1
a(lp6174
F0.392857
aaI56
aa(lp6175
I1
a(lp6176
F0.385965
aaI57
aa(lp6177
I1
a(lp6178
F0.433962
aaI53
aa(lp6179
I1
a(lp6180
F0.410714
aaI56
aa(lp6181
I1
a(lp6182
F0.416667
aaI48
aa(lp6183
I1
a(lp6184
F0.378788
aaI66
aa(lp6185
I1
a(lp6186
F0.37931
aaI58
aa(lp6187
I1
a(lp6188
F0.534483
aaI58
aaa(lp6189
g5416
ag5417
a(lp6190
I1
a(lp6191
F0.479167
aaI48
aa(lp6192
I1
a(lp6193
F0.404762
aaI42
aa(lp6194
I1
a(lp6195
F0.351351
aaI37
aa(lp6196
I1
a(lp6197
F0.264706
aaI34
aaa(lp6198
g5425
ag5426
aa(lp6199
g5432
ag5433
a(lp6200
I1
a(lp6201
F0.45045
aaI111
aa(lp6202
I1
a(lp6203
F0.25
aaI56
aa(lp6204
I1
a(lp6205
F0.254545
aaI55
aa(lp6206
I1
a(lp6207
F0.275
aaI40
aa(lp6208
I1
a(lp6209
F0.224138
aaI58
aaa(lp6210
g5435
ag5436
aa(lp6211
g5438
ag5439
aa(lp6212
g5443
ag5444
aa(lp6213
g5446
ag5447
a(lp6214
I1
a(lp6215
F0.276596
aaI47
aa(lp6216
I1
a(lp6217
F0.404762
aaI42
aa(lp6218
I1
a(lp6219
F0.4
aaI40
aa(lp6220
I1
a(lp6221
F0.25
aaI36
aa(lp6222
I1
a(lp6223
F0.290323
aaI62
aa(lp6224
I1
a(lp6225
F0.253968
aaI63
aa(lp6226
I1
a(lp6227
F0.225806
aaI62
aa(lp6228
I1
a(lp6229
F0.21875
aaI64
aaa(lp6230
g5449
ag5450
a(lp6231
I1
a(lp6232
F0.384615
aaI52
aa(lp6233
I1
a(lp6234
F0.433333
aaI60
aa(lp6235
I1
a(lp6236
F0.333333
aaI45
aa(lp6237
I1
a(lp6238
F0.0
aaI42
aa(lp6239
I1
a(lp6240
F0.434783
aaI46
aa(lp6241
I1
a(lp6242
F0.333333
aaI36
aa(lp6243
I1
a(lp6244
F0.294118
aaI34
aa(lp6245
I1
a(lp6246
F0.318182
aaI44
aa(lp6247
I1
a(lp6248
F0.5
aaI72
aa(lp6249
I1
a(lp6250
F0.38806
aaI67
aa(lp6251
I1
a(lp6252
F0.428571
aaI70
aa(lp6253
I1
a(lp6254
F0.354167
aaI48
aa(lp6255
I1
a(lp6256
F0.276596
aaI47
aa(lp6257
I1
a(lp6258
F0.41791
aaI67
aa(lp6259
I1
a(lp6260
F0.407407
aaI54
aa(lp6261
I1
a(lp6262
F0.444444
aaI72
aa(lp6263
I1
a(lp6264
F0.5
aaI56
aa(lp6265
I1
a(lp6266
F0.492754
aaI69
aaa(lp6267
g5452
ag5453
aa(lp6268
g5461
ag5462
aa(lp6269
g5468
ag5469
aa(lp6270
g5471
ag5472
a(lp6271
I1
a(lp6272
F0.378378
aaI37
aa(lp6273
I1
a(lp6274
F0.428571
aaI77
aa(lp6275
I1
a(lp6276
F0.44
aaI75
aa(lp6277
I1
a(lp6278
F0.492537
aaI67
aa(lp6279
I1
a(lp6280
F0.222222
aaI36
aa(lp6281
I1
a(lp6282
F0.489796
aaI49
aa(lp6283
I1
a(lp6284
F0.214286
aaI42
aa(lp6285
I1
a(lp6286
F0.30303
aaI66
aa(lp6287
I1
a(lp6288
F0.355556
aaI45
aa(lp6289
I1
a(lp6290
F0.520833
aaI48
aa(lp6291
I1
a(lp6292
F0.458333
aaI48
aaa(lp6293
g5502
ag5503
aa(lp6294
g5505
ag5506
a(lp6295
I1
a(lp6296
F0.325
aaI40
aa(lp6297
I1
a(lp6298
F0.271429
aaI70
aa(lp6299
I1
a(lp6300
F0.485714
aaI70
aa(lp6301
I1
a(lp6302
F0.477273
aaI88
aa(lp6303
I1
a(lp6304
F0.493827
aaI81
aa(lp6305
I1
a(lp6306
F0.219512
aaI82
aa(lp6307
I1
a(lp6308
F0.207317
aaI82
aaa(lp6309
g5512
ag5513
aa(lp6310
g5515
ag5516
aa(lp6311
g5518
ag5519
aa(lp6312
g5521
ag5522
aa(lp6313
g5528
ag5529
aa(lp6314
g5535
ag5536
a(lp6315
I1
a(lp6316
F0.416667
aaI60
aaa(lp6317
g5538
ag5539
a(lp6318
I1
a(lp6319
F0.296296
aaI27
aa(lp6320
I1
a(lp6321
F0.264706
aaI34
aa(lp6322
I1
a(lp6323
F0.294118
aaI34
aa(lp6324
I1
a(lp6325
F0.40678
aaI59
aa(lp6326
I1
a(lp6327
F0.421053
aaI57
aa(lp6328
I1
a(lp6329
F0.433333
aaI60
aa(lp6330
I1
a(lp6331
F0.0
aaI45
aa(lp6332
I1
a(lp6333
F0.317073
aaI41
aaa(lp6334
g5605
ag5606
a(lp6335
I1
a(lp6336
F0.222222
aaI45
aa(lp6337
I1
a(lp6338
F0.418605
aaI43
aa(lp6339
I1
a(lp6340
F0.333333
aaI42
aa(lp6341
I1
a(lp6342
F0.285714
aaI42
aa(lp6343
I1
a(lp6344
F0.285714
aaI42
aa(lp6345
I1
a(lp6346
F0.282609
aaI46
aa(lp6347
I1
a(lp6348
F0.478261
aaI69
aa(lp6349
I1
a(lp6350
F0.5
aaI52
aa(lp6351
I1
a(lp6352
F0.232558
aaI43
aa(lp6353
I1
a(lp6354
F0.224138
aaI58
aa(lp6355
I1
a(lp6356
F0.384615
aaI52
aa(lp6357
I1
a(lp6358
F0.339286
aaI56
aa(lp6359
I1
a(lp6360
F0.301887
aaI53
aaa(lp6361
g5620
ag5621
aa(lp6362
g5623
ag5624
a(lp6363
I1
a(lp6364
F0.35443
aaI79
aa(lp6365
I1
a(lp6366
F0.377778
aaI45
aa(lp6367
I1
a(lp6368
F0.325
aaI40
aa(lp6369
I1
a(lp6370
F0.307692
aaI39
aaa(lp6371
g5628
ag5629
a(lp6372
I1
a(lp6373
F0.349398
aaI83
aa(lp6374
I1
a(lp6375
F0.243243
aaI37
aa(lp6376
I1
a(lp6377
F0.266667
aaI30
aa(lp6378
I1
a(lp6379
F0.333333
aaI21
aa(lp6380
I1
a(lp6381
F0.341463
aaI41
aa(lp6382
I1
a(lp6383
F0.341463
aaI41
aa(lp6384
I1
a(lp6385
F0.257143
aaI35
aa(lp6386
I1
a(lp6387
F0.315789
aaI38
aaa(lp6388
g5637
ag5638
aa(lp6389
g5658
ag5659
a(lp6390
I1
a(lp6391
F0.520548
aaI73
aaa(lp6392
g5661
ag5662
aa(lp6393
g5664
ag5665
a(lp6394
I1
a(lp6395
F0.202703
aaI74
aaa(lp6396
g5667
ag5668
a(lp6397
I1
a(lp6398
F0.210526
aaI38
aa(lp6399
I1
a(lp6400
F0.366667
aaI60
aa(lp6401
I1
a(lp6402
F0.275
aaI40
aa(lp6403
I1
a(lp6404
F0.357143
aaI42
aa(lp6405
I1
a(lp6406
F0.311111
aaI45
aa(lp6407
I1
a(lp6408
F0.302326
aaI43
aa(lp6409
I1
a(lp6410
F0.32
aaI50
aa(lp6411
I1
a(lp6412
F0.480519
aaI77
aa(lp6413
I1
a(lp6414
F0.463415
aaI82
aa(lp6415
I1
a(lp6416
F0.428571
aaI63
aa(lp6417
I1
a(lp6418
F0.484848
aaI66
aa(lp6419
I1
a(lp6420
F0.616667
aaI60
aaa(lp6421
g5714
ag5715
a(lp6422
I1
a(lp6423
F0.3
aaI40
aaa(lp6424
g5717
ag5718
aa(lp6425
g5720
ag5721
aa(lp6426
g5725
ag5726
aa(lp6427
g5732
ag5733
a(lp6428
I1
a(lp6429
F0.2
aaI30
aaa(lp6430
g5747
ag5748
aa(lp6431
g5760
ag5761
aa(lp6432
g5767
ag5768
a(lp6433
I1
a(lp6434
F0.375
aaI40
aa(lp6435
I1
a(lp6436
F0.225806
aaI31
aa(lp6437
I1
a(lp6438
F0.352941
aaI34
aa(lp6439
I1
a(lp6440
F0.323529
aaI34
aa(lp6441
I1
a(lp6442
F0.222222
aaI36
aaa(lp6443
g5770
ag5771
a(lp6444
I1
a(lp6445
F0.357143
aaI42
aaa(lp6446
g5773
ag5774
aa(lp6447
g5776
ag5777
a(lp6448
I1
a(lp6449
F0.255319
aaI47
aa(lp6450
I1
a(lp6451
F0.212766
aaI47
aa(lp6452
I1
a(lp6453
F0.208333
aaI48
aa(lp6454
I1
a(lp6455
F0.431034
aaI58
aa(lp6456
I1
a(lp6457
F0.2
aaI40
aaa(lp6458
g5789
ag5790
a(lp6459
I1
a(lp6460
F0.306667
aaI75
aaa(lp6461
g5792
ag5793
aa(lp6462
g5795
ag5796
aa(lp6463
g5820
ag5821
aa(lp6464
g5823
ag5824
a(lp6465
I1
a(lp6466
F0.528302
aaI53
aa(lp6467
I1
a(lp6468
F0.28125
aaI64
aa(lp6469
I1
a(lp6470
F0.241379
aaI58
aaa(lp6471
g5830
ag5831
aa(lp6472
g5833
ag5834
a(lp6473
I1
a(lp6474
F0.46875
aaI64
aaa(lp6475
g5836
ag5837
aa(lp6476
g5849
ag5850
aa(lp6477
g5852
ag5853
a(lp6478
I1
a(lp6479
F0.45283
aaI53
aa(lp6480
I1
a(lp6481
F0.421053
aaI57
aa(lp6482
I1
a(lp6483
F0.533333
aaI30
aa(lp6484
I1
a(lp6485
F0.461538
aaI52
aa(lp6486
I1
a(lp6487
F0.302326
aaI86
aaa(lp6488
g5855
ag5856
a(lp6489
I1
a(lp6490
F0.246914
aaI81
aa(lp6491
I1
a(lp6492
F0.221053
aaI95
aa(lp6493
I1
a(lp6494
F0.293478
aaI92
aa(lp6495
I1
a(lp6496
F0.20438
aaI137
aa(lp6497
I1
a(lp6498
F0.246575
aaI73
aa(lp6499
I1
a(lp6500
F0.454545
aaI66
aa(lp6501
I1
a(lp6502
F0.457627
aaI59
aa(lp6503
I1
a(lp6504
F0.423729
aaI59
aa(lp6505
I1
a(lp6506
F0.44898
aaI49
aaa(lp6507
g5858
ag5859
aa(lp6508
g5861
ag5862
aa(lp6509
g5866
ag5867
aa(lp6510
g5883
ag5884
aa(lp6511
g5886
ag5887
aa(lp6512
g5889
ag5890
a(lp6513
I1
a(lp6514
F0.244444
aaI45
aaa(lp6515
g5892
ag5893
a(lp6516
I1
a(lp6517
F0.45
aaI60
aaa(lp6518
g5921
ag5922
aa(lp6519
g5924
ag5925
a(lp6520
I1
a(lp6521
F0.530303
aaI66
aa(lp6522
I1
a(lp6523
F0.479452
aaI73
aa(lp6524
I1
a(lp6525
F0.474359
aaI78
aa(lp6526
I1
a(lp6527
F0.4625
aaI80
aa(lp6528
I1
a(lp6529
F0.320755
aaI53
aa(lp6530
I1
a(lp6531
F0.372881
aaI59
aa(lp6532
I1
a(lp6533
F0.261905
aaI42
aa(lp6534
I1
a(lp6535
F0.244444
aaI45
aa(lp6536
I1
a(lp6537
F0.26087
aaI46
aa(lp6538
I1
a(lp6539
F0.227273
aaI44
aa(lp6540
I1
a(lp6541
F0.38
aaI50
aa(lp6542
I1
a(lp6543
F0.536232
aaI69
aa(lp6544
I1
a(lp6545
F0.413793
aaI58
aa(lp6546
I1
a(lp6547
F0.388889
aaI54
aa(lp6548
I1
a(lp6549
F0.5625
aaI80
aaa(lp6550
g5939
ag5940
aa(lp6551
g5950
ag5951
a(lp6552
I1
a(lp6553
F0.219512
aaI41
aa(lp6554
I1
a(lp6555
F0.25
aaI44
aa(lp6556
I1
a(lp6557
F0.261905
aaI42
aa(lp6558
I1
a(lp6559
F0.236842
aaI38
aa(lp6560
I1
a(lp6561
F0.216216
aaI37
aa(lp6562
I1
a(lp6563
F0.295455
aaI44
aaa(lp6564
g5953
ag5954
a(lp6565
I1
a(lp6566
F0.466667
aaI60
aa(lp6567
I1
a(lp6568
F0.47541
aaI61
aa(lp6569
I1
a(lp6570
F0.2
aaI30
aa(lp6571
I1
a(lp6572
F0.285714
aaI42
aa(lp6573
I1
a(lp6574
F0.272727
aaI44
aa(lp6575
I1
a(lp6576
F0.265306
aaI49
aa(lp6577
I1
a(lp6578
F0.282051
aaI39
aa(lp6579
I1
a(lp6580
F0.216216
aaI37
aa(lp6581
I1
a(lp6582
F0.2
aaI40
aa(lp6583
I1
a(lp6584
F0.460317
aaI63
aaa(lp6585
g5972
ag5973
a(lp6586
I1
a(lp6587
F0.372881
aaI59
aa(lp6588
I1
a(lp6589
F0.507937
aaI63
aa(lp6590
I1
a(lp6591
F0.490196
aaI51
aa(lp6592
I1
a(lp6593
F0.555556
aaI54
aa(lp6594
I1
a(lp6595
F0.5
aaI48
aa(lp6596
I1
a(lp6597
F0.5
aaI46
aa(lp6598
I1
a(lp6599
F0.294118
aaI51
aaa(lp6600
g5975
ag5976
aa(lp6601
g5988
ag5989
aa(lp6602
g5991
ag5992
aa(lp6603
g5994
ag5995
a(lp6604
I1
a(lp6605
F0.322581
aaI62
aa(lp6606
I1
a(lp6607
F0.353846
aaI65
aa(lp6608
I1
a(lp6609
F0.393939
aaI66
aaa(lp6610
g5997
ag5998
aass.