(dp0
S'triploids'
p1
(dp2
S'down'
p3
(lp4
(lp5
S'scaffold361_cov52'
p6
aS'scaffold362_cov88'
p7
a(lp8
I1
a(lp9
F0.526316
aaI19
aa(lp10
I1
a(lp11
F0.222222
aaI9
aa(lp12
I1
a(lp13
F0.0
aaI2
aa(lp14
I1
a(lp15
F0.0
aaI5
aa(lp16
I1
a(lp17
F0.0
aaI2
aa(lp18
I1
a(lp19
F0.0
aaI2
aa(lp20
I1
a(lp21
F0.0
aaI3
aa(lp22
I1
a(lp23
F0.0
aaI3
aa(lp24
I1
a(lp25
F0.0
aaI4
aa(lp26
I1
a(lp27
F0.0
aaI5
aa(lp28
I1
a(lp29
F0.0
aaI2
aa(lp30
I1
a(lp31
F0.0
aaI7
aa(lp32
I1
a(lp33
F0.0
aaI2
aa(lp34
I1
a(lp35
F0.285714
aaI7
aa(lp36
I1
a(lp37
F0.857143
aaI7
aa(lp38
I1
a(lp39
F0.0
aaI8
aa(lp40
I1
a(lp41
F0.0
aaI8
aa(lp42
I1
a(lp43
F0.0
aaI9
aa(lp44
I1
a(lp45
F0.0
aaI9
aa(lp46
I1
a(lp47
F0.0
aaI7
aa(lp48
I1
a(lp49
F0.0
aaI8
aa(lp50
I1
a(lp51
F0.4
aaI10
aa(lp52
I1
a(lp53
F0.0
aaI5
aa(lp54
I1
a(lp55
F0.0
aaI2
aa(lp56
I1
a(lp57
F0.0
aaI3
aa(lp58
I1
a(lp59
F0.0
aaI3
aa(lp60
I1
a(lp61
F0.0
aaI2
aa(lp62
I1
a(lp63
F0.0
aaI6
aa(lp64
I1
a(lp65
F0.0
aaI7
aa(lp66
I1
a(lp67
F0.0
aaI6
aa(lp68
I1
a(lp69
F0.0
aaI4
aa(lp70
I1
a(lp71
F0.0
aaI8
aa(lp72
I1
a(lp73
F0.0
aaI12
aa(lp74
I1
a(lp75
F0.0
aaI8
aa(lp76
I1
a(lp77
F0.272727
aaI11
aa(lp78
I1
a(lp79
F0.2
aaI10
aa(lp80
I1
a(lp81
F0.0
aaI2
aaa(lp82
S'scaffold6010_cov62'
p83
aS'scaffold6032_cov86'
p84
a(lp85
I1
a(lp86
F0.0
aaI6
aa(lp87
I1
a(lp88
F0.0
aaI9
aa(lp89
I1
a(lp90
F0.0
aaI6
aa(lp91
I1
a(lp92
F0.0
aaI12
aa(lp93
I1
a(lp94
F0.0
aaI4
aa(lp95
I1
a(lp96
F0.0
aaI2
aa(lp97
I1
a(lp98
F0.0
aaI3
aa(lp99
I1
a(lp100
F0.0
aaI4
aa(lp101
I1
a(lp102
F0.0
aaI4
aa(lp103
I1
a(lp104
F0.0
aaI7
aa(lp105
I1
a(lp106
F0.0
aaI4
aa(lp107
I1
a(lp108
F0.0
aaI4
aa(lp109
I1
a(lp110
F0.0
aaI6
aa(lp111
I1
a(lp112
F0.0
aaI6
aa(lp113
I1
a(lp114
F0.25
aaI8
aa(lp115
I1
a(lp116
F0.222222
aaI9
aa(lp117
I1
a(lp118
F0.0
aaI5
aa(lp119
I1
a(lp120
F0.0
aaI7
aa(lp121
I1
a(lp122
F0.0
aaI6
aa(lp123
I1
a(lp124
F0.0
aaI10
aaa(lp125
S'scaffold14_cov100'
p126
aS'scaffold8499_cov57'
p127
aa(lp128
S'scaffold23346_cov53'
p129
aS'scaffold37470_cov151'
p130
aa(lp131
S'scaffold19386_cov101'
p132
aS'scaffold34060_cov96'
p133
a(lp134
I1
a(lp135
F0.214286
aaI14
aa(lp136
I1
a(lp137
F0.0
aaI7
aa(lp138
I1
a(lp139
F0.0
aaI8
aa(lp140
I1
a(lp141
F0.0
aaI5
aa(lp142
I1
a(lp143
F0.0
aaI4
aaa(lp144
S'scaffold20051_cov88'
p145
aS'scaffold16801_cov94'
p146
aa(lp147
S'scaffold9366_cov65'
p148
aS'scaffold32_cov80'
p149
a(lp150
I1
a(lp151
F0.0
aaI2
aaa(lp152
S'scaffold8637_cov48'
p153
aS'scaffold5664_cov97'
p154
a(lp155
I1
a(lp156
F0.0
aaI11
aaa(lp157
S'scaffold9935_cov102'
p158
aS'scaffold15216_cov95'
p159
a(lp160
I1
a(lp161
F0.363636
aaI11
aa(lp162
I1
a(lp163
F0.3
aaI10
aaa(lp164
S'scaffold1307_cov71'
p165
aS'scaffold1778_cov83'
p166
aa(lp167
S'scaffold6515_cov62'
p168
aS'scaffold146_cov83'
p169
a(lp170
I1
a(lp171
F0.0
aaI5
aa(lp172
I1
a(lp173
F0.0
aaI2
aaa(lp174
S'scaffold37339_cov109'
p175
aS'scaffold7846_cov55'
p176
aa(lp177
S'scaffold3621_cov101'
p178
aS'scaffold3183_cov139'
p179
aa(lp180
S'scaffold18737_cov72'
p181
aS'scaffold38243_cov111'
p182
a(lp183
I1
a(lp184
F0.0
aaI13
aaa(lp185
S'scaffold12434_cov50'
p186
aS'scaffold8329_cov54'
p187
aa(lp188
S'scaffold5119_cov50'
p189
aS'scaffold5118_cov85'
p190
a(lp191
I1
a(lp192
F1.0
aaI3
aa(lp193
I1
a(lp194
F0.0
aaI4
aa(lp195
I1
a(lp196
F0.0
aaI3
aa(lp197
I1
a(lp198
F0.0
aaI2
aa(lp199
I1
a(lp200
F0.0
aaI2
aa(lp201
I1
a(lp202
F0.0
aaI6
aa(lp203
I1
a(lp204
F0.5
aaI14
aa(lp205
I1
a(lp206
F0.888889
aaI9
aa(lp207
I1
a(lp208
F0.25
aaI8
aa(lp209
I1
a(lp210
F0.0
aaI5
aa(lp211
I1
a(lp212
F0.6
aaI5
aa(lp213
I1
a(lp214
F0.333333
aaI6
aa(lp215
I1
a(lp216
F0.454545
aaI11
aa(lp217
I1
a(lp218
F0.454545
aaI11
aaa(lp219
S'scaffold174_cov95'
p220
aS'scaffold1036_cov100'
p221
a(lp222
I1
a(lp223
F0.0
aaI6
aaa(lp224
S'scaffold878_cov66'
p225
aS'scaffold37758_cov123'
p226
aa(lp227
S'scaffold8360_cov69'
p228
aS'scaffold2212_cov51'
p229
a(lp230
I1
a(lp231
F0.0
aaI15
aa(lp232
I1
a(lp233
F0.333333
aaI6
aa(lp234
I1
a(lp235
F0.222222
aaI9
aaa(lp236
S'scaffold11244_cov56'
p237
aS'scaffold7401_cov60'
p238
a(lp239
I1
a(lp240
F0.0
aaI2
aa(lp241
I1
a(lp242
F0.0
aaI2
aa(lp243
I1
a(lp244
F0.0
aaI2
aaa(lp245
S'scaffold4328_cov64'
p246
aS'scaffold4094_cov85'
p247
a(lp248
I1
a(lp249
F0.0
aaI5
aa(lp250
I1
a(lp251
F0.0
aaI4
aa(lp252
I1
a(lp253
F0.0
aaI2
aa(lp254
I1
a(lp255
F0.0
aaI11
aa(lp256
I1
a(lp257
F0.0
aaI9
aa(lp258
I1
a(lp259
F0.0
aaI4
aa(lp260
I1
a(lp261
F0.0
aaI10
aa(lp262
I1
a(lp263
F0.0
aaI9
aa(lp264
I1
a(lp265
F0.0
aaI8
aa(lp266
I1
a(lp267
F0.0
aaI3
aa(lp268
I1
a(lp269
F0.0
aaI3
aa(lp270
I1
a(lp271
F0.0
aaI3
aa(lp272
I1
a(lp273
F0.0
aaI3
aaa(lp274
S'scaffold687_cov68'
p275
aS'scaffold5823_cov93'
p276
aa(lp277
S'scaffold6252_cov63'
p278
aS'scaffold9548_cov63'
p279
aa(lp280
S'scaffold26400_cov107'
p281
aS'scaffold26402_cov46'
p282
aa(lp283
S'scaffold41142_cov161'
p284
aS'scaffold28921_cov145'
p285
aa(lp286
S'scaffold5328_cov53'
p287
aS'scaffold5663_cov69'
p288
a(lp289
I1
a(lp290
F0.277778
aaI18
aa(lp291
I1
a(lp292
F0.380952
aaI21
aa(lp293
I1
a(lp294
F0.0
aaI2
aaa(lp295
S'scaffold497_cov71'
p296
aS'scaffold35984_cov60'
p297
a(lp298
I1
a(lp299
F0.0
aaI10
aa(lp300
I1
a(lp301
F0.0
aaI11
aa(lp302
I1
a(lp303
F0.0
aaI9
aa(lp304
I1
a(lp305
F0.636364
aaI11
aa(lp306
I1
a(lp307
F0.363636
aaI11
aa(lp308
I1
a(lp309
F0.363636
aaI11
aaa(lp310
S'scaffold1537_cov77'
p311
aS'scaffold772_cov56'
p312
a(lp313
I1
a(lp314
F0.2
aaI20
aa(lp315
I1
a(lp316
F0.0
aaI19
aaa(lp317
S'scaffold1673_cov68'
p318
aS'scaffold1672_cov57'
p319
a(lp320
I1
a(lp321
F0.0
aaI4
aaa(lp322
S'scaffold35008_cov71'
p323
aS'scaffold617_cov62'
p324
a(lp325
I1
a(lp326
F0.0
aaI2
aa(lp327
I1
a(lp328
F0.384615
aaI13
aaa(lp329
S'scaffold846_cov98'
p330
aS'scaffold13232_cov62'
p331
a(lp332
I1
a(lp333
F0.4
aaI5
aaa(lp334
S'scaffold16656_cov56'
p335
aS'scaffold1461_cov54'
p336
aa(lp337
S'scaffold36443_cov67'
p338
aS'scaffold10198_cov57'
p339
a(lp340
I1
a(lp341
F0.2
aaI10
aa(lp342
I1
a(lp343
F0.2
aaI10
aa(lp344
I1
a(lp345
F0.2
aaI10
aa(lp346
I1
a(lp347
F0.2
aaI10
aa(lp348
I1
a(lp349
F0.25
aaI8
aa(lp350
I1
a(lp351
F0.25
aaI12
aa(lp352
I1
a(lp353
F0.263158
aaI19
aa(lp354
I1
a(lp355
F0.0
aaI16
aa(lp356
I1
a(lp357
F0.25
aaI16
aa(lp358
I1
a(lp359
F0.25
aaI16
aa(lp360
I1
a(lp361
F0.333333
aaI15
aaa(lp362
S'scaffold2530_cov71'
p363
aS'scaffold12036_cov77'
p364
a(lp365
I1
a(lp366
F0.0
aaI11
aaa(lp367
S'scaffold10537_cov54'
p368
aS'scaffold33286_cov88'
p369
aa(lp370
S'scaffold28403_cov55'
p371
aS'scaffold3719_cov93'
p372
a(lp373
I1
a(lp374
F0.352941
aaI17
aa(lp375
I1
a(lp376
F0.0
aaI4
aa(lp377
I1
a(lp378
F0.75
aaI4
aa(lp379
I1
a(lp380
F0.0
aaI3
aa(lp381
I1
a(lp382
F0.0
aaI4
aaa(lp383
S'scaffold20937_cov59'
p384
aS'scaffold7528_cov114'
p385
aa(lp386
S'scaffold19259_cov55'
p387
aS'scaffold16506_cov55'
p388
a(lp389
I1
a(lp390
F0.25
aaI8
aa(lp391
I1
a(lp392
F0.333333
aaI6
aaa(lp393
S'scaffold6959_cov64'
p394
aS'scaffold52619_cov115'
p395
aa(lp396
S'scaffold8059_cov49'
p397
aS'scaffold30712_cov54'
p398
aa(lp399
S'scaffold46292_cov180'
p400
aS'scaffold44255_cov165'
p401
aa(lp402
S'scaffold7470_cov77'
p403
aS'scaffold5211_cov57'
p404
aa(lp405
S'scaffold57_cov62'
p406
aS'scaffold10002_cov126'
p407
aa(lp408
S'scaffold40182_cov165'
p409
aS'scaffold2317_cov61'
p410
aa(lp411
S'scaffold24311_cov69'
p412
aS'scaffold138_cov63'
p413
a(lp414
I1
a(lp415
F0.285714
aaI7
aa(lp416
I1
a(lp417
F0.0
aaI5
aaa(lp418
S'scaffold507_cov73'
p419
aS'scaffold9133_cov84'
p420
aa(lp421
S'scaffold12788_cov56'
p422
aS'scaffold34228_cov83'
p423
a(lp424
I1
a(lp425
F0.0
aaI2
aa(lp426
I1
a(lp427
F0.0
aaI5
aa(lp428
I1
a(lp429
F0.0
aaI2
aa(lp430
I1
a(lp431
F0.0
aaI2
aaa(lp432
S'scaffold11587_cov65'
p433
aS'scaffold3118_cov72'
p434
aa(lp435
S'scaffold36090_cov104'
p436
aS'scaffold33623_cov60'
p437
aa(lp438
S'scaffold11940_cov99'
p439
aS'scaffold607_cov59'
p440
aa(lp441
S'scaffold3771_cov131'
p442
aS'scaffold487_cov56'
p443
aa(lp444
S'scaffold4668_cov92'
p445
aS'scaffold35981_cov85'
p446
aa(lp447
S'scaffold13336_cov75'
p448
aS'scaffold5700_cov54'
p449
aa(lp450
S'scaffold1671_cov114'
p451
aS'scaffold16650_cov62'
p452
aa(lp453
S'scaffold5768_cov48'
p454
aS'scaffold23308_cov74'
p455
a(lp456
I1
a(lp457
F0.0
aaI2
aa(lp458
I1
a(lp459
F0.0
aaI2
aaa(lp460
S'scaffold2786_cov74'
p461
aS'scaffold2945_cov79'
p462
a(lp463
I1
a(lp464
F0.0
aaI3
aaa(lp465
S'scaffold7573_cov53'
p466
aS'scaffold7572_cov84'
p467
a(lp468
I1
a(lp469
F0.0
aaI2
aa(lp470
I1
a(lp471
F0.0
aaI2
aa(lp472
I1
a(lp473
F0.0
aaI7
aa(lp474
I1
a(lp475
F0.2
aaI10
aa(lp476
I1
a(lp477
F0.222222
aaI9
aaa(lp478
S'scaffold9331_cov54'
p479
aS'scaffold6021_cov51'
p480
aa(lp481
S'scaffold5817_cov105'
p482
aS'scaffold480_cov57'
p483
aa(lp484
S'scaffold713_cov67'
p485
aS'scaffold15659_cov85'
p486
a(lp487
I1
a(lp488
F0.333333
aaI9
aa(lp489
I1
a(lp490
F0.0
aaI13
aa(lp491
I1
a(lp492
F0.875
aaI8
aa(lp493
I1
a(lp494
F0.0
aaI12
aaa(lp495
S'scaffold27913_cov149'
p496
aS'scaffold565_cov58'
p497
aa(lp498
S'scaffold1828_cov67'
p499
aS'scaffold608_cov87'
p500
aa(lp501
S'scaffold3646_cov69'
p502
aS'scaffold10188_cov85'
p503
a(lp504
I1
a(lp505
F0.0
aaI4
aa(lp506
I1
a(lp507
F0.0
aaI2
aa(lp508
I1
a(lp509
F0.0
aaI2
aa(lp510
I1
a(lp511
F0.0
aaI2
aa(lp512
I1
a(lp513
F0.666667
aaI3
aa(lp514
I1
a(lp515
F0.0
aaI3
aa(lp516
I1
a(lp517
F0.0
aaI2
aa(lp518
I1
a(lp519
F0.0
aaI2
aaa(lp520
S'scaffold2393_cov71'
p521
aS'scaffold1040_cov63'
p522
a(lp523
I1
a(lp524
F0.0
aaI6
aaa(lp525
S'scaffold15420_cov62'
p526
aS'scaffold6640_cov57'
p527
a(lp528
I1
a(lp529
F0.0
aaI10
aa(lp530
I1
a(lp531
F0.2
aaI10
aa(lp532
I1
a(lp533
F0.222222
aaI9
aaa(lp534
S'scaffold17407_cov65'
p535
aS'scaffold9695_cov86'
p536
aa(lp537
S'scaffold14528_cov78'
p538
aS'scaffold7703_cov52'
p539
a(lp540
I1
a(lp541
F0.0
aaI12
aa(lp542
I1
a(lp543
F0.333333
aaI6
aa(lp544
I1
a(lp545
F0.0
aaI5
aaa(lp546
S'scaffold1670_cov61'
p547
aS'scaffold35197_cov159'
p548
aa(lp549
S'scaffold3247_cov88'
p550
aS'scaffold33782_cov98'
p551
a(lp552
I1
a(lp553
F0.0
aaI2
aa(lp554
I1
a(lp555
F0.0
aaI2
aa(lp556
I1
a(lp557
F0.0
aaI2
aa(lp558
I1
a(lp559
F0.0
aaI3
aa(lp560
I1
a(lp561
F0.0
aaI4
aa(lp562
I1
a(lp563
F0.666667
aaI3
aa(lp564
I1
a(lp565
F0.666667
aaI3
aa(lp566
I1
a(lp567
F0.666667
aaI3
aa(lp568
I1
a(lp569
F0.0
aaI2
aa(lp570
I1
a(lp571
F0.0
aaI5
aa(lp572
I1
a(lp573
F0.0
aaI3
aaa(lp574
S'scaffold33702_cov55'
p575
aS'scaffold1281_cov80'
p576
a(lp577
I1
a(lp578
F0.210526
aaI19
aa(lp579
I1
a(lp580
F0.411765
aaI17
aa(lp581
I1
a(lp582
F0.0
aaI3
aa(lp583
I1
a(lp584
F0.0
aaI3
aa(lp585
I1
a(lp586
F0.777778
aaI9
aa(lp587
I1
a(lp588
F0.333333
aaI12
aa(lp589
I2
a(lp590
F0.363636
aF0.272727
aaI11
aa(lp591
I1
a(lp592
F0.25
aaI12
aa(lp593
I1
a(lp594
F0.272727
aaI11
aa(lp595
I1
a(lp596
F0.333333
aaI12
aa(lp597
I1
a(lp598
F0.384615
aaI13
aa(lp599
I1
a(lp600
F0.25
aaI12
aa(lp601
I1
a(lp602
F0.25
aaI12
aa(lp603
I1
a(lp604
F0.272727
aaI11
aa(lp605
I1
a(lp606
F0.333333
aaI9
aa(lp607
I1
a(lp608
F0.333333
aaI9
aa(lp609
I1
a(lp610
F0.5
aaI6
aa(lp611
I1
a(lp612
F0.375
aaI8
aa(lp613
I1
a(lp614
F0.0
aaI2
aa(lp615
I1
a(lp616
F0.666667
aaI3
aa(lp617
I1
a(lp618
F0.0
aaI3
aa(lp619
I1
a(lp620
F0.0
aaI10
aaa(lp621
S'scaffold4034_cov67'
p622
aS'scaffold866_cov53'
p623
a(lp624
I1
a(lp625
F0.0
aaI6
aa(lp626
I1
a(lp627
F0.0
aaI2
aa(lp628
I1
a(lp629
F0.0
aaI2
aa(lp630
I1
a(lp631
F0.0
aaI2
aa(lp632
I1
a(lp633
F0.0
aaI3
aa(lp634
I1
a(lp635
F0.0
aaI3
aa(lp636
I1
a(lp637
F0.0
aaI3
aa(lp638
I1
a(lp639
F0.0
aaI2
aa(lp640
I1
a(lp641
F0.0
aaI2
aa(lp642
I1
a(lp643
F0.0
aaI3
aa(lp644
I1
a(lp645
F0.5
aaI4
aa(lp646
I1
a(lp647
F0.5
aaI4
aaa(lp648
S'scaffold34231_cov91'
p649
aS'scaffold39009_cov103'
p650
aa(lp651
S'scaffold35_cov50'
p652
aS'scaffold34360_cov143'
p653
aa(lp654
S'scaffold4544_cov85'
p655
aS'scaffold30472_cov70'
p656
aa(lp657
S'scaffold5777_cov82'
p658
aS'scaffold6784_cov56'
p659
aa(lp660
S'scaffold23743_cov66'
p661
aS'scaffold10910_cov53'
p662
a(lp663
I1
a(lp664
F0.375
aaI8
aaa(lp665
S'scaffold15690_cov108'
p666
aS'scaffold36775_cov68'
p667
a(lp668
I1
a(lp669
F0.222222
aaI9
aa(lp670
I1
a(lp671
F0.0
aaI8
aa(lp672
I1
a(lp673
F0.0
aaI6
aa(lp674
I2
a(lp675
F0.214286
aF0.214286
aaI14
aa(lp676
I1
a(lp677
F0.538462
aaI13
aa(lp678
I1
a(lp679
F0.266667
aaI15
aaa(lp680
S'scaffold1933_cov76'
p681
aS'scaffold826_cov79'
p682
a(lp683
I1
a(lp684
F0.0
aaI6
aa(lp685
I1
a(lp686
F0.0
aaI7
aa(lp687
I1
a(lp688
F0.0
aaI7
aa(lp689
I1
a(lp690
F0.0
aaI9
aa(lp691
I1
a(lp692
F0.0
aaI9
aa(lp693
I1
a(lp694
F0.0
aaI6
aa(lp695
I1
a(lp696
F0.0
aaI7
aa(lp697
I1
a(lp698
F0.0
aaI6
aa(lp699
I1
a(lp700
F0.0
aaI3
aa(lp701
I1
a(lp702
F0.0
aaI8
aa(lp703
I1
a(lp704
F0.0
aaI4
aaa(lp705
S'scaffold35970_cov109'
p706
aS'scaffold7217_cov99'
p707
aa(lp708
S'scaffold7766_cov56'
p709
aS'scaffold8073_cov71'
p710
aa(lp711
S'scaffold8487_cov70'
p712
aS'scaffold1201_cov53'
p713
a(lp714
I1
a(lp715
F0.315789
aaI19
aa(lp716
I1
a(lp717
F0.272727
aaI11
aa(lp718
I1
a(lp719
F0.375
aaI8
aa(lp720
I1
a(lp721
F0.388889
aaI18
aa(lp722
I1
a(lp723
F0.44
aaI25
aaa(lp724
S'scaffold1740_cov88'
p725
aS'scaffold19477_cov64'
p726
a(lp727
I1
a(lp728
F0.611111
aaI18
aa(lp729
I1
a(lp730
F0.3125
aaI16
aa(lp731
I1
a(lp732
F0.25
aaI20
aa(lp733
I1
a(lp734
F0.6875
aaI16
aa(lp735
I1
a(lp736
F0.363636
aaI11
aa(lp737
I1
a(lp738
F0.285714
aaI7
aa(lp739
I1
a(lp740
F0.25
aaI8
aa(lp741
I1
a(lp742
F0.25
aaI8
aa(lp743
I1
a(lp744
F0.230769
aaI13
aa(lp745
I1
a(lp746
F0.333333
aaI12
aa(lp747
I1
a(lp748
F0.363636
aaI11
aa(lp749
I1
a(lp750
F0.230769
aaI13
aa(lp751
I1
a(lp752
F0.235294
aaI17
aa(lp753
I1
a(lp754
F0.235294
aaI17
aa(lp755
I1
a(lp756
F0.285714
aaI21
aa(lp757
I1
a(lp758
F0.3
aaI20
aa(lp759
I1
a(lp760
F0.25
aaI16
aa(lp761
I1
a(lp762
F0.3125
aaI16
aa(lp763
I1
a(lp764
F0.3125
aaI16
aa(lp765
I1
a(lp766
F0.421053
aaI19
aa(lp767
I1
a(lp768
F0.470588
aaI17
aa(lp769
I1
a(lp770
F0.5
aaI28
aa(lp771
I1
a(lp772
F0.333333
aaI27
aaa(lp773
S'scaffold874_cov68'
p774
aS'scaffold6317_cov51'
p775
aa(lp776
S'scaffold3440_cov56'
p777
aS'scaffold582_cov57'
p778
a(lp779
I1
a(lp780
F0.0
aaI3
aa(lp781
I1
a(lp782
F0.0
aaI2
aa(lp783
I1
a(lp784
F0.0
aaI2
aa(lp785
I1
a(lp786
F0.0
aaI2
aa(lp787
I1
a(lp788
F0.0
aaI2
aa(lp789
I1
a(lp790
F0.0
aaI6
aa(lp791
I1
a(lp792
F0.25
aaI12
aaa(lp793
S'scaffold7406_cov97'
p794
aS'scaffold4048_cov55'
p795
a(lp796
I1
a(lp797
F0.222222
aaI9
aa(lp798
I1
a(lp799
F0.333333
aaI15
aaa(lp800
S'scaffold10506_cov79'
p801
aS'scaffold5498_cov103'
p802
a(lp803
I1
a(lp804
F0.8
aaI5
aa(lp805
I1
a(lp806
F0.0
aaI4
aa(lp807
I1
a(lp808
F0.0
aaI3
aaa(lp809
S'scaffold5487_cov69'
p810
aS'scaffold7228_cov62'
p811
aa(lp812
S'scaffold11140_cov73'
p813
aS'scaffold5096_cov57'
p814
aa(lp815
S'scaffold7575_cov56'
p816
aS'scaffold7234_cov93'
p817
aa(lp818
S'scaffold1774_cov51'
p819
aS'scaffold707_cov65'
p820
a(lp821
I1
a(lp822
F0.0
aaI4
aa(lp823
I1
a(lp824
F0.0
aaI3
aa(lp825
I1
a(lp826
F0.0
aaI3
aa(lp827
I1
a(lp828
F0.0
aaI2
aa(lp829
I1
a(lp830
F0.0
aaI3
aa(lp831
I1
a(lp832
F0.0
aaI4
aa(lp833
I1
a(lp834
F0.0
aaI4
aa(lp835
I1
a(lp836
F0.0
aaI4
aa(lp837
I1
a(lp838
F0.0
aaI3
aa(lp839
I1
a(lp840
F0.0
aaI3
aa(lp841
I1
a(lp842
F0.0
aaI2
aa(lp843
I1
a(lp844
F0.333333
aaI9
aa(lp845
I1
a(lp846
F0.5
aaI8
aa(lp847
I1
a(lp848
F0.5
aaI8
aa(lp849
I1
a(lp850
F0.428571
aaI7
aa(lp851
I1
a(lp852
F0.285714
aaI7
aaa(lp853
S'scaffold10758_cov137'
p854
aS'scaffold1943_cov61'
p855
aa(lp856
S'scaffold23544_cov102'
p857
aS'scaffold6429_cov65'
p858
a(lp859
I1
a(lp860
F0.0
aaI14
aa(lp861
I1
a(lp862
F0.0
aaI15
aa(lp863
I1
a(lp864
F0.0
aaI13
aaa(lp865
S'scaffold8941_cov89'
p866
aS'scaffold3688_cov96'
p867
a(lp868
I1
a(lp869
F0.277778
aaI18
aa(lp870
I1
a(lp871
F0.25
aaI16
aa(lp872
I1
a(lp873
F0.307692
aaI13
aa(lp874
I1
a(lp875
F0.0
aaI11
aaa(lp876
S'scaffold36297_cov113'
p877
aS'scaffold35963_cov95'
p878
a(lp879
I1
a(lp880
F0.0
aaI3
aa(lp881
I1
a(lp882
F0.0
aaI2
aa(lp883
I1
a(lp884
F0.0
aaI3
aa(lp885
I1
a(lp886
F0.0
aaI3
aa(lp887
I1
a(lp888
F0.75
aaI4
aa(lp889
I1
a(lp890
F0.0
aaI9
aaa(lp891
S'scaffold28236_cov103'
p892
aS'scaffold22301_cov147'
p893
aa(lp894
S'scaffold16639_cov75'
p895
aS'scaffold2248_cov58'
p896
a(lp897
I1
a(lp898
F0.0
aaI13
aa(lp899
I1
a(lp900
F0.222222
aaI9
aaa(lp901
S'scaffold29903_cov123'
p902
aS'scaffold33612_cov72'
p903
aa(lp904
S'scaffold21922_cov80'
p905
aS'scaffold34278_cov88'
p906
a(lp907
I1
a(lp908
F0.0
aaI10
aa(lp909
I1
a(lp910
F0.0
aaI17
aa(lp911
I1
a(lp912
F0.0
aaI10
aa(lp913
I1
a(lp914
F0.0
aaI11
aa(lp915
I1
a(lp916
F0.0
aaI11
aa(lp917
I1
a(lp918
F0.0
aaI10
aa(lp919
I1
a(lp920
F0.0
aaI8
aa(lp921
I1
a(lp922
F0.0
aaI9
aa(lp923
I1
a(lp924
F0.222222
aaI9
aa(lp925
I1
a(lp926
F0.0
aaI5
aa(lp927
I1
a(lp928
F0.666667
aaI3
aa(lp929
I1
a(lp930
F0.0
aaI2
aa(lp931
I1
a(lp932
F0.0
aaI2
aa(lp933
I1
a(lp934
F0.0
aaI11
aaa(lp935
S'scaffold9543_cov100'
p936
aS'scaffold11533_cov113'
p937
a(lp938
I1
a(lp939
F0.0
aaI10
aa(lp940
I1
a(lp941
F0.222222
aaI9
aaa(lp942
S'scaffold35156_cov134'
p943
aS'scaffold720_cov51'
p944
aa(lp945
S'scaffold827_cov76'
p946
aS'scaffold3365_cov65'
p947
a(lp948
I1
a(lp949
F0.0
aaI7
aa(lp950
I1
a(lp951
F0.0
aaI4
aa(lp952
I1
a(lp953
F0.0
aaI6
aaa(lp954
S'scaffold34599_cov98'
p955
aS'scaffold10866_cov51'
p956
a(lp957
I1
a(lp958
F0.0
aaI2
aa(lp959
I1
a(lp960
F0.0
aaI2
aaa(lp961
S'scaffold8638_cov55'
p962
aS'scaffold7200_cov64'
p963
a(lp964
I1
a(lp965
F0.0
aaI3
aa(lp966
I1
a(lp967
F0.0
aaI3
aaa(lp968
S'scaffold2587_cov45'
p969
aS'scaffold1950_cov58'
p970
a(lp971
I1
a(lp972
F0.2
aaI15
aa(lp973
I1
a(lp974
F0.214286
aaI14
aa(lp975
I1
a(lp976
F0.666667
aaI12
aa(lp977
I1
a(lp978
F0.214286
aaI14
aa(lp979
I1
a(lp980
F0.0
aaI2
aa(lp981
I1
a(lp982
F0.0
aaI6
aa(lp983
I1
a(lp984
F0.0
aaI8
aa(lp985
I1
a(lp986
F0.0
aaI9
aa(lp987
I1
a(lp988
F0.0
aaI9
aa(lp989
I1
a(lp990
F0.0
aaI8
aa(lp991
I1
a(lp992
F0.0
aaI7
aa(lp993
I1
a(lp994
F0.0
aaI3
aa(lp995
I1
a(lp996
F0.0
aaI4
aa(lp997
I1
a(lp998
F0.0
aaI4
aa(lp999
I1
a(lp1000
F0.0
aaI3
aa(lp1001
I1
a(lp1002
F0.0
aaI15
aa(lp1003
I1
a(lp1004
F0.0
aaI8
aa(lp1005
I1
a(lp1006
F0.0
aaI8
aaa(lp1007
S'scaffold4478_cov57'
p1008
aS'scaffold3303_cov130'
p1009
a(lp1010
I1
a(lp1011
F0.666667
aaI3
aa(lp1012
I1
a(lp1013
F0.5
aaI4
aaa(lp1014
S'scaffold1455_cov53'
p1015
aS'scaffold8021_cov59'
p1016
aa(lp1017
S'scaffold6478_cov57'
p1018
aS'scaffold16314_cov97'
p1019
aa(lp1020
S'scaffold3443_cov80'
p1021
aS'scaffold2211_cov55'
p1022
a(lp1023
I1
a(lp1024
F0.4
aaI20
aa(lp1025
I1
a(lp1026
F0.2
aaI20
aa(lp1027
I1
a(lp1028
F0.315789
aaI19
aa(lp1029
I1
a(lp1030
F0.352941
aaI17
aa(lp1031
I1
a(lp1032
F0.333333
aaI15
aaa(lp1033
S'scaffold7965_cov102'
p1034
aS'scaffold36789_cov57'
p1035
a(lp1036
I1
a(lp1037
F0.222222
aaI9
aa(lp1038
I1
a(lp1039
F0.222222
aaI9
aa(lp1040
I1
a(lp1041
F0.2
aaI10
aaa(lp1042
S'scaffold3742_cov92'
p1043
aS'scaffold33263_cov56'
p1044
aa(lp1045
S'scaffold5955_cov136'
p1046
aS'scaffold13833_cov52'
p1047
a(lp1048
I1
a(lp1049
F0.222222
aaI9
aaa(lp1050
S'scaffold9707_cov86'
p1051
aS'scaffold2016_cov55'
p1052
aa(lp1053
S'scaffold8082_cov74'
p1054
aS'scaffold12811_cov99'
p1055
a(lp1056
I1
a(lp1057
F0.538462
aaI13
aa(lp1058
I1
a(lp1059
F0.0
aaI18
aa(lp1060
I1
a(lp1061
F0.0
aaI16
aa(lp1062
I1
a(lp1063
F0.722222
aaI18
aa(lp1064
I1
a(lp1065
F0.333333
aaI9
aa(lp1066
I1
a(lp1067
F0.333333
aaI9
aa(lp1068
I1
a(lp1069
F0.0
aaI9
aa(lp1070
I1
a(lp1071
F0.0
aaI18
aa(lp1072
I1
a(lp1073
F0.846154
aaI13
aa(lp1074
I1
a(lp1075
F0.0
aaI6
aaa(lp1076
S'scaffold2676_cov98'
p1077
aS'scaffold1670_cov61'
p1078
a(lp1079
I1
a(lp1080
F0.333333
aaI12
aa(lp1081
I1
a(lp1082
F0.5
aaI12
aa(lp1083
I1
a(lp1084
F0.333333
aaI9
aa(lp1085
I1
a(lp1086
F0.285714
aaI7
aa(lp1087
I1
a(lp1088
F0.25
aaI8
aa(lp1089
I1
a(lp1090
F0.222222
aaI9
aa(lp1091
I1
a(lp1092
F0.25
aaI8
aa(lp1093
I1
a(lp1094
F0.25
aaI8
aa(lp1095
I1
a(lp1096
F0.428571
aaI7
aa(lp1097
I1
a(lp1098
F0.3
aaI10
aaa(lp1099
S'scaffold144_cov60'
p1100
aS'scaffold36050_cov70'
p1101
aa(lp1102
S'scaffold161_cov85'
p1103
aS'scaffold6173_cov81'
p1104
aa(lp1105
S'scaffold10735_cov120'
p1106
aS'scaffold15562_cov57'
p1107
aa(lp1108
S'scaffold5970_cov74'
p1109
aS'scaffold12766_cov71'
p1110
aa(lp1111
S'scaffold20490_cov67'
p1112
aS'scaffold767_cov66'
p1113
a(lp1114
I1
a(lp1115
F0.0
aaI4
aa(lp1116
I1
a(lp1117
F0.0
aaI5
aa(lp1118
I1
a(lp1119
F0.0
aaI4
aa(lp1120
I1
a(lp1121
F0.0
aaI5
aaa(lp1122
S'scaffold14430_cov83'
p1123
aS'scaffold24509_cov66'
p1124
a(lp1125
I1
a(lp1126
F0.0
aaI3
aaa(lp1127
S'scaffold17734_cov54'
p1128
aS'scaffold4093_cov55'
p1129
a(lp1130
I1
a(lp1131
F0.2
aaI10
aa(lp1132
I1
a(lp1133
F0.2
aaI15
aa(lp1134
I1
a(lp1135
F0.25
aaI12
aaa(lp1136
S'scaffold4097_cov96'
p1137
aS'scaffold1525_cov58'
p1138
a(lp1139
I1
a(lp1140
F0.222222
aaI9
aa(lp1141
I1
a(lp1142
F0.783784
aaI37
aa(lp1143
I1
a(lp1144
F0.25
aaI12
aa(lp1145
I1
a(lp1146
F0.230769
aaI13
aa(lp1147
I1
a(lp1148
F0.230769
aaI13
aaa(lp1149
S'scaffold33949_cov53'
p1150
aS'scaffold55_cov132'
p1151
aa(lp1152
S'scaffold8059_cov49'
p1153
aS'scaffold21076_cov99'
p1154
aa(lp1155
S'scaffold33245_cov72'
p1156
aS'scaffold2355_cov59'
p1157
a(lp1158
I1
a(lp1159
F0.25
aaI12
aa(lp1160
I1
a(lp1161
F0.222222
aaI9
aa(lp1162
I1
a(lp1163
F0.0
aaI10
aa(lp1164
I1
a(lp1165
F0.222222
aaI9
aaa(lp1166
S'scaffold34175_cov92'
p1167
aS'scaffold35057_cov143'
p1168
a(lp1169
I1
a(lp1170
F0.0
aaI9
aa(lp1171
I1
a(lp1172
F0.0
aaI5
aa(lp1173
I1
a(lp1174
F0.0
aaI2
aa(lp1175
I1
a(lp1176
F0.0
aaI3
aa(lp1177
I1
a(lp1178
F0.0
aaI3
aa(lp1179
I1
a(lp1180
F0.0
aaI2
aa(lp1181
I1
a(lp1182
F0.0
aaI2
aa(lp1183
I1
a(lp1184
F0.0
aaI2
aa(lp1185
I1
a(lp1186
F0.0
aaI2
aaa(lp1187
S'scaffold9871_cov55'
p1188
aS'scaffold3224_cov53'
p1189
a(lp1190
I1
a(lp1191
F0.0
aaI2
aa(lp1192
I1
a(lp1193
F0.0
aaI4
aa(lp1194
I1
a(lp1195
F0.0
aaI6
aaa(lp1196
S'scaffold1390_cov116'
p1197
aS'scaffold4621_cov57'
p1198
a(lp1199
I1
a(lp1200
F0.538462
aaI13
aa(lp1201
I1
a(lp1202
F0.5
aaI14
aa(lp1203
I1
a(lp1204
F0.333333
aaI12
aa(lp1205
I1
a(lp1206
F0.307692
aaI13
aaa(lp1207
S'scaffold1554_cov54'
p1208
aS'scaffold14725_cov115'
p1209
aa(lp1210
S'scaffold14776_cov55'
p1211
aS'scaffold36895_cov67'
p1212
aa(lp1213
S'scaffold34270_cov89'
p1214
aS'scaffold5071_cov113'
p1215
aa(lp1216
S'scaffold13613_cov67'
p1217
aS'scaffold12316_cov62'
p1218
a(lp1219
I1
a(lp1220
F0.0
aaI2
aaa(lp1221
S'scaffold5066_cov51'
p1222
aS'scaffold1036_cov100'
p1223
a(lp1224
I1
a(lp1225
F0.0
aaI5
aa(lp1226
I1
a(lp1227
F0.0
aaI4
aa(lp1228
I1
a(lp1229
F0.0
aaI4
aa(lp1230
I1
a(lp1231
F0.0
aaI2
aa(lp1232
I1
a(lp1233
F0.0
aaI2
aa(lp1234
I1
a(lp1235
F0.0
aaI5
aa(lp1236
I1
a(lp1237
F0.6
aaI5
aa(lp1238
I1
a(lp1239
F0.0
aaI7
aa(lp1240
I1
a(lp1241
F0.0
aaI9
aa(lp1242
I1
a(lp1243
F0.0
aaI9
aa(lp1244
I1
a(lp1245
F0.0
aaI5
aa(lp1246
I1
a(lp1247
F0.0
aaI3
aa(lp1248
I1
a(lp1249
F0.0
aaI3
aa(lp1250
I1
a(lp1251
F0.0
aaI3
aa(lp1252
I1
a(lp1253
F0.0
aaI3
aa(lp1254
I1
a(lp1255
F0.0
aaI4
aa(lp1256
I1
a(lp1257
F0.333333
aaI12
aa(lp1258
I1
a(lp1259
F0.0
aaI2
aa(lp1260
I1
a(lp1261
F0.0
aaI2
aa(lp1262
I1
a(lp1263
F0.0
aaI2
aa(lp1264
I1
a(lp1265
F0.0
aaI2
aa(lp1266
I1
a(lp1267
F0.0
aaI2
aa(lp1268
I1
a(lp1269
F0.0
aaI2
aa(lp1270
I1
a(lp1271
F0.0
aaI2
aa(lp1272
I1
a(lp1273
F0.0
aaI2
aa(lp1274
I1
a(lp1275
F0.0
aaI4
aa(lp1276
I1
a(lp1277
F0.0
aaI4
aa(lp1278
I1
a(lp1279
F0.0
aaI5
aa(lp1280
I1
a(lp1281
F0.0
aaI5
aaa(lp1282
S'scaffold311_cov53'
p1283
aS'scaffold16119_cov63'
p1284
aa(lp1285
S'scaffold5587_cov95'
p1286
aS'scaffold6763_cov50'
p1287
a(lp1288
I1
a(lp1289
F0.272727
aaI11
aa(lp1290
I1
a(lp1291
F0.230769
aaI13
aa(lp1292
I1
a(lp1293
F0.25
aaI12
aa(lp1294
I1
a(lp1295
F0.25
aaI12
aaa(lp1296
S'scaffold1156_cov80'
p1297
aS'scaffold6497_cov85'
p1298
a(lp1299
I1
a(lp1300
F0.0
aaI4
aa(lp1301
I1
a(lp1302
F0.0
aaI2
aa(lp1303
I1
a(lp1304
F0.0
aaI9
aa(lp1305
I1
a(lp1306
F0.222222
aaI9
aa(lp1307
I1
a(lp1308
F0.0
aaI15
aa(lp1309
I1
a(lp1310
F0.642857
aaI14
aa(lp1311
I1
a(lp1312
F0.0
aaI11
aa(lp1313
I1
a(lp1314
F0.666667
aaI9
aa(lp1315
I1
a(lp1316
F0.666667
aaI6
aa(lp1317
I1
a(lp1318
F0.666667
aaI6
aa(lp1319
I1
a(lp1320
F0.357143
aaI14
aa(lp1321
I1
a(lp1322
F0.357143
aaI14
aa(lp1323
I1
a(lp1324
F0.4
aaI15
aa(lp1325
I1
a(lp1326
F0.375
aaI16
aa(lp1327
I1
a(lp1328
F0.571429
aaI14
aa(lp1329
I1
a(lp1330
F0.833333
aaI6
aa(lp1331
I1
a(lp1332
F0.285714
aaI7
aa(lp1333
I1
a(lp1334
F0.0
aaI9
aa(lp1335
I1
a(lp1336
F0.0
aaI9
aa(lp1337
I1
a(lp1338
F0.0
aaI8
aa(lp1339
I1
a(lp1340
F0.0
aaI7
aa(lp1341
I1
a(lp1342
F0.666667
aaI3
aa(lp1343
I1
a(lp1344
F0.0
aaI13
aa(lp1345
I1
a(lp1346
F0.0
aaI6
aa(lp1347
I1
a(lp1348
F0.0
aaI7
aa(lp1349
I1
a(lp1350
F0.0
aaI7
aa(lp1351
I1
a(lp1352
F0.0
aaI7
aa(lp1353
I1
a(lp1354
F0.4
aaI5
aa(lp1355
I1
a(lp1356
F0.588235
aaI17
aaa(lp1357
S'scaffold1379_cov53'
p1358
aS'scaffold5161_cov62'
p1359
aa(lp1360
S'scaffold3622_cov63'
p1361
aS'scaffold154_cov94'
p1362
a(lp1363
I1
a(lp1364
F0.222222
aaI9
aaa(lp1365
S'scaffold35874_cov101'
p1366
aS'scaffold36370_cov147'
p1367
aa(lp1368
S'scaffold8496_cov75'
p1369
aS'scaffold10687_cov51'
p1370
a(lp1371
I1
a(lp1372
F0.0
aaI4
aaa(lp1373
S'scaffold36033_cov68'
p1374
aS'scaffold3130_cov88'
p1375
a(lp1376
I1
a(lp1377
F0.222222
aaI9
aa(lp1378
I1
a(lp1379
F0.0
aaI3
aa(lp1380
I1
a(lp1381
F0.0
aaI15
aa(lp1382
I1
a(lp1383
F0.8
aaI5
aa(lp1384
I1
a(lp1385
F0.0
aaI16
aa(lp1386
I1
a(lp1387
F0.0
aaI15
aa(lp1388
I1
a(lp1389
F0.0
aaI10
aa(lp1390
I1
a(lp1391
F0.0
aaI7
aa(lp1392
I1
a(lp1393
F0.0
aaI8
aa(lp1394
I1
a(lp1395
F0.0
aaI5
aa(lp1396
I1
a(lp1397
F0.0
aaI12
aa(lp1398
I1
a(lp1399
F0.0
aaI11
aa(lp1400
I1
a(lp1401
F0.0
aaI9
aa(lp1402
I1
a(lp1403
F0.0
aaI8
aaa(lp1404
S'scaffold5962_cov96'
p1405
aS'scaffold20541_cov54'
p1406
aa(lp1407
S'scaffold1101_cov58'
p1408
aS'scaffold3915_cov75'
p1409
aa(lp1410
S'scaffold19950_cov56'
p1411
aS'scaffold8908_cov58'
p1412
aa(lp1413
S'scaffold2412_cov121'
p1414
aS'scaffold37060_cov73'
p1415
aa(lp1416
S'scaffold33587_cov72'
p1417
aS'scaffold3966_cov89'
p1418
aa(lp1419
S'scaffold4278_cov90'
p1420
aS'scaffold12774_cov55'
p1421
a(lp1422
I1
a(lp1423
F0.0
aaI6
aaa(lp1424
S'scaffold9445_cov50'
p1425
aS'scaffold101_cov106'
p1426
aa(lp1427
S'scaffold3254_cov78'
p1428
aS'scaffold1402_cov78'
p1429
a(lp1430
I1
a(lp1431
F0.833333
aaI6
aa(lp1432
I1
a(lp1433
F0.0
aaI10
aa(lp1434
I1
a(lp1435
F0.0
aaI6
aa(lp1436
I1
a(lp1437
F0.0
aaI10
aa(lp1438
I1
a(lp1439
F0.0
aaI8
aa(lp1440
I1
a(lp1441
F0.0
aaI11
aa(lp1442
I1
a(lp1443
F0.0
aaI10
aa(lp1444
I1
a(lp1445
F0.0
aaI16
aa(lp1446
I1
a(lp1447
F0.333333
aaI15
aa(lp1448
I1
a(lp1449
F0.4
aaI15
aa(lp1450
I1
a(lp1451
F0.285714
aaI7
aa(lp1452
I1
a(lp1453
F0.5
aaI4
aa(lp1454
I1
a(lp1455
F0.857143
aaI7
aa(lp1456
I1
a(lp1457
F0.0
aaI4
aa(lp1458
I1
a(lp1459
F0.0
aaI3
aa(lp1460
I1
a(lp1461
F0.0
aaI3
aa(lp1462
I1
a(lp1463
F0.222222
aaI9
aa(lp1464
I1
a(lp1465
F0.0
aaI10
aa(lp1466
I1
a(lp1467
F0.0
aaI5
aa(lp1468
I1
a(lp1469
F0.0
aaI3
aa(lp1470
I1
a(lp1471
F0.0
aaI4
aaa(lp1472
S'scaffold5262_cov49'
p1473
aS'scaffold15918_cov54'
p1474
aa(lp1475
S'scaffold2853_cov69'
p1476
aS'scaffold12329_cov67'
p1477
aa(lp1478
S'scaffold1554_cov54'
p1479
aS'scaffold7086_cov54'
p1480
aa(lp1481
S'scaffold36003_cov57'
p1482
aS'scaffold4147_cov76'
p1483
a(lp1484
I1
a(lp1485
F0.0
aaI12
aa(lp1486
I1
a(lp1487
F0.0
aaI7
aaa(lp1488
S'scaffold36022_cov58'
p1489
aS'scaffold35995_cov87'
p1490
a(lp1491
I1
a(lp1492
F0.0
aaI2
aa(lp1493
I1
a(lp1494
F0.0
aaI2
aa(lp1495
I1
a(lp1496
F0.0
aaI2
aa(lp1497
I1
a(lp1498
F0.0
aaI2
aa(lp1499
I1
a(lp1500
F0.0
aaI2
aaa(lp1501
S'scaffold16447_cov76'
p1502
aS'scaffold1525_cov58'
p1503
a(lp1504
I1
a(lp1505
F0.214286
aaI14
aa(lp1506
I1
a(lp1507
F0.421053
aaI19
aa(lp1508
I1
a(lp1509
F0.357143
aaI14
aaa(lp1510
S'scaffold7181_cov86'
p1511
aS'scaffold9352_cov77'
p1512
a(lp1513
I1
a(lp1514
F0.0
aaI16
aa(lp1515
I1
a(lp1516
F0.0
aaI8
aa(lp1517
I1
a(lp1518
F0.0
aaI2
aaa(lp1519
S'scaffold4050_cov108'
p1520
aS'scaffold15254_cov56'
p1521
aa(lp1522
S'scaffold15290_cov65'
p1523
aS'scaffold426_cov79'
p1524
a(lp1525
I1
a(lp1526
F0.0
aaI2
aa(lp1527
I1
a(lp1528
F0.0
aaI2
aa(lp1529
I1
a(lp1530
F0.0
aaI4
aa(lp1531
I1
a(lp1532
F0.0
aaI7
aa(lp1533
I1
a(lp1534
F0.25
aaI12
aa(lp1535
I1
a(lp1536
F0.2
aaI20
aa(lp1537
I1
a(lp1538
F0.363636
aaI11
aa(lp1539
I1
a(lp1540
F0.222222
aaI9
aaa(lp1541
S'scaffold36919_cov73'
p1542
aS'scaffold41262_cov172'
p1543
aa(lp1544
S'scaffold5295_cov55'
p1545
aS'scaffold15336_cov60'
p1546
a(lp1547
I1
a(lp1548
F0.0
aaI2
aa(lp1549
I1
a(lp1550
F0.0
aaI2
aaa(lp1551
S'scaffold19164_cov60'
p1552
aS'scaffold159_cov87'
p1553
a(lp1554
I1
a(lp1555
F0.0
aaI2
aa(lp1556
I1
a(lp1557
F0.0
aaI2
aa(lp1558
I1
a(lp1559
F0.0
aaI4
aa(lp1560
I1
a(lp1561
F0.0
aaI4
aa(lp1562
I1
a(lp1563
F0.5
aaI4
aa(lp1564
I1
a(lp1565
F0.0
aaI3
aa(lp1566
I1
a(lp1567
F0.666667
aaI3
aa(lp1568
I1
a(lp1569
F0.0
aaI6
aa(lp1570
I1
a(lp1571
F0.35
aaI20
aa(lp1572
I1
a(lp1573
F0.5
aaI8
aa(lp1574
I1
a(lp1575
F0.3
aaI10
aa(lp1576
I1
a(lp1577
F0.363636
aaI11
aa(lp1578
I1
a(lp1579
F0.0
aaI10
aa(lp1580
I1
a(lp1581
F0.8
aaI5
aa(lp1582
I1
a(lp1583
F0.25
aaI8
aa(lp1584
I1
a(lp1585
F0.0
aaI8
aa(lp1586
I1
a(lp1587
F0.375
aaI8
aa(lp1588
I1
a(lp1589
F0.0
aaI5
aa(lp1590
I1
a(lp1591
F0.428571
aaI7
aa(lp1592
I1
a(lp1593
F0.375
aaI8
aa(lp1594
I1
a(lp1595
F0.454545
aaI11
aa(lp1596
I1
a(lp1597
F0.0
aaI10
aa(lp1598
I1
a(lp1599
F0.5
aaI10
aa(lp1600
I1
a(lp1601
F0.545455
aaI11
aa(lp1602
I1
a(lp1603
F0.5
aaI4
aa(lp1604
I1
a(lp1605
F0.285714
aaI7
aaa(lp1606
S'scaffold2714_cov57'
p1607
aS'scaffold1007_cov77'
p1608
a(lp1609
I1
a(lp1610
F0.0
aaI7
aa(lp1611
I1
a(lp1612
F0.4
aaI5
aa(lp1613
I1
a(lp1614
F0.0
aaI7
aa(lp1615
I1
a(lp1616
F0.0
aaI6
aa(lp1617
I1
a(lp1618
F0.0
aaI68
aa(lp1619
I1
a(lp1620
F0.789474
aaI19
aa(lp1621
I1
a(lp1622
F0.0
aaI4
aa(lp1623
I1
a(lp1624
F0.0
aaI5
aa(lp1625
I1
a(lp1626
F0.0
aaI6
aa(lp1627
I1
a(lp1628
F0.0
aaI2
aa(lp1629
I1
a(lp1630
F0.0
aaI9
aa(lp1631
I1
a(lp1632
F0.0
aaI9
aa(lp1633
I1
a(lp1634
F1.0
aaI6
aaa(lp1635
S'scaffold878_cov66'
p1636
aS'scaffold6200_cov128'
p1637
aa(lp1638
S'scaffold2530_cov71'
p1639
aS'scaffold4287_cov88'
p1640
aa(lp1641
S'scaffold9739_cov94'
p1642
aS'scaffold35055_cov91'
p1643
aa(lp1644
S'scaffold5602_cov57'
p1645
aS'scaffold5604_cov55'
p1646
a(lp1647
I1
a(lp1648
F0.545455
aaI11
aa(lp1649
I1
a(lp1650
F0.5
aaI12
aaa(lp1651
S'scaffold36499_cov103'
p1652
aS'scaffold34177_cov82'
p1653
a(lp1654
I1
a(lp1655
F0.533333
aaI30
aa(lp1656
I1
a(lp1657
F0.363636
aaI11
aa(lp1658
I1
a(lp1659
F0.0
aaI15
aa(lp1660
I1
a(lp1661
F0.666667
aaI3
aa(lp1662
I1
a(lp1663
F0.0
aaI3
aa(lp1664
I1
a(lp1665
F0.705882
aaI17
aa(lp1666
I1
a(lp1667
F0.0
aaI9
aaa(lp1668
S'scaffold4081_cov103'
p1669
aS'scaffold4410_cov60'
p1670
aa(lp1671
S'scaffold33066_cov68'
p1672
aS'scaffold4048_cov55'
p1673
a(lp1674
I1
a(lp1675
F0.222222
aaI9
aaa(lp1676
S'scaffold4874_cov72'
p1677
aS'scaffold9125_cov84'
p1678
aa(lp1679
S'scaffold6612_cov63'
p1680
aS'scaffold33314_cov52'
p1681
a(lp1682
I1
a(lp1683
F0.3
aaI10
aa(lp1684
I1
a(lp1685
F0.222222
aaI9
aaa(lp1686
S'scaffold5186_cov71'
p1687
aS'scaffold5185_cov80'
p1688
aa(lp1689
S'scaffold44657_cov149'
p1690
aS'scaffold4089_cov52'
p1691
aa(lp1692
S'scaffold13650_cov74'
p1693
aS'scaffold54888_cov107'
p1694
aa(lp1695
S'scaffold3582_cov122'
p1696
aS'scaffold720_cov51'
p1697
aa(lp1698
S'scaffold36509_cov117'
p1699
aS'scaffold2683_cov54'
p1700
aa(lp1701
S'scaffold56598_cov161'
p1702
aS'scaffold5176_cov58'
p1703
aa(lp1704
S'scaffold24304_cov59'
p1705
aS'scaffold359_cov50'
p1706
aa(lp1707
S'scaffold3293_cov67'
p1708
aS'scaffold1467_cov54'
p1709
a(lp1710
I1
a(lp1711
F0.4
aaI10
aaa(lp1712
S'scaffold17264_cov49'
p1713
aS'scaffold14721_cov66'
p1714
a(lp1715
I1
a(lp1716
F0.6
aaI5
aa(lp1717
I1
a(lp1718
F0.0
aaI6
aa(lp1719
I1
a(lp1720
F0.352941
aaI17
aaa(lp1721
S'scaffold2164_cov100'
p1722
aS'scaffold6159_cov60'
p1723
aa(lp1724
S'scaffold5146_cov52'
p1725
aS'scaffold53971_cov161'
p1726
aa(lp1727
S'scaffold33155_cov116'
p1728
aS'scaffold10894_cov83'
p1729
a(lp1730
I1
a(lp1731
F0.0
aaI4
aa(lp1732
I1
a(lp1733
F0.0
aaI6
aa(lp1734
I1
a(lp1735
F0.0
aaI6
aa(lp1736
I1
a(lp1737
F0.0
aaI10
aa(lp1738
I1
a(lp1739
F0.25
aaI8
aa(lp1740
I1
a(lp1741
F0.0
aaI5
aaa(lp1742
S'scaffold6807_cov54'
p1743
aS'scaffold35419_cov111'
p1744
aa(lp1745
S'scaffold19626_cov63'
p1746
aS'scaffold2637_cov103'
p1747
a(lp1748
I1
a(lp1749
F0.0
aaI8
aaa(lp1750
S'scaffold10711_cov58'
p1751
aS'scaffold7920_cov76'
p1752
aa(lp1753
S'scaffold33560_cov76'
p1754
aS'scaffold8879_cov52'
p1755
a(lp1756
I1
a(lp1757
F0.2
aaI10
aaa(lp1758
S'scaffold645_cov79'
p1759
aS'scaffold33884_cov75'
p1760
a(lp1761
I1
a(lp1762
F0.3
aaI10
aa(lp1763
I1
a(lp1764
F0.272727
aaI11
aa(lp1765
I1
a(lp1766
F0.5
aaI4
aa(lp1767
I1
a(lp1768
F0.235294
aaI17
aa(lp1769
I1
a(lp1770
F0.35
aaI20
aa(lp1771
I1
a(lp1772
F0.210526
aaI19
aa(lp1773
I1
a(lp1774
F0.25
aaI16
aa(lp1775
I1
a(lp1776
F0.25
aaI20
aa(lp1777
I1
a(lp1778
F0.277778
aaI18
aaa(lp1779
S'scaffold7875_cov69'
p1780
aS'scaffold7874_cov52'
p1781
a(lp1782
I1
a(lp1783
F0.0
aaI9
aa(lp1784
I1
a(lp1785
F0.666667
aaI3
aa(lp1786
I1
a(lp1787
F0.0
aaI2
aa(lp1788
I1
a(lp1789
F0.0
aaI2
aaa(lp1790
S'scaffold6472_cov101'
p1791
aS'scaffold22301_cov147'
p1792
aa(lp1793
S'scaffold50891_cov398'
p1794
aS'scaffold909_cov73'
p1795
a(lp1796
I1
a(lp1797
F0.3125
aaI16
aa(lp1798
I1
a(lp1799
F0.272727
aaI11
aa(lp1800
I1
a(lp1801
F0.2
aaI15
aaa(lp1802
S'scaffold32906_cov106'
p1803
aS'scaffold683_cov92'
p1804
aa(lp1805
S'scaffold12642_cov74'
p1806
aS'scaffold1985_cov52'
p1807
a(lp1808
I1
a(lp1809
F0.882353
aaI17
aa(lp1810
I1
a(lp1811
F0.285714
aaI14
aaa(lp1812
S'scaffold3014_cov60'
p1813
aS'scaffold398_cov53'
p1814
a(lp1815
I1
a(lp1816
F0.25
aaI8
aa(lp1817
I1
a(lp1818
F0.25
aaI12
aa(lp1819
I1
a(lp1820
F0.25
aaI12
aaa(lp1821
S'scaffold35974_cov80'
p1822
aS'scaffold34177_cov82'
p1823
a(lp1824
I1
a(lp1825
F0.377778
aaI45
aa(lp1826
I1
a(lp1827
F0.0
aaI7
aa(lp1828
I1
a(lp1829
F0.0
aaI8
aa(lp1830
I1
a(lp1831
F0.0
aaI3
aa(lp1832
I1
a(lp1833
F0.0
aaI3
aa(lp1834
I1
a(lp1835
F0.0
aaI2
aa(lp1836
I1
a(lp1837
F0.0
aaI2
aa(lp1838
I1
a(lp1839
F0.0
aaI2
aa(lp1840
I1
a(lp1841
F0.0
aaI3
aa(lp1842
I1
a(lp1843
F0.0
aaI3
aa(lp1844
I1
a(lp1845
F0.0
aaI6
aa(lp1846
I1
a(lp1847
F0.0
aaI6
aa(lp1848
I1
a(lp1849
F0.0
aaI8
aa(lp1850
I1
a(lp1851
F0.0
aaI6
aa(lp1852
I1
a(lp1853
F0.0
aaI5
aa(lp1854
I1
a(lp1855
F0.0
aaI5
aa(lp1856
I1
a(lp1857
F0.0
aaI5
aa(lp1858
I1
a(lp1859
F0.0
aaI4
aa(lp1860
I1
a(lp1861
F0.0
aaI2
aa(lp1862
I1
a(lp1863
F0.0
aaI3
aa(lp1864
I1
a(lp1865
F0.0
aaI4
aa(lp1866
I1
a(lp1867
F0.666667
aaI3
aag1660
ag1662
a(lp1868
I1
a(lp1869
F0.0
aaI2
aaa(lp1870
S'scaffold13494_cov55'
p1871
aS'scaffold444_cov67'
p1872
a(lp1873
I1
a(lp1874
F0.368421
aaI19
aaa(lp1875
S'scaffold617_cov62'
p1876
aS'scaffold3051_cov52'
p1877
a(lp1878
I1
a(lp1879
F0.0
aaI10
aa(lp1880
I1
a(lp1881
F0.0
aaI4
aa(lp1882
I1
a(lp1883
F0.75
aaI4
aa(lp1884
I1
a(lp1885
F0.0
aaI2
aa(lp1886
I1
a(lp1887
F0.333333
aaI9
aa(lp1888
I1
a(lp1889
F0.375
aaI8
aa(lp1890
I1
a(lp1891
F0.3
aaI10
aa(lp1892
I1
a(lp1893
F0.4
aaI10
aa(lp1894
I1
a(lp1895
F0.0
aaI11
aa(lp1896
I1
a(lp1897
F0.357143
aaI14
aa(lp1898
I1
a(lp1899
F0.357143
aaI14
aa(lp1900
I1
a(lp1901
F0.888889
aaI9
aa(lp1902
I1
a(lp1903
F0.0
aaI10
aa(lp1904
I1
a(lp1905
F0.0
aaI2
aa(lp1906
I1
a(lp1907
F0.0
aaI3
aa(lp1908
I1
a(lp1909
F0.0
aaI2
aa(lp1910
I1
a(lp1911
F0.875
aaI8
aa(lp1912
I1
a(lp1913
F0.0
aaI4
aa(lp1914
I1
a(lp1915
F0.0
aaI4
aa(lp1916
I1
a(lp1917
F0.0
aaI5
aa(lp1918
I1
a(lp1919
F0.0
aaI7
aa(lp1920
I1
a(lp1921
F0.357143
aaI14
aa(lp1922
I1
a(lp1923
F0.384615
aaI13
aa(lp1924
I1
a(lp1925
F0.428571
aaI7
aa(lp1926
I1
a(lp1927
F0.5
aaI6
aa(lp1928
I1
a(lp1929
F0.4
aaI10
aa(lp1930
I1
a(lp1931
F0.375
aaI8
aa(lp1932
I1
a(lp1933
F0.0
aaI13
aa(lp1934
I1
a(lp1935
F0.352941
aaI17
aa(lp1936
I1
a(lp1937
F0.444444
aaI18
aa(lp1938
I1
a(lp1939
F0.8
aaI5
aa(lp1940
I1
a(lp1941
F0.545455
aaI11
aa(lp1942
I1
a(lp1943
F0.230769
aaI13
aa(lp1944
I1
a(lp1945
F0.538462
aaI13
aa(lp1946
I1
a(lp1947
F0.333333
aaI9
aa(lp1948
I1
a(lp1949
F0.583333
aaI12
aa(lp1950
I1
a(lp1951
F0.583333
aaI12
aa(lp1952
I1
a(lp1953
F0.25
aaI12
aa(lp1954
I1
a(lp1955
F0.272727
aaI11
aa(lp1956
I1
a(lp1957
F0.333333
aaI18
aaa(lp1958
S'scaffold53939_cov149'
p1959
aS'scaffold8942_cov56'
p1960
aa(lp1961
S'scaffold306_cov97'
p1962
aS'scaffold1432_cov55'
p1963
aa(lp1964
S'scaffold3432_cov48'
p1965
aS'scaffold4550_cov107'
p1966
aa(lp1967
S'scaffold11820_cov72'
p1968
aS'scaffold3429_cov57'
p1969
a(lp1970
I1
a(lp1971
F0.357143
aaI14
aa(lp1972
I1
a(lp1973
F0.2
aaI10
aa(lp1974
I1
a(lp1975
F0.2
aaI10
aaa(lp1976
S'scaffold8803_cov55'
p1977
aS'scaffold13550_cov68'
p1978
aa(lp1979
S'scaffold13367_cov89'
p1980
aS'scaffold37302_cov74'
p1981
a(lp1982
I1
a(lp1983
F0.0
aaI2
aa(lp1984
I1
a(lp1985
F0.0
aaI2
aa(lp1986
I1
a(lp1987
F0.3125
aaI16
aaa(lp1988
S'scaffold570_cov75'
p1989
aS'scaffold6452_cov95'
p1990
aa(lp1991
S'scaffold54186_cov103'
p1992
aS'scaffold28599_cov95'
p1993
aa(lp1994
S'scaffold3757_cov64'
p1995
aS'scaffold289_cov71'
p1996
aa(lp1997
S'scaffold11190_cov116'
p1998
aS'scaffold12855_cov52'
p1999
aa(lp2000
S'scaffold33248_cov88'
p2001
aS'scaffold1972_cov88'
p2002
aa(lp2003
S'scaffold32491_cov104'
p2004
aS'scaffold23375_cov83'
p2005
a(lp2006
I1
a(lp2007
F0.375
aaI8
aa(lp2008
I1
a(lp2009
F0.272727
aaI11
aa(lp2010
I1
a(lp2011
F0.416667
aaI12
aa(lp2012
I1
a(lp2013
F0.384615
aaI13
aaa(lp2014
S'scaffold34162_cov105'
p2015
aS'scaffold14859_cov92'
p2016
aa(lp2017
S'scaffold4917_cov59'
p2018
aS'scaffold1175_cov49'
p2019
a(lp2020
I1
a(lp2021
F0.333333
aaI12
aaa(lp2022
S'scaffold4313_cov91'
p2023
aS'scaffold21487_cov54'
p2024
aa(lp2025
S'scaffold28521_cov53'
p2026
aS'scaffold5310_cov60'
p2027
aa(lp2028
S'scaffold33155_cov116'
p2029
aS'scaffold6384_cov82'
p2030
aa(lp2031
S'scaffold8270_cov118'
p2032
aS'scaffold872_cov49'
p2033
a(lp2034
I1
a(lp2035
F0.333333
aaI6
aa(lp2036
I1
a(lp2037
F0.363636
aaI11
aa(lp2038
I1
a(lp2039
F0.25
aaI8
aa(lp2040
I1
a(lp2041
F0.2
aaI10
aaa(lp2042
S'scaffold58002_cov168'
p2043
aS'scaffold27769_cov112'
p2044
a(lp2045
I1
a(lp2046
F0.0
aaI3
aa(lp2047
I1
a(lp2048
F0.0
aaI3
aaa(lp2049
S'scaffold35910_cov137'
p2050
aS'scaffold3418_cov60'
p2051
aa(lp2052
S'scaffold33201_cov53'
p2053
aS'scaffold7428_cov49'
p2054
a(lp2055
I1
a(lp2056
F0.6
aaI5
aaa(lp2057
S'scaffold2494_cov73'
p2058
aS'scaffold3013_cov87'
p2059
a(lp2060
I1
a(lp2061
F0.0
aaI4
aa(lp2062
I1
a(lp2063
F1.0
aaI3
aa(lp2064
I1
a(lp2065
F0.0
aaI3
aa(lp2066
I1
a(lp2067
F0.0
aaI3
aa(lp2068
I1
a(lp2069
F0.0
aaI7
aa(lp2070
I1
a(lp2071
F0.0
aaI2
aaa(lp2072
S'scaffold13115_cov55'
p2073
aS'scaffold6977_cov64'
p2074
aa(lp2075
S'scaffold733_cov57'
p2076
aS'scaffold3175_cov115'
p2077
aa(lp2078
S'scaffold53186_cov165'
p2079
aS'scaffold2900_cov54'
p2080
aa(lp2081
S'scaffold13474_cov57'
p2082
aS'scaffold4565_cov62'
p2083
a(lp2084
I1
a(lp2085
F0.0
aaI2
aa(lp2086
I1
a(lp2087
F0.0
aaI2
aa(lp2088
I1
a(lp2089
F0.0
aaI2
aaa(lp2090
S'scaffold7133_cov53'
p2091
aS'scaffold8457_cov52'
p2092
a(lp2093
I1
a(lp2094
F0.0
aaI4
aa(lp2095
I1
a(lp2096
F0.0
aaI8
aa(lp2097
I1
a(lp2098
F0.0
aaI2
aa(lp2099
I1
a(lp2100
F0.0
aaI2
aa(lp2101
I1
a(lp2102
F0.0
aaI2
aa(lp2103
I1
a(lp2104
F0.0
aaI2
aa(lp2105
I1
a(lp2106
F0.0
aaI2
aaa(lp2107
S'scaffold4178_cov79'
p2108
aS'scaffold331_cov56'
p2109
a(lp2110
I1
a(lp2111
F0.0
aaI3
aaa(lp2112
S'scaffold4080_cov54'
p2113
aS'scaffold18_cov68'
p2114
a(lp2115
I1
a(lp2116
F0.0
aaI2
aaa(lp2117
S'scaffold15333_cov101'
p2118
aS'scaffold36026_cov97'
p2119
aa(lp2120
S'scaffold2126_cov70'
p2121
aS'scaffold9907_cov91'
p2122
a(lp2123
I1
a(lp2124
F0.0
aaI6
aa(lp2125
I1
a(lp2126
F0.0
aaI10
aa(lp2127
I1
a(lp2128
F0.0
aaI6
aa(lp2129
I1
a(lp2130
F0.0
aaI3
aa(lp2131
I1
a(lp2132
F0.0
aaI4
aa(lp2133
I1
a(lp2134
F0.0
aaI4
aa(lp2135
I1
a(lp2136
F0.0
aaI5
aa(lp2137
I1
a(lp2138
F0.0
aaI6
aa(lp2139
I1
a(lp2140
F0.0
aaI5
aa(lp2141
I1
a(lp2142
F0.0
aaI6
aa(lp2143
I1
a(lp2144
F0.0
aaI7
aa(lp2145
I1
a(lp2146
F0.230769
aaI13
aa(lp2147
I1
a(lp2148
F0.285714
aaI7
aa(lp2149
I1
a(lp2150
F0.0
aaI5
aa(lp2151
I1
a(lp2152
F0.0
aaI12
aa(lp2153
I1
a(lp2154
F0.25
aaI12
aa(lp2155
I1
a(lp2156
F0.214286
aaI14
aa(lp2157
I1
a(lp2158
F0.444444
aaI9
aa(lp2159
I1
a(lp2160
F0.5
aaI4
aa(lp2161
I1
a(lp2162
F0.4
aaI5
aa(lp2163
I1
a(lp2164
F0.4
aaI5
aa(lp2165
I1
a(lp2166
F0.333333
aaI6
aa(lp2167
I1
a(lp2168
F0.384615
aaI13
aa(lp2169
I1
a(lp2170
F0.357143
aaI14
aa(lp2171
I1
a(lp2172
F0.333333
aaI15
aa(lp2173
I1
a(lp2174
F0.25
aaI8
aa(lp2175
I1
a(lp2176
F0.285714
aaI7
aa(lp2177
I1
a(lp2178
F0.5
aaI4
aa(lp2179
I1
a(lp2180
F0.333333
aaI6
aa(lp2181
I1
a(lp2182
F0.285714
aaI7
aa(lp2183
I1
a(lp2184
F0.272727
aaI11
aa(lp2185
I1
a(lp2186
F0.230769
aaI13
aa(lp2187
I1
a(lp2188
F0.230769
aaI13
aa(lp2189
I1
a(lp2190
F0.0
aaI10
aa(lp2191
I1
a(lp2192
F0.0
aaI11
aa(lp2193
I1
a(lp2194
F0.0
aaI7
aa(lp2195
I1
a(lp2196
F0.0
aaI7
aa(lp2197
I1
a(lp2198
F0.2
aaI15
aa(lp2199
I1
a(lp2200
F0.2
aaI15
aa(lp2201
I1
a(lp2202
F0.0
aaI9
aa(lp2203
I1
a(lp2204
F0.0
aaI8
aa(lp2205
I1
a(lp2206
F0.0
aaI9
aa(lp2207
I1
a(lp2208
F0.0
aaI2
aa(lp2209
I1
a(lp2210
F0.0
aaI3
aa(lp2211
I1
a(lp2212
F0.0
aaI9
aa(lp2213
I1
a(lp2214
F0.0
aaI7
aa(lp2215
I1
a(lp2216
F0.0
aaI8
aa(lp2217
I1
a(lp2218
F0.0
aaI10
aa(lp2219
I1
a(lp2220
F0.0
aaI7
aa(lp2221
I1
a(lp2222
F0.0
aaI14
aa(lp2223
I1
a(lp2224
F0.0
aaI9
aa(lp2225
I1
a(lp2226
F0.0
aaI9
aa(lp2227
I1
a(lp2228
F0.0
aaI8
aa(lp2229
I1
a(lp2230
F0.0
aaI8
aa(lp2231
I1
a(lp2232
F0.0
aaI8
aa(lp2233
I1
a(lp2234
F0.0
aaI8
aa(lp2235
I1
a(lp2236
F0.0
aaI9
aa(lp2237
I1
a(lp2238
F0.0
aaI7
aa(lp2239
I1
a(lp2240
F0.0
aaI9
aa(lp2241
I1
a(lp2242
F0.0
aaI11
aa(lp2243
I1
a(lp2244
F0.0
aaI14
aa(lp2245
I1
a(lp2246
F0.0
aaI10
aa(lp2247
I1
a(lp2248
F0.0
aaI20
aa(lp2249
I1
a(lp2250
F0.0
aaI3
aa(lp2251
I1
a(lp2252
F0.0
aaI3
aa(lp2253
I1
a(lp2254
F0.0
aaI3
aa(lp2255
I1
a(lp2256
F0.0
aaI2
aaa(lp2257
S'scaffold50244_cov161'
p2258
aS'scaffold4391_cov53'
p2259
aa(lp2260
S'scaffold26220_cov52'
p2261
aS'scaffold24718_cov103'
p2262
a(lp2263
I1
a(lp2264
F0.0
aaI17
aaa(lp2265
S'scaffold9958_cov63'
p2266
aS'scaffold4040_cov52'
p2267
a(lp2268
I1
a(lp2269
F0.0
aaI6
aa(lp2270
I1
a(lp2271
F0.0
aaI6
aa(lp2272
I1
a(lp2273
F0.0
aaI5
aa(lp2274
I1
a(lp2275
F0.0
aaI6
aaa(lp2276
S'scaffold5829_cov52'
p2277
aS'scaffold200_cov51'
p2278
aa(lp2279
S'scaffold931_cov102'
p2280
aS'scaffold3401_cov49'
p2281
a(lp2282
I1
a(lp2283
F0.309524
aaI42
aa(lp2284
I1
a(lp2285
F0.214286
aaI14
aaa(lp2286
S'scaffold10310_cov117'
p2287
aS'scaffold2088_cov50'
p2288
aa(lp2289
S'scaffold32857_cov74'
p2290
aS'scaffold9215_cov55'
p2291
a(lp2292
I1
a(lp2293
F0.222222
aaI9
aaa(lp2294
S'scaffold11819_cov105'
p2295
aS'scaffold25653_cov54'
p2296
aa(lp2297
S'scaffold4757_cov67'
p2298
aS'scaffold38060_cov100'
p2299
aa(lp2300
S'scaffold33284_cov157'
p2301
aS'scaffold14343_cov60'
p2302
a(lp2303
I1
a(lp2304
F0.222222
aaI18
aa(lp2305
I1
a(lp2306
F0.222222
aaI9
aaa(lp2307
S'scaffold25369_cov123'
p2308
aS'scaffold2248_cov58'
p2309
aa(lp2310
S'scaffold4085_cov106'
p2311
aS'scaffold34289_cov136'
p2312
aa(lp2313
S'scaffold37745_cov103'
p2314
aS'scaffold756_cov60'
p2315
aa(lp2316
S'scaffold18292_cov125'
p2317
aS'scaffold11042_cov64'
p2318
a(lp2319
I1
a(lp2320
F0.272727
aaI11
aa(lp2321
I1
a(lp2322
F0.25
aaI8
aaa(lp2323
S'scaffold3846_cov88'
p2324
aS'scaffold1776_cov57'
p2325
a(lp2326
I1
a(lp2327
F0.0
aaI6
aaa(lp2328
S'scaffold17701_cov112'
p2329
aS'scaffold7423_cov56'
p2330
aa(lp2331
S'scaffold10360_cov60'
p2332
aS'scaffold6609_cov59'
p2333
a(lp2334
I1
a(lp2335
F0.25
aaI8
aa(lp2336
I1
a(lp2337
F0.0
aaI8
aa(lp2338
I1
a(lp2339
F0.0
aaI9
aa(lp2340
I1
a(lp2341
F0.0
aaI2
aa(lp2342
I1
a(lp2343
F0.0
aaI3
aa(lp2344
I1
a(lp2345
F0.0
aaI2
aa(lp2346
I1
a(lp2347
F0.0
aaI4
aa(lp2348
I1
a(lp2349
F0.0
aaI6
aa(lp2350
I1
a(lp2351
F0.0
aaI7
aa(lp2352
I1
a(lp2353
F0.0
aaI5
aa(lp2354
I1
a(lp2355
F0.909091
aaI11
aa(lp2356
I1
a(lp2357
F0.0
aaI16
aaa(lp2358
S'scaffold5382_cov123'
p2359
aS'scaffold143_cov57'
p2360
a(lp2361
I1
a(lp2362
F0.238095
aaI21
aaa(lp2363
S'scaffold34267_cov108'
p2364
aS'scaffold643_cov63'
p2365
aa(lp2366
S'scaffold1111_cov107'
p2367
aS'scaffold479_cov51'
p2368
a(lp2369
I1
a(lp2370
F0.0
aaI2
aa(lp2371
I1
a(lp2372
F0.0
aaI2
aa(lp2373
I1
a(lp2374
F0.0
aaI2
aa(lp2375
I1
a(lp2376
F0.0
aaI2
aaa(lp2377
S'scaffold1231_cov53'
p2378
aS'scaffold15012_cov64'
p2379
aa(lp2380
S'scaffold5517_cov53'
p2381
aS'scaffold5454_cov72'
p2382
aa(lp2383
S'scaffold19720_cov60'
p2384
aS'scaffold8038_cov51'
p2385
a(lp2386
I1
a(lp2387
F0.0
aaI11
aa(lp2388
I1
a(lp2389
F0.0
aaI3
aa(lp2390
I1
a(lp2391
F0.0
aaI6
aa(lp2392
I1
a(lp2393
F0.333333
aaI6
aa(lp2394
I1
a(lp2395
F0.0
aaI19
aa(lp2396
I1
a(lp2397
F0.888889
aaI9
aa(lp2398
I1
a(lp2399
F0.0
aaI7
aa(lp2400
I1
a(lp2401
F0.0
aaI10
aa(lp2402
I1
a(lp2403
F0.0
aaI17
aa(lp2404
I1
a(lp2405
F0.684211
aaI19
aa(lp2406
I1
a(lp2407
F0.3
aaI10
aaa(lp2408
S'scaffold6247_cov68'
p2409
aS'scaffold5562_cov105'
p2410
a(lp2411
I1
a(lp2412
F0.0
aaI2
aa(lp2413
I1
a(lp2414
F0.0
aaI2
aa(lp2415
I1
a(lp2416
F0.0
aaI2
aa(lp2417
I1
a(lp2418
F0.0
aaI2
aa(lp2419
I1
a(lp2420
F0.0
aaI2
aa(lp2421
I1
a(lp2422
F0.0
aaI2
aa(lp2423
I1
a(lp2424
F0.0
aaI2
aa(lp2425
I1
a(lp2426
F0.0
aaI2
aa(lp2427
I1
a(lp2428
F0.0
aaI3
aa(lp2429
I1
a(lp2430
F0.0
aaI3
aa(lp2431
I1
a(lp2432
F0.0
aaI2
aa(lp2433
I1
a(lp2434
F0.0
aaI2
aa(lp2435
I1
a(lp2436
F0.75
aaI4
aa(lp2437
I1
a(lp2438
F0.0
aaI2
aa(lp2439
I1
a(lp2440
F0.0
aaI2
aa(lp2441
I1
a(lp2442
F0.0
aaI2
aaa(lp2443
S'scaffold33248_cov88'
p2444
aS'scaffold8659_cov78'
p2445
a(lp2446
I1
a(lp2447
F0.0
aaI6
aaa(lp2448
S'scaffold37060_cov73'
p2449
aS'scaffold3248_cov70'
p2450
aa(lp2451
S'scaffold3106_cov64'
p2452
aS'scaffold10343_cov61'
p2453
aa(lp2454
S'scaffold14767_cov109'
p2455
aS'scaffold32828_cov78'
p2456
aa(lp2457
S'scaffold55592_cov107'
p2458
aS'scaffold25106_cov104'
p2459
a(lp2460
I1
a(lp2461
F0.357143
aaI14
aa(lp2462
I1
a(lp2463
F0.5
aaI6
aa(lp2464
I1
a(lp2465
F0.4
aaI5
aa(lp2466
I1
a(lp2467
F0.4
aaI5
aaa(lp2468
S'scaffold10405_cov56'
p2469
aS'scaffold33245_cov72'
p2470
a(lp2471
I1
a(lp2472
F0.0
aaI5
aa(lp2473
I1
a(lp2474
F0.0
aaI4
aa(lp2475
I1
a(lp2476
F0.0
aaI7
aa(lp2477
I1
a(lp2478
F0.571429
aaI7
aa(lp2479
I1
a(lp2480
F0.666667
aaI3
aa(lp2481
I1
a(lp2482
F0.5
aaI4
aa(lp2483
I1
a(lp2484
F0.0
aaI5
aa(lp2485
I1
a(lp2486
F0.0
aaI4
aa(lp2487
I1
a(lp2488
F0.0
aaI4
aaa(lp2489
S'scaffold36033_cov68'
p2490
aS'scaffold2694_cov89'
p2491
aa(lp2492
S'scaffold6209_cov128'
p2493
aS'scaffold1667_cov55'
p2494
a(lp2495
I1
a(lp2496
F0.5
aaI6
aa(lp2497
I1
a(lp2498
F0.3
aaI20
aa(lp2499
I1
a(lp2500
F0.238095
aaI21
aa(lp2501
I1
a(lp2502
F0.222222
aaI18
aa(lp2503
I1
a(lp2504
F0.0
aaI9
aa(lp2505
I1
a(lp2506
F0.357143
aaI14
aaa(lp2507
S'scaffold40047_cov153'
p2508
aS'scaffold36009_cov57'
p2509
aa(lp2510
S'scaffold2804_cov64'
p2511
aS'scaffold4668_cov92'
p2512
a(lp2513
I1
a(lp2514
F0.0
aaI11
aaa(lp2515
S'scaffold462_cov72'
p2516
aS'scaffold10361_cov51'
p2517
aa(lp2518
S'scaffold2786_cov74'
p2519
aS'scaffold6624_cov86'
p2520
aa(lp2521
S'scaffold85_cov56'
p2522
aS'scaffold20873_cov79'
p2523
aa(lp2524
S'scaffold13738_cov105'
p2525
aS'scaffold11516_cov50'
p2526
aa(lp2527
S'scaffold7192_cov111'
p2528
aS'scaffold33440_cov107'
p2529
a(lp2530
I1
a(lp2531
F0.235294
aaI17
aa(lp2532
I1
a(lp2533
F0.296296
aaI27
aa(lp2534
I1
a(lp2535
F0.0
aaI3
aa(lp2536
I1
a(lp2537
F0.6
aaI20
aa(lp2538
I1
a(lp2539
F0.315789
aaI19
aa(lp2540
I1
a(lp2541
F0.307692
aaI26
aa(lp2542
I1
a(lp2543
F0.692308
aaI13
aaa(lp2544
S'scaffold15562_cov57'
p2545
aS'scaffold17331_cov117'
p2546
a(lp2547
I1
a(lp2548
F0.214286
aaI14
aa(lp2549
I1
a(lp2550
F0.555556
aaI9
aa(lp2551
I1
a(lp2552
F0.0
aaI10
aa(lp2553
I1
a(lp2554
F0.2
aaI10
aa(lp2555
I1
a(lp2556
F0.785714
aaI14
aaa(lp2557
S'scaffold18040_cov61'
p2558
aS'scaffold4891_cov78'
p2559
a(lp2560
I1
a(lp2561
F0.25
aaI12
aa(lp2562
I1
a(lp2563
F0.666667
aaI3
aaa(lp2564
S'scaffold1364_cov77'
p2565
aS'scaffold2830_cov52'
p2566
a(lp2567
I1
a(lp2568
F0.0
aaI5
aa(lp2569
I1
a(lp2570
F0.5
aaI18
aa(lp2571
I1
a(lp2572
F0.0
aaI23
aa(lp2573
I1
a(lp2574
F0.0
aaI20
aaa(lp2575
S'scaffold2388_cov79'
p2576
aS'scaffold3457_cov55'
p2577
a(lp2578
I1
a(lp2579
F0.0
aaI11
aa(lp2580
I1
a(lp2581
F0.307692
aaI13
aaa(lp2582
S'scaffold8576_cov64'
p2583
aS'scaffold14804_cov81'
p2584
a(lp2585
I1
a(lp2586
F0.214286
aaI14
aa(lp2587
I1
a(lp2588
F0.25
aaI12
aa(lp2589
I1
a(lp2590
F0.285714
aaI14
aa(lp2591
I1
a(lp2592
F0.0
aaI9
aaa(lp2593
S'scaffold5284_cov102'
p2594
aS'scaffold18868_cov79'
p2595
a(lp2596
I1
a(lp2597
F0.0
aaI14
aa(lp2598
I1
a(lp2599
F0.0
aaI8
aa(lp2600
I1
a(lp2601
F0.0
aaI4
aa(lp2602
I1
a(lp2603
F0.0
aaI6
aa(lp2604
I1
a(lp2605
F0.0
aaI6
aa(lp2606
I1
a(lp2607
F0.333333
aaI6
aa(lp2608
I1
a(lp2609
F0.6
aaI10
aa(lp2610
I1
a(lp2611
F0.222222
aaI9
aa(lp2612
I1
a(lp2613
F0.0
aaI17
aaa(lp2614
S'scaffold37571_cov118'
p2615
aS'scaffold14485_cov58'
p2616
a(lp2617
I1
a(lp2618
F0.0
aaI2
aa(lp2619
I1
a(lp2620
F0.333333
aaI6
aaa(lp2621
S'scaffold5881_cov87'
p2622
aS'scaffold1151_cov99'
p2623
a(lp2624
I1
a(lp2625
F0.0
aaI6
aa(lp2626
I1
a(lp2627
F0.0
aaI2
aa(lp2628
I1
a(lp2629
F0.0
aaI2
aa(lp2630
I1
a(lp2631
F0.0
aaI2
aa(lp2632
I1
a(lp2633
F0.0
aaI4
aa(lp2634
I1
a(lp2635
F0.666667
aaI3
aa(lp2636
I1
a(lp2637
F0.0
aaI2
aaa(lp2638
S'scaffold1082_cov61'
p2639
aS'scaffold8217_cov58'
p2640
aa(lp2641
S'scaffold6018_cov72'
p2642
aS'scaffold7261_cov132'
p2643
aa(lp2644
S'scaffold4874_cov72'
p2645
aS'scaffold7806_cov72'
p2646
aa(lp2647
S'scaffold3835_cov72'
p2648
aS'scaffold25187_cov99'
p2649
aa(lp2650
S'scaffold33204_cov76'
p2651
aS'scaffold16649_cov90'
p2652
a(lp2653
I1
a(lp2654
F0.0
aaI2
aa(lp2655
I1
a(lp2656
F0.0
aaI2
aa(lp2657
I1
a(lp2658
F0.0
aaI2
aa(lp2659
I1
a(lp2660
F0.0
aaI4
aa(lp2661
I1
a(lp2662
F0.0
aaI4
aa(lp2663
I1
a(lp2664
F0.75
aaI4
aaa(lp2665
S'scaffold2088_cov50'
p2666
aS'scaffold21479_cov41'
p2667
aa(lp2668
S'scaffold10114_cov67'
p2669
aS'scaffold6757_cov85'
p2670
a(lp2671
I1
a(lp2672
F0.2
aaI10
aa(lp2673
I1
a(lp2674
F0.0
aaI7
aa(lp2675
I1
a(lp2676
F0.0
aaI8
aa(lp2677
I1
a(lp2678
F0.875
aaI8
aa(lp2679
I1
a(lp2680
F0.0
aaI10
aa(lp2681
I1
a(lp2682
F0.0
aaI4
aa(lp2683
I1
a(lp2684
F0.0
aaI6
aa(lp2685
I1
a(lp2686
F0.0
aaI3
aa(lp2687
I1
a(lp2688
F0.0
aaI5
aa(lp2689
I1
a(lp2690
F0.0
aaI2
aa(lp2691
I1
a(lp2692
F0.0
aaI2
aa(lp2693
I1
a(lp2694
F0.0
aaI3
aa(lp2695
I1
a(lp2696
F0.0
aaI3
aa(lp2697
I1
a(lp2698
F0.0
aaI3
aa(lp2699
I1
a(lp2700
F0.0
aaI3
aa(lp2701
I1
a(lp2702
F0.0
aaI3
aa(lp2703
I1
a(lp2704
F0.888889
aaI9
aa(lp2705
I1
a(lp2706
F0.888889
aaI9
aa(lp2707
I1
a(lp2708
F0.0
aaI9
aa(lp2709
I1
a(lp2710
F0.0
aaI11
aa(lp2711
I1
a(lp2712
F0.0
aaI11
aa(lp2713
I1
a(lp2714
F0.0
aaI13
aa(lp2715
I1
a(lp2716
F0.0
aaI13
aa(lp2717
I1
a(lp2718
F0.0
aaI14
aaa(lp2719
S'scaffold8357_cov58'
p2720
aS'scaffold8823_cov89'
p2721
a(lp2722
I1
a(lp2723
F0.666667
aaI3
aa(lp2724
I1
a(lp2725
F0.0
aaI3
aaa(lp2726
S'scaffold5370_cov101'
p2727
aS'scaffold21582_cov121'
p2728
aa(lp2729
S'scaffold4339_cov63'
p2730
aS'scaffold34332_cov81'
p2731
aa(lp2732
S'scaffold570_cov75'
p2733
aS'scaffold3128_cov90'
p2734
a(lp2735
I1
a(lp2736
F0.0
aaI5
aa(lp2737
I1
a(lp2738
F0.0
aaI4
aa(lp2739
I1
a(lp2740
F0.0
aaI4
aa(lp2741
I1
a(lp2742
F0.0
aaI4
aa(lp2743
I1
a(lp2744
F0.0
aaI2
aa(lp2745
I1
a(lp2746
F0.0
aaI2
aa(lp2747
I1
a(lp2748
F0.0
aaI2
aa(lp2749
I1
a(lp2750
F0.0
aaI2
aa(lp2751
I1
a(lp2752
F0.0
aaI4
aa(lp2753
I1
a(lp2754
F0.0
aaI2
aaa(lp2755
S'scaffold36145_cov66'
p2756
aS'scaffold5517_cov53'
p2757
aa(lp2758
S'scaffold5357_cov53'
p2759
aS'scaffold23886_cov86'
p2760
a(lp2761
I1
a(lp2762
F0.2
aaI15
aaa(lp2763
S'scaffold37745_cov103'
p2764
aS'scaffold9100_cov54'
p2765
aa(lp2766
S'scaffold36584_cov77'
p2767
aS'scaffold14596_cov132'
p2768
aa(lp2769
S'scaffold33612_cov72'
p2770
aS'scaffold34367_cov119'
p2771
aa(lp2772
S'scaffold10858_cov54'
p2773
aS'scaffold33183_cov87'
p2774
aa(lp2775
S'scaffold33204_cov76'
p2776
aS'scaffold6201_cov79'
p2777
aa(lp2778
S'scaffold14887_cov139'
p2779
aS'scaffold7284_cov54'
p2780
aa(lp2781
S'scaffold14365_cov55'
p2782
aS'scaffold37624_cov98'
p2783
aa(lp2784
S'scaffold12169_cov151'
p2785
aS'scaffold2317_cov61'
p2786
a(lp2787
I1
a(lp2788
F0.3
aaI10
aaa(lp2789
S'scaffold3230_cov72'
p2790
aS'scaffold2697_cov65'
p2791
aa(lp2792
S'scaffold34162_cov105'
p2793
aS'scaffold4290_cov94'
p2794
aa(lp2795
S'scaffold10508_cov75'
p2796
aS'scaffold5982_cov55'
p2797
a(lp2798
I1
a(lp2799
F0.222222
aaI18
aa(lp2800
I1
a(lp2801
F0.818182
aaI33
aa(lp2802
I1
a(lp2803
F0.35
aaI40
aa(lp2804
I1
a(lp2805
F0.526316
aaI38
aaa(lp2806
S'scaffold2637_cov103'
p2807
aS'scaffold12063_cov48'
p2808
aa(lp2809
S'scaffold9910_cov51'
p2810
aS'scaffold5049_cov79'
p2811
a(lp2812
I1
a(lp2813
F0.2
aaI10
aa(lp2814
I1
a(lp2815
F0.222222
aaI9
aa(lp2816
I1
a(lp2817
F0.210526
aaI19
aa(lp2818
I1
a(lp2819
F0.4
aaI5
aa(lp2820
I1
a(lp2821
F0.25
aaI8
aa(lp2822
I1
a(lp2823
F0.25
aaI8
aa(lp2824
I1
a(lp2825
F0.666667
aaI3
aa(lp2826
I1
a(lp2827
F0.75
aaI4
aa(lp2828
I1
a(lp2829
F0.0
aaI4
aa(lp2830
I1
a(lp2831
F0.0
aaI5
aa(lp2832
I1
a(lp2833
F0.0
aaI3
aa(lp2834
I1
a(lp2835
F0.0
aaI3
aa(lp2836
I1
a(lp2837
F0.363636
aaI11
aa(lp2838
I1
a(lp2839
F0.416667
aaI12
aa(lp2840
I1
a(lp2841
F0.333333
aaI15
aa(lp2842
I1
a(lp2843
F0.333333
aaI15
aa(lp2844
I1
a(lp2845
F0.285714
aaI14
aa(lp2846
I1
a(lp2847
F0.0
aaI4
aa(lp2848
I1
a(lp2849
F0.0
aaI5
aa(lp2850
I1
a(lp2851
F0.0
aaI7
aa(lp2852
I1
a(lp2853
F0.0
aaI3
aa(lp2854
I1
a(lp2855
F0.0
aaI5
aa(lp2856
I1
a(lp2857
F0.0
aaI3
aa(lp2858
I1
a(lp2859
F0.230769
aaI13
aa(lp2860
I1
a(lp2861
F0.0
aaI11
aaa(lp2862
S'scaffold7154_cov101'
p2863
aS'scaffold11306_cov90'
p2864
a(lp2865
I1
a(lp2866
F0.0
aaI2
aa(lp2867
I1
a(lp2868
F0.0
aaI3
aa(lp2869
I1
a(lp2870
F0.0
aaI3
aa(lp2871
I1
a(lp2872
F0.0
aaI4
aa(lp2873
I1
a(lp2874
F0.0
aaI5
aa(lp2875
I1
a(lp2876
F0.0
aaI4
aa(lp2877
I1
a(lp2878
F0.0
aaI4
aa(lp2879
I1
a(lp2880
F0.0
aaI2
aaa(lp2881
S'scaffold14510_cov60'
p2882
aS'scaffold11820_cov72'
p2883
aa(lp2884
S'scaffold17719_cov52'
p2885
aS'scaffold7882_cov53'
p2886
a(lp2887
I1
a(lp2888
F0.0
aaI4
aa(lp2889
I1
a(lp2890
F0.0
aaI4
aa(lp2891
I1
a(lp2892
F0.0
aaI3
aa(lp2893
I1
a(lp2894
F0.0
aaI6
aa(lp2895
I1
a(lp2896
F0.0
aaI4
aa(lp2897
I1
a(lp2898
F0.0
aaI7
aa(lp2899
I1
a(lp2900
F0.0
aaI9
aa(lp2901
I1
a(lp2902
F0.0
aaI3
aa(lp2903
I1
a(lp2904
F0.5
aaI12
aa(lp2905
I1
a(lp2906
F0.5
aaI12
aa(lp2907
I1
a(lp2908
F0.5625
aaI16
aa(lp2909
I1
a(lp2910
F0.0
aaI8
aa(lp2911
I1
a(lp2912
F0.0
aaI7
aa(lp2913
I1
a(lp2914
F0.0
aaI10
aaa(lp2915
S'scaffold34185_cov69'
p2916
aS'scaffold1343_cov77'
p2917
a(lp2918
I1
a(lp2919
F0.0
aaI2
aaa(lp2920
S'scaffold2057_cov66'
p2921
aS'scaffold663_cov79'
p2922
a(lp2923
I1
a(lp2924
F0.272727
aaI11
aa(lp2925
I1
a(lp2926
F0.25
aaI12
aaa(lp2927
S'scaffold8668_cov57'
p2928
aS'scaffold11818_cov100'
p2929
a(lp2930
I1
a(lp2931
F0.0
aaI5
aa(lp2932
I1
a(lp2933
F0.0
aaI6
aa(lp2934
I1
a(lp2935
F0.0
aaI7
aa(lp2936
I1
a(lp2937
F0.0
aaI9
aaa(lp2938
S'scaffold1902_cov64'
p2939
aS'scaffold4418_cov65'
p2940
a(lp2941
I1
a(lp2942
F0.714286
aaI7
aa(lp2943
I1
a(lp2944
F0.277778
aaI18
aaa(lp2945
S'scaffold2541_cov64'
p2946
aS'scaffold9591_cov85'
p2947
aa(lp2948
S'scaffold20331_cov77'
p2949
aS'scaffold3358_cov56'
p2950
aa(lp2951
S'scaffold10187_cov86'
p2952
aS'scaffold10455_cov70'
p2953
a(lp2954
I1
a(lp2955
F0.0
aaI2
aaa(lp2956
S'scaffold4918_cov110'
p2957
aS'scaffold1432_cov55'
p2958
a(lp2959
I1
a(lp2960
F0.3
aaI20
aa(lp2961
I1
a(lp2962
F0.0
aaI14
aaa(lp2963
S'scaffold23746_cov60'
p2964
aS'scaffold9750_cov109'
p2965
aa(lp2966
S'scaffold36776_cov56'
p2967
aS'scaffold6457_cov56'
p2968
aa(lp2969
S'scaffold36466_cov115'
p2970
aS'scaffold6807_cov54'
p2971
a(lp2972
I1
a(lp2973
F0.2
aaI10
aa(lp2974
I1
a(lp2975
F0.0
aaI10
aa(lp2976
I1
a(lp2977
F0.230769
aaI13
aa(lp2978
I1
a(lp2979
F0.4
aaI10
aa(lp2980
I1
a(lp2981
F0.272727
aaI11
aaa(lp2982
S'scaffold9240_cov92'
p2983
aS'scaffold952_cov71'
p2984
aa(lp2985
S'scaffold4085_cov106'
p2986
aS'scaffold1850_cov129'
p2987
aa(lp2988
S'scaffold29404_cov53'
p2989
aS'scaffold10537_cov54'
p2990
aa(lp2991
S'scaffold15110_cov149'
p2992
aS'scaffold1645_cov55'
p2993
a(lp2994
I1
a(lp2995
F0.272727
aaI11
aaa(lp2996
S'scaffold4816_cov61'
p2997
aS'scaffold4606_cov54'
p2998
a(lp2999
I1
a(lp3000
F0.391304
aaI23
aa(lp3001
I1
a(lp3002
F0.307692
aaI13
aa(lp3003
I1
a(lp3004
F0.235294
aaI17
aa(lp3005
I1
a(lp3006
F0.222222
aaI9
aaa(lp3007
S'scaffold2603_cov89'
p3008
aS'scaffold16801_cov94'
p3009
aa(lp3010
S'scaffold10374_cov51'
p3011
aS'scaffold37747_cov56'
p3012
aasS'up'
p3013
(lp3014
(lp3015
g6
ag7
a(lp3016
I1
a(lp3017
F0.2
aaI20
aa(lp3018
I1
a(lp3019
F0.2
aaI20
aa(lp3020
I1
a(lp3021
F0.2
aaI20
aa(lp3022
I1
a(lp3023
F0.533333
aaI15
aa(lp3024
I1
a(lp3025
F0.230769
aaI26
aa(lp3026
I1
a(lp3027
F0.214286
aaI28
aa(lp3028
I1
a(lp3029
F0.521739
aaI23
aa(lp3030
I1
a(lp3031
F0.266667
aaI15
aa(lp3032
I1
a(lp3033
F0.2
aaI15
aa(lp3034
I1
a(lp3035
F0.294118
aaI17
aa(lp3036
I1
a(lp3037
F0.208333
aaI24
aa(lp3038
I1
a(lp3039
F0.333333
aaI9
aa(lp3040
I1
a(lp3041
F0.333333
aaI9
aa(lp3042
I1
a(lp3043
F0.5
aaI10
aa(lp3044
I1
a(lp3045
F0.3
aaI10
aa(lp3046
I1
a(lp3047
F0.2
aaI10
aa(lp3048
I1
a(lp3049
F0.2
aaI10
aa(lp3050
I1
a(lp3051
F0.384615
aaI13
aa(lp3052
I1
a(lp3053
F0.333333
aaI9
aa(lp3054
I1
a(lp3055
F0.285714
aaI14
aa(lp3056
I1
a(lp3057
F0.545455
aaI11
aa(lp3058
I1
a(lp3059
F0.583333
aaI12
aa(lp3060
I1
a(lp3061
F0.636364
aaI11
aa(lp3062
I1
a(lp3063
F0.583333
aaI12
aa(lp3064
I1
a(lp3065
F0.263158
aaI19
aa(lp3066
I2
a(lp3067
F0.421053
aF0.368421
aaI19
aa(lp3068
I1
a(lp3069
F0.666667
aaI3
aa(lp3070
I1
a(lp3071
F0.411765
aaI17
aa(lp3072
I1
a(lp3073
F0.529412
aaI17
aaa(lp3074
g83
ag84
a(lp3075
I1
a(lp3076
F0.25
aaI12
aa(lp3077
I1
a(lp3078
F0.272727
aaI11
aa(lp3079
I1
a(lp3080
F0.214286
aaI14
aa(lp3081
I1
a(lp3082
F0.233333
aaI30
aa(lp3083
I1
a(lp3084
F0.25
aaI24
aa(lp3085
I1
a(lp3086
F0.5
aaI16
aa(lp3087
I1
a(lp3088
F0.2
aaI10
aa(lp3089
I1
a(lp3090
F0.411765
aaI17
aa(lp3091
I1
a(lp3092
F0.4
aaI15
aa(lp3093
I1
a(lp3094
F0.210526
aaI19
aa(lp3095
I1
a(lp3096
F0.0
aaI9
aa(lp3097
I1
a(lp3098
F0.0
aaI18
aa(lp3099
I1
a(lp3100
F0.307692
aaI13
aa(lp3101
I1
a(lp3102
F0.363636
aaI11
aa(lp3103
I1
a(lp3104
F0.333333
aaI9
aa(lp3105
I1
a(lp3106
F0.363636
aaI11
aaa(lp3107
g126
ag127
a(lp3108
I1
a(lp3109
F0.214286
aaI14
aa(lp3110
I1
a(lp3111
F0.2
aaI10
aaa(lp3112
g129
ag130
aa(lp3113
g132
ag133
aa(lp3114
g145
ag146
a(lp3115
I1
a(lp3116
F0.464286
aaI28
aa(lp3117
I1
a(lp3118
F0.6
aaI10
aa(lp3119
I1
a(lp3120
F0.454545
aaI11
aa(lp3121
I1
a(lp3122
F0.208333
aaI24
aa(lp3123
I1
a(lp3124
F0.2
aaI25
aaa(lp3125
g148
ag149
a(lp3126
I1
a(lp3127
F0.363636
aaI11
aa(lp3128
I1
a(lp3129
F0.0
aaI9
aaa(lp3130
g153
ag154
aa(lp3131
g158
ag159
aa(lp3132
g165
ag166
a(lp3133
I1
a(lp3134
F0.47619
aaI21
aaa(lp3135
g168
ag169
a(lp3136
I1
a(lp3137
F0.3
aaI10
aaa(lp3138
g175
ag176
a(lp3139
I1
a(lp3140
F0.0
aaI3
aa(lp3141
I1
a(lp3142
F0.0
aaI3
aa(lp3143
I1
a(lp3144
F0.0
aaI3
aa(lp3145
I1
a(lp3146
F0.25
aaI16
aa(lp3147
I1
a(lp3148
F0.571429
aaI21
aaa(lp3149
g178
ag179
aa(lp3150
g181
ag182
a(lp3151
I1
a(lp3152
F0.375
aaI24
aa(lp3153
I1
a(lp3154
F0.351351
aaI37
aa(lp3155
I1
a(lp3156
F0.4
aaI15
aa(lp3157
I1
a(lp3158
F0.529412
aaI17
aa(lp3159
I1
a(lp3160
F0.222222
aaI9
aa(lp3161
I1
a(lp3162
F0.25
aaI12
aa(lp3163
I1
a(lp3164
F0.5
aaI8
aaa(lp3165
g186
ag187
aa(lp3166
g189
ag190
a(lp3167
I1
a(lp3168
F0.238095
aaI21
aaa(lp3169
g220
ag221
aa(lp3170
g225
ag226
a(lp3171
I1
a(lp3172
F0.0
aaI11
aa(lp3173
I1
a(lp3174
F0.0
aaI8
aa(lp3175
I1
a(lp3176
F0.0
aaI14
aa(lp3177
I1
a(lp3178
F0.0
aaI2
aaa(lp3179
g228
ag229
a(lp3180
I1
a(lp3181
F0.714286
aaI7
aa(lp3182
I1
a(lp3183
F0.285714
aaI7
aa(lp3184
I1
a(lp3185
F0.285714
aaI7
aa(lp3186
I1
a(lp3187
F0.25
aaI8
aaa(lp3188
g237
ag238
aa(lp3189
g246
ag247
aa(lp3190
g275
ag276
a(lp3191
I1
a(lp3192
F0.227273
aaI22
aa(lp3193
I1
a(lp3194
F0.222222
aaI18
aa(lp3195
I1
a(lp3196
F0.235294
aaI17
aaa(lp3197
g278
ag279
aa(lp3198
g281
ag282
a(lp3199
I1
a(lp3200
F0.0
aaI22
aaa(lp3201
g284
ag285
aa(lp3202
g287
ag288
aa(lp3203
g296
ag297
aa(lp3204
g311
ag312
a(lp3205
I1
a(lp3206
F0.2
aaI15
aa(lp3207
I1
a(lp3208
F0.333333
aaI15
aa(lp3209
I1
a(lp3210
F0.272727
aaI22
aa(lp3211
I1
a(lp3212
F0.222222
aaI18
aa(lp3213
I1
a(lp3214
F0.0
aaI2
aaa(lp3215
g318
ag319
a(lp3216
I1
a(lp3217
F0.333333
aaI6
aa(lp3218
I1
a(lp3219
F0.4
aaI10
aa(lp3220
I1
a(lp3221
F0.272727
aaI11
aa(lp3222
I1
a(lp3223
F0.272727
aaI11
aa(lp3224
I1
a(lp3225
F0.230769
aaI13
aa(lp3226
I1
a(lp3227
F0.230769
aaI13
aa(lp3228
I1
a(lp3229
F0.25
aaI20
aa(lp3230
I1
a(lp3231
F0.0
aaI15
aa(lp3232
I1
a(lp3233
F0.2
aaI15
aa(lp3234
I1
a(lp3235
F0.466667
aaI15
aa(lp3236
I1
a(lp3237
F0.4
aaI10
aaa(lp3238
g323
ag324
a(lp3239
I1
a(lp3240
F0.6
aaI15
aa(lp3241
I1
a(lp3242
F0.307692
aaI13
aa(lp3243
I1
a(lp3244
F0.4
aaI5
aa(lp3245
I1
a(lp3246
F0.4
aaI5
aa(lp3247
I1
a(lp3248
F0.285714
aaI7
aa(lp3249
I1
a(lp3250
F0.222222
aaI9
aa(lp3251
I1
a(lp3252
F0.25
aaI8
aaa(lp3253
g330
ag331
aa(lp3254
g335
ag336
aa(lp3255
g338
ag339
a(lp3256
I1
a(lp3257
F0.4
aaI20
aa(lp3258
I1
a(lp3259
F0.368421
aaI19
aa(lp3260
I1
a(lp3261
F0.5
aaI18
aa(lp3262
I1
a(lp3263
F0.4
aaI20
aa(lp3264
I1
a(lp3265
F0.388889
aaI18
aa(lp3266
I1
a(lp3267
F0.541667
aaI24
aa(lp3268
I1
a(lp3269
F0.266667
aaI15
aaa(lp3270
g363
ag364
a(lp3271
I1
a(lp3272
F0.3125
aaI16
aa(lp3273
I1
a(lp3274
F0.263158
aaI19
aa(lp3275
I1
a(lp3276
F0.277778
aaI18
aa(lp3277
I1
a(lp3278
F0.222222
aaI18
aa(lp3279
I1
a(lp3280
F0.217391
aaI23
aa(lp3281
I1
a(lp3282
F0.25
aaI24
aaa(lp3283
g368
ag369
aa(lp3284
g371
ag372
a(lp3285
I1
a(lp3286
F0.222222
aaI9
aa(lp3287
I1
a(lp3288
F0.3
aaI10
aa(lp3289
I1
a(lp3290
F0.3
aaI10
aa(lp3291
I1
a(lp3292
F0.235294
aaI17
aaa(lp3293
g384
ag385
aa(lp3294
g387
ag388
aa(lp3295
g394
ag395
a(lp3296
I1
a(lp3297
F0.0
aaI14
aaa(lp3298
g397
ag398
aa(lp3299
g400
ag401
aa(lp3300
g403
ag404
a(lp3301
I1
a(lp3302
F0.857143
aaI7
aa(lp3303
I1
a(lp3304
F0.75
aaI4
aaa(lp3305
g406
ag407
a(lp3306
I1
a(lp3307
F0.235294
aaI17
aa(lp3308
I1
a(lp3309
F0.277778
aaI18
aa(lp3310
I1
a(lp3311
F0.333333
aaI18
aa(lp3312
I1
a(lp3313
F0.625
aaI24
aa(lp3314
I1
a(lp3315
F0.2
aaI20
aaa(lp3316
g409
ag410
aa(lp3317
g412
ag413
a(lp3318
I1
a(lp3319
F0.230769
aaI13
aa(lp3320
I1
a(lp3321
F0.294118
aaI17
aaa(lp3322
g419
ag420
aa(lp3323
g422
ag423
a(lp3324
I1
a(lp3325
F0.25
aaI20
aa(lp3326
I1
a(lp3327
F0.318182
aaI22
aaa(lp3328
g433
ag434
a(lp3329
I1
a(lp3330
F0.3
aaI10
aa(lp3331
I1
a(lp3332
F0.222222
aaI9
aa(lp3333
I1
a(lp3334
F0.307692
aaI13
aa(lp3335
I1
a(lp3336
F0.4
aaI10
aa(lp3337
I1
a(lp3338
F0.2
aaI10
aa(lp3339
I1
a(lp3340
F0.333333
aaI12
aa(lp3341
I1
a(lp3342
F0.272727
aaI11
aa(lp3343
I1
a(lp3344
F0.3
aaI10
aa(lp3345
I1
a(lp3346
F0.25
aaI12
aa(lp3347
I1
a(lp3348
F0.25
aaI12
aaa(lp3349
g436
ag437
aa(lp3350
g439
ag440
aa(lp3351
g442
ag443
aa(lp3352
g445
ag446
aa(lp3353
g448
ag449
aa(lp3354
g451
ag452
aa(lp3355
g454
ag455
a(lp3356
I1
a(lp3357
F0.2
aaI25
aaa(lp3358
g461
ag462
a(lp3359
I1
a(lp3360
F0.285714
aaI21
aa(lp3361
I1
a(lp3362
F0.611111
aaI18
aa(lp3363
I1
a(lp3364
F0.647059
aaI17
aa(lp3365
I1
a(lp3366
F0.631579
aaI19
aa(lp3367
I1
a(lp3368
F0.571429
aaI21
aa(lp3369
I1
a(lp3370
F0.4
aaI20
aa(lp3371
I1
a(lp3372
F0.35
aaI20
aa(lp3373
I1
a(lp3374
F0.411765
aaI17
aa(lp3375
I1
a(lp3376
F0.333333
aaI9
aa(lp3377
I1
a(lp3378
F0.428571
aaI7
aa(lp3379
I1
a(lp3380
F0.391304
aaI23
aa(lp3381
I1
a(lp3382
F0.409091
aaI22
aa(lp3383
I1
a(lp3384
F0.458333
aaI24
aa(lp3385
I1
a(lp3386
F0.263158
aaI19
aa(lp3387
I1
a(lp3388
F0.25
aaI20
aaa(lp3389
g466
ag467
a(lp3390
I1
a(lp3391
F0.2
aaI15
aa(lp3392
I1
a(lp3393
F0.2
aaI15
aa(lp3394
I1
a(lp3395
F0.2
aaI15
aa(lp3396
I1
a(lp3397
F0.266667
aaI15
aa(lp3398
I1
a(lp3399
F0.230769
aaI13
aa(lp3400
I1
a(lp3401
F0.285714
aaI7
aa(lp3402
I1
a(lp3403
F0.363636
aaI11
aaa(lp3404
g479
ag480
aa(lp3405
g482
ag483
aa(lp3406
g485
ag486
a(lp3407
I1
a(lp3408
F0.307692
aaI13
aaa(lp3409
g496
ag497
aa(lp3410
g499
ag500
aa(lp3411
g502
ag503
a(lp3412
I1
a(lp3413
F0.2
aaI20
aa(lp3414
I1
a(lp3415
F0.0
aaI4
aa(lp3416
I1
a(lp3417
F0.214286
aaI14
aa(lp3418
I1
a(lp3419
F0.368421
aaI19
aa(lp3420
I1
a(lp3421
F0.35
aaI20
aa(lp3422
I1
a(lp3423
F0.391304
aaI23
aa(lp3424
I1
a(lp3425
F0.363636
aaI22
aa(lp3426
I1
a(lp3427
F0.333333
aaI15
aa(lp3428
I1
a(lp3429
F0.25
aaI20
aa(lp3430
I1
a(lp3431
F0.294118
aaI17
aa(lp3432
I1
a(lp3433
F0.333333
aaI15
aa(lp3434
I1
a(lp3435
F0.333333
aaI15
aa(lp3436
I1
a(lp3437
F0.333333
aaI15
aa(lp3438
I1
a(lp3439
F0.333333
aaI15
aa(lp3440
I1
a(lp3441
F0.3125
aaI16
aa(lp3442
I1
a(lp3443
F0.294118
aaI17
aa(lp3444
I1
a(lp3445
F0.222222
aaI18
aa(lp3446
I1
a(lp3447
F0.473684
aaI19
aa(lp3448
I1
a(lp3449
F0.4375
aaI16
aa(lp3450
I1
a(lp3451
F0.545455
aaI22
aa(lp3452
I1
a(lp3453
F0.47619
aaI21
aa(lp3454
I1
a(lp3455
F0.35
aaI20
aa(lp3456
I1
a(lp3457
F0.3
aaI20
aa(lp3458
I1
a(lp3459
F0.230769
aaI13
aa(lp3460
I1
a(lp3461
F0.230769
aaI13
aa(lp3462
I1
a(lp3463
F0.214286
aaI14
aa(lp3464
I1
a(lp3465
F0.451613
aaI31
aa(lp3466
I1
a(lp3467
F1.0
aaI2
aaa(lp3468
g521
ag522
aa(lp3469
g526
ag527
aa(lp3470
g535
ag536
a(lp3471
I1
a(lp3472
F0.0
aaI4
aa(lp3473
I1
a(lp3474
F0.428571
aaI7
aa(lp3475
I1
a(lp3476
F0.4
aaI10
aa(lp3477
I1
a(lp3478
F0.65
aaI20
aa(lp3479
I1
a(lp3480
F0.2
aaI20
aa(lp3481
I1
a(lp3482
F0.0
aaI14
aa(lp3483
I1
a(lp3484
F0.0
aaI5
aa(lp3485
I1
a(lp3486
F0.0
aaI2
aaa(lp3487
g538
ag539
aa(lp3488
g547
ag548
aa(lp3489
g550
ag551
a(lp3490
I1
a(lp3491
F0.222222
aaI36
aa(lp3492
I1
a(lp3493
F0.533333
aaI15
aa(lp3494
I1
a(lp3495
F0.533333
aaI15
aa(lp3496
I1
a(lp3497
F0.538462
aaI13
aa(lp3498
I1
a(lp3499
F0.7
aaI10
aa(lp3500
I1
a(lp3501
F0.666667
aaI9
aa(lp3502
I1
a(lp3503
F0.388889
aaI18
aa(lp3504
I1
a(lp3505
F0.473684
aaI38
aa(lp3506
I1
a(lp3507
F0.357143
aaI28
aa(lp3508
I1
a(lp3509
F0.481481
aaI27
aa(lp3510
I1
a(lp3511
F0.407407
aaI27
aa(lp3512
I1
a(lp3513
F0.346154
aaI26
aa(lp3514
I1
a(lp3515
F0.378378
aaI37
aa(lp3516
I1
a(lp3517
F0.217391
aaI23
aa(lp3518
I1
a(lp3519
F0.411765
aaI17
aa(lp3520
I1
a(lp3521
F0.285714
aaI28
aa(lp3522
I1
a(lp3523
F0.214286
aaI28
aa(lp3524
I1
a(lp3525
F0.214286
aaI28
aa(lp3526
I1
a(lp3527
F0.0
aaI18
aa(lp3528
I1
a(lp3529
F0.411765
aaI17
aa(lp3530
I1
a(lp3531
F0.428571
aaI21
aa(lp3532
I1
a(lp3533
F0.269231
aaI26
aa(lp3534
I1
a(lp3535
F0.222222
aaI27
aa(lp3536
I1
a(lp3537
F0.4
aaI20
aa(lp3538
I1
a(lp3539
F0.2
aaI10
aa(lp3540
I1
a(lp3541
F0.222222
aaI9
aa(lp3542
I1
a(lp3543
F0.210526
aaI19
aa(lp3544
I1
a(lp3545
F0.210526
aaI19
aa(lp3546
I1
a(lp3547
F0.222222
aaI18
aa(lp3548
I1
a(lp3549
F0.470588
aaI68
aaa(lp3550
g575
ag576
a(lp3551
I1
a(lp3552
F0.428571
aaI28
aa(lp3553
I1
a(lp3554
F0.44
aaI25
aa(lp3555
I1
a(lp3556
F0.36
aaI25
aa(lp3557
I1
a(lp3558
F0.5
aaI12
aaa(lp3559
g622
ag623
aa(lp3560
g649
ag650
a(lp3561
I1
a(lp3562
F0.363636
aaI11
aa(lp3563
I1
a(lp3564
F0.470588
aaI17
aaa(lp3565
g652
ag653
a(lp3566
I1
a(lp3567
F0.0
aaI19
aa(lp3568
I1
a(lp3569
F0.333333
aaI21
aaa(lp3570
g655
ag656
a(lp3571
I1
a(lp3572
F0.259259
aaI27
aa(lp3573
I1
a(lp3574
F0.269231
aaI26
aaa(lp3575
g658
ag659
aa(lp3576
g661
ag662
aa(lp3577
g666
ag667
a(lp3578
I1
a(lp3579
F0.246154
aaI65
aa(lp3580
I1
a(lp3581
F0.2
aaI40
aaa(lp3582
g681
ag682
a(lp3583
I1
a(lp3584
F0.4
aaI15
aa(lp3585
I1
a(lp3586
F1.0
aaI7
aaa(lp3587
g706
ag707
a(lp3588
I1
a(lp3589
F0.222222
aaI36
aaa(lp3590
g709
ag710
a(lp3591
I1
a(lp3592
F0.333333
aaI15
aa(lp3593
I1
a(lp3594
F0.2
aaI10
aa(lp3595
I1
a(lp3596
F0.2
aaI10
aaa(lp3597
g712
ag713
aa(lp3598
g725
ag726
a(lp3599
I1
a(lp3600
F0.0
aaI9
aa(lp3601
I1
a(lp3602
F0.0
aaI17
aa(lp3603
I1
a(lp3604
F0.0
aaI3
aa(lp3605
I1
a(lp3606
F0.375
aaI8
aa(lp3607
I1
a(lp3608
F0.6
aaI5
aa(lp3609
I1
a(lp3610
F0.666667
aaI3
aaa(lp3611
g774
ag775
a(lp3612
I1
a(lp3613
F0.2
aaI10
aa(lp3614
I1
a(lp3615
F0.25
aaI8
aaa(lp3616
g777
ag778
a(lp3617
I1
a(lp3618
F0.0
aaI16
aaa(lp3619
g794
ag795
aa(lp3620
g801
ag802
aa(lp3621
g810
ag811
aa(lp3622
g813
ag814
a(lp3623
I1
a(lp3624
F0.666667
aaI27
aa(lp3625
I1
a(lp3626
F0.6
aaI25
aa(lp3627
I1
a(lp3628
F0.384615
aaI13
aa(lp3629
I1
a(lp3630
F0.428571
aaI21
aa(lp3631
I1
a(lp3632
F0.333333
aaI12
aa(lp3633
I1
a(lp3634
F0.35
aaI20
aa(lp3635
I1
a(lp3636
F0.333333
aaI18
aa(lp3637
I1
a(lp3638
F0.333333
aaI18
aa(lp3639
I1
a(lp3640
F0.428571
aaI28
aa(lp3641
I1
a(lp3642
F0.208333
aaI24
aa(lp3643
I1
a(lp3644
F0.217391
aaI23
aa(lp3645
I1
a(lp3646
F0.238095
aaI21
aa(lp3647
I1
a(lp3648
F0.47619
aaI21
aa(lp3649
I1
a(lp3650
F0.5
aaI20
aa(lp3651
I1
a(lp3652
F0.55
aaI20
aa(lp3653
I1
a(lp3654
F0.333333
aaI21
aa(lp3655
I1
a(lp3656
F0.625
aaI24
aa(lp3657
I1
a(lp3658
F0.266667
aaI15
aa(lp3659
I1
a(lp3660
F0.47619
aaI21
aa(lp3661
I1
a(lp3662
F0.5
aaI18
aa(lp3663
I1
a(lp3664
F0.473684
aaI19
aa(lp3665
I1
a(lp3666
F0.5
aaI12
aa(lp3667
I1
a(lp3668
F0.5
aaI16
aaa(lp3669
g816
ag817
a(lp3670
I1
a(lp3671
F0.222222
aaI9
aa(lp3672
I1
a(lp3673
F0.25
aaI8
aa(lp3674
I1
a(lp3675
F0.25
aaI8
aa(lp3676
I1
a(lp3677
F0.25
aaI8
aaa(lp3678
g819
ag820
aa(lp3679
g854
ag855
aa(lp3680
g857
ag858
a(lp3681
I1
a(lp3682
F0.24
aaI25
aaa(lp3683
g866
ag867
a(lp3684
I1
a(lp3685
F0.0
aaI24
aa(lp3686
I1
a(lp3687
F0.318182
aaI22
aa(lp3688
I1
a(lp3689
F0.25
aaI24
aa(lp3690
I1
a(lp3691
F0.230769
aaI26
aa(lp3692
I1
a(lp3693
F0.241379
aaI29
aa(lp3694
I1
a(lp3695
F0.607143
aaI28
aa(lp3696
I1
a(lp3697
F0.214286
aaI28
aaa(lp3698
g877
ag878
a(lp3699
I1
a(lp3700
F0.304348
aaI23
aa(lp3701
I1
a(lp3702
F0.210526
aaI19
aa(lp3703
I1
a(lp3704
F0.294118
aaI34
aa(lp3705
I1
a(lp3706
F0.272727
aaI33
aa(lp3707
I1
a(lp3708
F0.25
aaI20
aa(lp3709
I1
a(lp3710
F0.375
aaI40
aa(lp3711
I1
a(lp3712
F0.285714
aaI42
aa(lp3713
I1
a(lp3714
F0.28125
aaI32
aa(lp3715
I1
a(lp3716
F0.295455
aaI44
aaa(lp3717
g892
ag893
aa(lp3718
g895
ag896
aa(lp3719
g902
ag903
a(lp3720
I1
a(lp3721
F0.428571
aaI14
aaa(lp3722
g905
ag906
a(lp3723
I1
a(lp3724
F0.333333
aaI15
aa(lp3725
I1
a(lp3726
F0.230769
aaI13
aa(lp3727
I1
a(lp3728
F0.285714
aaI14
aa(lp3729
I1
a(lp3730
F0.333333
aaI24
aa(lp3731
I1
a(lp3732
F0.272727
aaI22
aa(lp3733
I1
a(lp3734
F0.214286
aaI14
aa(lp3735
I1
a(lp3736
F0.35
aaI20
aa(lp3737
I1
a(lp3738
F0.266667
aaI15
aaa(lp3739
g936
ag937
a(lp3740
I1
a(lp3741
F0.461538
aaI13
aa(lp3742
I1
a(lp3743
F0.4
aaI15
aa(lp3744
I1
a(lp3745
F0.352941
aaI17
aa(lp3746
I1
a(lp3747
F0.5
aaI20
aa(lp3748
I1
a(lp3749
F0.481481
aaI27
aa(lp3750
I1
a(lp3751
F0.45
aaI20
aaa(lp3752
g943
ag944
aa(lp3753
g946
ag947
a(lp3754
I1
a(lp3755
F0.5
aaI26
aa(lp3756
I1
a(lp3757
F0.266667
aaI15
aa(lp3758
I1
a(lp3759
F0.285714
aaI14
aa(lp3760
I1
a(lp3761
F0.210526
aaI19
aaa(lp3762
g955
ag956
aa(lp3763
g962
ag963
aa(lp3764
g969
ag970
a(lp3765
I1
a(lp3766
F0.2
aaI10
aa(lp3767
I1
a(lp3768
F0.285714
aaI7
aa(lp3769
I1
a(lp3770
F0.25
aaI8
aa(lp3771
I1
a(lp3772
F0.0
aaI5
aa(lp3773
I1
a(lp3774
F0.686275
aaI51
aaa(lp3775
g1008
ag1009
a(lp3776
I1
a(lp3777
F0.25
aaI44
aa(lp3778
I1
a(lp3779
F0.56
aaI50
aaa(lp3780
g1015
ag1016
a(lp3781
I1
a(lp3782
F0.7
aaI30
aa(lp3783
I1
a(lp3784
F0.608118
aaI1429
aa(lp3785
I1
a(lp3786
F0.0
aaI1013
aaa(lp3787
g1018
ag1019
a(lp3788
I1
a(lp3789
F0.478261
aaI23
aaa(lp3790
g1021
ag1022
aa(lp3791
g1034
ag1035
a(lp3792
I1
a(lp3793
F0.25
aaI16
aa(lp3794
I1
a(lp3795
F0.434783
aaI23
aaa(lp3796
g1043
ag1044
a(lp3797
I1
a(lp3798
F0.272727
aaI33
aa(lp3799
I1
a(lp3800
F0.6
aaI15
aa(lp3801
I1
a(lp3802
F0.5
aaI14
aa(lp3803
I1
a(lp3804
F0.5
aaI18
aa(lp3805
I1
a(lp3806
F0.0
aaI9
aaa(lp3807
g1046
ag1047
a(lp3808
I1
a(lp3809
F0.428571
aaI21
aa(lp3810
I1
a(lp3811
F0.307692
aaI26
aa(lp3812
I1
a(lp3813
F0.25
aaI20
aa(lp3814
I1
a(lp3815
F0.409091
aaI22
aaa(lp3816
g1051
ag1052
aa(lp3817
g1054
ag1055
a(lp3818
I1
a(lp3819
F0.272727
aaI11
aa(lp3820
I1
a(lp3821
F0.285714
aaI28
aa(lp3822
I1
a(lp3823
F0.2
aaI25
aa(lp3824
I1
a(lp3825
F0.238095
aaI21
aa(lp3826
I1
a(lp3827
F0.434783
aaI23
aa(lp3828
I1
a(lp3829
F0.333333
aaI24
aa(lp3830
I1
a(lp3831
F0.277778
aaI18
aa(lp3832
I1
a(lp3833
F0.368421
aaI19
aa(lp3834
I1
a(lp3835
F0.333333
aaI15
aa(lp3836
I1
a(lp3837
F0.272727
aaI11
aa(lp3838
I1
a(lp3839
F0.307692
aaI13
aaa(lp3840
g1077
ag1078
aa(lp3841
g1100
ag1101
aa(lp3842
g1103
ag1104
a(lp3843
I1
a(lp3844
F0.363636
aaI11
aa(lp3845
I1
a(lp3846
F0.25
aaI16
aa(lp3847
I1
a(lp3848
F0.235294
aaI17
aa(lp3849
I1
a(lp3850
F0.2
aaI20
aa(lp3851
I1
a(lp3852
F0.48
aaI25
aaa(lp3853
g1106
ag1107
aa(lp3854
g1109
ag1110
a(lp3855
I1
a(lp3856
F0.333333
aaI15
aaa(lp3857
g1112
ag1113
a(lp3858
I1
a(lp3859
F0.230769
aaI13
aa(lp3860
I1
a(lp3861
F0.285714
aaI7
aa(lp3862
I1
a(lp3863
F0.294118
aaI17
aa(lp3864
I1
a(lp3865
F0.277778
aaI18
aa(lp3866
I1
a(lp3867
F0.277778
aaI18
aa(lp3868
I1
a(lp3869
F0.277778
aaI18
aa(lp3870
I1
a(lp3871
F0.222222
aaI18
aaa(lp3872
g1123
ag1124
aa(lp3873
g1128
ag1129
a(lp3874
I1
a(lp3875
F0.0
aaI3
aa(lp3876
I1
a(lp3877
F0.25
aaI8
aa(lp3878
I1
a(lp3879
F0.0
aaI13
aa(lp3880
I1
a(lp3881
F0.222222
aaI18
aa(lp3882
I1
a(lp3883
F0.235294
aaI17
aa(lp3884
I1
a(lp3885
F0.333333
aaI15
aaa(lp3886
g1137
ag1138
aa(lp3887
g1150
ag1151
aa(lp3888
g1153
ag1154
aa(lp3889
g1156
ag1157
a(lp3890
I1
a(lp3891
F0.0
aaI2
aa(lp3892
I1
a(lp3893
F0.0
aaI8
aa(lp3894
I1
a(lp3895
F0.285714
aaI14
aa(lp3896
I1
a(lp3897
F0.285714
aaI14
aa(lp3898
I1
a(lp3899
F0.230769
aaI13
aa(lp3900
I1
a(lp3901
F0.230769
aaI13
aa(lp3902
I1
a(lp3903
F0.307692
aaI13
aa(lp3904
I1
a(lp3905
F0.3
aaI10
aa(lp3906
I1
a(lp3907
F0.368421
aaI19
aa(lp3908
I1
a(lp3909
F0.230769
aaI13
aa(lp3910
I1
a(lp3911
F0.307692
aaI13
aa(lp3912
I1
a(lp3913
F0.538462
aaI13
aa(lp3914
I1
a(lp3915
F0.266667
aaI15
aa(lp3916
I1
a(lp3917
F0.25
aaI16
aa(lp3918
I1
a(lp3919
F0.285714
aaI21
aa(lp3920
I1
a(lp3921
F0.233333
aaI30
aaa(lp3922
g1167
ag1168
a(lp3923
I1
a(lp3924
F0.5
aaI34
aa(lp3925
I1
a(lp3926
F0.2
aaI50
aa(lp3927
I1
a(lp3928
F0.290323
aaI31
aa(lp3929
I1
a(lp3930
F0.666667
aaI27
aa(lp3931
I1
a(lp3932
F0.0
aaI16
aaa(lp3933
g1188
ag1189
a(lp3934
I1
a(lp3935
F0.461538
aaI13
aa(lp3936
I1
a(lp3937
F0.25
aaI8
aa(lp3938
I1
a(lp3939
F0.222222
aaI9
aa(lp3940
I1
a(lp3941
F0.333333
aaI6
aa(lp3942
I1
a(lp3943
F0.285714
aaI7
aa(lp3944
I1
a(lp3945
F0.555556
aaI9
aa(lp3946
I1
a(lp3947
F0.2
aaI10
aa(lp3948
I1
a(lp3949
F0.0
aaI13
aa(lp3950
I1
a(lp3951
F0.0
aaI9
aaa(lp3952
g1197
ag1198
a(lp3953
I1
a(lp3954
F0.222222
aaI18
aa(lp3955
I1
a(lp3956
F0.407407
aaI27
aa(lp3957
I1
a(lp3958
F0.388889
aaI18
aa(lp3959
I1
a(lp3960
F0.736842
aaI19
aa(lp3961
I1
a(lp3962
F0.0
aaI8
aa(lp3963
I1
a(lp3964
F0.0
aaI8
aa(lp3965
I1
a(lp3966
F0.0
aaI9
aa(lp3967
I1
a(lp3968
F0.0
aaI8
aa(lp3969
I1
a(lp3970
F0.8
aaI5
aa(lp3971
I1
a(lp3972
F0.8
aaI5
aa(lp3973
I1
a(lp3974
F0.0
aaI6
aa(lp3975
I1
a(lp3976
F0.5
aaI20
aa(lp3977
I1
a(lp3978
F0.217391
aaI23
aaa(lp3979
g1208
ag1209
a(lp3980
I1
a(lp3981
F0.2
aaI15
aaa(lp3982
g1211
ag1212
a(lp3983
I1
a(lp3984
F0.2
aaI15
aaa(lp3985
g1214
ag1215
a(lp3986
I1
a(lp3987
F0.470588
aaI17
aaa(lp3988
g1217
ag1218
aa(lp3989
g1222
ag1223
a(lp3990
I1
a(lp3991
F0.214286
aaI14
aaa(lp3992
g1283
ag1284
a(lp3993
I1
a(lp3994
F0.409091
aaI22
aa(lp3995
I1
a(lp3996
F0.2
aaI10
aaa(lp3997
g1286
ag1287
a(lp3998
I1
a(lp3999
F0.411765
aaI17
aa(lp4000
I1
a(lp4001
F0.421053
aaI19
aaa(lp4002
g1297
ag1298
a(lp4003
I1
a(lp4004
F0.2
aaI15
aa(lp4005
I1
a(lp4006
F0.285714
aaI7
aa(lp4007
I1
a(lp4008
F0.4
aaI10
aa(lp4009
I1
a(lp4010
F0.647059
aaI17
aa(lp4011
I1
a(lp4012
F0.214286
aaI14
aa(lp4013
I1
a(lp4014
F0.266667
aaI15
aa(lp4015
I1
a(lp4016
F0.25
aaI20
aaa(lp4017
g1358
ag1359
aa(lp4018
g1361
ag1362
aa(lp4019
g1366
ag1367
aa(lp4020
g1369
ag1370
aa(lp4021
g1374
ag1375
a(lp4022
I1
a(lp4023
F0.2
aaI15
aa(lp4024
I1
a(lp4025
F0.25
aaI8
aa(lp4026
I1
a(lp4027
F0.352941
aaI17
aa(lp4028
I1
a(lp4029
F0.421053
aaI19
aa(lp4030
I1
a(lp4031
F0.2
aaI35
aa(lp4032
I1
a(lp4033
F0.333333
aaI63
aa(lp4034
I1
a(lp4035
F0.0
aaI12
aa(lp4036
I1
a(lp4037
F0.333333
aaI12
aa(lp4038
I1
a(lp4039
F0.625
aaI8
aa(lp4040
I1
a(lp4041
F0.6
aaI10
aa(lp4042
I1
a(lp4043
F0.296296
aaI27
aa(lp4044
I1
a(lp4045
F0.294118
aaI17
aa(lp4046
I1
a(lp4047
F0.294118
aaI17
aa(lp4048
I1
a(lp4049
F0.3125
aaI16
aa(lp4050
I1
a(lp4051
F0.333333
aaI18
aa(lp4052
I1
a(lp4053
F0.25
aaI12
aa(lp4054
I1
a(lp4055
F0.428571
aaI14
aa(lp4056
I1
a(lp4057
F0.2
aaI15
aa(lp4058
I1
a(lp4059
F0.346154
aaI26
aa(lp4060
I1
a(lp4061
F0.2
aaI15
aa(lp4062
I1
a(lp4063
F0.266667
aaI15
aa(lp4064
I1
a(lp4065
F0.363636
aaI11
aa(lp4066
I1
a(lp4067
F0.230769
aaI13
aa(lp4068
I1
a(lp4069
F0.352941
aaI17
aa(lp4070
I1
a(lp4071
F0.36
aaI25
aa(lp4072
I1
a(lp4073
F0.3
aaI10
aa(lp4074
I1
a(lp4075
F0.428571
aaI14
aa(lp4076
I1
a(lp4077
F0.285714
aaI7
aa(lp4078
I1
a(lp4079
F0.25
aaI12
aa(lp4080
I1
a(lp4081
F0.294118
aaI17
aa(lp4082
I1
a(lp4083
F0.235294
aaI17
aa(lp4084
I1
a(lp4085
F0.65
aaI20
aaa(lp4086
g1405
ag1406
a(lp4087
I1
a(lp4088
F0.368421
aaI19
aa(lp4089
I1
a(lp4090
F0.411765
aaI17
aa(lp4091
I1
a(lp4092
F0.416667
aaI12
aa(lp4093
I1
a(lp4094
F0.25
aaI12
aa(lp4095
I1
a(lp4096
F1.0
aaI5
aa(lp4097
I1
a(lp4098
F0.210526
aaI19
aaa(lp4099
g1408
ag1409
a(lp4100
I1
a(lp4101
F0.818182
aaI77
aa(lp4102
I1
a(lp4103
F0.230769
aaI39
aa(lp4104
I1
a(lp4105
F0.269231
aaI26
aaa(lp4106
g1411
ag1412
aa(lp4107
g1414
ag1415
aa(lp4108
g1417
ag1418
aa(lp4109
g1420
ag1421
aa(lp4110
g1425
ag1426
aa(lp4111
g1428
ag1429
a(lp4112
I1
a(lp4113
F0.5
aaI14
aa(lp4114
I1
a(lp4115
F0.5
aaI14
aa(lp4116
I1
a(lp4117
F0.4
aaI20
aa(lp4118
I1
a(lp4119
F0.214286
aaI14
aa(lp4120
I1
a(lp4121
F0.421053
aaI19
aa(lp4122
I1
a(lp4123
F0.454545
aaI22
aa(lp4124
I1
a(lp4125
F0.5
aaI22
aa(lp4126
I1
a(lp4127
F0.35
aaI20
aa(lp4128
I1
a(lp4129
F0.352941
aaI34
aa(lp4130
I1
a(lp4131
F0.222222
aaI9
aa(lp4132
I1
a(lp4133
F0.384615
aaI13
aa(lp4134
I1
a(lp4135
F0.4
aaI15
aa(lp4136
I1
a(lp4137
F0.2
aaI10
aa(lp4138
I1
a(lp4139
F0.5
aaI14
aa(lp4140
I1
a(lp4141
F0.230769
aaI13
aa(lp4142
I1
a(lp4143
F0.52381
aaI21
aa(lp4144
I1
a(lp4145
F0.52381
aaI21
aa(lp4146
I1
a(lp4147
F0.416667
aaI12
aa(lp4148
I1
a(lp4149
F0.416667
aaI12
aa(lp4150
I1
a(lp4151
F0.416667
aaI12
aa(lp4152
I1
a(lp4153
F0.6
aaI10
aa(lp4154
I1
a(lp4155
F0.636364
aaI11
aa(lp4156
I1
a(lp4157
F0.625
aaI8
aa(lp4158
I1
a(lp4159
F0.7
aaI10
aa(lp4160
I1
a(lp4161
F0.777778
aaI9
aa(lp4162
I1
a(lp4163
F0.714286
aaI7
aa(lp4164
I1
a(lp4165
F0.833333
aaI6
aa(lp4166
I1
a(lp4167
F0.688525
aaI122
aa(lp4168
I1
a(lp4169
F0.219697
aaI132
aa(lp4170
I1
a(lp4171
F0.217391
aaI23
aaa(lp4172
g1473
ag1474
a(lp4173
I1
a(lp4174
F0.0
aaI10
aaa(lp4175
g1476
ag1477
a(lp4176
I1
a(lp4177
F0.304348
aaI23
aa(lp4178
I1
a(lp4179
F0.3
aaI20
aa(lp4180
I1
a(lp4181
F0.384615
aaI13
aa(lp4182
I1
a(lp4183
F0.230769
aaI13
aa(lp4184
I1
a(lp4185
F0.416667
aaI12
aa(lp4186
I1
a(lp4187
F0.272727
aaI11
aa(lp4188
I1
a(lp4189
F0.416667
aaI12
aa(lp4190
I1
a(lp4191
F0.230769
aaI13
aaa(lp4192
g1479
ag1480
a(lp4193
I1
a(lp4194
F0.625
aaI8
aa(lp4195
I1
a(lp4196
F0.375
aaI8
aa(lp4197
I1
a(lp4198
F0.25
aaI12
aa(lp4199
I1
a(lp4200
F0.230769
aaI13
aaa(lp4201
g1482
ag1483
aa(lp4202
g1489
ag1490
a(lp4203
I1
a(lp4204
F0.461538
aaI13
aa(lp4205
I1
a(lp4206
F0.222222
aaI9
aa(lp4207
I1
a(lp4208
F0.3125
aaI16
aa(lp4209
I1
a(lp4210
F0.277778
aaI18
aa(lp4211
I1
a(lp4212
F0.210526
aaI19
aa(lp4213
I1
a(lp4214
F0.294118
aaI17
aa(lp4215
I1
a(lp4216
F0.35
aaI20
aaa(lp4217
g1502
ag1503
aa(lp4218
g1511
ag1512
aa(lp4219
g1520
ag1521
aa(lp4220
g1523
ag1524
a(lp4221
I1
a(lp4222
F0.2
aaI10
aa(lp4223
I1
a(lp4224
F0.3
aaI10
aaa(lp4225
g1542
ag1543
a(lp4226
I1
a(lp4227
F0.0
aaI18
aa(lp4228
I1
a(lp4229
F0.0
aaI11
aa(lp4230
I1
a(lp4231
F0.0
aaI11
aaa(lp4232
g1545
ag1546
aa(lp4233
g1552
ag1553
aa(lp4234
g1607
ag1608
a(lp4235
I1
a(lp4236
F0.2
aaI10
aa(lp4237
I1
a(lp4238
F0.2
aaI10
aa(lp4239
I1
a(lp4240
F0.230769
aaI13
aa(lp4241
I1
a(lp4242
F0.5
aaI4
aa(lp4243
I1
a(lp4244
F0.333333
aaI12
aa(lp4245
I1
a(lp4246
F0.333333
aaI12
aa(lp4247
I1
a(lp4248
F0.363636
aaI11
aa(lp4249
I1
a(lp4250
F0.384615
aaI13
aa(lp4251
I1
a(lp4252
F0.25
aaI12
aa(lp4253
I1
a(lp4254
F0.289474
aaI38
aa(lp4255
I1
a(lp4256
F0.323529
aaI34
aaa(lp4257
g1636
ag1637
a(lp4258
I1
a(lp4259
F0.785714
aaI14
aa(lp4260
I1
a(lp4261
F0.0
aaI14
aa(lp4262
I1
a(lp4263
F0.0
aaI15
aa(lp4264
I1
a(lp4265
F0.0
aaI17
aa(lp4266
I1
a(lp4267
F0.2
aaI15
aa(lp4268
I1
a(lp4269
F0.272727
aaI33
aaa(lp4270
g1639
ag1640
a(lp4271
I1
a(lp4272
F0.235294
aaI17
aa(lp4273
I1
a(lp4274
F0.210526
aaI19
aa(lp4275
I1
a(lp4276
F0.25
aaI20
aa(lp4277
I1
a(lp4278
F0.2
aaI10
aa(lp4279
I1
a(lp4280
F0.5
aaI18
aa(lp4281
I1
a(lp4282
F0.555556
aaI9
aa(lp4283
I1
a(lp4284
F0.269231
aaI26
aa(lp4285
I1
a(lp4286
F0.206897
aaI29
aaa(lp4287
g1642
ag1643
a(lp4288
I1
a(lp4289
F0.52
aaI25
aa(lp4290
I1
a(lp4291
F0.538462
aaI13
aa(lp4292
I1
a(lp4293
F0.466667
aaI15
aa(lp4294
I1
a(lp4295
F0.4
aaI10
aa(lp4296
I1
a(lp4297
F0.25
aaI8
aaa(lp4298
g1645
ag1646
a(lp4299
I1
a(lp4300
F0.235294
aaI34
aa(lp4301
I1
a(lp4302
F0.3
aaI40
aa(lp4303
I1
a(lp4304
F0.25
aaI12
aa(lp4305
I1
a(lp4306
F0.222222
aaI9
aa(lp4307
I1
a(lp4308
F0.2
aaI10
aa(lp4309
I1
a(lp4310
F0.25
aaI8
aa(lp4311
I1
a(lp4312
F0.526316
aaI19
aa(lp4313
I1
a(lp4314
F0.461538
aaI13
aa(lp4315
I1
a(lp4316
F0.4
aaI20
aaa(lp4317
g1652
ag1653
aa(lp4318
g1669
ag1670
a(lp4319
I1
a(lp4320
F0.277778
aaI18
aa(lp4321
I1
a(lp4322
F0.0
aaI18
aa(lp4323
I1
a(lp4324
F0.222222
aaI18
aa(lp4325
I1
a(lp4326
F0.0
aaI6
aaa(lp4327
g1672
ag1673
aa(lp4328
g1677
ag1678
a(lp4329
I1
a(lp4330
F0.552632
aaI38
aa(lp4331
I1
a(lp4332
F0.272727
aaI55
aa(lp4333
I1
a(lp4334
F0.236364
aaI55
aa(lp4335
I1
a(lp4336
F0.272727
aaI22
aa(lp4337
I1
a(lp4338
F0.288462
aaI52
aa(lp4339
I1
a(lp4340
F0.25
aaI20
aaa(lp4341
g1680
ag1681
aa(lp4342
g1687
ag1688
a(lp4343
I1
a(lp4344
F0.3
aaI20
aa(lp4345
I1
a(lp4346
F0.3
aaI20
aa(lp4347
I1
a(lp4348
F0.333333
aaI15
aa(lp4349
I1
a(lp4350
F0.25
aaI12
aa(lp4351
I1
a(lp4352
F0.285714
aaI14
aa(lp4353
I1
a(lp4354
F0.285714
aaI14
aa(lp4355
I1
a(lp4356
F0.285714
aaI14
aa(lp4357
I1
a(lp4358
F0.384615
aaI13
aa(lp4359
I1
a(lp4360
F0.285714
aaI14
aa(lp4361
I1
a(lp4362
F0.318182
aaI22
aa(lp4363
I1
a(lp4364
F0.2
aaI20
aaa(lp4365
g1690
ag1691
aa(lp4366
g1693
ag1694
a(lp4367
I1
a(lp4368
F0.0
aaI14
aaa(lp4369
g1696
ag1697
aa(lp4370
g1699
ag1700
aa(lp4371
g1702
ag1703
aa(lp4372
g1705
ag1706
a(lp4373
I1
a(lp4374
F0.714286
aaI14
aaa(lp4375
g1708
ag1709
a(lp4376
I1
a(lp4377
F0.222222
aaI9
aa(lp4378
I1
a(lp4379
F0.222222
aaI9
aa(lp4380
I1
a(lp4381
F0.521739
aaI23
aa(lp4382
I1
a(lp4383
F0.352941
aaI17
aa(lp4384
I1
a(lp4385
F0.352941
aaI17
aa(lp4386
I1
a(lp4387
F0.433333
aaI30
aa(lp4388
I1
a(lp4389
F0.37931
aaI29
aa(lp4390
I1
a(lp4391
F0.588235
aaI17
aa(lp4392
I1
a(lp4393
F0.307692
aaI13
aa(lp4394
I1
a(lp4395
F0.272727
aaI11
aa(lp4396
I1
a(lp4397
F0.375
aaI8
aa(lp4398
I1
a(lp4399
F0.5
aaI14
aa(lp4400
I1
a(lp4401
F0.461538
aaI13
aa(lp4402
I1
a(lp4403
F0.857143
aaI7
aa(lp4404
I1
a(lp4405
F0.454545
aaI11
aa(lp4406
I1
a(lp4407
F0.5
aaI14
aa(lp4408
I1
a(lp4409
F0.352941
aaI17
aa(lp4410
I1
a(lp4411
F0.454545
aaI11
aaa(lp4412
g1713
ag1714
aa(lp4413
g1722
ag1723
aa(lp4414
g1725
ag1726
aa(lp4415
g1728
ag1729
a(lp4416
I1
a(lp4417
F0.210526
aaI19
aa(lp4418
I1
a(lp4419
F0.277778
aaI18
aa(lp4420
I1
a(lp4421
F0.3
aaI20
aa(lp4422
I1
a(lp4423
F0.235294
aaI17
aa(lp4424
I1
a(lp4425
F0.375
aaI8
aa(lp4426
I1
a(lp4427
F0.294118
aaI17
aa(lp4428
I1
a(lp4429
F0.272727
aaI22
aa(lp4430
I1
a(lp4431
F0.0
aaI5
aa(lp4432
I1
a(lp4433
F0.0
aaI10
aa(lp4434
I1
a(lp4435
F0.0
aaI12
aa(lp4436
I1
a(lp4437
F0.0
aaI10
aaa(lp4438
g1743
ag1744
aa(lp4439
g1746
ag1747
aa(lp4440
g1751
ag1752
a(lp4441
I1
a(lp4442
F0.25
aaI8
aa(lp4443
I1
a(lp4444
F0.222222
aaI9
aa(lp4445
I1
a(lp4446
F0.391304
aaI23
aa(lp4447
I1
a(lp4448
F0.333333
aaI24
aaa(lp4449
g1754
ag1755
a(lp4450
I1
a(lp4451
F0.0
aaI10
aa(lp4452
I1
a(lp4453
F0.2
aaI10
aa(lp4454
I1
a(lp4455
F0.214286
aaI14
aa(lp4456
I1
a(lp4457
F0.230769
aaI13
aa(lp4458
I1
a(lp4459
F0.214286
aaI14
aa(lp4460
I1
a(lp4461
F0.214286
aaI14
aa(lp4462
I1
a(lp4463
F0.0
aaI13
aa(lp4464
I1
a(lp4465
F0.384615
aaI13
aaa(lp4466
g1759
ag1760
a(lp4467
I1
a(lp4468
F0.263158
aaI19
aa(lp4469
I1
a(lp4470
F0.4
aaI20
aa(lp4471
I1
a(lp4472
F0.2
aaI10
aaa(lp4473
g1780
ag1781
aa(lp4474
g1791
ag1792
a(lp4475
I1
a(lp4476
F0.269231
aaI26
aaa(lp4477
g1794
ag1795
aa(lp4478
g1803
ag1804
a(lp4479
I1
a(lp4480
F0.222222
aaI27
aa(lp4481
I1
a(lp4482
F0.25
aaI24
aa(lp4483
I1
a(lp4484
F0.24
aaI25
aa(lp4485
I1
a(lp4486
F0.277778
aaI18
aa(lp4487
I1
a(lp4488
F0.208333
aaI24
aaa(lp4489
g1806
ag1807
a(lp4490
I1
a(lp4491
F0.352941
aaI17
aa(lp4492
I1
a(lp4493
F0.315789
aaI19
aaa(lp4494
g1813
ag1814
aa(lp4495
g1822
ag1823
a(lp4496
I1
a(lp4497
F0.461538
aaI13
aa(lp4498
I1
a(lp4499
F0.263158
aaI19
aa(lp4500
I1
a(lp4501
F0.307692
aaI13
aa(lp4502
I1
a(lp4503
F0.2
aaI10
aa(lp4504
I1
a(lp4505
F0.222222
aaI9
aa(lp4506
I1
a(lp4507
F0.403846
aaI52
aa(lp4508
I1
a(lp4509
F0.411765
aaI17
aa(lp4510
I1
a(lp4511
F0.266667
aaI30
aa(lp4512
I1
a(lp4513
F0.25
aaI32
aa(lp4514
I1
a(lp4515
F0.333333
aaI15
aa(lp4516
I1
a(lp4517
F0.428571
aaI14
aa(lp4518
I1
a(lp4519
F0.5
aaI14
aa(lp4520
I1
a(lp4521
F0.538462
aaI13
aa(lp4522
I1
a(lp4523
F0.388889
aaI18
aa(lp4524
I1
a(lp4525
F0.333333
aaI9
aa(lp4526
I1
a(lp4527
F0.333333
aaI9
aa(lp4528
I1
a(lp4529
F0.272727
aaI11
aa(lp4530
I1
a(lp4531
F0.607143
aaI28
aa(lp4532
I1
a(lp4533
F0.571429
aaI21
aaa(lp4534
g1871
ag1872
aa(lp4535
g1876
ag1877
aa(lp4536
g1959
ag1960
aa(lp4537
g1962
ag1963
aa(lp4538
g1965
ag1966
aa(lp4539
g1968
ag1969
a(lp4540
I1
a(lp4541
F0.363636
aaI11
aa(lp4542
I1
a(lp4543
F0.285714
aaI14
aa(lp4544
I1
a(lp4545
F0.285714
aaI14
aaa(lp4546
g1977
ag1978
a(lp4547
I1
a(lp4548
F0.230769
aaI13
aa(lp4549
I1
a(lp4550
F0.2
aaI15
aaa(lp4551
g1980
ag1981
a(lp4552
I1
a(lp4553
F0.2
aaI20
aa(lp4554
I1
a(lp4555
F0.0
aaI2
aa(lp4556
I1
a(lp4557
F0.0
aaI8
aa(lp4558
I1
a(lp4559
F0.0
aaI6
aa(lp4560
I1
a(lp4561
F0.0
aaI10
aaa(lp4562
g1989
ag1990
a(lp4563
I1
a(lp4564
F0.210526
aaI19
aa(lp4565
I1
a(lp4566
F0.2
aaI25
aaa(lp4567
g1992
ag1993
aa(lp4568
g1995
ag1996
a(lp4569
I1
a(lp4570
F0.466667
aaI15
aa(lp4571
I1
a(lp4572
F0.333333
aaI15
aa(lp4573
I1
a(lp4574
F0.5
aaI8
aa(lp4575
I1
a(lp4576
F0.6
aaI10
aaa(lp4577
g1998
ag1999
a(lp4578
I1
a(lp4579
F0.425
aaI40
aaa(lp4580
g2001
ag2002
a(lp4581
I1
a(lp4582
F0.454545
aaI22
aa(lp4583
I1
a(lp4584
F0.212121
aaI33
aa(lp4585
I1
a(lp4586
F0.444444
aaI18
aa(lp4587
I1
a(lp4588
F0.2
aaI20
aa(lp4589
I1
a(lp4590
F0.5
aaI14
aa(lp4591
I1
a(lp4592
F0.466667
aaI15
aa(lp4593
I1
a(lp4594
F0.307692
aaI13
aa(lp4595
I1
a(lp4596
F0.230769
aaI26
aa(lp4597
I1
a(lp4598
F0.36
aaI25
aaa(lp4599
g2004
ag2005
aa(lp4600
g2015
ag2016
a(lp4601
I1
a(lp4602
F0.233333
aaI30
aa(lp4603
I1
a(lp4604
F0.344828
aaI29
aa(lp4605
I1
a(lp4606
F0.259259
aaI27
aa(lp4607
I1
a(lp4608
F0.434783
aaI23
aa(lp4609
I1
a(lp4610
F0.24
aaI25
aa(lp4611
I1
a(lp4612
F0.64
aaI25
aa(lp4613
I1
a(lp4614
F0.653846
aaI26
aa(lp4615
I1
a(lp4616
F0.428571
aaI21
aa(lp4617
I1
a(lp4618
F0.392857
aaI28
aaa(lp4619
g2018
ag2019
aa(lp4620
g2023
ag2024
a(lp4621
I1
a(lp4622
F0.0
aaI21
aa(lp4623
I1
a(lp4624
F0.421053
aaI19
aaa(lp4625
g2026
ag2027
aa(lp4626
g2029
ag2030
a(lp4627
I1
a(lp4628
F0.307692
aaI13
aaa(lp4629
g2032
ag2033
a(lp4630
I1
a(lp4631
F0.0
aaI2
aa(lp4632
I1
a(lp4633
F0.0
aaI2
aa(lp4634
I1
a(lp4635
F0.25
aaI12
aa(lp4636
I1
a(lp4637
F0.454545
aaI11
aa(lp4638
I1
a(lp4639
F0.444444
aaI9
aa(lp4640
I1
a(lp4641
F0.222222
aaI9
aa(lp4642
I1
a(lp4643
F0.615385
aaI13
aa(lp4644
I1
a(lp4645
F0.545455
aaI11
aa(lp4646
I1
a(lp4647
F0.363636
aaI11
aa(lp4648
I1
a(lp4649
F0.333333
aaI9
aa(lp4650
I1
a(lp4651
F0.2
aaI15
aa(lp4652
I1
a(lp4653
F0.375
aaI8
aa(lp4654
I1
a(lp4655
F0.428571
aaI7
aa(lp4656
I1
a(lp4657
F0.333333
aaI9
aa(lp4658
I1
a(lp4659
F0.37037
aaI27
aa(lp4660
I1
a(lp4661
F0.285714
aaI14
aa(lp4662
I1
a(lp4663
F0.45
aaI20
aa(lp4664
I1
a(lp4665
F0.25
aaI8
aa(lp4666
I1
a(lp4667
F0.307692
aaI13
aaa(lp4668
g2043
ag2044
aa(lp4669
g2050
ag2051
aa(lp4670
g2053
ag2054
a(lp4671
I1
a(lp4672
F0.571429
aaI14
aa(lp4673
I1
a(lp4674
F0.25
aaI8
aa(lp4675
I1
a(lp4676
F0.266667
aaI15
aa(lp4677
I1
a(lp4678
F0.25
aaI16
aa(lp4679
I1
a(lp4680
F0.4
aaI15
aa(lp4681
I1
a(lp4682
F0.444444
aaI18
aa(lp4683
I1
a(lp4684
F0.0
aaI6
aa(lp4685
I1
a(lp4686
F0.0
aaI7
aa(lp4687
I1
a(lp4688
F0.666667
aaI9
aaa(lp4689
g2058
ag2059
a(lp4690
I1
a(lp4691
F0.0
aaI7
aa(lp4692
I1
a(lp4693
F0.0
aaI3
aa(lp4694
I1
a(lp4695
F0.0
aaI5
aa(lp4696
I1
a(lp4697
F0.333333
aaI9
aa(lp4698
I1
a(lp4699
F0.333333
aaI9
aa(lp4700
I1
a(lp4701
F0.0
aaI5
aa(lp4702
I1
a(lp4703
F0.0
aaI5
aa(lp4704
I1
a(lp4705
F0.0
aaI8
aa(lp4706
I1
a(lp4707
F0.0
aaI6
aa(lp4708
I1
a(lp4709
F0.8
aaI5
aa(lp4710
I1
a(lp4711
F0.8
aaI5
aa(lp4712
I1
a(lp4713
F0.0
aaI5
aa(lp4714
I1
a(lp4715
F0.294118
aaI17
aa(lp4716
I1
a(lp4717
F0.294118
aaI17
aa(lp4718
I1
a(lp4719
F0.230769
aaI26
aa(lp4720
I1
a(lp4721
F0.24
aaI25
aa(lp4722
I1
a(lp4723
F0.24
aaI25
aa(lp4724
I1
a(lp4725
F0.352941
aaI17
aa(lp4726
I1
a(lp4727
F0.8
aaI5
aa(lp4728
I1
a(lp4729
F0.4
aaI5
aa(lp4730
I1
a(lp4731
F0.4
aaI5
aa(lp4732
I1
a(lp4733
F0.5
aaI4
aa(lp4734
I1
a(lp4735
F0.6
aaI5
aa(lp4736
I1
a(lp4737
F0.5
aaI4
aaa(lp4738
g2073
ag2074
a(lp4739
I1
a(lp4740
F0.0
aaI18
aaa(lp4741
g2076
ag2077
a(lp4742
I1
a(lp4743
F0.333333
aaI15
aa(lp4744
I1
a(lp4745
F0.4
aaI15
aa(lp4746
I1
a(lp4747
F0.222222
aaI9
aaa(lp4748
g2079
ag2080
aa(lp4749
g2082
ag2083
aa(lp4750
g2091
ag2092
aa(lp4751
g2108
ag2109
aa(lp4752
g2113
ag2114
a(lp4753
I1
a(lp4754
F0.294118
aaI17
aa(lp4755
I1
a(lp4756
F0.294118
aaI17
aa(lp4757
I1
a(lp4758
F0.294118
aaI17
aa(lp4759
I1
a(lp4760
F0.294118
aaI17
aa(lp4761
I1
a(lp4762
F0.294118
aaI17
aa(lp4763
I1
a(lp4764
F0.357143
aaI14
aa(lp4765
I1
a(lp4766
F0.2
aaI15
aaa(lp4767
g2118
ag2119
a(lp4768
I1
a(lp4769
F0.230769
aaI26
aa(lp4770
I1
a(lp4771
F0.222222
aaI27
aa(lp4772
I1
a(lp4773
F0.222222
aaI27
aa(lp4774
I1
a(lp4775
F0.35
aaI20
aa(lp4776
I1
a(lp4777
F0.421053
aaI19
aa(lp4778
I1
a(lp4779
F0.294118
aaI34
aa(lp4780
I1
a(lp4781
F0.227273
aaI44
aaa(lp4782
g2121
ag2122
a(lp4783
I1
a(lp4784
F0.0
aaI11
aa(lp4785
I1
a(lp4786
F0.416667
aaI12
aa(lp4787
I1
a(lp4788
F0.4
aaI10
aa(lp4789
I1
a(lp4790
F0.375
aaI8
aa(lp4791
I1
a(lp4792
F0.25
aaI12
aa(lp4793
I1
a(lp4794
F0.285714
aaI14
aa(lp4795
I1
a(lp4796
F0.272727
aaI11
aa(lp4797
I1
a(lp4798
F0.272727
aaI11
aa(lp4799
I1
a(lp4800
F0.222222
aaI9
aa(lp4801
I1
a(lp4802
F0.333333
aaI12
aa(lp4803
I1
a(lp4804
F0.333333
aaI12
aa(lp4805
I1
a(lp4806
F0.363636
aaI11
aa(lp4807
I1
a(lp4808
F0.307692
aaI13
aa(lp4809
I1
a(lp4810
F0.307692
aaI13
aa(lp4811
I1
a(lp4812
F0.25
aaI12
aa(lp4813
I1
a(lp4814
F0.230769
aaI13
aa(lp4815
I1
a(lp4816
F0.333333
aaI15
aa(lp4817
I1
a(lp4818
F0.277778
aaI18
aa(lp4819
I1
a(lp4820
F0.294118
aaI17
aa(lp4821
I1
a(lp4822
F0.294118
aaI17
aa(lp4823
I1
a(lp4824
F0.25
aaI16
aa(lp4825
I1
a(lp4826
F0.5625
aaI16
aa(lp4827
I1
a(lp4828
F0.5
aaI16
aa(lp4829
I1
a(lp4830
F0.307692
aaI13
aa(lp4831
I1
a(lp4832
F0.210526
aaI19
aa(lp4833
I1
a(lp4834
F0.210526
aaI19
aa(lp4835
I1
a(lp4836
F0.238095
aaI21
aa(lp4837
I1
a(lp4838
F0.0
aaI10
aa(lp4839
I1
a(lp4840
F0.0
aaI15
aa(lp4841
I1
a(lp4842
F0.333333
aaI12
aa(lp4843
I1
a(lp4844
F0.333333
aaI12
aa(lp4845
I1
a(lp4846
F0.588235
aaI17
aa(lp4847
I1
a(lp4848
F0.333333
aaI15
aa(lp4849
I1
a(lp4850
F0.368421
aaI19
aa(lp4851
I1
a(lp4852
F0.566667
aaI30
aa(lp4853
I1
a(lp4854
F0.290323
aaI31
aa(lp4855
I1
a(lp4856
F0.4
aaI10
aa(lp4857
I1
a(lp4858
F0.363636
aaI11
aa(lp4859
I1
a(lp4860
F0.272727
aaI11
aa(lp4861
I1
a(lp4862
F0.333333
aaI12
aa(lp4863
I1
a(lp4864
F0.285714
aaI14
aa(lp4865
I1
a(lp4866
F0.272727
aaI11
aa(lp4867
I1
a(lp4868
F0.333333
aaI9
aa(lp4869
I1
a(lp4870
F0.0
aaI10
aa(lp4871
I1
a(lp4872
F0.333333
aaI9
aa(lp4873
I1
a(lp4874
F0.3
aaI10
aa(lp4875
I1
a(lp4876
F0.222222
aaI9
aa(lp4877
I1
a(lp4878
F0.357143
aaI14
aa(lp4879
I1
a(lp4880
F0.4
aaI15
aa(lp4881
I1
a(lp4882
F0.294118
aaI17
aa(lp4883
I1
a(lp4884
F0.333333
aaI21
aa(lp4885
I1
a(lp4886
F0.318182
aaI22
aa(lp4887
I1
a(lp4888
F0.347826
aaI23
aaa(lp4889
g2258
ag2259
aa(lp4890
g2261
ag2262
a(lp4891
I1
a(lp4892
F0.333333
aaI15
aa(lp4893
I1
a(lp4894
F0.4
aaI15
aa(lp4895
I1
a(lp4896
F0.384615
aaI13
aa(lp4897
I1
a(lp4898
F0.428571
aaI14
aa(lp4899
I1
a(lp4900
F0.384615
aaI13
aa(lp4901
I1
a(lp4902
F0.454545
aaI11
aa(lp4903
I1
a(lp4904
F0.363636
aaI11
aa(lp4905
I1
a(lp4906
F0.444444
aaI9
aa(lp4907
I1
a(lp4908
F0.444444
aaI9
aa(lp4909
I1
a(lp4910
F0.222222
aaI9
aa(lp4911
I1
a(lp4912
F0.210526
aaI19
aaa(lp4913
g2266
ag2267
aa(lp4914
g2277
ag2278
aa(lp4915
g2280
ag2281
a(lp4916
I1
a(lp4917
F0.342105
aaI38
aa(lp4918
I1
a(lp4919
F0.258065
aaI31
aaa(lp4920
g2287
ag2288
a(lp4921
I1
a(lp4922
F0.384615
aaI13
aa(lp4923
I1
a(lp4924
F0.333333
aaI15
aa(lp4925
I1
a(lp4926
F0.263158
aaI19
aa(lp4927
I1
a(lp4928
F0.411765
aaI17
aa(lp4929
I1
a(lp4930
F0.315789
aaI19
aa(lp4931
I1
a(lp4932
F0.571429
aaI7
aaa(lp4933
g2290
ag2291
aa(lp4934
g2295
ag2296
a(lp4935
I1
a(lp4936
F0.25
aaI8
aa(lp4937
I1
a(lp4938
F0.555556
aaI9
aa(lp4939
I1
a(lp4940
F0.357143
aaI14
aa(lp4941
I1
a(lp4942
F0.0
aaI15
aa(lp4943
I1
a(lp4944
F0.0
aaI16
aa(lp4945
I1
a(lp4946
F0.222222
aaI9
aaa(lp4947
g2298
ag2299
a(lp4948
I1
a(lp4949
F0.333333
aaI18
aa(lp4950
I1
a(lp4951
F0.352941
aaI17
aa(lp4952
I1
a(lp4953
F0.421053
aaI19
aa(lp4954
I1
a(lp4955
F0.285714
aaI14
aa(lp4956
I1
a(lp4957
F0.285714
aaI14
aa(lp4958
I1
a(lp4959
F0.45
aaI20
aaa(lp4960
g2301
ag2302
aa(lp4961
g2308
ag2309
aa(lp4962
g2311
ag2312
a(lp4963
I1
a(lp4964
F0.368421
aaI19
aa(lp4965
I1
a(lp4966
F0.263158
aaI19
aaa(lp4967
g2314
ag2315
a(lp4968
I1
a(lp4969
F0.375
aaI32
aaa(lp4970
g2317
ag2318
aa(lp4971
g2324
ag2325
a(lp4972
I1
a(lp4973
F0.304348
aaI23
aa(lp4974
I1
a(lp4975
F0.28
aaI25
aa(lp4976
I1
a(lp4977
F0.28
aaI25
aa(lp4978
I1
a(lp4979
F0.583333
aaI24
aa(lp4980
I1
a(lp4981
F0.25
aaI12
aa(lp4982
I1
a(lp4983
F0.222222
aaI18
aa(lp4984
I1
a(lp4985
F0.235294
aaI17
aa(lp4986
I1
a(lp4987
F0.235294
aaI17
aa(lp4988
I1
a(lp4989
F0.0
aaI18
aaa(lp4990
g2329
ag2330
aa(lp4991
g2332
ag2333
aa(lp4992
g2359
ag2360
aa(lp4993
g2364
ag2365
a(lp4994
I1
a(lp4995
F0.0
aaI22
aa(lp4996
I1
a(lp4997
F0.208333
aaI24
aaa(lp4998
g2367
ag2368
aa(lp4999
g2378
ag2379
aa(lp5000
g2381
ag2382
a(lp5001
I1
a(lp5002
F0.666667
aaI21
aaa(lp5003
g2384
ag2385
aa(lp5004
g2409
ag2410
a(lp5005
I1
a(lp5006
F0.318182
aaI22
aa(lp5007
I1
a(lp5008
F0.227273
aaI22
aa(lp5009
I1
a(lp5010
F0.227273
aaI22
aa(lp5011
I1
a(lp5012
F0.272727
aaI22
aa(lp5013
I1
a(lp5014
F0.0
aaI2
aa(lp5015
I1
a(lp5016
F0.0
aaI7
aa(lp5017
I1
a(lp5018
F0.0
aaI3
aa(lp5019
I1
a(lp5020
F0.384615
aaI13
aa(lp5021
I1
a(lp5022
F0.0
aaI4
aa(lp5023
I1
a(lp5024
F0.0
aaI5
aaa(lp5025
g2444
ag2445
a(lp5026
I1
a(lp5027
F0.357143
aaI14
aa(lp5028
I1
a(lp5029
F0.285714
aaI7
aa(lp5030
I1
a(lp5031
F0.2
aaI10
aa(lp5032
I1
a(lp5033
F0.5625
aaI32
aaa(lp5034
g2449
ag2450
aa(lp5035
g2452
ag2453
aa(lp5036
g2455
ag2456
a(lp5037
I1
a(lp5038
F0.666667
aaI30
aaa(lp5039
g2458
ag2459
aa(lp5040
g2469
ag2470
aa(lp5041
g2490
ag2491
ag4084
a(lp5042
I1
a(lp5043
F0.8
aaI15
aa(lp5044
I1
a(lp5045
F0.571429
aaI14
aa(lp5046
I1
a(lp5047
F0.5625
aaI16
aa(lp5048
I1
a(lp5049
F0.5625
aaI16
aa(lp5050
I1
a(lp5051
F0.214286
aaI14
aa(lp5052
I1
a(lp5053
F0.272727
aaI11
aa(lp5054
I1
a(lp5055
F0.25
aaI8
aa(lp5056
I1
a(lp5057
F0.272727
aaI11
aa(lp5058
I1
a(lp5059
F0.230769
aaI13
aa(lp5060
I1
a(lp5061
F0.2
aaI10
aa(lp5062
I1
a(lp5063
F0.576923
aaI26
aa(lp5064
I1
a(lp5065
F0.6
aaI25
aa(lp5066
I1
a(lp5067
F0.428571
aaI21
aa(lp5068
I1
a(lp5069
F0.3
aaI20
aa(lp5070
I1
a(lp5071
F0.263158
aaI19
aa(lp5072
I1
a(lp5073
F0.35
aaI20
aa(lp5074
I1
a(lp5075
F0.4
aaI15
aa(lp5076
I1
a(lp5077
F0.4
aaI15
aaa(lp5078
g2493
ag2494
aa(lp5079
g2508
ag2509
aa(lp5080
g2511
ag2512
a(lp5081
I1
a(lp5082
F0.2
aaI15
aa(lp5083
I1
a(lp5084
F0.214286
aaI14
aa(lp5085
I1
a(lp5086
F0.285714
aaI14
aa(lp5087
I1
a(lp5088
F0.214286
aaI14
aa(lp5089
I1
a(lp5090
F0.325
aaI40
aaa(lp5091
g2516
ag2517
a(lp5092
I1
a(lp5093
F0.0
aaI9
aa(lp5094
I1
a(lp5095
F0.238095
aaI21
aa(lp5096
I1
a(lp5097
F0.25
aaI16
aa(lp5098
I1
a(lp5099
F0.25
aaI16
aa(lp5100
I1
a(lp5101
F0.615385
aaI13
aa(lp5102
I1
a(lp5103
F0.583333
aaI12
aa(lp5104
I1
a(lp5105
F0.238095
aaI21
aa(lp5106
I1
a(lp5107
F0.52381
aaI21
aa(lp5108
I1
a(lp5109
F0.5
aaI22
aa(lp5110
I1
a(lp5111
F0.238095
aaI21
aa(lp5112
I1
a(lp5113
F0.214286
aaI14
aa(lp5114
I1
a(lp5115
F0.230769
aaI13
aa(lp5116
I1
a(lp5117
F0.230769
aaI13
aa(lp5118
I1
a(lp5119
F0.285714
aaI7
aaa(lp5120
g2519
ag2520
a(lp5121
I1
a(lp5122
F0.625
aaI16
aa(lp5123
I1
a(lp5124
F0.515152
aaI33
aa(lp5125
I1
a(lp5126
F0.217391
aaI23
aa(lp5127
I1
a(lp5128
F0.26087
aaI23
aa(lp5129
I1
a(lp5130
F0.346154
aaI26
aa(lp5131
I1
a(lp5132
F0.289474
aaI38
aa(lp5133
I1
a(lp5134
F0.241379
aaI29
aa(lp5135
I1
a(lp5136
F0.423077
aaI26
aa(lp5137
I1
a(lp5138
F0.0
aaI10
aa(lp5139
I1
a(lp5140
F0.307692
aaI26
aaa(lp5141
g2522
ag2523
a(lp5142
I1
a(lp5143
F0.0
aaI7
aa(lp5144
I1
a(lp5145
F0.0
aaI7
aa(lp5146
I1
a(lp5147
F0.0
aaI5
aaa(lp5148
g2525
ag2526
a(lp5149
I1
a(lp5150
F0.235294
aaI17
aa(lp5151
I1
a(lp5152
F0.298246
aaI57
aaa(lp5153
g2528
ag2529
aa(lp5154
g2545
ag2546
aa(lp5155
g2558
ag2559
a(lp5156
I1
a(lp5157
F0.25
aaI8
aaa(lp5158
g2565
ag2566
a(lp5159
I1
a(lp5160
F0.35
aaI20
aaa(lp5161
g2576
ag2577
aa(lp5162
g2583
ag2584
a(lp5163
I1
a(lp5164
F0.375
aaI16
aa(lp5165
I1
a(lp5166
F0.352941
aaI17
aa(lp5167
I1
a(lp5168
F0.3
aaI20
aa(lp5169
I1
a(lp5170
F0.428571
aaI21
aa(lp5171
I1
a(lp5172
F0.333333
aaI12
aa(lp5173
I1
a(lp5174
F0.333333
aaI12
aa(lp5175
I1
a(lp5176
F0.307692
aaI13
aa(lp5177
I1
a(lp5178
F0.333333
aaI12
aa(lp5179
I1
a(lp5180
F0.269231
aaI26
aa(lp5181
I1
a(lp5182
F0.357143
aaI28
aa(lp5183
I1
a(lp5184
F0.25
aaI12
aa(lp5185
I1
a(lp5186
F0.3
aaI10
aa(lp5187
I1
a(lp5188
F0.3
aaI10
aa(lp5189
I1
a(lp5190
F0.3
aaI10
aa(lp5191
I1
a(lp5192
F0.214286
aaI14
aaa(lp5193
g2594
ag2595
a(lp5194
I1
a(lp5195
F0.565217
aaI23
aaa(lp5196
g2615
ag2616
a(lp5197
I1
a(lp5198
F0.5
aaI4
aa(lp5199
I1
a(lp5200
F0.333333
aaI21
aaa(lp5201
g2622
ag2623
aa(lp5202
g2639
ag2640
a(lp5203
I1
a(lp5204
F0.25
aaI16
aa(lp5205
I1
a(lp5206
F0.333333
aaI15
aaa(lp5207
g2642
ag2643
a(lp5208
I1
a(lp5209
F0.0
aaI10
aa(lp5210
I1
a(lp5211
F0.5
aaI4
aa(lp5212
I1
a(lp5213
F0.0
aaI4
aa(lp5214
I1
a(lp5215
F0.5
aaI4
aa(lp5216
I1
a(lp5217
F0.0
aaI3
aa(lp5218
I1
a(lp5219
F0.0
aaI2
aa(lp5220
I1
a(lp5221
F0.0
aaI2
aa(lp5222
I1
a(lp5223
F0.0
aaI3
aa(lp5224
I1
a(lp5225
F0.0
aaI3
aa(lp5226
I1
a(lp5227
F0.0
aaI2
aa(lp5228
I1
a(lp5229
F0.0
aaI2
aa(lp5230
I1
a(lp5231
F0.0
aaI3
aa(lp5232
I1
a(lp5233
F0.0
aaI10
aa(lp5234
I1
a(lp5235
F0.0
aaI8
aa(lp5236
I1
a(lp5237
F0.0
aaI5
aaa(lp5238
g2645
ag2646
a(lp5239
I1
a(lp5240
F0.25
aaI8
aa(lp5241
I1
a(lp5242
F0.571429
aaI28
aa(lp5243
I1
a(lp5244
F0.2
aaI20
aa(lp5245
I1
a(lp5246
F0.25
aaI16
aa(lp5247
I1
a(lp5248
F0.368421
aaI19
aa(lp5249
I1
a(lp5250
F0.5
aaI22
aa(lp5251
I1
a(lp5252
F0.478261
aaI23
aa(lp5253
I1
a(lp5254
F0.368421
aaI19
aa(lp5255
I1
a(lp5256
F0.375
aaI16
aa(lp5257
I1
a(lp5258
F0.333333
aaI18
aa(lp5259
I1
a(lp5260
F0.388889
aaI18
aaa(lp5261
g2648
ag2649
a(lp5262
I1
a(lp5263
F0.62963
aaI27
aa(lp5264
I1
a(lp5265
F0.666667
aaI27
aa(lp5266
I1
a(lp5267
F0.692308
aaI26
aa(lp5268
I1
a(lp5269
F0.714286
aaI21
aa(lp5270
I1
a(lp5271
F0.64
aaI25
aa(lp5272
I1
a(lp5273
F0.458333
aaI24
aa(lp5274
I1
a(lp5275
F0.222222
aaI18
aa(lp5276
I1
a(lp5277
F0.266667
aaI15
aa(lp5278
I1
a(lp5279
F0.6
aaI20
aa(lp5280
I1
a(lp5281
F0.545455
aaI22
aa(lp5282
I1
a(lp5283
F0.333333
aaI18
aa(lp5284
I1
a(lp5285
F0.333333
aaI21
aa(lp5286
I1
a(lp5287
F0.391304
aaI23
aa(lp5288
I1
a(lp5289
F0.409091
aaI22
aa(lp5290
I1
a(lp5291
F0.5625
aaI16
aa(lp5292
I1
a(lp5293
F0.25
aaI16
aaa(lp5294
g2651
ag2652
a(lp5295
I1
a(lp5296
F0.25
aaI8
aa(lp5297
I1
a(lp5298
F0.352941
aaI17
aa(lp5299
I1
a(lp5300
F0.4375
aaI16
aa(lp5301
I1
a(lp5302
F0.357143
aaI14
aa(lp5303
I1
a(lp5304
F0.416667
aaI12
aa(lp5305
I1
a(lp5306
F0.2
aaI10
aa(lp5307
I1
a(lp5308
F0.214286
aaI14
aa(lp5309
I1
a(lp5310
F0.32
aaI25
aaa(lp5311
g2666
ag2667
aa(lp5312
g2669
ag2670
a(lp5313
I1
a(lp5314
F0.333333
aaI27
aa(lp5315
I1
a(lp5316
F0.25
aaI16
aa(lp5317
I1
a(lp5318
F0.0
aaI6
aa(lp5319
I1
a(lp5320
F0.5
aaI14
aa(lp5321
I1
a(lp5322
F0.5
aaI14
aa(lp5323
I1
a(lp5324
F0.714286
aaI14
aa(lp5325
I1
a(lp5326
F0.714286
aaI14
aa(lp5327
I1
a(lp5328
F0.6875
aaI16
aa(lp5329
I1
a(lp5330
F0.296296
aaI27
aa(lp5331
I1
a(lp5332
F0.28
aaI25
aaa(lp5333
g2720
ag2721
a(lp5334
I1
a(lp5335
F0.5
aaI14
aa(lp5336
I1
a(lp5337
F0.538462
aaI13
aa(lp5338
I1
a(lp5339
F0.363636
aaI22
aa(lp5340
I1
a(lp5341
F0.466667
aaI15
aa(lp5342
I1
a(lp5343
F0.409091
aaI22
aa(lp5344
I1
a(lp5345
F0.409091
aaI22
aa(lp5346
I1
a(lp5347
F0.3
aaI20
aa(lp5348
I1
a(lp5349
F0.25
aaI20
aa(lp5350
I1
a(lp5351
F0.210526
aaI19
aa(lp5352
I1
a(lp5353
F0.266667
aaI15
aa(lp5354
I1
a(lp5355
F0.266667
aaI15
aa(lp5356
I1
a(lp5357
F0.294118
aaI17
aa(lp5358
I1
a(lp5359
F0.235294
aaI17
aa(lp5360
I1
a(lp5361
F0.266667
aaI15
aa(lp5362
I1
a(lp5363
F0.227273
aaI22
aa(lp5364
I1
a(lp5365
F0.333333
aaI6
aa(lp5366
I1
a(lp5367
F0.333333
aaI9
aa(lp5368
I1
a(lp5369
F0.3
aaI10
aaa(lp5370
g2727
ag2728
aa(lp5371
g2730
ag2731
a(lp5372
I1
a(lp5373
F0.285714
aaI14
aaa(lp5374
g2733
ag2734
a(lp5375
I1
a(lp5376
F0.25
aaI20
aa(lp5377
I1
a(lp5378
F0.222222
aaI18
aa(lp5379
I1
a(lp5380
F0.333333
aaI21
aa(lp5381
I1
a(lp5382
F0.25
aaI8
aa(lp5383
I1
a(lp5384
F0.222222
aaI9
aa(lp5385
I1
a(lp5386
F0.333333
aaI9
aa(lp5387
I1
a(lp5388
F0.3
aaI10
aa(lp5389
I1
a(lp5390
F0.470588
aaI17
aa(lp5391
I1
a(lp5392
F0.4375
aaI16
aa(lp5393
I1
a(lp5394
F0.230769
aaI13
aa(lp5395
I1
a(lp5396
F0.333333
aaI12
aa(lp5397
I1
a(lp5398
F0.272727
aaI11
aa(lp5399
I1
a(lp5400
F0.266667
aaI15
aa(lp5401
I1
a(lp5402
F0.266667
aaI15
aa(lp5403
I1
a(lp5404
F0.25
aaI16
aa(lp5405
I1
a(lp5406
F0.2
aaI15
aa(lp5407
I1
a(lp5408
F0.230769
aaI13
aa(lp5409
I1
a(lp5410
F0.363636
aaI22
aa(lp5411
I1
a(lp5412
F0.315789
aaI19
aa(lp5413
I1
a(lp5414
F0.266667
aaI15
aa(lp5415
I1
a(lp5416
F0.25
aaI8
aa(lp5417
I1
a(lp5418
F0.25
aaI8
aa(lp5419
I1
a(lp5420
F0.222222
aaI9
aa(lp5421
I1
a(lp5422
F0.272727
aaI11
aa(lp5423
I1
a(lp5424
F0.2
aaI10
aa(lp5425
I1
a(lp5426
F0.2
aaI10
aa(lp5427
I1
a(lp5428
F0.263158
aaI19
aa(lp5429
I1
a(lp5430
F0.346154
aaI26
aa(lp5431
I2
a(lp5432
F0.2
aF0.2
aaI10
aa(lp5433
I1
a(lp5434
F0.214286
aaI14
aa(lp5435
I1
a(lp5436
F0.4
aaI10
aa(lp5437
I1
a(lp5438
F0.5
aaI8
aa(lp5439
I1
a(lp5440
F0.5
aaI10
aa(lp5441
I1
a(lp5442
F0.375
aaI8
aa(lp5443
I1
a(lp5444
F0.2
aaI10
aa(lp5445
I1
a(lp5446
F0.230769
aaI13
aa(lp5447
I1
a(lp5448
F0.214286
aaI14
aa(lp5449
I1
a(lp5450
F0.214286
aaI14
aa(lp5451
I1
a(lp5452
F0.25
aaI20
aa(lp5453
I1
a(lp5454
F0.3
aaI20
aa(lp5455
I1
a(lp5456
F0.35
aaI20
aa(lp5457
I1
a(lp5458
F0.470588
aaI17
aa(lp5459
I1
a(lp5460
F0.4
aaI5
aa(lp5461
I1
a(lp5462
F0.5
aaI4
aa(lp5463
I1
a(lp5464
F0.5
aaI4
aa(lp5465
I1
a(lp5466
F0.25
aaI8
aa(lp5467
I1
a(lp5468
F0.222222
aaI9
aa(lp5469
I1
a(lp5470
F0.333333
aaI6
aa(lp5471
I1
a(lp5472
F0.285714
aaI7
aa(lp5473
I1
a(lp5474
F0.375
aaI8
aa(lp5475
I1
a(lp5476
F0.375
aaI8
aa(lp5477
I1
a(lp5478
F0.333333
aaI9
aa(lp5479
I1
a(lp5480
F0.285714
aaI7
aa(lp5481
I1
a(lp5482
F0.3
aaI10
aa(lp5483
I1
a(lp5484
F0.315789
aaI19
aa(lp5485
I1
a(lp5486
F0.625
aaI16
aa(lp5487
I1
a(lp5488
F0.4
aaI15
aa(lp5489
I1
a(lp5490
F0.538462
aaI13
aa(lp5491
I1
a(lp5492
F0.529412
aaI17
aa(lp5493
I1
a(lp5494
F0.2
aaI20
aa(lp5495
I1
a(lp5496
F0.2
aaI20
aa(lp5497
I1
a(lp5498
F0.222222
aaI18
aa(lp5499
I1
a(lp5500
F0.3
aaI10
aa(lp5501
I1
a(lp5502
F0.263158
aaI19
aa(lp5503
I1
a(lp5504
F0.4
aaI25
aa(lp5505
I1
a(lp5506
F0.25
aaI12
aa(lp5507
I1
a(lp5508
F0.272727
aaI11
aa(lp5509
I1
a(lp5510
F0.3
aaI10
aa(lp5511
I1
a(lp5512
F0.333333
aaI9
aa(lp5513
I1
a(lp5514
F0.230769
aaI13
aa(lp5515
I1
a(lp5516
F0.230769
aaI13
aa(lp5517
I1
a(lp5518
F0.25
aaI16
aa(lp5519
I1
a(lp5520
F0.25
aaI16
aa(lp5521
I1
a(lp5522
F0.214286
aaI14
aa(lp5523
I1
a(lp5524
F0.222222
aaI18
aa(lp5525
I1
a(lp5526
F0.25
aaI16
aa(lp5527
I1
a(lp5528
F0.388889
aaI18
aa(lp5529
I1
a(lp5530
F0.26087
aaI23
aa(lp5531
I1
a(lp5532
F0.3125
aaI16
aa(lp5533
I1
a(lp5534
F0.230769
aaI13
aa(lp5535
I1
a(lp5536
F0.363636
aaI11
aa(lp5537
I1
a(lp5538
F0.25
aaI12
aa(lp5539
I1
a(lp5540
F0.5625
aaI16
aa(lp5541
I1
a(lp5542
F0.45
aaI20
aa(lp5543
I1
a(lp5544
F0.333333
aaI18
aa(lp5545
I1
a(lp5546
F0.521739
aaI23
aa(lp5547
I1
a(lp5548
F0.2
aaI15
aa(lp5549
I1
a(lp5550
F0.2
aaI15
aa(lp5551
I1
a(lp5552
F0.333333
aaI18
aa(lp5553
I1
a(lp5554
F0.5
aaI18
aa(lp5555
I1
a(lp5556
F0.3125
aaI16
aa(lp5557
I1
a(lp5558
F0.310345
aaI29
aa(lp5559
I1
a(lp5560
F0.214286
aaI28
aa(lp5561
I1
a(lp5562
F0.333333
aaI18
aaa(lp5563
g2756
ag2757
a(lp5564
I1
a(lp5565
F0.214286
aaI14
aa(lp5566
I1
a(lp5567
F0.230769
aaI13
aa(lp5568
I1
a(lp5569
F0.230769
aaI13
aa(lp5570
I1
a(lp5571
F0.25
aaI12
aa(lp5572
I1
a(lp5573
F0.25
aaI12
aa(lp5574
I1
a(lp5575
F0.25
aaI12
aa(lp5576
I1
a(lp5577
F0.2
aaI10
aa(lp5578
I1
a(lp5579
F0.214286
aaI14
aa(lp5580
I1
a(lp5581
F0.294118
aaI17
aaa(lp5582
g2759
ag2760
a(lp5583
I1
a(lp5584
F0.0
aaI15
aa(lp5585
I1
a(lp5586
F0.7
aaI10
aa(lp5587
I1
a(lp5588
F0.2
aaI10
aa(lp5589
I1
a(lp5590
F0.2
aaI10
aaa(lp5591
g2764
ag2765
a(lp5592
I1
a(lp5593
F0.263158
aaI38
aaa(lp5594
g2767
ag2768
aa(lp5595
g2770
ag2771
aa(lp5596
g2773
ag2774
aa(lp5597
g2776
ag2777
a(lp5598
I1
a(lp5599
F0.222222
aaI27
aa(lp5600
I1
a(lp5601
F0.230769
aaI26
aa(lp5602
I1
a(lp5603
F0.315789
aaI19
aa(lp5604
I1
a(lp5605
F0.473684
aaI19
aa(lp5606
I1
a(lp5607
F0.222222
aaI18
aaa(lp5608
g2779
ag2780
aa(lp5609
g2782
ag2783
aa(lp5610
g2785
ag2786
aa(lp5611
g2790
ag2791
a(lp5612
I1
a(lp5613
F0.294118
aaI17
aa(lp5614
I1
a(lp5615
F0.428571
aaI21
aa(lp5616
I1
a(lp5617
F0.704545
aaI44
aa(lp5618
I1
a(lp5619
F0.674419
aaI43
aa(lp5620
I1
a(lp5621
F0.25
aaI16
aa(lp5622
I1
a(lp5623
F0.235294
aaI17
aa(lp5624
I1
a(lp5625
F0.277778
aaI18
aa(lp5626
I1
a(lp5627
F0.222222
aaI18
aa(lp5628
I1
a(lp5629
F0.222222
aaI18
aa(lp5630
I1
a(lp5631
F0.333333
aaI18
aa(lp5632
I1
a(lp5633
F0.25
aaI16
aa(lp5634
I1
a(lp5635
F0.35
aaI20
aa(lp5636
I1
a(lp5637
F0.0
aaI13
aa(lp5638
I1
a(lp5639
F0.416667
aaI12
aa(lp5640
I1
a(lp5641
F0.4
aaI20
aa(lp5642
I1
a(lp5643
F0.535714
aaI28
aa(lp5644
I1
a(lp5645
F0.636364
aaI22
aa(lp5646
I1
a(lp5647
F0.541667
aaI24
aaa(lp5648
g2793
ag2794
a(lp5649
I1
a(lp5650
F0.263158
aaI19
aa(lp5651
I1
a(lp5652
F0.235294
aaI17
aa(lp5653
I1
a(lp5654
F0.0
aaI14
aa(lp5655
I1
a(lp5656
F0.294118
aaI17
aa(lp5657
I1
a(lp5658
F0.222222
aaI18
aa(lp5659
I1
a(lp5660
F0.235294
aaI17
aa(lp5661
I1
a(lp5662
F0.294118
aaI17
aaa(lp5663
g2796
ag2797
a(lp5664
I1
a(lp5665
F0.222222
aaI36
aa(lp5666
I1
a(lp5667
F0.263158
aaI19
aa(lp5668
I1
a(lp5669
F0.263158
aaI19
aa(lp5670
I1
a(lp5671
F0.352941
aaI17
aa(lp5672
I2
a(lp5673
F0.222222
aF0.333333
aaI9
aaa(lp5674
g2807
ag2808
aa(lp5675
g2810
ag2811
a(lp5676
I1
a(lp5677
F0.55
aaI20
aaa(lp5678
g2863
ag2864
a(lp5679
I1
a(lp5680
F0.6875
aaI32
aa(lp5681
I1
a(lp5682
F0.266667
aaI30
aa(lp5683
I1
a(lp5684
F0.451613
aaI31
aaa(lp5685
g2882
ag2883
aa(lp5686
g2885
ag2886
aa(lp5687
g2916
ag2917
a(lp5688
I1
a(lp5689
F0.75
aaI4
aa(lp5690
I1
a(lp5691
F0.0
aaI3
aa(lp5692
I1
a(lp5693
F0.758621
aaI29
aa(lp5694
I1
a(lp5695
F0.628571
aaI35
aa(lp5696
I1
a(lp5697
F0.513514
aaI37
aaa(lp5698
g2921
ag2922
a(lp5699
I1
a(lp5700
F0.391304
aaI23
aa(lp5701
I1
a(lp5702
F0.411765
aaI17
aa(lp5703
I1
a(lp5704
F0.285714
aaI14
aaa(lp5705
g2928
ag2929
a(lp5706
I1
a(lp5707
F0.272727
aaI11
aa(lp5708
I1
a(lp5709
F0.454545
aaI11
aa(lp5710
I2
a(lp5711
F0.0
aF0.0
aaI10
aa(lp5712
I1
a(lp5713
F0.25
aaI8
aa(lp5714
I1
a(lp5715
F0.470588
aaI17
aa(lp5716
I1
a(lp5717
F0.24
aaI25
aa(lp5718
I1
a(lp5719
F0.269231
aaI26
aa(lp5720
I1
a(lp5721
F0.441176
aaI34
aaa(lp5722
g2939
ag2940
a(lp5723
I1
a(lp5724
F0.0
aaI4
aa(lp5725
I1
a(lp5726
F0.0
aaI5
aa(lp5727
I1
a(lp5728
F0.444444
aaI18
aa(lp5729
I1
a(lp5730
F0.5
aaI18
aa(lp5731
I1
a(lp5732
F0.5
aaI18
aa(lp5733
I2
a(lp5734
F0.4
aF0.6
aaI15
aa(lp5735
I1
a(lp5736
F0.625
aaI8
aa(lp5737
I1
a(lp5738
F0.666667
aaI12
aa(lp5739
I1
a(lp5740
F0.25
aaI12
aa(lp5741
I1
a(lp5742
F0.272727
aaI11
aa(lp5743
I1
a(lp5744
F0.25
aaI12
aa(lp5745
I1
a(lp5746
F0.2
aaI15
aa(lp5747
I1
a(lp5748
F0.214286
aaI14
aaa(lp5749
g2946
ag2947
a(lp5750
I1
a(lp5751
F0.619048
aaI21
aa(lp5752
I1
a(lp5753
F0.357143
aaI28
aa(lp5754
I1
a(lp5755
F0.222222
aaI9
aa(lp5756
I1
a(lp5757
F0.625
aaI8
aa(lp5758
I1
a(lp5759
F0.285714
aaI14
aaa(lp5760
g2949
ag2950
aa(lp5761
g2952
ag2953
aa(lp5762
g2957
ag2958
a(lp5763
I1
a(lp5764
F0.0
aaI4
aa(lp5765
I1
a(lp5766
F0.5
aaI14
aaa(lp5767
g2964
ag2965
aa(lp5768
g2967
ag2968
a(lp5769
I1
a(lp5770
F0.230769
aaI13
aaa(lp5771
g2970
ag2971
a(lp5772
I1
a(lp5773
F0.277778
aaI18
aaa(lp5774
g2983
ag2984
a(lp5775
I1
a(lp5776
F0.2
aaI20
aa(lp5777
I1
a(lp5778
F0.2
aaI20
aa(lp5779
I1
a(lp5780
F0.277778
aaI18
aa(lp5781
I1
a(lp5782
F0.263158
aaI19
aaa(lp5783
g2986
ag2987
a(lp5784
I1
a(lp5785
F0.3
aaI10
aa(lp5786
I1
a(lp5787
F0.333333
aaI12
aa(lp5788
I1
a(lp5789
F0.266667
aaI15
aa(lp5790
I1
a(lp5791
F0.266667
aaI15
aa(lp5792
I1
a(lp5793
F0.266667
aaI15
aa(lp5794
I1
a(lp5795
F0.266667
aaI15
aa(lp5796
I1
a(lp5797
F0.333333
aaI12
aa(lp5798
I1
a(lp5799
F0.333333
aaI12
aa(lp5800
I1
a(lp5801
F0.0
aaI10
aa(lp5802
I1
a(lp5803
F0.222222
aaI9
aa(lp5804
I1
a(lp5805
F0.285714
aaI14
aaa(lp5806
g2989
ag2990
aa(lp5807
g2992
ag2993
aa(lp5808
g2997
ag2998
a(lp5809
I1
a(lp5810
F0.352941
aaI17
aa(lp5811
I1
a(lp5812
F0.25
aaI12
aa(lp5813
I1
a(lp5814
F0.25
aaI12
aa(lp5815
I1
a(lp5816
F0.230769
aaI13
aaa(lp5817
g3008
ag3009
aa(lp5818
g3011
ag3012
aassS'diploids'
p5819
(dp5820
g3
(lp5821
(lp5822
S'scaffold2285_cov92'
p5823
aS'scaffold34413_cov63'
p5824
aa(lp5825
S'scaffold42461_cov100'
p5826
aS'scaffold7156_cov63'
p5827
a(lp5828
I1
a(lp5829
F0.666667
aaI6
aaa(lp5830
S'scaffold10915_cov72'
p5831
aS'scaffold5164_cov59'
p5832
aa(lp5833
S'scaffold2786_cov74'
p5834
aS'scaffold39016_cov111'
p5835
aa(lp5836
S'scaffold8961_cov96'
p5837
aS'scaffold9651_cov60'
p5838
aa(lp5839
S'scaffold1561_cov50'
p5840
aS'scaffold1981_cov53'
p5841
a(lp5842
I1
a(lp5843
F0.5
aaI12
aa(lp5844
I1
a(lp5845
F0.2
aaI20
aa(lp5846
I1
a(lp5847
F0.4
aaI10
aa(lp5848
I1
a(lp5849
F0.416667
aaI12
aa(lp5850
I1
a(lp5851
F0.4375
aaI16
aa(lp5852
I1
a(lp5853
F0.222222
aaI9
aa(lp5854
I1
a(lp5855
F0.285714
aaI7
aaa(lp5856
S'scaffold2570_cov56'
p5857
aS'scaffold33937_cov139'
p5858
aa(lp5859
S'scaffold13919_cov66'
p5860
aS'scaffold7244_cov53'
p5861
aa(lp5862
S'scaffold2297_cov70'
p5863
aS'scaffold5466_cov54'
p5864
a(lp5865
I1
a(lp5866
F0.204545
aaI44
aaa(lp5867
S'scaffold19517_cov60'
p5868
aS'scaffold832_cov72'
p5869
aa(lp5870
S'scaffold2592_cov100'
p5871
aS'scaffold466_cov101'
p5872
a(lp5873
I1
a(lp5874
F0.2
aaI15
aaa(lp5875
S'scaffold17489_cov70'
p5876
aS'scaffold36821_cov56'
p5877
a(lp5878
I1
a(lp5879
F0.3125
aaI16
aa(lp5880
I1
a(lp5881
F0.266667
aaI15
aa(lp5882
I1
a(lp5883
F0.857143
aaI7
aa(lp5884
I1
a(lp5885
F0.0
aaI7
aa(lp5886
I1
a(lp5887
F0.0
aaI12
aa(lp5888
I1
a(lp5889
F0.0
aaI4
aa(lp5890
I1
a(lp5891
F0.0
aaI10
aa(lp5892
I1
a(lp5893
F0.0
aaI8
aa(lp5894
I1
a(lp5895
F0.0
aaI6
aa(lp5896
I1
a(lp5897
F0.0
aaI6
aaa(lp5898
S'scaffold36583_cov64'
p5899
aS'scaffold6606_cov160'
p5900
aa(lp5901
S'scaffold10095_cov71'
p5902
aS'scaffold33586_cov59'
p5903
a(lp5904
I1
a(lp5905
F0.0
aaI5
aa(lp5906
I1
a(lp5907
F0.0
aaI7
aa(lp5908
I1
a(lp5909
F0.0
aaI5
aa(lp5910
I1
a(lp5911
F0.0
aaI5
aa(lp5912
I1
a(lp5913
F0.0
aaI5
aa(lp5914
I1
a(lp5915
F0.0
aaI11
aa(lp5916
I1
a(lp5917
F0.5
aaI6
aa(lp5918
I1
a(lp5919
F0.571429
aaI7
aaa(lp5920
S'scaffold35877_cov69'
p5921
aS'scaffold5395_cov50'
p5922
aa(lp5923
S'scaffold22352_cov39'
p5924
aS'scaffold37380_cov122'
p5925
aa(lp5926
S'scaffold14170_cov69'
p5927
aS'scaffold47_cov51'
p5928
aa(lp5929
S'scaffold2946_cov99'
p5930
aS'scaffold8059_cov49'
p5931
aa(lp5932
S'scaffold23473_cov56'
p5933
aS'scaffold34278_cov88'
p5934
a(lp5935
I1
a(lp5936
F0.0
aaI12
aag915
ag917
ag919
aa(lp5937
S'scaffold11517_cov58'
p5938
aS'scaffold11518_cov107'
p5939
aa(lp5940
S'scaffold34976_cov99'
p5941
aS'scaffold44933_cov138'
p5942
aa(lp5943
S'scaffold34199_cov83'
p5944
aS'scaffold886_cov63'
p5945
a(lp5946
I1
a(lp5947
F0.714286
aaI7
aa(lp5948
I1
a(lp5949
F0.285714
aaI7
aa(lp5950
I1
a(lp5951
F0.333333
aaI6
aa(lp5952
I1
a(lp5953
F0.5
aaI4
aa(lp5954
I1
a(lp5955
F0.666667
aaI3
aa(lp5956
I1
a(lp5957
F0.0
aaI3
aaa(lp5958
S'scaffold35021_cov83'
p5959
aS'scaffold43367_cov115'
p5960
aa(lp5961
S'scaffold11579_cov94'
p5962
aS'scaffold14662_cov55'
p5963
aa(lp5964
S'scaffold1651_cov81'
p5965
aS'scaffold2084_cov95'
p5966
a(lp5967
I1
a(lp5968
F0.0
aaI5
aa(lp5969
I1
a(lp5970
F0.0
aaI10
aa(lp5971
I1
a(lp5972
F0.666667
aaI6
aa(lp5973
I1
a(lp5974
F0.4
aaI10
aa(lp5975
I1
a(lp5976
F0.357143
aaI14
aa(lp5977
I1
a(lp5978
F0.333333
aaI18
aa(lp5979
I1
a(lp5980
F0.0
aaI7
aa(lp5981
I1
a(lp5982
F0.0
aaI2
aa(lp5983
I1
a(lp5984
F0.5
aaI4
aa(lp5985
I1
a(lp5986
F0.5
aaI4
aa(lp5987
I1
a(lp5988
F0.375
aaI8
aa(lp5989
I1
a(lp5990
F0.222222
aaI9
aaa(lp5991
S'scaffold25903_cov62'
p5992
aS'scaffold5688_cov67'
p5993
a(lp5994
I1
a(lp5995
F0.230769
aaI13
aa(lp5996
I1
a(lp5997
F0.75
aaI4
aa(lp5998
I1
a(lp5999
F0.0
aaI4
aa(lp6000
I1
a(lp6001
F0.0
aaI2
aa(lp6002
I1
a(lp6003
F0.0
aaI2
aa(lp6004
I1
a(lp6005
F0.8
aaI5
aaa(lp6006
S'scaffold9665_cov44'
p6007
aS'scaffold9666_cov95'
p6008
aa(lp6009
S'scaffold28625_cov54'
p6010
aS'scaffold51283_cov119'
p6011
aa(lp6012
S'scaffold35940_cov79'
p6013
aS'scaffold5213_cov135'
p6014
a(lp6015
I1
a(lp6016
F0.785714
aaI28
aaa(lp6017
S'scaffold19735_cov56'
p6018
aS'scaffold52556_cov103'
p6019
aa(lp6020
S'scaffold18184_cov66'
p6021
aS'scaffold5184_cov86'
p6022
aa(lp6023
S'scaffold1680_cov53'
p6024
aS'scaffold79_cov102'
p6025
aa(lp6026
S'scaffold2637_cov103'
p6027
aS'scaffold3877_cov78'
p6028
a(lp6029
I1
a(lp6030
F0.0
aaI7
aa(lp6031
I1
a(lp6032
F0.3
aaI10
aa(lp6033
I1
a(lp6034
F0.3
aaI10
aa(lp6035
I1
a(lp6036
F0.222222
aaI9
aa(lp6037
I1
a(lp6038
F0.235294
aaI17
aa(lp6039
I1
a(lp6040
F0.333333
aaI21
aaa(lp6041
S'scaffold42399_cov165'
p6042
aS'scaffold4701_cov56'
p6043
aa(lp6044
S'scaffold19063_cov80'
p6045
aS'scaffold3937_cov54'
p6046
a(lp6047
I1
a(lp6048
F0.4
aaI15
aaa(lp6049
S'scaffold19558_cov55'
p6050
aS'scaffold53087_cov191'
p6051
aa(lp6052
S'scaffold10939_cov60'
p6053
aS'scaffold1726_cov57'
p6054
a(lp6055
I1
a(lp6056
F0.0
aaI6
aa(lp6057
I1
a(lp6058
F0.0
aaI12
aa(lp6059
I1
a(lp6060
F0.2
aaI15
aa(lp6061
I1
a(lp6062
F0.25
aaI16
aa(lp6063
I1
a(lp6064
F0.285714
aaI7
aa(lp6065
I1
a(lp6066
F0.357143
aaI14
aaa(lp6067
S'scaffold23854_cov126'
p6068
aS'scaffold34289_cov136'
p6069
aa(lp6070
S'scaffold45026_cov161'
p6071
aS'scaffold9651_cov60'
p6072
aa(lp6073
S'scaffold6480_cov125'
p6074
aS'scaffold968_cov57'
p6075
a(lp6076
I1
a(lp6077
F0.272727
aaI22
aaa(lp6078
S'scaffold2428_cov67'
p6079
aS'scaffold8055_cov67'
p6080
aa(lp6081
S'scaffold2731_cov57'
p6082
aS'scaffold35040_cov139'
p6083
aa(lp6084
S'scaffold16604_cov60'
p6085
aS'scaffold9959_cov130'
p6086
aa(lp6087
S'scaffold34682_cov108'
p6088
aS'scaffold411_cov59'
p6089
a(lp6090
I1
a(lp6091
F0.222222
aaI9
aa(lp6092
I1
a(lp6093
F0.25
aaI8
aa(lp6094
I1
a(lp6095
F0.315789
aaI19
aaa(lp6096
S'scaffold1727_cov50'
p6097
aS'scaffold4369_cov78'
p6098
aa(lp6099
S'scaffold2998_cov77'
p6100
aS'scaffold9604_cov73'
p6101
aa(lp6102
S'scaffold1207_cov107'
p6103
aS'scaffold5065_cov145'
p6104
aa(lp6105
S'scaffold2390_cov64'
p6106
aS'scaffold8942_cov56'
p6107
aa(lp6108
S'scaffold25181_cov79'
p6109
aS'scaffold7198_cov59'
p6110
aa(lp6111
S'scaffold14622_cov56'
p6112
aS'scaffold17539_cov88'
p6113
a(lp6114
I1
a(lp6115
F0.315789
aaI19
aa(lp6116
I1
a(lp6117
F0.6
aaI20
aa(lp6118
I1
a(lp6119
F0.222222
aaI9
aa(lp6120
I1
a(lp6121
F0.272727
aaI11
aa(lp6122
I1
a(lp6123
F0.363636
aaI11
aaa(lp6124
S'scaffold1103_cov83'
p6125
aS'scaffold1104_cov68'
p6126
a(lp6127
I1
a(lp6128
F0.0
aaI3
aa(lp6129
I1
a(lp6130
F0.25
aaI8
aa(lp6131
I1
a(lp6132
F0.666667
aaI6
aaa(lp6133
S'scaffold10112_cov50'
p6134
aS'scaffold5491_cov58'
p6135
aa(lp6136
S'scaffold14844_cov71'
p6137
aS'scaffold985_cov66'
p6138
aa(lp6139
S'scaffold17628_cov108'
p6140
aS'scaffold1969_cov52'
p6141
aa(lp6142
S'scaffold20375_cov54'
p6143
aS'scaffold38360_cov207'
p6144
aa(lp6145
S'scaffold11537_cov147'
p6146
aS'scaffold37592_cov59'
p6147
aa(lp6148
S'scaffold2245_cov55'
p6149
aS'scaffold344_cov95'
p6150
a(lp6151
I1
a(lp6152
F0.333333
aaI18
aa(lp6153
I1
a(lp6154
F0.2
aaI20
aa(lp6155
I1
a(lp6156
F0.666667
aaI3
aa(lp6157
I1
a(lp6158
F0.0
aaI2
aa(lp6159
I1
a(lp6160
F0.0
aaI2
aa(lp6161
I1
a(lp6162
F0.0
aaI2
aa(lp6163
I1
a(lp6164
F0.0
aaI5
aa(lp6165
I1
a(lp6166
F0.0
aaI15
aa(lp6167
I1
a(lp6168
F0.285714
aaI7
aa(lp6169
I1
a(lp6170
F0.0
aaI9
aa(lp6171
I1
a(lp6172
F0.55
aaI20
aaa(lp6173
S'scaffold1054_cov57'
p6174
aS'scaffold7097_cov101'
p6175
aa(lp6176
S'scaffold15508_cov90'
p6177
aS'scaffold36032_cov131'
p6178
aa(lp6179
S'scaffold18525_cov53'
p6180
aS'scaffold3769_cov71'
p6181
a(lp6182
I1
a(lp6183
F0.0
aaI3
aa(lp6184
I1
a(lp6185
F0.0
aaI3
aaa(lp6186
S'scaffold39987_cov111'
p6187
aS'scaffold7461_cov76'
p6188
aa(lp6189
S'scaffold33082_cov85'
p6190
aS'scaffold41869_cov103'
p6191
aa(lp6192
S'scaffold21958_cov101'
p6193
aS'scaffold2626_cov102'
p6194
a(lp6195
I1
a(lp6196
F0.416667
aaI12
aaa(lp6197
S'scaffold14610_cov136'
p6198
aS'scaffold2598_cov61'
p6199
aa(lp6200
S'scaffold17143_cov73'
p6201
aS'scaffold18659_cov51'
p6202
a(lp6203
I1
a(lp6204
F0.0
aaI2
aa(lp6205
I1
a(lp6206
F0.0
aaI3
aaa(lp6207
S'scaffold255_cov58'
p6208
aS'scaffold32858_cov151'
p6209
aa(lp6210
S'scaffold13368_cov73'
p6211
aS'scaffold47_cov51'
p6212
aa(lp6213
S'scaffold18560_cov75'
p6214
aS'scaffold46285_cov153'
p6215
aa(lp6216
S'scaffold14755_cov58'
p6217
aS'scaffold1835_cov54'
p6218
aa(lp6219
S'scaffold34989_cov66'
p6220
aS'scaffold5980_cov50'
p6221
aa(lp6222
S'scaffold15567_cov64'
p6223
aS'scaffold5760_cov53'
p6224
a(lp6225
I1
a(lp6226
F0.25
aaI8
aa(lp6227
I1
a(lp6228
F0.0
aaI15
aaa(lp6229
S'scaffold14030_cov122'
p6230
aS'scaffold350_cov52'
p6231
a(lp6232
I1
a(lp6233
F0.272727
aaI11
aaa(lp6234
S'scaffold3077_cov95'
p6235
aS'scaffold5136_cov47'
p6236
aa(lp6237
S'scaffold6110_cov55'
p6238
aS'scaffold861_cov54'
p6239
a(lp6240
I1
a(lp6241
F0.285714
aaI7
aa(lp6242
I1
a(lp6243
F0.2
aaI10
aaa(lp6244
S'scaffold2790_cov71'
p6245
aS'scaffold5283_cov61'
p6246
a(lp6247
I1
a(lp6248
F0.0
aaI7
aaa(lp6249
S'scaffold5841_cov52'
p6250
aS'scaffold8765_cov54'
p6251
aa(lp6252
S'scaffold18342_cov147'
p6253
aS'scaffold5966_cov74'
p6254
aa(lp6255
S'scaffold12489_cov66'
p6256
aS'scaffold12509_cov75'
p6257
aa(lp6258
S'scaffold11052_cov59'
p6259
aS'scaffold2304_cov65'
p6260
a(lp6261
I1
a(lp6262
F0.0
aaI9
aa(lp6263
I1
a(lp6264
F0.0
aaI11
aa(lp6265
I1
a(lp6266
F0.266667
aaI15
aa(lp6267
I1
a(lp6268
F0.2
aaI10
aa(lp6269
I1
a(lp6270
F0.307692
aaI13
aaa(lp6271
S'scaffold14496_cov57'
p6272
aS'scaffold154_cov94'
p6273
aa(lp6274
S'scaffold28048_cov54'
p6275
aS'scaffold32065_cov59'
p6276
aa(lp6277
S'scaffold2571_cov70'
p6278
aS'scaffold27216_cov96'
p6279
aa(lp6280
S'scaffold18278_cov58'
p6281
aS'scaffold2739_cov53'
p6282
aa(lp6283
S'scaffold21109_cov47'
p6284
aS'scaffold5518_cov59'
p6285
aa(lp6286
S'scaffold1680_cov53'
p6287
aS'scaffold3753_cov79'
p6288
aasg3013
(lp6289
(lp6290
g5823
ag5824
aa(lp6291
g5826
ag5827
aa(lp6292
g5831
ag5832
aa(lp6293
g5834
ag5835
aa(lp6294
g5837
ag5838
aa(lp6295
g5840
ag5841
aa(lp6296
g5857
ag5858
aa(lp6297
g5860
ag5861
a(lp6298
I1
a(lp6299
F0.230769
aaI13
aa(lp6300
I1
a(lp6301
F0.257143
aaI35
aaa(lp6302
g5863
ag5864
a(lp6303
I1
a(lp6304
F0.230769
aaI13
aa(lp6305
I1
a(lp6306
F0.0
aaI12
aa(lp6307
I1
a(lp6308
F0.4
aaI10
aaa(lp6309
g5868
ag5869
a(lp6310
I1
a(lp6311
F0.241379
aaI29
aaa(lp6312
g5871
ag5872
aa(lp6313
g5876
ag5877
aa(lp6314
g5899
ag5900
aa(lp6315
g5902
ag5903
a(lp6316
I1
a(lp6317
F0.0
aaI14
aa(lp6318
I1
a(lp6319
F1.0
aaI2
aa(lp6320
I1
a(lp6321
F0.0
aaI8
aa(lp6322
I1
a(lp6323
F0.75
aaI8
aa(lp6324
I1
a(lp6325
F0.777778
aaI9
aa(lp6326
I1
a(lp6327
F0.222222
aaI9
aa(lp6328
I1
a(lp6329
F0.0
aaI8
aa(lp6330
I1
a(lp6331
F0.0
aaI8
aa(lp6332
I1
a(lp6333
F0.5
aaI6
aa(lp6334
I1
a(lp6335
F0.2
aaI10
aa(lp6336
I1
a(lp6337
F0.333333
aaI6
aa(lp6338
I1
a(lp6339
F0.333333
aaI6
aa(lp6340
I1
a(lp6341
F0.526316
aaI19
aaa(lp6342
g5921
ag5922
aa(lp6343
g5924
ag5925
aa(lp6344
g5927
ag5928
a(lp6345
I1
a(lp6346
F0.222222
aaI9
aaa(lp6347
g5930
ag5931
aa(lp6348
g5933
ag5934
aa(lp6349
g5938
ag5939
aa(lp6350
g5941
ag5942
a(lp6351
I1
a(lp6352
F0.666667
aaI3
aa(lp6353
I1
a(lp6354
F0.666667
aaI3
aa(lp6355
I1
a(lp6356
F0.666667
aaI3
aa(lp6357
I1
a(lp6358
F0.5
aaI4
aa(lp6359
I1
a(lp6360
F0.5
aaI4
aa(lp6361
I1
a(lp6362
F0.0
aaI4
aa(lp6363
I1
a(lp6364
F0.0
aaI2
aa(lp6365
I1
a(lp6366
F0.0
aaI2
aa(lp6367
I1
a(lp6368
F0.416667
aaI12
aaa(lp6369
g5944
ag5945
a(lp6370
I1
a(lp6371
F0.25
aaI12
aa(lp6372
I1
a(lp6373
F0.428571
aaI21
aa(lp6374
I1
a(lp6375
F0.3125
aaI16
aa(lp6376
I1
a(lp6377
F0.222222
aaI9
aa(lp6378
I1
a(lp6379
F0.461538
aaI13
aa(lp6380
I1
a(lp6381
F0.222222
aaI9
aa(lp6382
I1
a(lp6383
F0.2
aaI10
aa(lp6384
I1
a(lp6385
F0.363636
aaI11
aa(lp6386
I1
a(lp6387
F0.214286
aaI14
aaa(lp6388
g5959
ag5960
a(lp6389
I1
a(lp6390
F0.333333
aaI21
aa(lp6391
I1
a(lp6392
F0.285714
aaI14
aaa(lp6393
g5962
ag5963
aa(lp6394
g5965
ag5966
a(lp6395
I1
a(lp6396
F0.25
aaI8
aaa(lp6397
g5992
ag5993
a(lp6398
I1
a(lp6399
F0.0
aaI11
aa(lp6400
I1
a(lp6401
F0.222222
aaI9
aaa(lp6402
g6007
ag6008
aa(lp6403
g6010
ag6011
aa(lp6404
g6013
ag6014
aa(lp6405
g6018
ag6019
aa(lp6406
g6021
ag6022
aa(lp6407
g6024
ag6025
aa(lp6408
g6027
ag6028
a(lp6409
I1
a(lp6410
F0.3
aaI10
aa(lp6411
I1
a(lp6412
F0.25
aaI12
aa(lp6413
I1
a(lp6414
F0.214286
aaI14
aa(lp6415
I1
a(lp6416
F0.266667
aaI15
aa(lp6417
I1
a(lp6418
F0.529412
aaI17
aa(lp6419
I1
a(lp6420
F0.315789
aaI19
aa(lp6421
I1
a(lp6422
F0.263158
aaI19
aa(lp6423
I1
a(lp6424
F0.2
aaI15
aa(lp6425
I1
a(lp6426
F0.35
aaI20
aa(lp6427
I1
a(lp6428
F0.0
aaI10
aa(lp6429
I1
a(lp6430
F0.0
aaI8
aa(lp6431
I1
a(lp6432
F0.666667
aaI24
aa(lp6433
I1
a(lp6434
F0.230769
aaI13
aa(lp6435
I1
a(lp6436
F0.272727
aaI22
aaa(lp6437
g6042
ag6043
aa(lp6438
g6045
ag6046
a(lp6439
I1
a(lp6440
F0.307692
aaI26
aa(lp6441
I1
a(lp6442
F0.413793
aaI29
aa(lp6443
I1
a(lp6444
F0.4
aaI10
aa(lp6445
I1
a(lp6446
F0.444444
aaI9
aaa(lp6447
g6050
ag6051
aa(lp6448
g6053
ag6054
a(lp6449
I1
a(lp6450
F0.357143
aaI14
aa(lp6451
I1
a(lp6452
F0.3125
aaI16
aa(lp6453
I1
a(lp6454
F0.333333
aaI15
aa(lp6455
I1
a(lp6456
F0.285714
aaI7
aa(lp6457
I1
a(lp6458
F0.333333
aaI15
aa(lp6459
I1
a(lp6460
F0.285714
aaI21
aa(lp6461
I1
a(lp6462
F0.473684
aaI19
aa(lp6463
I1
a(lp6464
F0.230769
aaI13
aa(lp6465
I1
a(lp6466
F0.222222
aaI9
aa(lp6467
I1
a(lp6468
F0.210526
aaI19
aa(lp6469
I1
a(lp6470
F0.0
aaI18
aa(lp6471
I1
a(lp6472
F0.3125
aaI16
aa(lp6473
I1
a(lp6474
F0.277778
aaI18
aa(lp6475
I1
a(lp6476
F0.285714
aaI14
aa(lp6477
I1
a(lp6478
F0.285714
aaI14
aa(lp6479
I1
a(lp6480
F0.263158
aaI19
aaa(lp6481
g6068
ag6069
aa(lp6482
g6071
ag6072
aa(lp6483
g6074
ag6075
a(lp6484
I1
a(lp6485
F0.0
aaI16
aa(lp6486
I1
a(lp6487
F0.21875
aaI32
aaa(lp6488
g6079
ag6080
a(lp6489
I1
a(lp6490
F0.0
aaI4
aa(lp6491
I1
a(lp6492
F0.0
aaI4
aa(lp6493
I1
a(lp6494
F0.25
aaI12
aaa(lp6495
g6082
ag6083
a(lp6496
I1
a(lp6497
F0.333333
aaI18
aaa(lp6498
g6085
ag6086
a(lp6499
I1
a(lp6500
F0.2
aaI20
aa(lp6501
I1
a(lp6502
F0.304348
aaI23
aaa(lp6503
g6088
ag6089
aa(lp6504
g6097
ag6098
aa(lp6505
g6100
ag6101
a(lp6506
I1
a(lp6507
F0.0
aaI2
aa(lp6508
I1
a(lp6509
F0.0
aaI2
aa(lp6510
I1
a(lp6511
F0.0
aaI12
aa(lp6512
I1
a(lp6513
F0.0
aaI2
aa(lp6514
I1
a(lp6515
F0.0
aaI3
aa(lp6516
I1
a(lp6517
F0.0
aaI3
aa(lp6518
I1
a(lp6519
F0.0
aaI2
aa(lp6520
I1
a(lp6521
F0.0
aaI2
aa(lp6522
I1
a(lp6523
F0.232558
aaI43
aaa(lp6524
g6103
ag6104
aa(lp6525
g6106
ag6107
a(lp6526
I1
a(lp6527
F0.222222
aaI18
aa(lp6528
I1
a(lp6529
F0.25
aaI20
aa(lp6530
I1
a(lp6531
F0.238095
aaI21
aaa(lp6532
g6109
ag6110
a(lp6533
I1
a(lp6534
F0.259259
aaI27
aa(lp6535
I1
a(lp6536
F0.263158
aaI19
aaa(lp6537
g6112
ag6113
a(lp6538
I1
a(lp6539
F0.0
aaI12
aa(lp6540
I1
a(lp6541
F0.0
aaI11
aa(lp6542
I1
a(lp6543
F0.555556
aaI9
aa(lp6544
I1
a(lp6545
F0.0
aaI11
aa(lp6546
I1
a(lp6547
F0.272727
aaI11
aa(lp6548
I1
a(lp6549
F0.0
aaI8
aa(lp6550
I1
a(lp6551
F0.375
aaI8
aa(lp6552
I1
a(lp6553
F0.0
aaI8
aa(lp6554
I1
a(lp6555
F0.466667
aaI15
aa(lp6556
I1
a(lp6557
F0.5
aaI10
aa(lp6558
I1
a(lp6559
F0.454545
aaI11
aa(lp6560
I1
a(lp6561
F0.5
aaI12
aaa(lp6562
g6125
ag6126
a(lp6563
I1
a(lp6564
F0.0
aaI8
aa(lp6565
I1
a(lp6566
F0.375
aaI8
aa(lp6567
I1
a(lp6568
F0.625
aaI8
aa(lp6569
I1
a(lp6570
F0.2
aaI15
aa(lp6571
I1
a(lp6572
F0.2
aaI15
aa(lp6573
I1
a(lp6574
F0.217391
aaI23
aa(lp6575
I1
a(lp6576
F0.259259
aaI27
aa(lp6577
I1
a(lp6578
F0.333333
aaI24
aa(lp6579
I1
a(lp6580
F0.318182
aaI22
aa(lp6581
I1
a(lp6582
F0.352941
aaI17
aa(lp6583
I1
a(lp6584
F0.375
aaI16
aa(lp6585
I1
a(lp6586
F0.2
aaI10
aa(lp6587
I1
a(lp6588
F0.217391
aaI23
aa(lp6589
I1
a(lp6590
F0.8125
aaI16
aaa(lp6591
g6134
ag6135
a(lp6592
I1
a(lp6593
F0.214286
aaI14
aa(lp6594
I1
a(lp6595
F0.333333
aaI15
aa(lp6596
I1
a(lp6597
F0.5
aaI16
aa(lp6598
I1
a(lp6599
F0.318182
aaI22
aa(lp6600
I1
a(lp6601
F0.875
aaI8
aa(lp6602
I1
a(lp6603
F0.285714
aaI7
aa(lp6604
I1
a(lp6605
F0.714286
aaI7
aa(lp6606
I1
a(lp6607
F0.0
aaI9
aaa(lp6608
g6137
ag6138
a(lp6609
I1
a(lp6610
F0.333333
aaI21
aa(lp6611
I1
a(lp6612
F0.285714
aaI14
aaa(lp6613
g6140
ag6141
aa(lp6614
g6143
ag6144
aa(lp6615
g6146
ag6147
aa(lp6616
g6149
ag6150
a(lp6617
I1
a(lp6618
F0.214286
aaI14
aa(lp6619
I1
a(lp6620
F0.55
aaI20
aa(lp6621
I1
a(lp6622
F0.0
aaI12
aa(lp6623
I1
a(lp6624
F0.695652
aaI23
aaa(lp6625
g6174
ag6175
a(lp6626
I1
a(lp6627
F0.2
aaI10
aaa(lp6628
g6177
ag6178
aa(lp6629
g6180
ag6181
a(lp6630
I1
a(lp6631
F0.0
aaI8
aa(lp6632
I1
a(lp6633
F0.666667
aaI6
aa(lp6634
I1
a(lp6635
F0.0
aaI4
aa(lp6636
I1
a(lp6637
F0.0
aaI4
aa(lp6638
I1
a(lp6639
F0.0
aaI3
aa(lp6640
I1
a(lp6641
F0.0
aaI3
aa(lp6642
I1
a(lp6643
F0.0
aaI3
aaa(lp6644
g6187
ag6188
aa(lp6645
g6190
ag6191
aa(lp6646
g6193
ag6194
a(lp6647
I1
a(lp6648
F0.0
aaI10
aaa(lp6649
g6198
ag6199
aa(lp6650
g6201
ag6202
aa(lp6651
g6208
ag6209
aa(lp6652
g6211
ag6212
aa(lp6653
g6214
ag6215
aa(lp6654
g6217
ag6218
aa(lp6655
g6220
ag6221
a(lp6656
I1
a(lp6657
F0.676471
aaI34
aa(lp6658
I1
a(lp6659
F0.222222
aaI9
aaa(lp6660
g6223
ag6224
aa(lp6661
g6230
ag6231
aa(lp6662
g6235
ag6236
aa(lp6663
g6238
ag6239
aa(lp6664
g6245
ag6246
a(lp6665
I1
a(lp6666
F0.0
aaI8
aa(lp6667
I1
a(lp6668
F0.2
aaI10
aa(lp6669
I1
a(lp6670
F0.333333
aaI6
aaa(lp6671
g6250
ag6251
a(lp6672
I1
a(lp6673
F0.0
aaI9
aa(lp6674
I1
a(lp6675
F0.210526
aaI19
aa(lp6676
I1
a(lp6677
F0.758621
aaI29
aa(lp6678
I1
a(lp6679
F0.75
aaI8
aa(lp6680
I1
a(lp6681
F0.222222
aaI9
aa(lp6682
I1
a(lp6683
F0.0
aaI5
aa(lp6684
I1
a(lp6685
F0.0
aaI4
aa(lp6686
I1
a(lp6687
F0.0
aaI2
aa(lp6688
I1
a(lp6689
F0.0
aaI3
aa(lp6690
I1
a(lp6691
F0.0
aaI2
aa(lp6692
I1
a(lp6693
F0.0
aaI2
aa(lp6694
I1
a(lp6695
F0.0
aaI2
aaa(lp6696
g6253
ag6254
aa(lp6697
g6256
ag6257
a(lp6698
I1
a(lp6699
F0.4
aaI10
aaa(lp6700
g6259
ag6260
a(lp6701
I1
a(lp6702
F0.263158
aaI19
aa(lp6703
I1
a(lp6704
F0.2
aaI15
aa(lp6705
I1
a(lp6706
F0.285714
aaI14
aa(lp6707
I1
a(lp6708
F0.285714
aaI14
aaa(lp6709
g6272
ag6273
a(lp6710
I1
a(lp6711
F0.285714
aaI7
aa(lp6712
I1
a(lp6713
F0.538462
aaI13
aa(lp6714
I1
a(lp6715
F0.333333
aaI9
aa(lp6716
I1
a(lp6717
F0.375
aaI8
aa(lp6718
I1
a(lp6719
F0.375
aaI8
aaa(lp6720
g6275
ag6276
aa(lp6721
g6278
ag6279
aa(lp6722
g6281
ag6282
aa(lp6723
g6284
ag6285
a(lp6724
I1
a(lp6725
F0.230769
aaI13
aa(lp6726
I1
a(lp6727
F0.2
aaI10
aa(lp6728
I1
a(lp6729
F0.2
aaI10
aaa(lp6730
g6287
ag6288
a(lp6731
I1
a(lp6732
F0.0
aaI22
aaass.