(dp0
S'triploids'
p1
(dp2
S'down'
p3
(lp4
(lp5
S'scaffold167486_cov93'
p6
aS'scaffold32268_cov68'
p7
aa(lp8
S'scaffold3954_cov94'
p9
aS'scaffold73744_cov62'
p10
aa(lp11
S'scaffold13284_cov147'
p12
aS'scaffold23977_cov68'
p13
aa(lp14
S'scaffold10148_cov99'
p15
aS'scaffold6498_cov76'
p16
a(lp17
I1
a(lp18
F0.219512
aaI41
aa(lp19
I1
a(lp20
F0.219512
aaI41
aa(lp21
I1
a(lp22
F0.421053
aaI38
aa(lp23
I1
a(lp24
F0.294118
aaI34
aa(lp25
I1
a(lp26
F0.268293
aaI41
aa(lp27
I1
a(lp28
F0.27027
aaI37
aa(lp29
I1
a(lp30
F0.288889
aaI45
aa(lp31
I1
a(lp32
F0.304348
aaI46
aa(lp33
I1
a(lp34
F0.304348
aaI46
aa(lp35
I1
a(lp36
F0.438596
aaI57
aa(lp37
I1
a(lp38
F0.511628
aaI43
aa(lp39
I1
a(lp40
F0.272727
aaI33
aa(lp41
I1
a(lp42
F0.309524
aaI42
aa(lp43
I1
a(lp44
F0.333333
aaI30
aa(lp45
I1
a(lp46
F0.285714
aaI42
aa(lp47
I1
a(lp48
F0.311111
aaI45
aa(lp49
I1
a(lp50
F0.205128
aaI78
aaa(lp51
S'scaffold2658_cov137'
p52
aS'scaffold4421_cov66'
p53
a(lp54
I1
a(lp55
F0.0
aaI30
aaa(lp56
S'scaffold8528_cov135'
p57
aS'scaffold10431_cov72'
p58
aa(lp59
S'scaffold160792_cov138'
p60
aS'scaffold90278_cov81'
p61
a(lp62
I1
a(lp63
F0.548387
aaI62
aa(lp64
I1
a(lp65
F0.0
aaI14
aaa(lp66
S'scaffold6934_cov101'
p67
aS'scaffold5476_cov91'
p68
aa(lp69
S'scaffold167467_cov101'
p70
aS'scaffold67159_cov68'
p71
aa(lp72
S'scaffold13631_cov149'
p73
aS'scaffold1043_cov70'
p74
aa(lp75
S'scaffold4095_cov147'
p76
aS'scaffold1076_cov67'
p77
aa(lp78
S'scaffold26651_cov113'
p79
aS'scaffold2076_cov75'
p80
a(lp81
I1
a(lp82
F0.27907
aaI43
aaa(lp83
S'scaffold37943_cov120'
p84
aS'scaffold39367_cov97'
p85
a(lp86
I1
a(lp87
F0.469388
aaI49
aa(lp88
I1
a(lp89
F0.48
aaI50
aa(lp90
I1
a(lp91
F0.586207
aaI58
aa(lp92
I1
a(lp93
F0.325581
aaI43
aa(lp94
I1
a(lp95
F0.3125
aaI48
aa(lp96
I1
a(lp97
F0.3
aaI50
aa(lp98
I1
a(lp99
F0.375
aaI48
aa(lp100
I1
a(lp101
F0.375
aaI48
aa(lp102
I1
a(lp103
F0.36
aaI50
aa(lp104
I1
a(lp105
F0.325581
aaI43
aa(lp106
I1
a(lp107
F0.404255
aaI47
aa(lp108
I1
a(lp109
F0.365385
aaI52
aa(lp110
I1
a(lp111
F0.555556
aaI54
aa(lp112
I1
a(lp113
F0.26
aaI50
aa(lp114
I1
a(lp115
F0.622951
aaI61
aa(lp116
I1
a(lp117
F0.644068
aaI59
aa(lp118
I1
a(lp119
F0.54
aaI50
aa(lp120
I1
a(lp121
F0.333333
aaI57
aa(lp122
I1
a(lp123
F0.327586
aaI58
aa(lp124
I1
a(lp125
F0.515152
aaI66
aa(lp126
I1
a(lp127
F0.666667
aaI54
aa(lp128
I1
a(lp129
F0.571429
aaI63
aa(lp130
I1
a(lp131
F0.519231
aaI52
aa(lp132
I1
a(lp133
F0.275
aaI40
aa(lp134
I1
a(lp135
F0.268293
aaI41
aa(lp136
I1
a(lp137
F0.255814
aaI43
aa(lp138
I1
a(lp139
F0.25
aaI40
aa(lp140
I1
a(lp141
F0.243243
aaI37
aa(lp142
I1
a(lp143
F0.205882
aaI34
aa(lp144
I1
a(lp145
F0.2
aaI35
aa(lp146
I1
a(lp147
F0.205128
aaI39
aa(lp148
I1
a(lp149
F0.230769
aaI39
aa(lp150
I1
a(lp151
F0.216216
aaI37
aa(lp152
I1
a(lp153
F0.2
aaI40
aa(lp154
I1
a(lp155
F0.216216
aaI37
aa(lp156
I1
a(lp157
F0.210526
aaI38
aa(lp158
I1
a(lp159
F0.210526
aaI38
aa(lp160
I1
a(lp161
F0.205128
aaI39
aa(lp162
I1
a(lp163
F0.488889
aaI45
aa(lp164
I1
a(lp165
F0.537037
aaI54
aa(lp166
I1
a(lp167
F0.316667
aaI60
aaa(lp168
S'scaffold11629_cov141'
p169
aS'scaffold11627_cov72'
p170
aa(lp171
S'scaffold2522_cov147'
p172
aS'scaffold2520_cov73'
p173
aa(lp174
S'scaffold3257_cov146'
p175
aS'scaffold16169_cov72'
p176
a(lp177
I1
a(lp178
F0.367347
aaI98
aa(lp179
I1
a(lp180
F0.384615
aaI130
aaa(lp181
S'scaffold33358_cov122'
p182
aS'scaffold11974_cov67'
p183
aa(lp184
S'scaffold17315_cov142'
p185
aS'scaffold17316_cov65'
p186
aa(lp187
S'scaffold27512_cov124'
p188
aS'scaffold9838_cov70'
p189
aa(lp190
S'scaffold1868_cov136'
p191
aS'scaffold7102_cov63'
p192
aa(lp193
S'scaffold74444_cov64'
p194
aS'scaffold19614_cov87'
p195
aa(lp196
S'scaffold165401_cov148'
p197
aS'scaffold12422_cov71'
p198
a(lp199
I1
a(lp200
F0.22
aaI50
aa(lp201
I1
a(lp202
F0.52459
aaI61
aaa(lp203
S'scaffold108_cov145'
p204
aS'scaffold107_cov67'
p205
aa(lp206
S'scaffold96847_cov139'
p207
aS'scaffold3943_cov70'
p208
aa(lp209
S'scaffold47647_cov69'
p210
aS'scaffold7129_cov63'
p211
aa(lp212
S'scaffold6388_cov146'
p213
aS'scaffold8779_cov66'
p214
a(lp215
I1
a(lp216
F0.0
aaI11
aa(lp217
I1
a(lp218
F0.0
aaI11
aa(lp219
I1
a(lp220
F0.0
aaI14
aa(lp221
I1
a(lp222
F0.205882
aaI34
aa(lp223
I1
a(lp224
F0.277778
aaI36
aa(lp225
I1
a(lp226
F0.229167
aaI48
aaa(lp227
S'scaffold167512_cov105'
p228
aS'scaffold132398_cov66'
p229
aa(lp230
S'scaffold90279_cov161'
p231
aS'scaffold90278_cov81'
p232
aa(lp233
S'scaffold33112_cov67'
p234
aS'scaffold33753_cov69'
p235
a(lp236
I1
a(lp237
F0.285714
aaI7
aaa(lp238
S'scaffold1391_cov96'
p239
aS'scaffold46961_cov69'
p240
aa(lp241
S'scaffold56728_cov119'
p242
aS'scaffold11627_cov72'
p243
aa(lp244
S'scaffold8397_cov125'
p245
aS'scaffold2722_cov84'
p246
a(lp247
I1
a(lp248
F0.0
aaI15
aa(lp249
I1
a(lp250
F0.0
aaI19
aa(lp251
I1
a(lp252
F0.0
aaI15
aa(lp253
I1
a(lp254
F0.0
aaI21
aa(lp255
I1
a(lp256
F0.0
aaI17
aaa(lp257
S'scaffold2416_cov137'
p258
aS'scaffold2417_cov66'
p259
aa(lp260
S'scaffold20419_cov113'
p261
aS'scaffold114_cov72'
p262
aa(lp263
S'scaffold27148_cov73'
p264
aS'scaffold860_cov64'
p265
aa(lp266
S'scaffold4513_cov135'
p267
aS'scaffold59029_cov68'
p268
aa(lp269
S'scaffold406_cov110'
p270
aS'scaffold39105_cov66'
p271
aa(lp272
S'scaffold16084_cov74'
p273
aS'scaffold11821_cov67'
p274
a(lp275
I1
a(lp276
F0.243243
aaI37
aa(lp277
I1
a(lp278
F0.269231
aaI52
aaa(lp279
S'scaffold1716_cov94'
p280
aS'scaffold45397_cov62'
p281
aa(lp282
S'scaffold11225_cov146'
p283
aS'scaffold33238_cov67'
p284
aa(lp285
S'scaffold4036_cov142'
p286
aS'scaffold10658_cov62'
p287
aa(lp288
S'scaffold12688_cov135'
p289
aS'scaffold12686_cov61'
p290
a(lp291
I1
a(lp292
F0.0
aaI10
aa(lp293
I1
a(lp294
F0.0
aaI14
aaa(lp295
S'scaffold9676_cov145'
p296
aS'scaffold16231_cov68'
p297
aa(lp298
S'scaffold180_cov107'
p299
aS'scaffold1171_cov70'
p300
a(lp301
I1
a(lp302
F0.225
aaI40
aa(lp303
I1
a(lp304
F0.261905
aaI42
aaa(lp305
S'scaffold166708_cov122'
p306
aS'scaffold697_cov68'
p307
aa(lp308
S'scaffold6658_cov76'
p309
aS'scaffold860_cov64'
p310
aa(lp311
S'scaffold53892_cov107'
p312
aS'scaffold57838_cov69'
p313
aa(lp314
S'scaffold10313_cov102'
p315
aS'scaffold21316_cov65'
p316
aa(lp317
S'scaffold5667_cov96'
p318
aS'scaffold8355_cov67'
p319
a(lp320
I1
a(lp321
F0.296296
aaI27
aaa(lp322
S'scaffold167496_cov97'
p323
aS'scaffold29206_cov81'
p324
a(lp325
I1
a(lp326
F0.0
aaI17
aa(lp327
I1
a(lp328
F0.0
aaI17
aa(lp329
I1
a(lp330
F0.0
aaI18
aa(lp331
I1
a(lp332
F0.0
aaI20
aa(lp333
I1
a(lp334
F0.0
aaI20
aa(lp335
I1
a(lp336
F0.0
aaI17
aa(lp337
I1
a(lp338
F0.0
aaI17
aa(lp339
I1
a(lp340
F0.0
aaI16
aa(lp341
I1
a(lp342
F0.0
aaI15
aa(lp343
I1
a(lp344
F0.0
aaI16
aaa(lp345
S'scaffold26582_cov78'
p346
aS'scaffold5481_cov69'
p347
aa(lp348
S'scaffold5259_cov70'
p349
aS'scaffold31513_cov82'
p350
a(lp351
I1
a(lp352
F0.0
aaI14
aa(lp353
I1
a(lp354
F0.0
aaI14
aa(lp355
I1
a(lp356
F0.3125
aaI16
aa(lp357
I1
a(lp358
F0.0
aaI5
aa(lp359
I1
a(lp360
F0.75
aaI4
aa(lp361
I1
a(lp362
F0.0
aaI5
aa(lp363
I1
a(lp364
F0.0
aaI6
aa(lp365
I1
a(lp366
F0.492958
aaI71
aa(lp367
I1
a(lp368
F0.387755
aaI49
aa(lp369
I1
a(lp370
F0.543478
aaI46
aa(lp371
I1
a(lp372
F0.214286
aaI42
aa(lp373
I1
a(lp374
F0.276596
aaI47
aa(lp375
I1
a(lp376
F0.270833
aaI48
aa(lp377
I1
a(lp378
F0.283019
aaI53
aa(lp379
I1
a(lp380
F0.235294
aaI51
aa(lp381
I1
a(lp382
F0.240741
aaI54
aaa(lp383
S'scaffold40887_cov133'
p384
aS'scaffold46748_cov73'
p385
aa(lp386
S'scaffold165520_cov190'
p387
aS'scaffold59464_cov122'
p388
aa(lp389
S'scaffold661_cov69'
p390
aS'scaffold6054_cov102'
p391
a(lp392
I1
a(lp393
F0.255319
aaI47
aaa(lp394
S'scaffold65460_cov69'
p395
aS'scaffold4555_cov123'
p396
aa(lp397
S'scaffold4019_cov99'
p398
aS'scaffold21633_cov84'
p399
aa(lp400
S'scaffold20825_cov153'
p401
aS'scaffold24052_cov69'
p402
aa(lp403
S'scaffold14473_cov147'
p404
aS'scaffold33229_cov65'
p405
aa(lp406
S'scaffold11599_cov105'
p407
aS'scaffold61789_cov64'
p408
aa(lp409
S'scaffold192192_cov171'
p410
aS'scaffold8532_cov71'
p411
aa(lp412
S'scaffold13917_cov148'
p413
aS'scaffold28422_cov65'
p414
aa(lp415
S'scaffold53875_cov130'
p416
aS'scaffold25755_cov75'
p417
aa(lp418
S'scaffold10275_cov68'
p419
aS'scaffold62474_cov113'
p420
aa(lp421
S'scaffold3701_cov67'
p422
aS'scaffold23999_cov72'
p423
aa(lp424
S'scaffold22882_cov105'
p425
aS'scaffold5203_cov76'
p426
a(lp427
I1
a(lp428
F0.222222
aaI45
aa(lp429
I1
a(lp430
F0.0
aaI9
aa(lp431
I1
a(lp432
F0.666667
aaI9
aa(lp433
I1
a(lp434
F0.235294
aaI34
aa(lp435
I1
a(lp436
F0.264706
aaI34
aaa(lp437
S'scaffold16120_cov143'
p438
aS'scaffold9901_cov65'
p439
aa(lp440
S'scaffold22339_cov108'
p441
aS'scaffold15124_cov63'
p442
a(lp443
I1
a(lp444
F0.542169
aaI83
aa(lp445
I1
a(lp446
F0.413043
aaI46
aaa(lp447
S'scaffold15763_cov140'
p448
aS'scaffold7011_cov67'
p449
a(lp450
I1
a(lp451
F0.285714
aaI42
aa(lp452
I1
a(lp453
F0.304348
aaI46
aaa(lp454
S'scaffold3674_cov106'
p455
aS'scaffold57150_cov68'
p456
aa(lp457
S'scaffold8694_cov129'
p458
aS'scaffold8135_cov71'
p459
a(lp460
I1
a(lp461
F0.418182
aaI55
aaa(lp462
S'scaffold166685_cov152'
p463
aS'scaffold2832_cov75'
p464
aa(lp465
S'scaffold903_cov126'
p466
aS'scaffold1840_cov66'
p467
aa(lp468
S'scaffold12706_cov81'
p469
aS'scaffold16044_cov69'
p470
a(lp471
I1
a(lp472
F0.3
aaI40
aa(lp473
I1
a(lp474
F0.333333
aaI48
aa(lp475
I1
a(lp476
F0.333333
aaI42
aaa(lp477
S'scaffold34941_cov134'
p478
aS'scaffold1333_cov60'
p479
aa(lp480
S'scaffold4413_cov63'
p481
aS'scaffold15975_cov67'
p482
aa(lp483
S'scaffold29165_cov60'
p484
aS'scaffold561_cov86'
p485
aa(lp486
S'scaffold6820_cov103'
p487
aS'scaffold6818_cov67'
p488
a(lp489
I1
a(lp490
F0.0
aaI6
aa(lp491
I1
a(lp492
F0.0
aaI5
aa(lp493
I1
a(lp494
F0.0
aaI10
aa(lp495
I1
a(lp496
F0.385965
aaI57
aa(lp497
I1
a(lp498
F0.362069
aaI58
aa(lp499
I1
a(lp500
F0.449275
aaI69
aa(lp501
I1
a(lp502
F0.611111
aaI90
aa(lp503
I1
a(lp504
F0.484848
aaI66
aaa(lp505
S'scaffold4931_cov109'
p506
aS'scaffold2702_cov92'
p507
aa(lp508
S'scaffold3133_cov141'
p509
aS'scaffold30966_cov62'
p510
aa(lp511
S'scaffold6620_cov103'
p512
aS'scaffold7907_cov67'
p513
aa(lp514
S'scaffold95367_cov139'
p515
aS'scaffold95366_cov79'
p516
aa(lp517
S'scaffold9131_cov93'
p518
aS'scaffold28864_cov67'
p519
a(lp520
I1
a(lp521
F0.0
aaI21
aa(lp522
I1
a(lp523
F0.384615
aaI13
aaa(lp524
S'scaffold19827_cov125'
p525
aS'scaffold167515_cov69'
p526
a(lp527
I1
a(lp528
F0.548387
aaI62
aa(lp529
I1
a(lp530
F0.516129
aaI62
aa(lp531
I1
a(lp532
F0.4375
aaI32
aa(lp533
I1
a(lp534
F0.37931
aaI29
aa(lp535
I1
a(lp536
F0.424242
aaI33
aa(lp537
I1
a(lp538
F0.441176
aaI34
aa(lp539
I1
a(lp540
F0.37931
aaI29
aa(lp541
I1
a(lp542
F0.387097
aaI31
aa(lp543
I1
a(lp544
F0.342857
aaI35
aa(lp545
I1
a(lp546
F0.371429
aaI35
aa(lp547
I1
a(lp548
F0.285714
aaI35
aa(lp549
I1
a(lp550
F0.28125
aaI32
aaa(lp551
S'scaffold5296_cov115'
p552
aS'scaffold2979_cov71'
p553
aa(lp554
S'scaffold35735_cov102'
p555
aS'scaffold4162_cov69'
p556
a(lp557
I1
a(lp558
F0.661538
aaI65
aaa(lp559
S'scaffold36202_cov116'
p560
aS'scaffold32923_cov104'
p561
a(lp562
I1
a(lp563
F0.0
aaI2
aa(lp564
I1
a(lp565
F0.0
aaI2
aa(lp566
I1
a(lp567
F0.0
aaI2
aa(lp568
I1
a(lp569
F0.0
aaI2
aa(lp570
I1
a(lp571
F0.0
aaI3
aa(lp572
I1
a(lp573
F0.0
aaI3
aa(lp574
I1
a(lp575
F0.0
aaI3
aa(lp576
I1
a(lp577
F0.0
aaI3
aa(lp578
I1
a(lp579
F0.0
aaI3
aa(lp580
I1
a(lp581
F0.0
aaI3
aa(lp582
I1
a(lp583
F0.0
aaI3
aa(lp584
I1
a(lp585
F0.0
aaI2
aa(lp586
I1
a(lp587
F0.0
aaI2
aa(lp588
I1
a(lp589
F0.0
aaI2
aaa(lp590
S'scaffold14189_cov153'
p591
aS'scaffold2637_cov71'
p592
aa(lp593
S'scaffold1394_cov148'
p594
aS'scaffold1395_cov70'
p595
aa(lp596
S'scaffold165441_cov141'
p597
aS'scaffold2849_cov95'
p598
a(lp599
I1
a(lp600
F0.2
aaI25
aa(lp601
I1
a(lp602
F0.214286
aaI28
aa(lp603
I1
a(lp604
F0.553191
aaI47
aa(lp605
I1
a(lp606
F0.3125
aaI32
aa(lp607
I1
a(lp608
F0.3
aaI30
aa(lp609
I1
a(lp610
F0.206897
aaI29
aa(lp611
I1
a(lp612
F0.333333
aaI27
aa(lp613
I1
a(lp614
F0.3125
aaI32
aa(lp615
I1
a(lp616
F0.290323
aaI31
aa(lp617
I1
a(lp618
F0.258065
aaI31
aa(lp619
I1
a(lp620
F0.241379
aaI29
aaa(lp621
S'scaffold21927_cov117'
p622
aS'scaffold6252_cov71'
p623
a(lp624
I1
a(lp625
F0.311111
aaI45
aa(lp626
I1
a(lp627
F0.296296
aaI54
aaa(lp628
S'scaffold8966_cov109'
p629
aS'scaffold3586_cov72'
p630
a(lp631
I1
a(lp632
F0.227273
aaI44
aaa(lp633
S'scaffold514_cov77'
p634
aS'scaffold2213_cov74'
p635
aa(lp636
S'scaffold3987_cov100'
p637
aS'scaffold14924_cov62'
p638
aa(lp639
S'scaffold4224_cov73'
p640
aS'scaffold2987_cov88'
p641
a(lp642
I1
a(lp643
F0.384615
aaI39
aa(lp644
I1
a(lp645
F0.258065
aaI31
aa(lp646
I1
a(lp647
F0.313559
aaI118
aa(lp648
I1
a(lp649
F0.323529
aaI34
aa(lp650
I1
a(lp651
F0.323529
aaI34
aa(lp652
I1
a(lp653
F0.333333
aaI33
aa(lp654
I1
a(lp655
F0.366667
aaI30
aa(lp656
I1
a(lp657
F0.378378
aaI37
aa(lp658
I1
a(lp659
F0.391304
aaI46
aa(lp660
I1
a(lp661
F0.395833
aaI48
aa(lp662
I1
a(lp663
F0.228571
aaI35
aa(lp664
I1
a(lp665
F0.297297
aaI37
aa(lp666
I1
a(lp667
F0.521739
aaI69
aa(lp668
I1
a(lp669
F0.2
aaI30
aa(lp670
I1
a(lp671
F0.258065
aaI31
aa(lp672
I1
a(lp673
F0.325
aaI40
aa(lp674
I1
a(lp675
F0.295455
aaI44
aa(lp676
I1
a(lp677
F0.222222
aaI36
aa(lp678
I1
a(lp679
F0.21875
aaI32
aa(lp680
I1
a(lp681
F0.244898
aaI49
aa(lp682
I1
a(lp683
F0.258621
aaI58
aa(lp684
I1
a(lp685
F0.333333
aaI42
aa(lp686
I1
a(lp687
F0.479167
aaI48
aa(lp688
I1
a(lp689
F0.428571
aaI56
aa(lp690
I1
a(lp691
F0.474576
aaI59
aa(lp692
I1
a(lp693
F0.357143
aaI28
aa(lp694
I1
a(lp695
F0.371429
aaI35
aa(lp696
I1
a(lp697
F0.517241
aaI29
aaa(lp698
S'scaffold164974_cov139'
p699
aS'scaffold2833_cov61'
p700
aa(lp701
S'scaffold3477_cov108'
p702
aS'scaffold10061_cov67'
p703
aa(lp704
S'scaffold9403_cov96'
p705
aS'scaffold23269_cov69'
p706
aa(lp707
S'scaffold48176_cov76'
p708
aS'scaffold42838_cov68'
p709
aa(lp710
S'scaffold3722_cov135'
p711
aS'scaffold3719_cov67'
p712
a(lp713
I1
a(lp714
F0.227273
aaI44
aa(lp715
I1
a(lp716
F0.55
aaI60
aaa(lp717
S'scaffold165461_cov100'
p718
aS'scaffold10491_cov66'
p719
aa(lp720
S'scaffold14267_cov83'
p721
aS'scaffold1125_cov68'
p722
a(lp723
I1
a(lp724
F0.0
aaI10
aa(lp725
I1
a(lp726
F0.0
aaI2
aa(lp727
I1
a(lp728
F0.0
aaI3
aa(lp729
I1
a(lp730
F0.0
aaI3
aa(lp731
I1
a(lp732
F0.0
aaI5
aa(lp733
I1
a(lp734
F0.0
aaI5
aa(lp735
I1
a(lp736
F0.0
aaI5
aa(lp737
I1
a(lp738
F0.0
aaI5
aa(lp739
I1
a(lp740
F0.0
aaI5
aa(lp741
I1
a(lp742
F0.0
aaI13
aa(lp743
I1
a(lp744
F0.0
aaI11
aa(lp745
I1
a(lp746
F0.0
aaI11
aa(lp747
I1
a(lp748
F0.0
aaI2
aa(lp749
I1
a(lp750
F0.531915
aaI94
aaa(lp751
S'scaffold32619_cov118'
p752
aS'scaffold20061_cov80'
p753
a(lp754
I1
a(lp755
F0.261905
aaI42
aa(lp756
I1
a(lp757
F0.261905
aaI42
aa(lp758
I1
a(lp759
F0.297297
aaI37
aaa(lp760
S'scaffold3738_cov114'
p761
aS'scaffold11440_cov66'
p762
aa(lp763
S'scaffold11968_cov142'
p764
aS'scaffold3404_cov63'
p765
aa(lp766
S'scaffold4957_cov147'
p767
aS'scaffold2304_cov67'
p768
aa(lp769
S'scaffold69980_cov67'
p770
aS'scaffold6014_cov96'
p771
a(lp772
I1
a(lp773
F0.25
aaI12
aa(lp774
I1
a(lp775
F0.5
aaI30
aa(lp776
I1
a(lp777
F0.4
aaI40
aa(lp778
I1
a(lp779
F0.361111
aaI36
aa(lp780
I1
a(lp781
F0.428571
aaI35
aa(lp782
I1
a(lp783
F0.512195
aaI41
aa(lp784
I1
a(lp785
F0.513514
aaI37
aa(lp786
I1
a(lp787
F0.552632
aaI38
aa(lp788
I1
a(lp789
F0.527778
aaI36
aa(lp790
I1
a(lp791
F0.210526
aaI38
aaa(lp792
S'scaffold117137_cov65'
p793
aS'scaffold17627_cov105'
p794
aa(lp795
S'scaffold165395_cov77'
p796
aS'scaffold42402_cov68'
p797
a(lp798
I1
a(lp799
F0.228571
aaI35
aaa(lp800
S'scaffold12770_cov157'
p801
aS'scaffold21646_cov62'
p802
aa(lp803
S'scaffold2416_cov137'
p804
aS'scaffold16788_cov63'
p805
aa(lp806
S'scaffold167565_cov117'
p807
aS'scaffold893_cov66'
p808
aa(lp809
S'scaffold49558_cov135'
p810
aS'scaffold10462_cov135'
p811
aa(lp812
S'scaffold25651_cov100'
p813
aS'scaffold46961_cov69'
p814
aa(lp815
S'scaffold66329_cov132'
p816
aS'scaffold29989_cov70'
p817
a(lp818
I1
a(lp819
F0.2
aaI30
aaa(lp820
S'scaffold3122_cov145'
p821
aS'scaffold3123_cov67'
p822
aa(lp823
S'scaffold8282_cov147'
p824
aS'scaffold8279_cov69'
p825
aa(lp826
S'scaffold903_cov126'
p827
aS'scaffold900_cov65'
p828
aa(lp829
S'scaffold13891_cov62'
p830
aS'scaffold26778_cov137'
p831
aa(lp832
S'scaffold7194_cov116'
p833
aS'scaffold6437_cov66'
p834
aa(lp835
S'scaffold33427_cov79'
p836
aS'scaffold1498_cov63'
p837
a(lp838
I1
a(lp839
F0.0
aaI7
aa(lp840
I1
a(lp841
F0.319149
aaI47
aaa(lp842
S'scaffold70862_cov124'
p843
aS'scaffold34357_cov65'
p844
a(lp845
I1
a(lp846
F0.25641
aaI39
aaa(lp847
S'scaffold14197_cov99'
p848
aS'scaffold6524_cov65'
p849
a(lp850
I1
a(lp851
F0.26
aaI50
aa(lp852
I1
a(lp853
F0.318182
aaI44
aa(lp854
I1
a(lp855
F0.233333
aaI30
aaa(lp856
S'scaffold3010_cov130'
p857
aS'scaffold3009_cov66'
p858
aa(lp859
S'scaffold34740_cov99'
p860
aS'scaffold10321_cov72'
p861
aa(lp862
S'scaffold45626_cov132'
p863
aS'scaffold26610_cov67'
p864
aa(lp865
S'scaffold19276_cov115'
p866
aS'scaffold33185_cov125'
p867
aa(lp868
S'scaffold13917_cov148'
p869
aS'scaffold5199_cov65'
p870
aa(lp871
S'scaffold4489_cov91'
p872
aS'scaffold166706_cov72'
p873
aa(lp874
S'scaffold23696_cov107'
p875
aS'scaffold46569_cov79'
p876
aa(lp877
S'scaffold14010_cov120'
p878
aS'scaffold9558_cov65'
p879
a(lp880
I1
a(lp881
F0.233333
aaI30
aa(lp882
I1
a(lp883
F0.0
aaI28
aa(lp884
I1
a(lp885
F0.219512
aaI41
aaa(lp886
S'scaffold7174_cov138'
p887
aS'scaffold6615_cov72'
p888
a(lp889
I1
a(lp890
F0.243902
aaI41
aa(lp891
I1
a(lp892
F0.304348
aaI23
aaa(lp893
S'scaffold8983_cov110'
p894
aS'scaffold5722_cov65'
p895
aa(lp896
S'scaffold165507_cov120'
p897
aS'scaffold1649_cov91'
p898
a(lp899
I1
a(lp900
F0.354167
aaI48
aa(lp901
I1
a(lp902
F0.285714
aaI28
aa(lp903
I1
a(lp904
F0.341463
aaI41
aa(lp905
I1
a(lp906
F0.325581
aaI43
aa(lp907
I1
a(lp908
F0.315789
aaI57
aa(lp909
I1
a(lp910
F0.296875
aaI64
aa(lp911
I1
a(lp912
F0.4
aaI25
aa(lp913
I1
a(lp914
F0.530612
aaI49
aa(lp915
I1
a(lp916
F0.307692
aaI39
aa(lp917
I1
a(lp918
F0.219512
aaI41
aa(lp919
I1
a(lp920
F0.275
aaI40
aa(lp921
I1
a(lp922
F0.24
aaI50
aa(lp923
I1
a(lp924
F0.292683
aaI41
aa(lp925
I1
a(lp926
F0.225806
aaI31
aa(lp927
I1
a(lp928
F0.242424
aaI33
aa(lp929
I1
a(lp930
F0.222222
aaI36
aa(lp931
I1
a(lp932
F0.361702
aaI47
aaa(lp933
S'scaffold7147_cov103'
p934
aS'scaffold7146_cov65'
p935
a(lp936
I1
a(lp937
F0.4
aaI35
aa(lp938
I1
a(lp939
F0.309524
aaI42
aa(lp940
I1
a(lp941
F0.412698
aaI63
aaa(lp942
S'scaffold14010_cov120'
p943
aS'scaffold20924_cov70'
p944
aa(lp945
S'scaffold14968_cov70'
p946
aS'scaffold5208_cov124'
p947
aa(lp948
S'scaffold33079_cov127'
p949
aS'scaffold21398_cov73'
p950
a(lp951
I1
a(lp952
F0.206897
aaI29
aaa(lp953
S'scaffold45339_cov132'
p954
aS'scaffold5542_cov64'
p955
aa(lp956
S'scaffold62223_cov138'
p957
aS'scaffold41553_cov82'
p958
aa(lp959
S'scaffold167537_cov112'
p960
aS'scaffold540_cov68'
p961
a(lp962
I1
a(lp963
F0.230769
aaI39
aaa(lp964
S'scaffold5060_cov136'
p965
aS'scaffold5059_cov70'
p966
a(lp967
I1
a(lp968
F0.242424
aaI66
aaa(lp969
S'scaffold2398_cov98'
p970
aS'scaffold2617_cov76'
p971
a(lp972
I1
a(lp973
F0.212766
aaI47
aa(lp974
I1
a(lp975
F0.0
aaI8
aa(lp976
I1
a(lp977
F0.0
aaI7
aa(lp978
I1
a(lp979
F0.6
aaI15
aa(lp980
I1
a(lp981
F0.6
aaI15
aa(lp982
I1
a(lp983
F0.389831
aaI59
aa(lp984
I1
a(lp985
F0.394737
aaI38
aa(lp986
I1
a(lp987
F0.490566
aaI53
aa(lp988
I1
a(lp989
F0.588235
aaI51
aa(lp990
I1
a(lp991
F0.296296
aaI54
aa(lp992
I1
a(lp993
F0.357143
aaI42
aa(lp994
I1
a(lp995
F0.387097
aaI62
aa(lp996
I1
a(lp997
F0.5
aaI48
aaa(lp998
S'scaffold9303_cov137'
p999
aS'scaffold3018_cov62'
p1000
aa(lp1001
S'scaffold28224_cov147'
p1002
aS'scaffold166774_cov71'
p1003
aa(lp1004
S'scaffold165413_cov124'
p1005
aS'scaffold1323_cov67'
p1006
aa(lp1007
S'scaffold1637_cov151'
p1008
aS'scaffold20670_cov68'
p1009
aa(lp1010
S'scaffold36067_cov121'
p1011
aS'scaffold10421_cov69'
p1012
aa(lp1013
S'scaffold9037_cov132'
p1014
aS'scaffold7705_cov77'
p1015
aa(lp1016
S'scaffold38008_cov141'
p1017
aS'scaffold5960_cov65'
p1018
a(lp1019
I1
a(lp1020
F0.0
aaI43
aaa(lp1021
S'scaffold7174_cov138'
p1022
aS'scaffold2501_cov70'
p1023
aa(lp1024
S'scaffold7264_cov122'
p1025
aS'scaffold10275_cov68'
p1026
aa(lp1027
S'scaffold90706_cov103'
p1028
aS'scaffold2061_cov67'
p1029
a(lp1030
I1
a(lp1031
F0.272727
aaI33
aa(lp1032
I1
a(lp1033
F0.230769
aaI13
aa(lp1034
I1
a(lp1035
F0.905923
aaI287
aa(lp1036
I1
a(lp1037
F0.333333
aaI42
aa(lp1038
I1
a(lp1039
F0.264706
aaI34
aa(lp1040
I1
a(lp1041
F0.245614
aaI57
aaa(lp1042
S'scaffold25662_cov161'
p1043
aS'scaffold25660_cov79'
p1044
aa(lp1045
S'scaffold3559_cov143'
p1046
aS'scaffold9683_cov69'
p1047
a(lp1048
I1
a(lp1049
F0.0
aaI7
aaa(lp1050
S'scaffold25492_cov142'
p1051
aS'scaffold24079_cov69'
p1052
a(lp1053
I1
a(lp1054
F0.230769
aaI26
aa(lp1055
I1
a(lp1056
F0.26087
aaI23
aa(lp1057
I1
a(lp1058
F0.285714
aaI21
aaa(lp1059
S'scaffold167535_cov101'
p1060
aS'scaffold18420_cov96'
p1061
aa(lp1062
S'scaffold51750_cov85'
p1063
aS'scaffold39128_cov65'
p1064
aa(lp1065
S'scaffold9703_cov100'
p1066
aS'scaffold166756_cov71'
p1067
a(lp1068
I1
a(lp1069
F0.405405
aaI37
aaa(lp1070
S'scaffold4941_cov130'
p1071
aS'scaffold29738_cov68'
p1072
aa(lp1073
S'scaffold9324_cov148'
p1074
aS'scaffold9325_cov63'
p1075
aa(lp1076
S'scaffold1929_cov135'
p1077
aS'scaffold9933_cov110'
p1078
a(lp1079
I1
a(lp1080
F0.507937
aaI63
aa(lp1081
I1
a(lp1082
F0.471698
aaI53
aaa(lp1083
S'scaffold29312_cov132'
p1084
aS'scaffold9996_cov69'
p1085
aa(lp1086
S'scaffold17051_cov101'
p1087
aS'scaffold2939_cov64'
p1088
a(lp1089
I1
a(lp1090
F0.2
aaI35
aa(lp1091
I1
a(lp1092
F0.205882
aaI34
aaa(lp1093
S'scaffold10858_cov149'
p1094
aS'scaffold10857_cov70'
p1095
a(lp1096
I1
a(lp1097
F0.395833
aaI48
aa(lp1098
I1
a(lp1099
F0.333333
aaI42
aaa(lp1100
S'scaffold43497_cov152'
p1101
aS'scaffold48022_cov63'
p1102
aa(lp1103
S'scaffold35435_cov126'
p1104
aS'scaffold9757_cov95'
p1105
a(lp1106
I1
a(lp1107
F0.268293
aaI41
aa(lp1108
I1
a(lp1109
F0.340426
aaI47
aa(lp1110
I1
a(lp1111
F0.454545
aaI55
aaa(lp1112
S'scaffold6824_cov114'
p1113
aS'scaffold542_cov70'
p1114
aa(lp1115
S'scaffold10713_cov124'
p1116
aS'scaffold4604_cov80'
p1117
a(lp1118
I1
a(lp1119
F0.0
aaI20
aaa(lp1120
S'scaffold21338_cov100'
p1121
aS'scaffold8647_cov65'
p1122
aa(lp1123
S'scaffold18416_cov135'
p1124
aS'scaffold16862_cov66'
p1125
aa(lp1126
S'scaffold17874_cov144'
p1127
aS'scaffold38164_cov70'
p1128
aa(lp1129
S'scaffold19924_cov91'
p1130
aS'scaffold10385_cov64'
p1131
aa(lp1132
S'scaffold1491_cov109'
p1133
aS'scaffold3256_cov68'
p1134
a(lp1135
I1
a(lp1136
F0.555556
aaI45
aa(lp1137
I1
a(lp1138
F0.263158
aaI19
aa(lp1139
I1
a(lp1140
F0.230769
aaI26
aa(lp1141
I1
a(lp1142
F0.423077
aaI78
aa(lp1143
I1
a(lp1144
F0.255319
aaI47
aa(lp1145
I1
a(lp1146
F0.23913
aaI46
aaa(lp1147
S'scaffold167598_cov96'
p1148
aS'scaffold7183_cov82'
p1149
a(lp1150
I1
a(lp1151
F0.325
aaI40
aaa(lp1152
S'scaffold3807_cov105'
p1153
aS'scaffold3967_cov66'
p1154
aa(lp1155
S'scaffold182819_cov255'
p1156
aS'scaffold2675_cov72'
p1157
aa(lp1158
S'scaffold1354_cov130'
p1159
aS'scaffold8335_cov68'
p1160
a(lp1161
I1
a(lp1162
F0.0
aaI29
aaa(lp1163
S'scaffold77207_cov117'
p1164
aS'scaffold43353_cov68'
p1165
aa(lp1166
S'scaffold36663_cov134'
p1167
aS'scaffold75670_cov64'
p1168
aa(lp1169
S'scaffold843_cov127'
p1170
aS'scaffold844_cov69'
p1171
aa(lp1172
S'scaffold18914_cov65'
p1173
aS'scaffold18912_cov140'
p1174
aa(lp1175
S'scaffold3349_cov142'
p1176
aS'scaffold5670_cov74'
p1177
aa(lp1178
S'scaffold2048_cov125'
p1179
aS'scaffold7977_cov71'
p1180
a(lp1181
I1
a(lp1182
F0.282051
aaI39
aaa(lp1183
S'scaffold11204_cov106'
p1184
aS'scaffold30140_cov63'
p1185
a(lp1186
I1
a(lp1187
F0.0
aaI29
aa(lp1188
I1
a(lp1189
F0.0
aaI25
aa(lp1190
I1
a(lp1191
F0.0
aaI28
aa(lp1192
I1
a(lp1193
F0.266667
aaI45
aa(lp1194
I1
a(lp1195
F0.2
aaI40
aa(lp1196
I1
a(lp1197
F0.205128
aaI39
aaa(lp1198
S'scaffold167504_cov85'
p1199
aS'scaffold17931_cov63'
p1200
aa(lp1201
S'scaffold14572_cov90'
p1202
aS'scaffold4478_cov68'
p1203
a(lp1204
I1
a(lp1205
F0.2
aaI35
aa(lp1206
I1
a(lp1207
F0.21875
aaI32
aa(lp1208
I1
a(lp1209
F0.21875
aaI32
aa(lp1210
I1
a(lp1211
F0.21875
aaI32
aa(lp1212
I1
a(lp1213
F0.2
aaI30
aaa(lp1214
S'scaffold6426_cov139'
p1215
aS'scaffold6427_cov67'
p1216
aa(lp1217
S'scaffold165417_cov143'
p1218
aS'scaffold16672_cov63'
p1219
aa(lp1220
S'scaffold36663_cov134'
p1221
aS'scaffold30167_cov70'
p1222
a(lp1223
I1
a(lp1224
F0.422535
aaI71
aaa(lp1225
S'scaffold18584_cov139'
p1226
aS'scaffold15986_cov63'
p1227
aa(lp1228
S'scaffold73411_cov102'
p1229
aS'scaffold25947_cov73'
p1230
aa(lp1231
S'scaffold14567_cov126'
p1232
aS'scaffold42400_cov69'
p1233
aa(lp1234
S'scaffold6704_cov127'
p1235
aS'scaffold6524_cov65'
p1236
a(lp1237
I1
a(lp1238
F0.428571
aaI49
aaa(lp1239
S'scaffold18457_cov115'
p1240
aS'scaffold32162_cov89'
p1241
a(lp1242
I1
a(lp1243
F0.265823
aaI79
aa(lp1244
I1
a(lp1245
F0.315789
aaI76
aa(lp1246
I1
a(lp1247
F0.320755
aaI53
aaa(lp1248
S'scaffold56505_cov129'
p1249
aS'scaffold60_cov119'
p1250
aa(lp1251
S'scaffold1978_cov92'
p1252
aS'scaffold2699_cov70'
p1253
a(lp1254
I1
a(lp1255
F0.0
aaI37
aa(lp1256
I1
a(lp1257
F0.333333
aaI30
aa(lp1258
I1
a(lp1259
F0.217391
aaI23
aa(lp1260
I1
a(lp1261
F0.212766
aaI47
aaa(lp1262
S'scaffold43863_cov126'
p1263
aS'scaffold7672_cov74'
p1264
a(lp1265
I1
a(lp1266
F0.0
aaI9
aa(lp1267
I1
a(lp1268
F0.0
aaI19
aa(lp1269
I1
a(lp1270
F0.0
aaI20
aa(lp1271
I1
a(lp1272
F0.0
aaI11
aa(lp1273
I1
a(lp1274
F0.0
aaI11
aa(lp1275
I1
a(lp1276
F0.0
aaI10
aa(lp1277
I1
a(lp1278
F0.0
aaI8
aaa(lp1279
S'scaffold4107_cov90'
p1280
aS'scaffold6409_cov65'
p1281
aa(lp1282
S'scaffold165573_cov134'
p1283
aS'scaffold6928_cov65'
p1284
aa(lp1285
S'scaffold721_cov134'
p1286
aS'scaffold720_cov79'
p1287
aa(lp1288
S'scaffold9757_cov95'
p1289
aS'scaffold3630_cov66'
p1290
a(lp1291
I1
a(lp1292
F0.232143
aaI56
aaa(lp1293
S'scaffold18542_cov139'
p1294
aS'scaffold26015_cov66'
p1295
aa(lp1296
S'scaffold4321_cov104'
p1297
aS'scaffold9387_cov68'
p1298
a(lp1299
I1
a(lp1300
F0.0
aaI16
aa(lp1301
I1
a(lp1302
F0.0
aaI11
aaa(lp1303
S'scaffold34203_cov139'
p1304
aS'scaffold18396_cov65'
p1305
aa(lp1306
S'scaffold3745_cov115'
p1307
aS'scaffold7430_cov66'
p1308
a(lp1309
I1
a(lp1310
F0.327273
aaI55
aa(lp1311
I1
a(lp1312
F0.222222
aaI36
aa(lp1313
I1
a(lp1314
F0.235294
aaI34
aaa(lp1315
S'scaffold181240_cov148'
p1316
aS'scaffold59620_cov74'
p1317
aa(lp1318
S'scaffold27354_cov105'
p1319
aS'scaffold16165_cov73'
p1320
aa(lp1321
S'scaffold11499_cov143'
p1322
aS'scaffold19165_cov65'
p1323
aa(lp1324
S'scaffold1497_cov69'
p1325
aS'scaffold167515_cov69'
p1326
aa(lp1327
S'scaffold11274_cov111'
p1328
aS'scaffold2804_cov69'
p1329
a(lp1330
I1
a(lp1331
F0.0
aaI3
aa(lp1332
I1
a(lp1333
F0.0
aaI3
aa(lp1334
I1
a(lp1335
F0.0
aaI3
aa(lp1336
I1
a(lp1337
F0.255319
aaI47
aa(lp1338
I1
a(lp1339
F0.225
aaI40
aaa(lp1340
S'scaffold73058_cov93'
p1341
aS'scaffold5775_cov75'
p1342
a(lp1343
I1
a(lp1344
F0.314286
aaI35
aa(lp1345
I1
a(lp1346
F0.368421
aaI38
aa(lp1347
I1
a(lp1348
F0.5
aaI36
aa(lp1349
I1
a(lp1350
F0.366667
aaI60
aa(lp1351
I1
a(lp1352
F0.387755
aaI49
aa(lp1353
I1
a(lp1354
F0.361702
aaI47
aa(lp1355
I1
a(lp1356
F0.5
aaI38
aa(lp1357
I1
a(lp1358
F0.225806
aaI31
aaa(lp1359
S'scaffold3566_cov79'
p1360
aS'scaffold4610_cov62'
p1361
aa(lp1362
S'scaffold12892_cov134'
p1363
aS'scaffold47938_cov75'
p1364
aa(lp1365
S'scaffold4939_cov152'
p1366
aS'scaffold4940_cov72'
p1367
aa(lp1368
S'scaffold13862_cov109'
p1369
aS'scaffold8878_cov69'
p1370
aa(lp1371
S'scaffold166331_cov132'
p1372
aS'scaffold8565_cov73'
p1373
a(lp1374
I1
a(lp1375
F0.25
aaI28
aaa(lp1376
S'scaffold14578_cov124'
p1377
aS'scaffold14579_cov112'
p1378
a(lp1379
I1
a(lp1380
F0.209877
aaI81
aa(lp1381
I1
a(lp1382
F0.214286
aaI42
aa(lp1383
I1
a(lp1384
F0.238095
aaI42
aaa(lp1385
S'scaffold26431_cov130'
p1386
aS'scaffold15686_cov66'
p1387
aa(lp1388
S'scaffold9117_cov151'
p1389
aS'scaffold9115_cov70'
p1390
aa(lp1391
S'scaffold1006_cov111'
p1392
aS'scaffold1003_cov64'
p1393
a(lp1394
I1
a(lp1395
F0.0
aaI14
aa(lp1396
I1
a(lp1397
F0.0
aaI14
aa(lp1398
I1
a(lp1399
F0.0
aaI14
aa(lp1400
I1
a(lp1401
F0.0
aaI14
aaa(lp1402
S'scaffold5572_cov101'
p1403
aS'scaffold7298_cov66'
p1404
aa(lp1405
S'scaffold14527_cov64'
p1406
aS'scaffold1873_cov63'
p1407
aa(lp1408
S'scaffold19598_cov123'
p1409
aS'scaffold12870_cov60'
p1410
aa(lp1411
S'scaffold57805_cov71'
p1412
aS'scaffold166809_cov123'
p1413
aa(lp1414
S'scaffold25966_cov129'
p1415
aS'scaffold20513_cov68'
p1416
aa(lp1417
S'scaffold6206_cov112'
p1418
aS'scaffold19927_cov67'
p1419
aa(lp1420
S'scaffold1808_cov87'
p1421
aS'scaffold18178_cov78'
p1422
aa(lp1423
S'scaffold4678_cov116'
p1424
aS'scaffold46295_cov125'
p1425
aa(lp1426
S'scaffold3133_cov141'
p1427
aS'scaffold3135_cov68'
p1428
aa(lp1429
S'scaffold182_cov83'
p1430
aS'scaffold16044_cov69'
p1431
aa(lp1432
S'scaffold20825_cov153'
p1433
aS'scaffold20824_cov72'
p1434
aa(lp1435
S'scaffold94664_cov148'
p1436
aS'scaffold11692_cov72'
p1437
aa(lp1438
S'scaffold45520_cov151'
p1439
aS'scaffold45518_cov71'
p1440
aa(lp1441
S'scaffold1071_cov92'
p1442
aS'scaffold49421_cov62'
p1443
a(lp1444
I1
a(lp1445
F0.206897
aaI29
aaa(lp1446
S'scaffold3432_cov123'
p1447
aS'scaffold3406_cov67'
p1448
a(lp1449
I1
a(lp1450
F0.264706
aaI34
aa(lp1451
I1
a(lp1452
F0.242424
aaI33
aa(lp1453
I1
a(lp1454
F0.380952
aaI42
aa(lp1455
I1
a(lp1456
F0.327586
aaI58
aa(lp1457
I1
a(lp1458
F0.380952
aaI42
aa(lp1459
I1
a(lp1460
F0.289474
aaI38
aa(lp1461
I1
a(lp1462
F0.241379
aaI29
aa(lp1463
I1
a(lp1464
F0.243902
aaI41
aa(lp1465
I1
a(lp1466
F0.322581
aaI31
aa(lp1467
I1
a(lp1468
F0.322581
aaI31
aa(lp1469
I1
a(lp1470
F0.214286
aaI28
aa(lp1471
I1
a(lp1472
F0.5
aaI58
aa(lp1473
I1
a(lp1474
F0.263158
aaI38
aa(lp1475
I1
a(lp1476
F0.318182
aaI44
aa(lp1477
I1
a(lp1478
F0.227273
aaI44
aa(lp1479
I1
a(lp1480
F0.337838
aaI74
aa(lp1481
I1
a(lp1482
F0.315789
aaI57
aa(lp1483
I1
a(lp1484
F0.269231
aaI52
aaa(lp1485
S'scaffold12001_cov141'
p1486
aS'scaffold12003_cov68'
p1487
a(lp1488
I1
a(lp1489
F0.0
aaI10
aaa(lp1490
S'scaffold5456_cov152'
p1491
aS'scaffold67160_cov58'
p1492
aa(lp1493
S'scaffold166729_cov102'
p1494
aS'scaffold165425_cov72'
p1495
aa(lp1496
S'scaffold9312_cov104'
p1497
aS'scaffold35511_cov69'
p1498
aa(lp1499
S'scaffold55111_cov144'
p1500
aS'scaffold55112_cov70'
p1501
aa(lp1502
S'scaffold25594_cov137'
p1503
aS'scaffold19109_cov84'
p1504
a(lp1505
I1
a(lp1506
F0.305556
aaI72
aa(lp1507
I1
a(lp1508
F0.238095
aaI84
aa(lp1509
I1
a(lp1510
F0.267442
aaI86
aaa(lp1511
S'scaffold12903_cov71'
p1512
aS'scaffold10491_cov66'
p1513
aa(lp1514
S'scaffold27219_cov142'
p1515
aS'scaffold16554_cov65'
p1516
aa(lp1517
S'scaffold165434_cov141'
p1518
aS'scaffold29886_cov66'
p1519
a(lp1520
I1
a(lp1521
F0.0
aaI21
aa(lp1522
I1
a(lp1523
F0.409091
aaI44
aaa(lp1524
S'scaffold1435_cov93'
p1525
aS'scaffold4122_cov62'
p1526
a(lp1527
I1
a(lp1528
F0.25
aaI12
aa(lp1529
I1
a(lp1530
F0.0
aaI41
aa(lp1531
I1
a(lp1532
F0.4
aaI40
aaa(lp1533
S'scaffold95123_cov91'
p1534
aS'scaffold2350_cov77'
p1535
a(lp1536
I1
a(lp1537
F0.0
aaI26
aa(lp1538
I1
a(lp1539
F0.0
aaI26
aa(lp1540
I1
a(lp1541
F0.222222
aaI36
aaa(lp1542
S'scaffold11842_cov94'
p1543
aS'scaffold158_cov68'
p1544
a(lp1545
I1
a(lp1546
F0.219512
aaI41
aaa(lp1547
S'scaffold34153_cov147'
p1548
aS'scaffold48213_cov76'
p1549
aa(lp1550
S'scaffold7481_cov74'
p1551
aS'scaffold89446_cov79'
p1552
aa(lp1553
S'scaffold5399_cov135'
p1554
aS'scaffold14003_cov64'
p1555
aa(lp1556
S'scaffold19197_cov73'
p1557
aS'scaffold4030_cov67'
p1558
aa(lp1559
S'scaffold16608_cov151'
p1560
aS'scaffold117332_cov60'
p1561
aa(lp1562
S'scaffold165470_cov102'
p1563
aS'scaffold48928_cov92'
p1564
a(lp1565
I1
a(lp1566
F0.419355
aaI62
aa(lp1567
I1
a(lp1568
F0.37037
aaI54
aa(lp1569
I1
a(lp1570
F0.380952
aaI63
aa(lp1571
I1
a(lp1572
F0.484375
aaI64
aa(lp1573
I1
a(lp1574
F0.469388
aaI49
aa(lp1575
I1
a(lp1576
F0.227273
aaI44
aa(lp1577
I1
a(lp1578
F0.517857
aaI56
aa(lp1579
I1
a(lp1580
F0.48
aaI50
aa(lp1581
I1
a(lp1582
F0.285714
aaI35
aaa(lp1583
S'scaffold5433_cov148'
p1584
aS'scaffold4791_cov68'
p1585
aa(lp1586
S'scaffold42581_cov70'
p1587
aS'scaffold16606_cov107'
p1588
a(lp1589
I1
a(lp1590
F0.291667
aaI48
aa(lp1591
I1
a(lp1592
F0.285714
aaI49
aa(lp1593
I1
a(lp1594
F0.473684
aaI57
aa(lp1595
I1
a(lp1596
F0.5
aaI48
aa(lp1597
I1
a(lp1598
F0.444444
aaI54
aa(lp1599
I1
a(lp1600
F0.28125
aaI32
aa(lp1601
I1
a(lp1602
F0.259259
aaI27
aa(lp1603
I1
a(lp1604
F0.0
aaI3
aa(lp1605
I1
a(lp1606
F0.409091
aaI22
aa(lp1607
I1
a(lp1608
F0.30303
aaI33
aa(lp1609
I1
a(lp1610
F0.405405
aaI37
aa(lp1611
I1
a(lp1612
F0.264706
aaI34
aa(lp1613
I1
a(lp1614
F0.27027
aaI37
aa(lp1615
I1
a(lp1616
F0.422222
aaI45
aa(lp1617
I1
a(lp1618
F0.422222
aaI45
aa(lp1619
I1
a(lp1620
F0.391304
aaI46
aa(lp1621
I1
a(lp1622
F0.428571
aaI42
aa(lp1623
I1
a(lp1624
F0.296296
aaI27
aa(lp1625
I1
a(lp1626
F0.354839
aaI31
aa(lp1627
I1
a(lp1628
F0.285714
aaI28
aa(lp1629
I1
a(lp1630
F0.32
aaI25
aa(lp1631
I1
a(lp1632
F0.285714
aaI21
aa(lp1633
I1
a(lp1634
F0.285714
aaI21
aa(lp1635
I1
a(lp1636
F0.212121
aaI33
aa(lp1637
I1
a(lp1638
F0.204545
aaI44
aa(lp1639
I1
a(lp1640
F0.307692
aaI39
aa(lp1641
I1
a(lp1642
F0.325
aaI40
aaa(lp1643
S'scaffold2507_cov119'
p1644
aS'scaffold414_cov67'
p1645
aa(lp1646
S'scaffold6378_cov134'
p1647
aS'scaffold6379_cov64'
p1648
aa(lp1649
S'scaffold27251_cov134'
p1650
aS'scaffold26715_cov65'
p1651
aa(lp1652
S'scaffold104_cov67'
p1653
aS'scaffold34705_cov67'
p1654
aa(lp1655
S'scaffold7224_cov118'
p1656
aS'scaffold775_cov72'
p1657
a(lp1658
I1
a(lp1659
F0.24
aaI25
aa(lp1660
I1
a(lp1661
F0.212121
aaI33
aaa(lp1662
S'scaffold6055_cov140'
p1663
aS'scaffold30423_cov65'
p1664
aa(lp1665
S'scaffold1760_cov96'
p1666
aS'scaffold1762_cov75'
p1667
a(lp1668
I1
a(lp1669
F0.0
aaI14
aa(lp1670
I1
a(lp1671
F0.3
aaI30
aa(lp1672
I1
a(lp1673
F0.591549
aaI71
aaa(lp1674
S'scaffold213265_cov125'
p1675
aS'scaffold13885_cov142'
p1676
aa(lp1677
S'scaffold178103_cov209'
p1678
aS'scaffold16632_cov63'
p1679
a(lp1680
I1
a(lp1681
F0.436364
aaI55
aaa(lp1682
S'scaffold36163_cov117'
p1683
aS'scaffold6928_cov65'
p1684
a(lp1685
I1
a(lp1686
F0.266667
aaI30
aaa(lp1687
S'scaffold279_cov75'
p1688
aS'scaffold7438_cov111'
p1689
a(lp1690
I1
a(lp1691
F0.302326
aaI43
aa(lp1692
I1
a(lp1693
F0.272727
aaI44
aa(lp1694
I1
a(lp1695
F0.225
aaI40
aa(lp1696
I1
a(lp1697
F0.258065
aaI31
aa(lp1698
I1
a(lp1699
F0.228571
aaI35
aaa(lp1700
S'scaffold167503_cov98'
p1701
aS'scaffold7473_cov63'
p1702
a(lp1703
I1
a(lp1704
F0.310976
aaI164
aaa(lp1705
S'scaffold1316_cov119'
p1706
aS'scaffold5085_cov79'
p1707
a(lp1708
I1
a(lp1709
F0.0
aaI41
aa(lp1710
I1
a(lp1711
F0.0
aaI40
aa(lp1712
I1
a(lp1713
F0.320755
aaI53
aa(lp1714
I1
a(lp1715
F0.225
aaI40
aa(lp1716
I1
a(lp1717
F0.3
aaI40
aa(lp1718
I1
a(lp1719
F0.2
aaI40
aa(lp1720
I1
a(lp1721
F0.293103
aaI58
aa(lp1722
I1
a(lp1723
F0.324324
aaI37
aa(lp1724
I1
a(lp1725
F0.272727
aaI33
aa(lp1726
I1
a(lp1727
F0.2
aaI40
aa(lp1728
I1
a(lp1729
F0.243902
aaI41
aa(lp1730
I1
a(lp1731
F0.265306
aaI49
aaa(lp1732
S'scaffold17086_cov103'
p1733
aS'scaffold17615_cov61'
p1734
aa(lp1735
S'scaffold14104_cov135'
p1736
aS'scaffold22906_cov63'
p1737
a(lp1738
I1
a(lp1739
F0.25
aaI60
aa(lp1740
I1
a(lp1741
F0.415094
aaI53
aa(lp1742
I1
a(lp1743
F0.225225
aaI111
aaa(lp1744
S'scaffold164980_cov146'
p1745
aS'scaffold3955_cov67'
p1746
a(lp1747
I1
a(lp1748
F0.0
aaI12
aaa(lp1749
S'scaffold22791_cov67'
p1750
aS'scaffold22793_cov63'
p1751
aa(lp1752
S'scaffold5694_cov90'
p1753
aS'scaffold21004_cov60'
p1754
aa(lp1755
S'scaffold10298_cov88'
p1756
aS'scaffold12318_cov65'
p1757
aa(lp1758
S'scaffold1518_cov144'
p1759
aS'scaffold7273_cov73'
p1760
aa(lp1761
S'scaffold3714_cov147'
p1762
aS'scaffold3718_cov71'
p1763
aa(lp1764
S'scaffold20332_cov97'
p1765
aS'scaffold7080_cov68'
p1766
aa(lp1767
S'scaffold10475_cov143'
p1768
aS'scaffold10474_cov65'
p1769
aa(lp1770
S'scaffold6306_cov146'
p1771
aS'scaffold6305_cov69'
p1772
aa(lp1773
S'scaffold1865_cov101'
p1774
aS'scaffold58306_cov63'
p1775
aa(lp1776
S'scaffold11499_cov143'
p1777
aS'scaffold11874_cov70'
p1778
a(lp1779
I1
a(lp1780
F0.0
aaI43
aaa(lp1781
S'scaffold34203_cov139'
p1782
aS'scaffold15986_cov63'
p1783
aa(lp1784
S'scaffold4589_cov98'
p1785
aS'scaffold4585_cov69'
p1786
aa(lp1787
S'scaffold9955_cov79'
p1788
aS'scaffold2767_cov75'
p1789
aa(lp1790
S'scaffold2129_cov167'
p1791
aS'scaffold92330_cov67'
p1792
a(lp1793
I1
a(lp1794
F0.0
aaI33
aaa(lp1795
S'scaffold34203_cov139'
p1796
aS'scaffold4395_cov68'
p1797
aa(lp1798
S'scaffold10574_cov127'
p1799
aS'scaffold11171_cov138'
p1800
a(lp1801
I1
a(lp1802
F0.236842
aaI38
aaa(lp1803
S'scaffold5348_cov143'
p1804
aS'scaffold91295_cov60'
p1805
aa(lp1806
S'scaffold22816_cov146'
p1807
aS'scaffold22815_cov69'
p1808
aa(lp1809
S'scaffold122299_cov139'
p1810
aS'scaffold122298_cov65'
p1811
aa(lp1812
S'scaffold18351_cov137'
p1813
aS'scaffold16169_cov72'
p1814
aa(lp1815
S'scaffold15731_cov124'
p1816
aS'scaffold1701_cov70'
p1817
a(lp1818
I1
a(lp1819
F0.0
aaI17
aa(lp1820
I1
a(lp1821
F0.0
aaI18
aa(lp1822
I1
a(lp1823
F0.0
aaI20
aa(lp1824
I1
a(lp1825
F0.2
aaI15
aa(lp1826
I1
a(lp1827
F0.209302
aaI43
aaa(lp1828
S'scaffold1170_cov146'
p1829
aS'scaffold69771_cov67'
p1830
aa(lp1831
S'scaffold3741_cov108'
p1832
aS'scaffold2061_cov67'
p1833
aa(lp1834
S'scaffold1461_cov134'
p1835
aS'scaffold13020_cov66'
p1836
aa(lp1837
S'scaffold16201_cov125'
p1838
aS'scaffold51827_cov73'
p1839
aa(lp1840
S'scaffold10337_cov80'
p1841
aS'scaffold21068_cov65'
p1842
aa(lp1843
S'scaffold6532_cov126'
p1844
aS'scaffold5058_cov63'
p1845
a(lp1846
I1
a(lp1847
F0.567901
aaI81
aaa(lp1848
S'scaffold38959_cov135'
p1849
aS'scaffold57178_cov79'
p1850
a(lp1851
I1
a(lp1852
F0.333333
aaI33
aa(lp1853
I1
a(lp1854
F0.324324
aaI37
aaa(lp1855
S'scaffold17601_cov135'
p1856
aS'scaffold1994_cov63'
p1857
a(lp1858
I1
a(lp1859
F0.433333
aaI30
aaa(lp1860
S'scaffold16294_cov110'
p1861
aS'scaffold7481_cov74'
p1862
a(lp1863
I1
a(lp1864
F0.361702
aaI47
aa(lp1865
I1
a(lp1866
F0.272727
aaI44
aa(lp1867
I1
a(lp1868
F0.27907
aaI43
aa(lp1869
I1
a(lp1870
F0.333333
aaI33
aa(lp1871
I1
a(lp1872
F0.325
aaI40
aa(lp1873
I1
a(lp1874
F0.333333
aaI39
aa(lp1875
I1
a(lp1876
F0.333333
aaI45
aa(lp1877
I1
a(lp1878
F0.285714
aaI42
aa(lp1879
I1
a(lp1880
F0.288889
aaI45
aa(lp1881
I1
a(lp1882
F0.285714
aaI42
aa(lp1883
I1
a(lp1884
F0.257143
aaI35
aa(lp1885
I1
a(lp1886
F0.235294
aaI34
aa(lp1887
I1
a(lp1888
F0.225806
aaI31
aa(lp1889
I1
a(lp1890
F0.391304
aaI46
aa(lp1891
I1
a(lp1892
F0.317073
aaI41
aa(lp1893
I1
a(lp1894
F0.30303
aaI33
aa(lp1895
I1
a(lp1896
F0.322581
aaI31
aa(lp1897
I1
a(lp1898
F0.344828
aaI29
aa(lp1899
I1
a(lp1900
F0.44
aaI25
aa(lp1901
I1
a(lp1902
F0.333333
aaI27
aaa(lp1903
S'scaffold31627_cov123'
p1904
aS'scaffold1614_cov71'
p1905
a(lp1906
I1
a(lp1907
F0.295455
aaI44
aaa(lp1908
S'scaffold5399_cov135'
p1909
aS'scaffold8409_cov62'
p1910
aa(lp1911
S'scaffold4605_cov69'
p1912
aS'scaffold4604_cov80'
p1913
a(lp1914
I1
a(lp1915
F0.0
aaI26
aaa(lp1916
S'scaffold13624_cov94'
p1917
aS'scaffold72210_cov77'
p1918
aa(lp1919
S'scaffold19315_cov107'
p1920
aS'scaffold7113_cov70'
p1921
a(lp1922
I1
a(lp1923
F0.2
aaI30
aa(lp1924
I1
a(lp1925
F0.553571
aaI56
aaa(lp1926
S'scaffold165629_cov145'
p1927
aS'scaffold33634_cov72'
p1928
aa(lp1929
S'scaffold183201_cov134'
p1930
aS'scaffold6997_cov65'
p1931
aa(lp1932
S'scaffold22010_cov97'
p1933
aS'scaffold401_cov67'
p1934
aa(lp1935
S'scaffold17015_cov140'
p1936
aS'scaffold4528_cov69'
p1937
aa(lp1938
S'scaffold21453_cov86'
p1939
aS'scaffold4784_cov67'
p1940
aa(lp1941
S'scaffold7585_cov68'
p1942
aS'scaffold13852_cov94'
p1943
a(lp1944
I1
a(lp1945
F0.222222
aaI36
aaa(lp1946
S'scaffold165420_cov139'
p1947
aS'scaffold27291_cov70'
p1948
aa(lp1949
S'scaffold8782_cov64'
p1950
aS'scaffold476_cov90'
p1951
aa(lp1952
S'scaffold9044_cov136'
p1953
aS'scaffold2501_cov70'
p1954
a(lp1955
I1
a(lp1956
F0.706522
aaI92
aa(lp1957
I1
a(lp1958
F0.263158
aaI57
aa(lp1959
I1
a(lp1960
F0.210526
aaI38
aa(lp1961
I1
a(lp1962
F0.395833
aaI48
aa(lp1963
I1
a(lp1964
F0.24
aaI25
aa(lp1965
I1
a(lp1966
F0.242424
aaI33
aaa(lp1967
S'scaffold60916_cov101'
p1968
aS'scaffold2562_cov78'
p1969
aa(lp1970
S'scaffold6452_cov96'
p1971
aS'scaffold5694_cov90'
p1972
a(lp1973
I1
a(lp1974
F0.384615
aaI39
aa(lp1975
I1
a(lp1976
F0.2
aaI30
aa(lp1977
I1
a(lp1978
F0.291667
aaI48
aa(lp1979
I1
a(lp1980
F0.333333
aaI48
aa(lp1981
I1
a(lp1982
F0.325581
aaI43
aa(lp1983
I1
a(lp1984
F0.292683
aaI41
aa(lp1985
I1
a(lp1986
F0.411765
aaI34
aa(lp1987
I1
a(lp1988
F0.424242
aaI33
aa(lp1989
I1
a(lp1990
F0.4
aaI30
aa(lp1991
I1
a(lp1992
F0.5
aaI30
aa(lp1993
I1
a(lp1994
F0.228571
aaI35
aa(lp1995
I1
a(lp1996
F0.465116
aaI43
aa(lp1997
I1
a(lp1998
F0.319149
aaI47
aa(lp1999
I1
a(lp2000
F0.304348
aaI46
aa(lp2001
I1
a(lp2002
F0.365385
aaI52
aa(lp2003
I1
a(lp2004
F0.333333
aaI48
aa(lp2005
I1
a(lp2006
F0.326087
aaI46
aa(lp2007
I1
a(lp2008
F0.372549
aaI51
aa(lp2009
I1
a(lp2010
F0.2
aaI20
aa(lp2011
I1
a(lp2012
F0.380952
aaI21
aa(lp2013
I1
a(lp2014
F0.210526
aaI19
aa(lp2015
I1
a(lp2016
F0.25
aaI20
aa(lp2017
I1
a(lp2018
F0.28
aaI25
aa(lp2019
I1
a(lp2020
F0.291667
aaI24
aa(lp2021
I1
a(lp2022
F0.2
aaI25
aa(lp2023
I1
a(lp2024
F0.222222
aaI18
aa(lp2025
I1
a(lp2026
F0.210526
aaI19
aa(lp2027
I1
a(lp2028
F0.285714
aaI21
aa(lp2029
I1
a(lp2030
F0.347826
aaI23
aa(lp2031
I1
a(lp2032
F0.36
aaI25
aa(lp2033
I1
a(lp2034
F0.357143
aaI28
aaa(lp2035
S'scaffold4116_cov143'
p2036
aS'scaffold6097_cov70'
p2037
aa(lp2038
S'scaffold451_cov146'
p2039
aS'scaffold449_cov70'
p2040
aa(lp2041
S'scaffold167824_cov153'
p2042
aS'scaffold540_cov68'
p2043
aa(lp2044
S'scaffold182_cov83'
p2045
aS'scaffold3533_cov68'
p2046
a(lp2047
I1
a(lp2048
F0.468085
aaI47
aaa(lp2049
S'scaffold167494_cov111'
p2050
aS'scaffold12899_cov60'
p2051
aa(lp2052
S'scaffold3456_cov132'
p2053
aS'scaffold166714_cov62'
p2054
a(lp2055
I1
a(lp2056
F0.28
aaI50
aaa(lp2057
S'scaffold37213_cov79'
p2058
aS'scaffold29941_cov91'
p2059
aa(lp2060
S'scaffold183613_cov153'
p2061
aS'scaffold5720_cov71'
p2062
aa(lp2063
S'scaffold7005_cov65'
p2064
aS'scaffold7006_cov83'
p2065
a(lp2066
I1
a(lp2067
F0.242424
aaI33
aa(lp2068
I1
a(lp2069
F0.418605
aaI43
aa(lp2070
I1
a(lp2071
F0.57377
aaI122
aaa(lp2072
S'scaffold10462_cov135'
p2073
aS'scaffold10461_cov66'
p2074
aa(lp2075
S'scaffold5049_cov88'
p2076
aS'scaffold5046_cov63'
p2077
aa(lp2078
S'scaffold19586_cov139'
p2079
aS'scaffold30711_cov65'
p2080
aasS'up'
p2081
(lp2082
(lp2083
g6
ag7
a(lp2084
I1
a(lp2085
F0.47619
aaI63
aa(lp2086
I1
a(lp2087
F0.236842
aaI38
aa(lp2088
I1
a(lp2089
F0.269231
aaI52
aa(lp2090
I1
a(lp2091
F0.25
aaI44
aa(lp2092
I1
a(lp2093
F0.358209
aaI67
aa(lp2094
I1
a(lp2095
F0.261538
aaI65
aa(lp2096
I1
a(lp2097
F0.37931
aaI58
aa(lp2098
I1
a(lp2099
F0.25641
aaI39
aa(lp2100
I1
a(lp2101
F0.228571
aaI35
aa(lp2102
I1
a(lp2103
F0.25
aaI36
aa(lp2104
I1
a(lp2105
F0.431373
aaI51
aa(lp2106
I1
a(lp2107
F0.238095
aaI42
aa(lp2108
I1
a(lp2109
F0.375
aaI40
aaa(lp2110
g9
ag10
a(lp2111
I1
a(lp2112
F0.34375
aaI32
aa(lp2113
I1
a(lp2114
F0.204545
aaI44
aa(lp2115
I1
a(lp2116
F0.314815
aaI54
aa(lp2117
I1
a(lp2118
F0.318182
aaI44
aa(lp2119
I1
a(lp2120
F0.3125
aaI48
aa(lp2121
I1
a(lp2122
F0.236842
aaI38
aaa(lp2123
g12
ag13
aa(lp2124
g15
ag16
aa(lp2125
g52
ag53
a(lp2126
I1
a(lp2127
F0.431373
aaI51
aa(lp2128
I1
a(lp2129
F0.283451
aaI568
aa(lp2130
I1
a(lp2131
F0.384615
aaI39
aaa(lp2132
g57
ag58
a(lp2133
I1
a(lp2134
F0.259259
aaI54
aa(lp2135
I1
a(lp2136
F0.288136
aaI59
aaa(lp2137
g60
ag61
aa(lp2138
g67
ag68
aa(lp2139
g70
ag71
a(lp2140
I1
a(lp2141
F0.522727
aaI44
aa(lp2142
I1
a(lp2143
F0.2625
aaI80
aa(lp2144
I1
a(lp2145
F0.454545
aaI55
aaa(lp2146
g73
ag74
a(lp2147
I1
a(lp2148
F0.447368
aaI76
aaa(lp2149
g76
ag77
aa(lp2150
g79
ag80
a(lp2151
I1
a(lp2152
F0.392857
aaI56
aa(lp2153
I1
a(lp2154
F0.33871
aaI62
aa(lp2155
I1
a(lp2156
F0.216216
aaI37
aa(lp2157
I1
a(lp2158
F0.216216
aaI37
aaa(lp2159
g84
ag85
a(lp2160
I1
a(lp2161
F0.256757
aaI74
aa(lp2162
I1
a(lp2163
F0.526316
aaI57
aa(lp2164
I1
a(lp2165
F0.292308
aaI65
aa(lp2166
I1
a(lp2167
F0.351351
aaI74
aa(lp2168
I1
a(lp2169
F0.326087
aaI92
aa(lp2170
I1
a(lp2171
F0.318841
aaI69
aaa(lp2172
g169
ag170
a(lp2173
I1
a(lp2174
F0.209302
aaI43
aa(lp2175
I1
a(lp2176
F0.56
aaI50
aa(lp2177
I1
a(lp2178
F0.255814
aaI43
aa(lp2179
I1
a(lp2180
F0.375
aaI48
aaa(lp2181
g172
ag173
a(lp2182
I1
a(lp2183
F0.411765
aaI68
aa(lp2184
I1
a(lp2185
F0.44186
aaI43
aa(lp2186
I1
a(lp2187
F0.47619
aaI42
aa(lp2188
I1
a(lp2189
F0.518519
aaI54
aa(lp2190
I1
a(lp2191
F0.339286
aaI56
aa(lp2192
I1
a(lp2193
F0.458333
aaI48
aa(lp2194
I1
a(lp2195
F0.45098
aaI51
aa(lp2196
I1
a(lp2197
F0.432836
aaI67
aa(lp2198
I1
a(lp2199
F0.349206
aaI63
aa(lp2200
I1
a(lp2201
F0.540984
aaI61
aa(lp2202
I1
a(lp2203
F0.320755
aaI53
aa(lp2204
I1
a(lp2205
F0.350877
aaI57
aa(lp2206
I1
a(lp2207
F0.346154
aaI52
aa(lp2208
I1
a(lp2209
F0.266667
aaI30
aaa(lp2210
g175
ag176
aa(lp2211
g182
ag183
a(lp2212
I1
a(lp2213
F0.375
aaI48
aa(lp2214
I1
a(lp2215
F0.289474
aaI38
aa(lp2216
I1
a(lp2217
F0.27027
aaI37
aa(lp2218
I1
a(lp2219
F0.305556
aaI36
aa(lp2220
I1
a(lp2221
F0.368421
aaI38
aa(lp2222
I1
a(lp2223
F0.257143
aaI35
aa(lp2224
I1
a(lp2225
F0.326087
aaI46
aa(lp2226
I1
a(lp2227
F0.431373
aaI51
aa(lp2228
I1
a(lp2229
F0.282051
aaI39
aa(lp2230
I1
a(lp2231
F0.341463
aaI41
aa(lp2232
I1
a(lp2233
F0.313725
aaI51
aa(lp2234
I1
a(lp2235
F0.282609
aaI46
aa(lp2236
I1
a(lp2237
F0.282609
aaI46
aa(lp2238
I1
a(lp2239
F0.291667
aaI48
aa(lp2240
I1
a(lp2241
F0.25
aaI48
aa(lp2242
I1
a(lp2243
F0.23913
aaI46
aa(lp2244
I1
a(lp2245
F0.208333
aaI48
aa(lp2246
I1
a(lp2247
F0.26
aaI50
aa(lp2248
I1
a(lp2249
F0.3
aaI50
aa(lp2250
I1
a(lp2251
F0.32
aaI50
aa(lp2252
I1
a(lp2253
F0.348837
aaI43
aaa(lp2254
g185
ag186
aa(lp2255
g188
ag189
a(lp2256
I1
a(lp2257
F0.346154
aaI26
aaa(lp2258
g191
ag192
a(lp2259
I1
a(lp2260
F0.2
aaI10
aa(lp2261
I1
a(lp2262
F0.333333
aaI30
aa(lp2263
I1
a(lp2264
F0.241379
aaI29
aa(lp2265
I1
a(lp2266
F0.222222
aaI27
aa(lp2267
I1
a(lp2268
F0.222222
aaI27
aa(lp2269
I1
a(lp2270
F0.225806
aaI31
aa(lp2271
I1
a(lp2272
F0.451613
aaI31
aa(lp2273
I1
a(lp2274
F0.485714
aaI35
aaa(lp2275
g194
ag195
aa(lp2276
g197
ag198
aa(lp2277
g204
ag205
aa(lp2278
g207
ag208
aa(lp2279
g210
ag211
aa(lp2280
g213
ag214
aa(lp2281
g228
ag229
a(lp2282
I1
a(lp2283
F0.344262
aaI61
aa(lp2284
I1
a(lp2285
F0.42
aaI50
aa(lp2286
I1
a(lp2287
F0.408163
aaI49
aa(lp2288
I1
a(lp2289
F0.52
aaI50
aa(lp2290
I1
a(lp2291
F0.345455
aaI55
aa(lp2292
I1
a(lp2293
F0.351852
aaI54
aa(lp2294
I1
a(lp2295
F0.38
aaI50
aa(lp2296
I1
a(lp2297
F0.413043
aaI46
aaa(lp2298
g231
ag232
aa(lp2299
g234
ag235
a(lp2300
I1
a(lp2301
F0.55
aaI60
aa(lp2302
I1
a(lp2303
F0.333333
aaI36
aa(lp2304
I1
a(lp2305
F0.307692
aaI39
aa(lp2306
I1
a(lp2307
F0.316667
aaI60
aa(lp2308
I1
a(lp2309
F0.25
aaI44
aa(lp2310
I1
a(lp2311
F0.619048
aaI63
aa(lp2312
I1
a(lp2313
F0.386364
aaI44
aa(lp2314
I1
a(lp2315
F0.255814
aaI86
aa(lp2316
I1
a(lp2317
F0.25
aaI72
aaa(lp2318
g239
ag240
a(lp2319
I1
a(lp2320
F0.591549
aaI71
aa(lp2321
I1
a(lp2322
F0.55
aaI40
aa(lp2323
I1
a(lp2324
F0.484848
aaI33
aa(lp2325
I1
a(lp2326
F0.433333
aaI30
aa(lp2327
I1
a(lp2328
F0.433333
aaI30
aa(lp2329
I1
a(lp2330
F0.307692
aaI52
aa(lp2331
I1
a(lp2332
F0.44898
aaI49
aa(lp2333
I1
a(lp2334
F0.3125
aaI32
aa(lp2335
I1
a(lp2336
F0.30622
aaI209
aa(lp2337
I1
a(lp2338
F0.5
aaI16
aaa(lp2339
g242
ag243
a(lp2340
I1
a(lp2341
F0.297297
aaI37
aa(lp2342
I1
a(lp2343
F0.258065
aaI31
aa(lp2344
I1
a(lp2345
F0.388889
aaI54
aaa(lp2346
g245
ag246
aa(lp2347
g258
ag259
aa(lp2348
g261
ag262
aa(lp2349
g264
ag265
aa(lp2350
g267
ag268
a(lp2351
I1
a(lp2352
F0.505051
aaI99
aa(lp2353
I1
a(lp2354
F0.405405
aaI37
aa(lp2355
I1
a(lp2356
F0.375
aaI32
aa(lp2357
I1
a(lp2358
F0.222222
aaI36
aa(lp2359
I1
a(lp2360
F0.419355
aaI31
aa(lp2361
I1
a(lp2362
F0.215686
aaI51
aa(lp2363
I1
a(lp2364
F0.222222
aaI54
aaa(lp2365
g270
ag271
a(lp2366
I1
a(lp2367
F0.3
aaI40
aa(lp2368
I1
a(lp2369
F0.257143
aaI35
aa(lp2370
I1
a(lp2371
F0.257143
aaI35
aa(lp2372
I1
a(lp2373
F0.216216
aaI37
aa(lp2374
I1
a(lp2375
F0.295455
aaI44
aa(lp2376
I1
a(lp2377
F0.259259
aaI27
aa(lp2378
I1
a(lp2379
F0.266667
aaI30
aa(lp2380
I1
a(lp2381
F0.277778
aaI36
aa(lp2382
I1
a(lp2383
F0.277778
aaI36
aa(lp2384
I1
a(lp2385
F0.393939
aaI33
aa(lp2386
I1
a(lp2387
F0.444444
aaI27
aa(lp2388
I1
a(lp2389
F0.222222
aaI36
aa(lp2390
I1
a(lp2391
F0.238095
aaI42
aa(lp2392
I1
a(lp2393
F0.275
aaI40
aaa(lp2394
g273
ag274
a(lp2395
I1
a(lp2396
F0.217391
aaI46
aa(lp2397
I1
a(lp2398
F0.232558
aaI43
aa(lp2399
I1
a(lp2400
F0.363636
aaI55
aa(lp2401
I1
a(lp2402
F0.408163
aaI49
aa(lp2403
I1
a(lp2404
F0.222222
aaI36
aaa(lp2405
g280
ag281
a(lp2406
I1
a(lp2407
F0.327273
aaI55
aa(lp2408
I1
a(lp2409
F0.305556
aaI36
aa(lp2410
I1
a(lp2411
F0.30303
aaI33
aaa(lp2412
g283
ag284
aa(lp2413
g286
ag287
aa(lp2414
g289
ag290
aa(lp2415
g296
ag297
aa(lp2416
g299
ag300
a(lp2417
I1
a(lp2418
F0.243243
aaI37
aa(lp2419
I1
a(lp2420
F0.266667
aaI45
aa(lp2421
I1
a(lp2422
F0.326923
aaI52
aa(lp2423
I1
a(lp2424
F0.377358
aaI53
aa(lp2425
I1
a(lp2426
F0.489362
aaI47
aaa(lp2427
g306
ag307
a(lp2428
I1
a(lp2429
F0.36
aaI50
aa(lp2430
I1
a(lp2431
F0.3
aaI40
aa(lp2432
I1
a(lp2433
F0.25
aaI44
aa(lp2434
I1
a(lp2435
F0.228571
aaI35
aa(lp2436
I1
a(lp2437
F0.681818
aaI66
aa(lp2438
I1
a(lp2439
F0.2
aaI25
aaa(lp2440
g309
ag310
aa(lp2441
g312
ag313
aa(lp2442
g315
ag316
a(lp2443
I1
a(lp2444
F0.615385
aaI52
aa(lp2445
I1
a(lp2446
F0.344262
aaI61
aaa(lp2447
g318
ag319
a(lp2448
I1
a(lp2449
F0.25
aaI80
aa(lp2450
I1
a(lp2451
F0.228916
aaI83
aa(lp2452
I1
a(lp2453
F0.23913
aaI46
aa(lp2454
I1
a(lp2455
F0.298246
aaI57
aa(lp2456
I1
a(lp2457
F0.242424
aaI33
aa(lp2458
I1
a(lp2459
F0.25641
aaI39
aaa(lp2460
g323
ag324
a(lp2461
I1
a(lp2462
F0.25
aaI36
aa(lp2463
I1
a(lp2464
F0.339623
aaI53
aa(lp2465
I1
a(lp2466
F0.26087
aaI92
aa(lp2467
I1
a(lp2468
F0.258065
aaI93
aa(lp2469
I1
a(lp2470
F0.292929
aaI99
aa(lp2471
I1
a(lp2472
F0.2
aaI25
aa(lp2473
I1
a(lp2474
F0.235294
aaI34
aa(lp2475
I1
a(lp2476
F0.516129
aaI62
aa(lp2477
I1
a(lp2478
F0.277778
aaI36
aaa(lp2479
g346
ag347
a(lp2480
I1
a(lp2481
F0.266667
aaI45
aa(lp2482
I1
a(lp2483
F0.304348
aaI69
aa(lp2484
I1
a(lp2485
F0.363636
aaI55
aaa(lp2486
g349
ag350
a(lp2487
I1
a(lp2488
F0.405405
aaI37
aa(lp2489
I1
a(lp2490
F0.241379
aaI29
aa(lp2491
I1
a(lp2492
F0.22449
aaI49
aaa(lp2493
g384
ag385
a(lp2494
I1
a(lp2495
F0.25
aaI56
aaa(lp2496
g387
ag388
aa(lp2497
g390
ag391
aa(lp2498
g395
ag396
aa(lp2499
g398
ag399
a(lp2500
I1
a(lp2501
F0.214286
aaI28
aa(lp2502
I1
a(lp2503
F0.2
aaI35
aa(lp2504
I1
a(lp2505
F0.222222
aaI36
aa(lp2506
I1
a(lp2507
F0.547619
aaI42
aa(lp2508
I1
a(lp2509
F0.384615
aaI39
aa(lp2510
I1
a(lp2511
F0.375
aaI40
aa(lp2512
I1
a(lp2513
F0.583333
aaI60
aa(lp2514
I1
a(lp2515
F0.473684
aaI57
aaa(lp2516
g401
ag402
aa(lp2517
g404
ag405
aa(lp2518
g407
ag408
a(lp2519
I1
a(lp2520
F0.387097
aaI31
aa(lp2521
I1
a(lp2522
F0.366667
aaI30
aa(lp2523
I1
a(lp2524
F0.344828
aaI29
aa(lp2525
I1
a(lp2526
F0.222222
aaI36
aaa(lp2527
g410
ag411
aa(lp2528
g413
ag414
aa(lp2529
g416
ag417
aa(lp2530
g419
ag420
aa(lp2531
g422
ag423
aa(lp2532
g425
ag426
a(lp2533
I1
a(lp2534
F0.0
aaI2
aa(lp2535
I1
a(lp2536
F0.0
aaI46
aa(lp2537
I1
a(lp2538
F0.0
aaI50
aa(lp2539
I1
a(lp2540
F0.0
aaI46
aa(lp2541
I1
a(lp2542
F0.0
aaI42
aa(lp2543
I1
a(lp2544
F0.0
aaI20
aa(lp2545
I1
a(lp2546
F0.0
aaI2
aa(lp2547
I1
a(lp2548
F0.0
aaI2
aa(lp2549
I1
a(lp2550
F0.0
aaI15
aa(lp2551
I1
a(lp2552
F0.0
aaI14
aa(lp2553
I1
a(lp2554
F0.0
aaI8
aa(lp2555
I1
a(lp2556
F0.0
aaI2
aa(lp2557
I1
a(lp2558
F0.0
aaI4
aa(lp2559
I1
a(lp2560
F0.0
aaI5
aa(lp2561
I1
a(lp2562
F0.0
aaI6
aa(lp2563
I1
a(lp2564
F0.0
aaI6
aa(lp2565
I1
a(lp2566
F0.0
aaI9
aa(lp2567
I1
a(lp2568
F0.0
aaI10
aa(lp2569
I1
a(lp2570
F0.0
aaI10
aa(lp2571
I1
a(lp2572
F0.0
aaI13
aa(lp2573
I1
a(lp2574
F0.0
aaI16
aa(lp2575
I1
a(lp2576
F0.0
aaI53
aaa(lp2577
g438
ag439
aa(lp2578
g441
ag442
a(lp2579
I1
a(lp2580
F0.25
aaI32
aa(lp2581
I1
a(lp2582
F0.480769
aaI52
aa(lp2583
I1
a(lp2584
F0.644444
aaI45
aa(lp2585
I1
a(lp2586
F0.428571
aaI49
aa(lp2587
I1
a(lp2588
F0.4
aaI70
aa(lp2589
I1
a(lp2590
F0.376623
aaI77
aa(lp2591
I1
a(lp2592
F0.395062
aaI81
aa(lp2593
I1
a(lp2594
F0.379747
aaI79
aa(lp2595
I1
a(lp2596
F0.3875
aaI80
aa(lp2597
I1
a(lp2598
F0.457143
aaI35
aa(lp2599
I1
a(lp2600
F0.478261
aaI46
aa(lp2601
I1
a(lp2602
F0.44186
aaI43
aa(lp2603
I1
a(lp2604
F0.416667
aaI48
aa(lp2605
I1
a(lp2606
F0.243243
aaI37
aa(lp2607
I1
a(lp2608
F0.333333
aaI42
aa(lp2609
I1
a(lp2610
F0.2
aaI35
aa(lp2611
I1
a(lp2612
F0.214286
aaI28
aa(lp2613
I1
a(lp2614
F0.325581
aaI43
aa(lp2615
I1
a(lp2616
F0.277778
aaI36
aa(lp2617
I1
a(lp2618
F0.272727
aaI33
aaa(lp2619
g448
ag449
aa(lp2620
g455
ag456
aa(lp2621
g458
ag459
a(lp2622
I1
a(lp2623
F0.22449
aaI49
aaa(lp2624
g463
ag464
aa(lp2625
g466
ag467
aa(lp2626
g469
ag470
a(lp2627
I1
a(lp2628
F0.311111
aaI45
aaa(lp2629
g478
ag479
aa(lp2630
g481
ag482
aa(lp2631
g484
ag485
aa(lp2632
g487
ag488
a(lp2633
I1
a(lp2634
F0.0
aaI18
aa(lp2635
I1
a(lp2636
F0.0
aaI14
aa(lp2637
I1
a(lp2638
F0.0
aaI13
aa(lp2639
I1
a(lp2640
F0.0
aaI10
aa(lp2641
I1
a(lp2642
F0.0
aaI3
aa(lp2643
I1
a(lp2644
F0.0
aaI4
aa(lp2645
I1
a(lp2646
F0.0
aaI8
aa(lp2647
I1
a(lp2648
F0.0
aaI6
aa(lp2649
I1
a(lp2650
F0.0
aaI6
aa(lp2651
I1
a(lp2652
F0.0
aaI6
aa(lp2653
I1
a(lp2654
F0.0
aaI3
aa(lp2655
I1
a(lp2656
F0.0
aaI3
aa(lp2657
I1
a(lp2658
F0.0
aaI5
aa(lp2659
I1
a(lp2660
F0.0
aaI6
aa(lp2661
I1
a(lp2662
F0.0
aaI9
aa(lp2663
I1
a(lp2664
F0.0
aaI9
aa(lp2665
I1
a(lp2666
F0.0
aaI14
aa(lp2667
I1
a(lp2668
F0.0
aaI12
aa(lp2669
I1
a(lp2670
F0.0
aaI12
aa(lp2671
I1
a(lp2672
F0.0
aaI51
aa(lp2673
I1
a(lp2674
F0.0
aaI45
aaa(lp2675
g506
ag507
aa(lp2676
g509
ag510
a(lp2677
I1
a(lp2678
F0.327869
aaI61
aaa(lp2679
g512
ag513
a(lp2680
I1
a(lp2681
F0.492308
aaI65
aa(lp2682
I1
a(lp2683
F0.277778
aaI36
aa(lp2684
I1
a(lp2685
F0.225
aaI40
aa(lp2686
I1
a(lp2687
F0.474576
aaI59
aa(lp2688
I1
a(lp2689
F0.421053
aaI57
aa(lp2690
I1
a(lp2691
F0.416667
aaI48
aaa(lp2692
g515
ag516
aa(lp2693
g518
ag519
aa(lp2694
g525
ag526
a(lp2695
I1
a(lp2696
F0.372093
aaI43
aa(lp2697
I1
a(lp2698
F0.416667
aaI48
aa(lp2699
I1
a(lp2700
F0.352941
aaI51
aaa(lp2701
g552
ag553
a(lp2702
I1
a(lp2703
F0.333333
aaI42
aa(lp2704
I1
a(lp2705
F0.289474
aaI38
aa(lp2706
I1
a(lp2707
F0.315789
aaI38
aa(lp2708
I1
a(lp2709
F0.25
aaI32
aa(lp2710
I1
a(lp2711
F0.272727
aaI33
aa(lp2712
I1
a(lp2713
F0.272727
aaI33
aa(lp2714
I1
a(lp2715
F0.241379
aaI29
aa(lp2716
I1
a(lp2717
F0.555556
aaI45
aaa(lp2718
g555
ag556
a(lp2719
I1
a(lp2720
F0.32
aaI50
aa(lp2721
I1
a(lp2722
F0.311111
aaI45
aa(lp2723
I1
a(lp2724
F0.2
aaI45
aa(lp2725
I1
a(lp2726
F0.282609
aaI46
aa(lp2727
I1
a(lp2728
F0.342105
aaI38
aa(lp2729
I1
a(lp2730
F0.351351
aaI37
aaa(lp2731
g560
ag561
aa(lp2732
g591
ag592
aa(lp2733
g594
ag595
a(lp2734
I1
a(lp2735
F0.266667
aaI45
aa(lp2736
I1
a(lp2737
F0.285714
aaI35
aa(lp2738
I1
a(lp2739
F0.5125
aaI80
aa(lp2740
I1
a(lp2741
F0.476923
aaI65
aa(lp2742
I1
a(lp2743
F0.285714
aaI56
aa(lp2744
I1
a(lp2745
F0.407407
aaI54
aa(lp2746
I1
a(lp2747
F0.438596
aaI57
aa(lp2748
I1
a(lp2749
F0.301887
aaI53
aa(lp2750
I1
a(lp2751
F0.457627
aaI59
aaa(lp2752
g597
ag598
aa(lp2753
g622
ag623
aa(lp2754
g629
ag630
aa(lp2755
g634
ag635
a(lp2756
I1
a(lp2757
F0.333333
aaI30
aa(lp2758
I1
a(lp2759
F0.333333
aaI30
aa(lp2760
I1
a(lp2761
F0.205882
aaI34
aaa(lp2762
g637
ag638
a(lp2763
I1
a(lp2764
F0.280702
aaI57
aa(lp2765
I1
a(lp2766
F0.25
aaI36
aa(lp2767
I1
a(lp2768
F0.314286
aaI35
aa(lp2769
I1
a(lp2770
F0.428571
aaI35
aa(lp2771
I1
a(lp2772
F0.660377
aaI53
aa(lp2773
I1
a(lp2774
F0.241379
aaI58
aa(lp2775
I1
a(lp2776
F0.235294
aaI51
aa(lp2777
I1
a(lp2778
F0.267857
aaI56
aa(lp2779
I1
a(lp2780
F0.254237
aaI59
aa(lp2781
I1
a(lp2782
F0.641026
aaI39
aa(lp2783
I1
a(lp2784
F0.407407
aaI54
aa(lp2785
I1
a(lp2786
F0.444444
aaI54
aa(lp2787
I1
a(lp2788
F0.305085
aaI59
aa(lp2789
I1
a(lp2790
F0.275862
aaI58
aa(lp2791
I1
a(lp2792
F0.230769
aaI52
aaa(lp2793
g640
ag641
a(lp2794
I1
a(lp2795
F0.685714
aaI70
aa(lp2796
I1
a(lp2797
F0.232558
aaI86
aa(lp2798
I1
a(lp2799
F0.545455
aaI44
aa(lp2800
I1
a(lp2801
F0.415094
aaI53
aa(lp2802
I1
a(lp2803
F0.428571
aaI56
aa(lp2804
I1
a(lp2805
F0.375
aaI64
aa(lp2806
I1
a(lp2807
F0.538462
aaI65
aa(lp2808
I1
a(lp2809
F0.253165
aaI79
aaa(lp2810
g699
ag700
aa(lp2811
g702
ag703
a(lp2812
I1
a(lp2813
F0.28125
aaI32
aa(lp2814
I1
a(lp2815
F0.292683
aaI41
aa(lp2816
I1
a(lp2817
F0.325
aaI40
aa(lp2818
I1
a(lp2819
F0.2
aaI40
aa(lp2820
I1
a(lp2821
F0.266667
aaI30
aa(lp2822
I1
a(lp2823
F0.266667
aaI30
aa(lp2824
I1
a(lp2825
F0.285714
aaI49
aa(lp2826
I1
a(lp2827
F0.0
aaI872
aaa(lp2828
g705
ag706
a(lp2829
I1
a(lp2830
F0.456522
aaI46
aa(lp2831
I1
a(lp2832
F0.243243
aaI37
aa(lp2833
I1
a(lp2834
F0.456522
aaI46
aa(lp2835
I1
a(lp2836
F0.446809
aaI47
aa(lp2837
I1
a(lp2838
F0.44186
aaI43
aa(lp2839
I1
a(lp2840
F0.414634
aaI41
aaa(lp2841
g708
ag709
aa(lp2842
g711
ag712
a(lp2843
I1
a(lp2844
F0.222222
aaI36
aa(lp2845
I1
a(lp2846
F0.222222
aaI45
aa(lp2847
I1
a(lp2848
F0.227273
aaI44
aa(lp2849
I1
a(lp2850
F0.265306
aaI49
aa(lp2851
I1
a(lp2852
F0.428571
aaI56
aaa(lp2853
g718
ag719
aa(lp2854
g721
ag722
a(lp2855
I1
a(lp2856
F0.25
aaI68
aa(lp2857
I1
a(lp2858
F0.246377
aaI69
aa(lp2859
I1
a(lp2860
F0.228571
aaI70
aa(lp2861
I1
a(lp2862
F0.282051
aaI78
aaa(lp2863
g752
ag753
a(lp2864
I1
a(lp2865
F0.363636
aaI44
aa(lp2866
I1
a(lp2867
F0.395349
aaI43
aa(lp2868
I1
a(lp2869
F0.404762
aaI42
aa(lp2870
I1
a(lp2871
F0.315789
aaI57
aa(lp2872
I1
a(lp2873
F0.350877
aaI57
aa(lp2874
I1
a(lp2875
F0.285714
aaI56
aa(lp2876
I1
a(lp2877
F0.323077
aaI65
aa(lp2878
I1
a(lp2879
F0.468085
aaI47
aa(lp2880
I1
a(lp2881
F0.418605
aaI43
aaa(lp2882
g761
ag762
a(lp2883
I1
a(lp2884
F0.0
aaI23
aa(lp2885
I1
a(lp2886
F0.0
aaI23
aa(lp2887
I1
a(lp2888
F0.0
aaI26
aa(lp2889
I1
a(lp2890
F0.0
aaI27
aa(lp2891
I1
a(lp2892
F0.0
aaI27
aa(lp2893
I1
a(lp2894
F0.0
aaI26
aa(lp2895
I1
a(lp2896
F0.0
aaI16
aa(lp2897
I1
a(lp2898
F0.0
aaI19
aaa(lp2899
g764
ag765
aa(lp2900
g767
ag768
aa(lp2901
g770
ag771
aa(lp2902
g793
ag794
aa(lp2903
g796
ag797
a(lp2904
I1
a(lp2905
F0.295455
aaI44
aa(lp2906
I1
a(lp2907
F0.394737
aaI38
aaa(lp2908
g801
ag802
aa(lp2909
g804
ag805
aa(lp2910
g807
ag808
aa(lp2911
g810
ag811
aa(lp2912
g813
ag814
aa(lp2913
g816
ag817
aa(lp2914
g821
ag822
aa(lp2915
g824
ag825
aa(lp2916
g827
ag828
a(lp2917
I1
a(lp2918
F0.461538
aaI52
aaa(lp2919
g830
ag831
aa(lp2920
g833
ag834
a(lp2921
I1
a(lp2922
F0.432432
aaI37
aa(lp2923
I1
a(lp2924
F0.4
aaI35
aa(lp2925
I1
a(lp2926
F0.441176
aaI34
aa(lp2927
I1
a(lp2928
F0.37931
aaI29
aa(lp2929
I1
a(lp2930
F0.361111
aaI36
aa(lp2931
I1
a(lp2932
F0.30303
aaI33
aa(lp2933
I1
a(lp2934
F0.333333
aaI36
aa(lp2935
I1
a(lp2936
F0.4
aaI35
aa(lp2937
I1
a(lp2938
F0.411765
aaI34
aa(lp2939
I1
a(lp2940
F0.346154
aaI26
aa(lp2941
I1
a(lp2942
F0.25
aaI28
aaa(lp2943
g836
ag837
a(lp2944
I1
a(lp2945
F0.265306
aaI49
aa(lp2946
I1
a(lp2947
F0.677966
aaI59
aa(lp2948
I1
a(lp2949
F0.342857
aaI35
aa(lp2950
I1
a(lp2951
F0.323529
aaI34
aa(lp2952
I1
a(lp2953
F0.333333
aaI36
aaa(lp2954
g843
ag844
aa(lp2955
g848
ag849
a(lp2956
I1
a(lp2957
F0.222222
aaI36
aa(lp2958
I1
a(lp2959
F0.382979
aaI47
aa(lp2960
I1
a(lp2961
F0.387755
aaI49
aa(lp2962
I1
a(lp2963
F0.319149
aaI47
aa(lp2964
I1
a(lp2965
F0.305556
aaI36
aa(lp2966
I1
a(lp2967
F0.225
aaI40
aa(lp2968
I1
a(lp2969
F0.216216
aaI37
aa(lp2970
I1
a(lp2971
F0.2
aaI30
aa(lp2972
I1
a(lp2973
F0.240741
aaI54
aa(lp2974
I1
a(lp2975
F0.333333
aaI54
aa(lp2976
I1
a(lp2977
F0.458333
aaI48
aa(lp2978
I1
a(lp2979
F0.380952
aaI42
aa(lp2980
I1
a(lp2981
F0.229508
aaI61
aa(lp2982
I1
a(lp2983
F0.363636
aaI33
aa(lp2984
I1
a(lp2985
F0.433333
aaI30
aa(lp2986
I1
a(lp2987
F0.461538
aaI26
aa(lp2988
I1
a(lp2989
F0.325
aaI40
aa(lp2990
I1
a(lp2991
F0.210526
aaI38
aaa(lp2992
g857
ag858
a(lp2993
I1
a(lp2994
F0.289474
aaI76
aa(lp2995
I1
a(lp2996
F0.212121
aaI66
aa(lp2997
I1
a(lp2998
F0.676471
aaI68
aaa(lp2999
g860
ag861
a(lp3000
I1
a(lp3001
F0.333333
aaI39
aa(lp3002
I1
a(lp3003
F0.0
aaI29
aa(lp3004
I1
a(lp3005
F0.0
aaI28
aaa(lp3006
g863
ag864
aa(lp3007
g866
ag867
aa(lp3008
g869
ag870
aa(lp3009
g872
ag873
a(lp3010
I1
a(lp3011
F0.206897
aaI29
aaa(lp3012
g875
ag876
a(lp3013
I1
a(lp3014
F0.27027
aaI37
aa(lp3015
I1
a(lp3016
F0.396226
aaI53
aaa(lp3017
g878
ag879
a(lp3018
I1
a(lp3019
F0.275
aaI40
aa(lp3020
I1
a(lp3021
F0.491228
aaI57
aa(lp3022
I1
a(lp3023
F0.302326
aaI43
aa(lp3024
I1
a(lp3025
F0.297872
aaI47
aa(lp3026
I1
a(lp3027
F0.456522
aaI46
aaa(lp3028
g887
ag888
aa(lp3029
g894
ag895
aa(lp3030
g897
ag898
a(lp3031
I1
a(lp3032
F0.355556
aaI45
aa(lp3033
I1
a(lp3034
F0.408163
aaI49
aa(lp3035
I1
a(lp3036
F0.302326
aaI43
aa(lp3037
I1
a(lp3038
F0.230769
aaI52
aa(lp3039
I1
a(lp3040
F0.22449
aaI49
aa(lp3041
I1
a(lp3042
F0.25
aaI48
aa(lp3043
I1
a(lp3044
F0.275
aaI40
aa(lp3045
I1
a(lp3046
F0.289474
aaI38
aa(lp3047
I1
a(lp3048
F0.238095
aaI42
aa(lp3049
I1
a(lp3050
F0.297872
aaI47
aa(lp3051
I1
a(lp3052
F0.297872
aaI47
aa(lp3053
I1
a(lp3054
F0.26087
aaI46
aa(lp3055
I1
a(lp3056
F0.25
aaI48
aa(lp3057
I1
a(lp3058
F0.244898
aaI49
aa(lp3059
I1
a(lp3060
F0.486111
aaI72
aa(lp3061
I1
a(lp3062
F0.6
aaI35
aa(lp3063
I1
a(lp3064
F0.491525
aaI59
aaa(lp3065
g934
ag935
a(lp3066
I1
a(lp3067
F0.216216
aaI37
aa(lp3068
I1
a(lp3069
F0.230769
aaI39
aa(lp3070
I1
a(lp3071
F0.365854
aaI41
aa(lp3072
I1
a(lp3073
F0.372093
aaI43
aa(lp3074
I1
a(lp3075
F0.638298
aaI47
aa(lp3076
I1
a(lp3077
F0.233333
aaI30
aa(lp3078
I1
a(lp3079
F0.25
aaI36
aa(lp3080
I1
a(lp3081
F0.243243
aaI37
aa(lp3082
I1
a(lp3083
F0.230769
aaI39
aaa(lp3084
g943
ag944
a(lp3085
I1
a(lp3086
F0.230769
aaI104
aa(lp3087
I1
a(lp3088
F0.235955
aaI89
aa(lp3089
I1
a(lp3090
F0.285714
aaI28
aaa(lp3091
g946
ag947
aa(lp3092
g949
ag950
aa(lp3093
g954
ag955
aa(lp3094
g957
ag958
aa(lp3095
g960
ag961
a(lp3096
I1
a(lp3097
F0.421053
aaI57
aa(lp3098
I1
a(lp3099
F0.26087
aaI23
aa(lp3100
I1
a(lp3101
F0.26087
aaI23
aa(lp3102
I1
a(lp3103
F0.602564
aaI78
aa(lp3104
I1
a(lp3105
F0.360656
aaI61
aa(lp3106
I1
a(lp3107
F0.391304
aaI46
aa(lp3108
I1
a(lp3109
F0.295455
aaI44
aaa(lp3110
g965
ag966
a(lp3111
I1
a(lp3112
F0.608696
aaI46
aaa(lp3113
g970
ag971
a(lp3114
I1
a(lp3115
F0.3125
aaI32
aa(lp3116
I1
a(lp3117
F0.428571
aaI49
aa(lp3118
I1
a(lp3119
F0.54717
aaI53
aa(lp3120
I1
a(lp3121
F0.519231
aaI52
aa(lp3122
I1
a(lp3123
F0.204545
aaI44
aa(lp3124
I1
a(lp3125
F0.255319
aaI47
aa(lp3126
I1
a(lp3127
F0.333333
aaI45
aa(lp3128
I1
a(lp3129
F0.231884
aaI69
aa(lp3130
I1
a(lp3131
F0.212766
aaI47
aa(lp3132
I1
a(lp3133
F0.574074
aaI54
aa(lp3134
I1
a(lp3135
F0.375
aaI56
aa(lp3136
I1
a(lp3137
F0.396226
aaI53
aa(lp3138
I1
a(lp3139
F0.305085
aaI59
aa(lp3140
I1
a(lp3141
F0.270833
aaI48
aa(lp3142
I1
a(lp3143
F0.270833
aaI48
aa(lp3144
I1
a(lp3145
F0.283019
aaI53
aa(lp3146
I1
a(lp3147
F0.298246
aaI57
aa(lp3148
I1
a(lp3149
F0.301887
aaI53
aa(lp3150
I1
a(lp3151
F0.265306
aaI49
aa(lp3152
I1
a(lp3153
F0.296296
aaI54
aa(lp3154
I1
a(lp3155
F0.226415
aaI53
aa(lp3156
I1
a(lp3157
F0.311111
aaI45
aa(lp3158
I1
a(lp3159
F0.272727
aaI55
aa(lp3160
I1
a(lp3161
F0.339286
aaI56
aa(lp3162
I1
a(lp3163
F0.2
aaI30
aaa(lp3164
g999
ag1000
aa(lp3165
g1002
ag1003
aa(lp3166
g1005
ag1006
aa(lp3167
g1008
ag1009
aa(lp3168
g1011
ag1012
aa(lp3169
g1014
ag1015
a(lp3170
I1
a(lp3171
F0.325581
aaI43
aa(lp3172
I1
a(lp3173
F0.324324
aaI37
aa(lp3174
I1
a(lp3175
F0.324324
aaI37
aa(lp3176
I1
a(lp3177
F0.291667
aaI48
aa(lp3178
I1
a(lp3179
F0.264151
aaI53
aa(lp3180
I1
a(lp3181
F0.327273
aaI55
aaa(lp3182
g1017
ag1018
a(lp3183
I1
a(lp3184
F0.347826
aaI46
aa(lp3185
I1
a(lp3186
F0.236364
aaI55
aa(lp3187
I1
a(lp3188
F0.32
aaI50
aaa(lp3189
g1022
ag1023
aa(lp3190
g1025
ag1026
aa(lp3191
g1028
ag1029
a(lp3192
I1
a(lp3193
F0.355556
aaI45
aa(lp3194
I1
a(lp3195
F0.319149
aaI47
aa(lp3196
I1
a(lp3197
F0.333333
aaI30
aa(lp3198
I1
a(lp3199
F0.25
aaI36
aa(lp3200
I1
a(lp3201
F0.212121
aaI33
aa(lp3202
I1
a(lp3203
F0.294118
aaI34
aa(lp3204
I1
a(lp3205
F0.30303
aaI33
aa(lp3206
I1
a(lp3207
F0.42
aaI50
aa(lp3208
I1
a(lp3209
F0.268293
aaI41
aa(lp3210
I1
a(lp3211
F0.272727
aaI44
aa(lp3212
I1
a(lp3213
F0.340426
aaI47
aa(lp3214
I1
a(lp3215
F0.340909
aaI44
aa(lp3216
I1
a(lp3217
F0.375
aaI40
aa(lp3218
I1
a(lp3219
F0.365854
aaI41
aa(lp3220
I1
a(lp3221
F0.35
aaI40
aa(lp3222
I1
a(lp3223
F0.365385
aaI52
aa(lp3224
I1
a(lp3225
F0.354167
aaI48
aa(lp3226
I1
a(lp3227
F0.302326
aaI43
aa(lp3228
I1
a(lp3229
F0.428571
aaI56
aa(lp3230
I1
a(lp3231
F0.230769
aaI39
aa(lp3232
I1
a(lp3233
F0.447368
aaI38
aa(lp3234
I1
a(lp3235
F0.391304
aaI46
aa(lp3236
I1
a(lp3237
F0.212766
aaI47
aa(lp3238
I1
a(lp3239
F0.272727
aaI33
aa(lp3240
I1
a(lp3241
F0.571429
aaI7
aa(lp3242
I1
a(lp3243
F0.261905
aaI42
aaa(lp3244
g1043
ag1044
aa(lp3245
g1046
ag1047
a(lp3246
I1
a(lp3247
F0.235294
aaI51
aaa(lp3248
g1051
ag1052
aa(lp3249
g1060
ag1061
a(lp3250
I1
a(lp3251
F0.222222
aaI36
aa(lp3252
I1
a(lp3253
F0.210526
aaI38
aaa(lp3254
g1063
ag1064
aa(lp3255
g1066
ag1067
a(lp3256
I1
a(lp3257
F0.431034
aaI58
aa(lp3258
I1
a(lp3259
F0.2
aaI50
aa(lp3260
I1
a(lp3261
F0.227273
aaI44
aa(lp3262
I1
a(lp3263
F0.204545
aaI44
aaa(lp3264
g1071
ag1072
a(lp3265
I1
a(lp3266
F0.584906
aaI53
aa(lp3267
I1
a(lp3268
F0.452381
aaI42
aaa(lp3269
g1074
ag1075
aa(lp3270
g1077
ag1078
a(lp3271
I1
a(lp3272
F0.264706
aaI34
aa(lp3273
I1
a(lp3274
F0.309524
aaI42
aaa(lp3275
g1084
ag1085
aa(lp3276
g1087
ag1088
a(lp3277
I1
a(lp3278
F0.288889
aaI45
aa(lp3279
I1
a(lp3280
F0.371429
aaI35
aaa(lp3281
g1094
ag1095
a(lp3282
I1
a(lp3283
F0.478873
aaI71
aaa(lp3284
g1101
ag1102
aa(lp3285
g1104
ag1105
aa(lp3286
g1113
ag1114
a(lp3287
I1
a(lp3288
F0.236842
aaI38
aa(lp3289
I1
a(lp3290
F0.204545
aaI44
aa(lp3291
I1
a(lp3292
F0.222222
aaI36
aa(lp3293
I1
a(lp3294
F0.5
aaI48
aa(lp3295
I1
a(lp3296
F0.487179
aaI39
aa(lp3297
I1
a(lp3298
F0.483333
aaI60
aa(lp3299
I1
a(lp3300
F0.23913
aaI46
aa(lp3301
I1
a(lp3302
F0.297872
aaI47
aa(lp3303
I1
a(lp3304
F0.283019
aaI53
aa(lp3305
I1
a(lp3306
F0.369565
aaI46
aa(lp3307
I1
a(lp3308
F0.327273
aaI55
aa(lp3309
I1
a(lp3310
F0.222222
aaI45
aa(lp3311
I1
a(lp3312
F0.244444
aaI45
aa(lp3313
I1
a(lp3314
F0.403509
aaI57
aaa(lp3315
g1116
ag1117
a(lp3316
I1
a(lp3317
F0.228571
aaI35
aa(lp3318
I1
a(lp3319
F0.476923
aaI65
aaa(lp3320
g1121
ag1122
a(lp3321
I1
a(lp3322
F0.222222
aaI18
aa(lp3323
I1
a(lp3324
F0.210526
aaI19
aa(lp3325
I1
a(lp3326
F0.227273
aaI22
aa(lp3327
I1
a(lp3328
F0.366667
aaI30
aa(lp3329
I1
a(lp3330
F0.352941
aaI34
aa(lp3331
I1
a(lp3332
F0.363636
aaI33
aa(lp3333
I1
a(lp3334
F0.290323
aaI31
aa(lp3335
I1
a(lp3336
F0.457627
aaI59
aa(lp3337
I1
a(lp3338
F0.403509
aaI57
aa(lp3339
I1
a(lp3340
F0.377049
aaI61
aaa(lp3341
g1124
ag1125
a(lp3342
I1
a(lp3343
F0.523077
aaI130
aaa(lp3344
g1127
ag1128
aa(lp3345
g1130
ag1131
a(lp3346
I1
a(lp3347
F0.35
aaI40
aa(lp3348
I1
a(lp3349
F0.214286
aaI56
aa(lp3350
I1
a(lp3351
F0.264151
aaI53
aa(lp3352
I1
a(lp3353
F0.314815
aaI54
aa(lp3354
I1
a(lp3355
F0.296296
aaI54
aa(lp3356
I1
a(lp3357
F0.534884
aaI43
aaa(lp3358
g1133
ag1134
a(lp3359
I1
a(lp3360
F0.385965
aaI57
aa(lp3361
I1
a(lp3362
F0.655738
aaI61
aa(lp3363
I1
a(lp3364
F0.375
aaI16
aa(lp3365
I1
a(lp3366
F0.5
aaI14
aa(lp3367
I1
a(lp3368
F0.225
aaI80
aa(lp3369
I1
a(lp3370
F0.727273
aaI88
aa(lp3371
I1
a(lp3372
F0.520548
aaI73
aa(lp3373
I1
a(lp3374
F0.621212
aaI66
aa(lp3375
I1
a(lp3376
F0.326531
aaI49
aa(lp3377
I1
a(lp3378
F0.243902
aaI41
aa(lp3379
I1
a(lp3380
F0.3
aaI40
aa(lp3381
I1
a(lp3382
F0.272727
aaI77
aa(lp3383
I1
a(lp3384
F0.21875
aaI96
aa(lp3385
I1
a(lp3386
F0.7125
aaI80
aa(lp3387
I1
a(lp3388
F0.283784
aaI74
aa(lp3389
I1
a(lp3390
F0.228916
aaI83
aa(lp3391
I1
a(lp3392
F0.277778
aaI36
aa(lp3393
I1
a(lp3394
F0.235294
aaI34
aa(lp3395
I1
a(lp3396
F0.275862
aaI29
aa(lp3397
I1
a(lp3398
F0.589286
aaI56
aa(lp3399
I1
a(lp3400
F0.488889
aaI45
aa(lp3401
I1
a(lp3402
F0.510638
aaI47
aa(lp3403
I1
a(lp3404
F0.217391
aaI92
aa(lp3405
I1
a(lp3406
F0.211268
aaI71
aa(lp3407
I1
a(lp3408
F0.648148
aaI54
aa(lp3409
I1
a(lp3410
F0.58209
aaI67
aa(lp3411
I1
a(lp3412
F0.225806
aaI62
aa(lp3413
I1
a(lp3414
F0.263158
aaI38
aa(lp3415
I1
a(lp3416
F0.228571
aaI35
aa(lp3417
I1
a(lp3418
F0.205882
aaI34
aa(lp3419
I1
a(lp3420
F0.225806
aaI31
aa(lp3421
I1
a(lp3422
F0.225806
aaI31
aa(lp3423
I1
a(lp3424
F0.290323
aaI31
aa(lp3425
I1
a(lp3426
F0.0
aaI28
aa(lp3427
I1
a(lp3428
F0.242424
aaI33
aaa(lp3429
g1148
ag1149
a(lp3430
I1
a(lp3431
F0.333333
aaI39
aa(lp3432
I1
a(lp3433
F0.333333
aaI39
aa(lp3434
I1
a(lp3435
F0.302326
aaI43
aa(lp3436
I1
a(lp3437
F0.238095
aaI42
aa(lp3438
I1
a(lp3439
F0.36
aaI50
aa(lp3440
I1
a(lp3441
F0.303571
aaI56
aa(lp3442
I1
a(lp3443
F0.290909
aaI55
aa(lp3444
I1
a(lp3445
F0.270833
aaI48
aa(lp3446
I1
a(lp3447
F0.227273
aaI44
aa(lp3448
I1
a(lp3449
F0.205882
aaI34
aaa(lp3450
g1153
ag1154
aa(lp3451
g1156
ag1157
aa(lp3452
g1159
ag1160
a(lp3453
I1
a(lp3454
F0.375
aaI56
aa(lp3455
I1
a(lp3456
F0.314815
aaI54
aa(lp3457
I1
a(lp3458
F0.465116
aaI43
aa(lp3459
I1
a(lp3460
F0.589041
aaI73
aa(lp3461
I1
a(lp3462
F0.2
aaI75
aa(lp3463
I1
a(lp3464
F0.227848
aaI79
aa(lp3465
I1
a(lp3466
F0.611111
aaI54
aa(lp3467
I1
a(lp3468
F0.264151
aaI53
aaa(lp3469
g1164
ag1165
a(lp3470
I1
a(lp3471
F0.25
aaI40
aa(lp3472
I1
a(lp3473
F0.489362
aaI47
aaa(lp3474
g1167
ag1168
aa(lp3475
g1170
ag1171
aa(lp3476
g1173
ag1174
aa(lp3477
g1176
ag1177
a(lp3478
I1
a(lp3479
F0.276316
aaI76
aa(lp3480
I1
a(lp3481
F0.6
aaI45
aaa(lp3482
g1179
ag1180
aa(lp3483
g1184
ag1185
a(lp3484
I1
a(lp3485
F0.571429
aaI7
aa(lp3486
I1
a(lp3487
F0.468085
aaI47
aaa(lp3488
g1199
ag1200
a(lp3489
I1
a(lp3490
F0.507692
aaI65
aa(lp3491
I1
a(lp3492
F0.463768
aaI69
aaa(lp3493
g1202
ag1203
a(lp3494
I1
a(lp3495
F0.257143
aaI35
aa(lp3496
I1
a(lp3497
F0.0
aaI31
aa(lp3498
I1
a(lp3499
F0.230769
aaI39
aaa(lp3500
g1215
ag1216
a(lp3501
I1
a(lp3502
F0.536232
aaI69
aa(lp3503
I1
a(lp3504
F0.597561
aaI82
aa(lp3505
I1
a(lp3506
F0.560976
aaI82
aa(lp3507
I1
a(lp3508
F0.523077
aaI65
aa(lp3509
I1
a(lp3510
F0.515152
aaI66
aa(lp3511
I1
a(lp3512
F0.27907
aaI43
aaa(lp3513
g1218
ag1219
a(lp3514
I1
a(lp3515
F0.225
aaI40
aa(lp3516
I1
a(lp3517
F0.243243
aaI37
aaa(lp3518
g1221
ag1222
a(lp3519
I1
a(lp3520
F0.526316
aaI57
aaa(lp3521
g1226
ag1227
a(lp3522
I1
a(lp3523
F0.492958
aaI71
aaa(lp3524
g1229
ag1230
aa(lp3525
g1232
ag1233
a(lp3526
I1
a(lp3527
F0.490909
aaI55
aaa(lp3528
g1235
ag1236
a(lp3529
I1
a(lp3530
F0.325
aaI40
aa(lp3531
I1
a(lp3532
F0.282051
aaI39
aa(lp3533
I1
a(lp3534
F0.261905
aaI42
aa(lp3535
I1
a(lp3536
F0.270833
aaI48
aa(lp3537
I1
a(lp3538
F0.232143
aaI56
aaa(lp3539
g1240
ag1241
aa(lp3540
g1249
ag1250
aa(lp3541
g1252
ag1253
a(lp3542
I1
a(lp3543
F0.282609
aaI46
aaa(lp3544
g1263
ag1264
aa(lp3545
g1280
ag1281
a(lp3546
I1
a(lp3547
F0.24
aaI25
aa(lp3548
I1
a(lp3549
F0.307692
aaI26
aa(lp3550
I1
a(lp3551
F0.307692
aaI26
aa(lp3552
I1
a(lp3553
F0.313725
aaI51
aa(lp3554
I1
a(lp3555
F0.416667
aaI48
aa(lp3556
I1
a(lp3557
F0.365385
aaI52
aa(lp3558
I1
a(lp3559
F0.404255
aaI47
aa(lp3560
I1
a(lp3561
F0.333333
aaI42
aa(lp3562
I1
a(lp3563
F0.309524
aaI42
aa(lp3564
I1
a(lp3565
F0.302326
aaI43
aa(lp3566
I1
a(lp3567
F0.214286
aaI42
aa(lp3568
I1
a(lp3569
F0.0
aaI29
aaa(lp3570
g1283
ag1284
aa(lp3571
g1286
ag1287
a(lp3572
I1
a(lp3573
F0.288889
aaI45
aa(lp3574
I1
a(lp3575
F0.41841
aaI239
aa(lp3576
I1
a(lp3577
F0.363636
aaI44
aa(lp3578
I1
a(lp3579
F0.357143
aaI42
aa(lp3580
I1
a(lp3581
F0.357143
aaI42
aa(lp3582
I1
a(lp3583
F0.317073
aaI41
aa(lp3584
I1
a(lp3585
F0.3
aaI40
aa(lp3586
I1
a(lp3587
F0.425926
aaI54
aa(lp3588
I1
a(lp3589
F0.345455
aaI55
aa(lp3590
I1
a(lp3591
F0.307692
aaI52
aa(lp3592
I1
a(lp3593
F0.326531
aaI49
aaa(lp3594
g1289
ag1290
a(lp3595
I1
a(lp3596
F0.446809
aaI47
aa(lp3597
I1
a(lp3598
F0.625
aaI72
aa(lp3599
I1
a(lp3600
F0.3
aaI40
aa(lp3601
I1
a(lp3602
F0.27027
aaI37
aa(lp3603
I1
a(lp3604
F0.285714
aaI35
aa(lp3605
I1
a(lp3606
F0.291667
aaI24
aa(lp3607
I1
a(lp3608
F0.205882
aaI34
aa(lp3609
I1
a(lp3610
F0.313725
aaI51
aa(lp3611
I1
a(lp3612
F0.45283
aaI53
aa(lp3613
I1
a(lp3614
F0.422222
aaI45
aaa(lp3615
g1294
ag1295
aa(lp3616
g1297
ag1298
a(lp3617
I1
a(lp3618
F0.538462
aaI52
aa(lp3619
I1
a(lp3620
F0.5
aaI44
aa(lp3621
I1
a(lp3622
F0.257143
aaI35
aa(lp3623
I1
a(lp3624
F0.2
aaI40
aa(lp3625
I1
a(lp3626
F0.228571
aaI35
aa(lp3627
I1
a(lp3628
F0.285714
aaI35
aa(lp3629
I1
a(lp3630
F0.403226
aaI62
aaa(lp3631
g1304
ag1305
aa(lp3632
g1307
ag1308
a(lp3633
I1
a(lp3634
F0.333333
aaI45
aaa(lp3635
g1316
ag1317
aa(lp3636
g1319
ag1320
aa(lp3637
g1322
ag1323
aa(lp3638
g1325
ag1326
aa(lp3639
g1328
ag1329
a(lp3640
I1
a(lp3641
F0.395833
aaI48
aa(lp3642
I1
a(lp3643
F0.576923
aaI52
aa(lp3644
I1
a(lp3645
F0.410714
aaI56
aa(lp3646
I1
a(lp3647
F0.52381
aaI63
aa(lp3648
I1
a(lp3649
F0.2
aaI40
aa(lp3650
I1
a(lp3651
F0.236842
aaI38
aa(lp3652
I1
a(lp3653
F0.393939
aaI33
aa(lp3654
I1
a(lp3655
F0.354839
aaI31
aa(lp3656
I1
a(lp3657
F0.297297
aaI37
aaa(lp3658
g1341
ag1342
a(lp3659
I1
a(lp3660
F0.261905
aaI42
aa(lp3661
I1
a(lp3662
F0.54
aaI50
aa(lp3663
I1
a(lp3664
F0.54
aaI50
aa(lp3665
I1
a(lp3666
F0.290323
aaI62
aa(lp3667
I1
a(lp3668
F0.264151
aaI53
aa(lp3669
I1
a(lp3670
F0.225806
aaI31
aa(lp3671
I1
a(lp3672
F0.452381
aaI42
aa(lp3673
I1
a(lp3674
F0.638889
aaI36
aaa(lp3675
g1360
ag1361
aa(lp3676
g1363
ag1364
a(lp3677
I1
a(lp3678
F0.62069
aaI58
aaa(lp3679
g1366
ag1367
aa(lp3680
g1369
ag1370
a(lp3681
I1
a(lp3682
F0.384615
aaI26
aa(lp3683
I1
a(lp3684
F0.407407
aaI27
aa(lp3685
I1
a(lp3686
F0.391304
aaI23
aa(lp3687
I1
a(lp3688
F0.4
aaI35
aaa(lp3689
g1372
ag1373
a(lp3690
I1
a(lp3691
F0.454545
aaI44
aa(lp3692
I1
a(lp3693
F0.468085
aaI47
aa(lp3694
I1
a(lp3695
F0.469388
aaI49
aa(lp3696
I1
a(lp3697
F0.431373
aaI51
aa(lp3698
I1
a(lp3699
F0.416667
aaI60
aaa(lp3700
g1377
ag1378
a(lp3701
I1
a(lp3702
F0.529412
aaI85
aaa(lp3703
g1386
ag1387
aa(lp3704
g1389
ag1390
aa(lp3705
g1392
ag1393
a(lp3706
I1
a(lp3707
F0.382979
aaI47
aa(lp3708
I1
a(lp3709
F0.377778
aaI45
aa(lp3710
I1
a(lp3711
F0.313725
aaI51
aa(lp3712
I1
a(lp3713
F0.326531
aaI49
aa(lp3714
I1
a(lp3715
F0.285714
aaI49
aa(lp3716
I1
a(lp3717
F0.230769
aaI26
aa(lp3718
I1
a(lp3719
F0.225806
aaI31
aa(lp3720
I1
a(lp3721
F0.2
aaI30
aa(lp3722
I1
a(lp3723
F0.242424
aaI33
aa(lp3724
I1
a(lp3725
F0.285714
aaI28
aa(lp3726
I1
a(lp3727
F0.285714
aaI28
aa(lp3728
I1
a(lp3729
F0.243243
aaI37
aa(lp3730
I1
a(lp3731
F0.236842
aaI38
aa(lp3732
I1
a(lp3733
F0.243243
aaI37
aa(lp3734
I1
a(lp3735
F0.210526
aaI38
aa(lp3736
I1
a(lp3737
F0.210526
aaI38
aa(lp3738
I1
a(lp3739
F0.380952
aaI42
aa(lp3740
I1
a(lp3741
F0.380952
aaI42
aa(lp3742
I1
a(lp3743
F0.272727
aaI33
aa(lp3744
I1
a(lp3745
F0.264706
aaI34
aa(lp3746
I1
a(lp3747
F0.243243
aaI37
aa(lp3748
I1
a(lp3749
F0.272727
aaI33
aa(lp3750
I1
a(lp3751
F0.540984
aaI61
aa(lp3752
I1
a(lp3753
F0.563636
aaI55
aa(lp3754
I1
a(lp3755
F0.289474
aaI38
aa(lp3756
I1
a(lp3757
F0.25641
aaI39
aa(lp3758
I1
a(lp3759
F0.243243
aaI37
aa(lp3760
I1
a(lp3761
F0.305556
aaI36
aa(lp3762
I1
a(lp3763
F0.243243
aaI37
aa(lp3764
I1
a(lp3765
F0.25
aaI24
aa(lp3766
I1
a(lp3767
F0.241379
aaI29
aa(lp3768
I1
a(lp3769
F0.288889
aaI45
aaa(lp3770
g1403
ag1404
a(lp3771
I1
a(lp3772
F0.228571
aaI35
aa(lp3773
I1
a(lp3774
F0.235294
aaI34
aa(lp3775
I1
a(lp3776
F1.0
aaI16
aa(lp3777
I1
a(lp3778
F0.26087
aaI46
aa(lp3779
I1
a(lp3780
F0.282609
aaI46
aaa(lp3781
g1406
ag1407
a(lp3782
I1
a(lp3783
F0.44898
aaI49
aa(lp3784
I1
a(lp3785
F0.383333
aaI60
aa(lp3786
I1
a(lp3787
F0.3
aaI50
aa(lp3788
I1
a(lp3789
F0.333333
aaI33
aa(lp3790
I1
a(lp3791
F0.222222
aaI27
aaa(lp3792
g1409
ag1410
aa(lp3793
g1412
ag1413
aa(lp3794
g1415
ag1416
a(lp3795
I1
a(lp3796
F0.326923
aaI52
aa(lp3797
I1
a(lp3798
F0.313725
aaI51
aa(lp3799
I1
a(lp3800
F0.361702
aaI47
aa(lp3801
I1
a(lp3802
F0.390244
aaI41
aa(lp3803
I1
a(lp3804
F0.386364
aaI44
aa(lp3805
I1
a(lp3806
F0.355556
aaI45
aa(lp3807
I1
a(lp3808
F0.4
aaI45
aa(lp3809
I1
a(lp3810
F0.418605
aaI43
aaa(lp3811
g1418
ag1419
aa(lp3812
g1421
ag1422
aa(lp3813
g1424
ag1425
a(lp3814
I1
a(lp3815
F0.282609
aaI46
aaa(lp3816
g1427
ag1428
a(lp3817
I1
a(lp3818
F0.315789
aaI76
aaa(lp3819
g1430
ag1431
aa(lp3820
g1433
ag1434
a(lp3821
I1
a(lp3822
F0.478873
aaI71
aaa(lp3823
g1436
ag1437
aa(lp3824
g1439
ag1440
aa(lp3825
g1442
ag1443
aa(lp3826
g1447
ag1448
aa(lp3827
g1486
ag1487
aa(lp3828
g1491
ag1492
a(lp3829
I1
a(lp3830
F0.517857
aaI56
aaa(lp3831
g1494
ag1495
a(lp3832
I1
a(lp3833
F0.431818
aaI44
aa(lp3834
I1
a(lp3835
F0.348837
aaI43
aa(lp3836
I1
a(lp3837
F0.585366
aaI82
aa(lp3838
I1
a(lp3839
F0.4375
aaI48
aa(lp3840
I1
a(lp3841
F0.266667
aaI90
aaa(lp3842
g1497
ag1498
a(lp3843
I1
a(lp3844
F0.444444
aaI54
aa(lp3845
I1
a(lp3846
F0.215054
aaI93
aaa(lp3847
g1500
ag1501
aa(lp3848
g1503
ag1504
aa(lp3849
g1512
ag1513
a(lp3850
I1
a(lp3851
F0.349398
aaI83
aaa(lp3852
g1515
ag1516
aa(lp3853
g1518
ag1519
aa(lp3854
g1525
ag1526
aa(lp3855
g1534
ag1535
aa(lp3856
g1543
ag1544
a(lp3857
I1
a(lp3858
F0.42623
aaI61
aa(lp3859
I1
a(lp3860
F0.205882
aaI34
aa(lp3861
I1
a(lp3862
F0.294118
aaI34
aa(lp3863
I1
a(lp3864
F0.277778
aaI36
aa(lp3865
I1
a(lp3866
F0.272727
aaI33
aa(lp3867
I1
a(lp3868
F0.27027
aaI37
aa(lp3869
I1
a(lp3870
F0.228571
aaI35
aa(lp3871
I1
a(lp3872
F0.263158
aaI57
aa(lp3873
I1
a(lp3874
F0.263158
aaI57
aa(lp3875
I1
a(lp3876
F0.303571
aaI56
aa(lp3877
I1
a(lp3878
F0.219512
aaI41
aa(lp3879
I1
a(lp3880
F0.230769
aaI39
aaa(lp3881
g1548
ag1549
aa(lp3882
g1551
ag1552
a(lp3883
I1
a(lp3884
F0.285714
aaI35
aa(lp3885
I1
a(lp3886
F0.205128
aaI39
aa(lp3887
I1
a(lp3888
F0.210526
aaI38
aa(lp3889
I1
a(lp3890
F0.384615
aaI39
aa(lp3891
I1
a(lp3892
F0.326923
aaI52
aa(lp3893
I1
a(lp3894
F0.377358
aaI53
aa(lp3895
I1
a(lp3896
F0.333333
aaI45
aa(lp3897
I1
a(lp3898
F0.295455
aaI44
aa(lp3899
I1
a(lp3900
F0.470588
aaI68
aaa(lp3901
g1554
ag1555
aa(lp3902
g1557
ag1558
a(lp3903
I1
a(lp3904
F0.230769
aaI39
aa(lp3905
I1
a(lp3906
F0.25
aaI36
aa(lp3907
I1
a(lp3908
F0.4375
aaI48
aa(lp3909
I1
a(lp3910
F0.361702
aaI47
aa(lp3911
I1
a(lp3912
F0.2
aaI30
aa(lp3913
I1
a(lp3914
F0.314286
aaI35
aa(lp3915
I1
a(lp3916
F0.341463
aaI41
aa(lp3917
I1
a(lp3918
F0.204545
aaI44
aa(lp3919
I1
a(lp3920
F0.26087
aaI23
aa(lp3921
I1
a(lp3922
F0.307692
aaI26
aa(lp3923
I1
a(lp3924
F0.310345
aaI29
aa(lp3925
I1
a(lp3926
F0.322581
aaI31
aaa(lp3927
g1560
ag1561
aa(lp3928
g1563
ag1564
aa(lp3929
g1584
ag1585
a(lp3930
I1
a(lp3931
F0.218391
aaI87
aaa(lp3932
g1587
ag1588
aa(lp3933
g1644
ag1645
a(lp3934
I1
a(lp3935
F0.489362
aaI47
aa(lp3936
I1
a(lp3937
F0.209302
aaI43
aa(lp3938
I1
a(lp3939
F0.217391
aaI46
aa(lp3940
I1
a(lp3941
F0.287356
aaI87
aa(lp3942
I1
a(lp3943
F0.27451
aaI51
aa(lp3944
I1
a(lp3945
F0.27451
aaI51
aa(lp3946
I1
a(lp3947
F0.26
aaI50
aa(lp3948
I1
a(lp3949
F0.454545
aaI77
aa(lp3950
I1
a(lp3951
F0.225
aaI40
aa(lp3952
I1
a(lp3953
F0.289474
aaI38
aa(lp3954
I1
a(lp3955
F0.222222
aaI45
aa(lp3956
I1
a(lp3957
F0.463415
aaI41
aa(lp3958
I1
a(lp3959
F0.216216
aaI37
aa(lp3960
I1
a(lp3961
F0.37037
aaI54
aaa(lp3962
g1647
ag1648
a(lp3963
I2
a(lp3964
F0.285714
aF0.214286
aaI14
aaa(lp3965
g1650
ag1651
aa(lp3966
g1653
ag1654
aa(lp3967
g1656
ag1657
a(lp3968
I1
a(lp3969
F0.245614
aaI57
aaa(lp3970
g1663
ag1664
a(lp3971
I1
a(lp3972
F0.460526
aaI76
aa(lp3973
I1
a(lp3974
F0.209581
aaI167
aa(lp3975
I1
a(lp3976
F0.557047
aaI149
aaa(lp3977
g1666
ag1667
a(lp3978
I1
a(lp3979
F0.228571
aaI35
aa(lp3980
I1
a(lp3981
F0.225
aaI40
aaa(lp3982
g1675
ag1676
aa(lp3983
g1678
ag1679
aa(lp3984
g1683
ag1684
a(lp3985
I1
a(lp3986
F0.227273
aaI44
aa(lp3987
I1
a(lp3988
F0.227273
aaI44
aa(lp3989
I1
a(lp3990
F0.307692
aaI39
aa(lp3991
I1
a(lp3992
F0.333333
aaI45
aa(lp3993
I1
a(lp3994
F0.347826
aaI46
aa(lp3995
I1
a(lp3996
F0.566667
aaI30
aa(lp3997
I1
a(lp3998
F0.217391
aaI23
aa(lp3999
I1
a(lp4000
F0.222222
aaI27
aaa(lp4001
g1688
ag1689
a(lp4002
I1
a(lp4003
F0.264706
aaI34
aa(lp4004
I1
a(lp4005
F0.305556
aaI36
aaa(lp4006
g1701
ag1702
a(lp4007
I1
a(lp4008
F0.0
aaI14
aa(lp4009
I1
a(lp4010
F0.0
aaI12
aa(lp4011
I1
a(lp4012
F0.0
aaI14
aa(lp4013
I1
a(lp4014
F0.0
aaI5
aaa(lp4015
g1706
ag1707
a(lp4016
I1
a(lp4017
F0.491525
aaI59
aa(lp4018
I1
a(lp4019
F0.311111
aaI45
aa(lp4020
I1
a(lp4021
F0.377778
aaI45
aa(lp4022
I1
a(lp4023
F0.358491
aaI53
aa(lp4024
I1
a(lp4025
F0.34
aaI50
aa(lp4026
I1
a(lp4027
F0.482759
aaI58
aa(lp4028
I1
a(lp4029
F0.354167
aaI48
aa(lp4030
I1
a(lp4031
F0.318182
aaI44
aa(lp4032
I1
a(lp4033
F0.325581
aaI43
aa(lp4034
I1
a(lp4035
F0.265306
aaI49
aa(lp4036
I1
a(lp4037
F0.222222
aaI27
aa(lp4038
I1
a(lp4039
F0.377358
aaI53
aa(lp4040
I1
a(lp4041
F0.275
aaI40
aaa(lp4042
g1733
ag1734
a(lp4043
I1
a(lp4044
F0.461538
aaI78
aa(lp4045
I1
a(lp4046
F0.2
aaI40
aaa(lp4047
g1736
ag1737
aa(lp4048
g1745
ag1746
a(lp4049
I1
a(lp4050
F0.515152
aaI66
aaa(lp4051
g1750
ag1751
a(lp4052
I1
a(lp4053
F0.0
aaI13
aa(lp4054
I1
a(lp4055
F0.45098
aaI51
aa(lp4056
I1
a(lp4057
F0.530612
aaI49
aa(lp4058
I1
a(lp4059
F0.262295
aaI61
aa(lp4060
I1
a(lp4061
F0.258621
aaI58
aa(lp4062
I1
a(lp4063
F0.25
aaI56
aa(lp4064
I1
a(lp4065
F0.207547
aaI53
aa(lp4066
I1
a(lp4067
F0.217391
aaI46
aa(lp4068
I1
a(lp4069
F0.205128
aaI39
aa(lp4070
I1
a(lp4071
F0.414634
aaI41
aa(lp4072
I1
a(lp4073
F0.242424
aaI33
aa(lp4074
I1
a(lp4075
F0.272727
aaI33
aa(lp4076
I1
a(lp4077
F0.264706
aaI34
aa(lp4078
I1
a(lp4079
F0.3
aaI30
aa(lp4080
I1
a(lp4081
F0.27027
aaI37
aa(lp4082
I1
a(lp4083
F0.315789
aaI38
aa(lp4084
I1
a(lp4085
F0.307692
aaI39
aa(lp4086
I1
a(lp4087
F0.292683
aaI41
aa(lp4088
I1
a(lp4089
F0.315789
aaI38
aa(lp4090
I1
a(lp4091
F0.28
aaI50
aa(lp4092
I1
a(lp4093
F0.222222
aaI45
aa(lp4094
I1
a(lp4095
F0.25
aaI40
aa(lp4096
I1
a(lp4097
F0.346939
aaI49
aa(lp4098
I1
a(lp4099
F0.345455
aaI55
aa(lp4100
I1
a(lp4101
F0.361702
aaI47
aa(lp4102
I1
a(lp4103
F0.333333
aaI33
aa(lp4104
I1
a(lp4105
F0.291667
aaI48
aa(lp4106
I1
a(lp4107
F0.492063
aaI63
aa(lp4108
I1
a(lp4109
F0.232323
aaI99
aaa(lp4110
g1753
ag1754
a(lp4111
I1
a(lp4112
F0.291667
aaI24
aag2001
a(lp4113
I1
a(lp4114
F0.361111
aaI36
aa(lp4115
I1
a(lp4116
F0.457143
aaI35
aa(lp4117
I1
a(lp4118
F0.3
aaI40
aa(lp4119
I1
a(lp4120
F0.205128
aaI39
aa(lp4121
I1
a(lp4122
F0.25
aaI44
aa(lp4123
I1
a(lp4124
F0.433962
aaI53
aa(lp4125
I1
a(lp4126
F0.272727
aaI33
aa(lp4127
I1
a(lp4128
F0.361702
aaI47
aa(lp4129
I1
a(lp4130
F0.342105
aaI38
aa(lp4131
I1
a(lp4132
F0.243902
aaI41
aa(lp4133
I1
a(lp4134
F0.210526
aaI38
aa(lp4135
I1
a(lp4136
F0.2
aaI40
aa(lp4137
I1
a(lp4138
F0.396552
aaI58
aa(lp4139
I1
a(lp4140
F0.258065
aaI31
aa(lp4141
I1
a(lp4142
F0.258065
aaI31
aaa(lp4143
g1756
ag1757
aa(lp4144
g1759
ag1760
aa(lp4145
g1762
ag1763
aa(lp4146
g1765
ag1766
aa(lp4147
g1768
ag1769
aa(lp4148
g1771
ag1772
a(lp4149
I1
a(lp4150
F0.666667
aaI6
aa(lp4151
I1
a(lp4152
F0.8
aaI5
aaa(lp4153
g1774
ag1775
a(lp4154
I1
a(lp4155
F0.3
aaI40
aa(lp4156
I1
a(lp4157
F0.25
aaI32
aa(lp4158
I1
a(lp4159
F0.25
aaI32
aa(lp4160
I1
a(lp4161
F0.25
aaI36
aa(lp4162
I1
a(lp4163
F0.214286
aaI28
aaa(lp4164
g1777
ag1778
a(lp4165
I1
a(lp4166
F0.351351
aaI37
aa(lp4167
I1
a(lp4168
F0.318182
aaI44
aa(lp4169
I1
a(lp4170
F0.377358
aaI53
aa(lp4171
I1
a(lp4172
F0.372549
aaI51
aa(lp4173
I1
a(lp4174
F0.590164
aaI61
aaa(lp4175
g1782
ag1783
a(lp4176
I1
a(lp4177
F0.21875
aaI64
aaa(lp4178
g1785
ag1786
aa(lp4179
g1788
ag1789
aa(lp4180
g1791
ag1792
a(lp4181
I1
a(lp4182
F0.536232
aaI69
aa(lp4183
I1
a(lp4184
F0.371429
aaI35
aa(lp4185
I1
a(lp4186
F0.34375
aaI32
aaa(lp4187
g1796
ag1797
aa(lp4188
g1799
ag1800
a(lp4189
I1
a(lp4190
F0.205882
aaI34
aa(lp4191
I1
a(lp4192
F0.21875
aaI32
aaa(lp4193
g1804
ag1805
aa(lp4194
g1807
ag1808
aa(lp4195
g1810
ag1811
aa(lp4196
g1813
ag1814
aa(lp4197
g1816
ag1817
a(lp4198
I1
a(lp4199
F0.422222
aaI45
aa(lp4200
I1
a(lp4201
F0.372093
aaI43
aa(lp4202
I1
a(lp4203
F0.44
aaI50
aa(lp4204
I1
a(lp4205
F0.225
aaI40
aa(lp4206
I1
a(lp4207
F0.346939
aaI49
aa(lp4208
I1
a(lp4209
F0.460317
aaI63
aa(lp4210
I1
a(lp4211
F0.410256
aaI39
aa(lp4212
I1
a(lp4213
F0.411765
aaI34
aa(lp4214
I1
a(lp4215
F0.352941
aaI34
aa(lp4216
I1
a(lp4217
F0.553846
aaI65
aa(lp4218
I1
a(lp4219
F0.58209
aaI67
aa(lp4220
I1
a(lp4221
F0.465517
aaI58
aa(lp4222
I1
a(lp4223
F0.230769
aaI52
aa(lp4224
I1
a(lp4225
F0.25
aaI52
aa(lp4226
I1
a(lp4227
F0.37037
aaI54
aa(lp4228
I1
a(lp4229
F0.307692
aaI52
aa(lp4230
I1
a(lp4231
F0.345455
aaI55
aa(lp4232
I1
a(lp4233
F0.285714
aaI21
aa(lp4234
I1
a(lp4235
F0.258065
aaI31
aaa(lp4236
g1829
ag1830
aa(lp4237
g1832
ag1833
aa(lp4238
g1835
ag1836
a(lp4239
I1
a(lp4240
F0.209302
aaI43
aa(lp4241
I1
a(lp4242
F0.219512
aaI41
aa(lp4243
I1
a(lp4244
F0.204082
aaI49
aa(lp4245
I1
a(lp4246
F0.285714
aaI49
aaa(lp4247
g1838
ag1839
aa(lp4248
g1841
ag1842
aa(lp4249
g1844
ag1845
aa(lp4250
g1849
ag1850
aa(lp4251
g1856
ag1857
a(lp4252
I1
a(lp4253
F0.456522
aaI46
aa(lp4254
I1
a(lp4255
F0.490566
aaI53
aa(lp4256
I1
a(lp4257
F0.388889
aaI54
aaa(lp4258
g1861
ag1862
a(lp4259
I1
a(lp4260
F0.296296
aaI27
aa(lp4261
I1
a(lp4262
F0.388889
aaI54
aa(lp4263
I1
a(lp4264
F0.34375
aaI64
aa(lp4265
I1
a(lp4266
F0.338028
aaI71
aa(lp4267
I1
a(lp4268
F0.323944
aaI71
aa(lp4269
I1
a(lp4270
F0.380282
aaI71
aa(lp4271
I1
a(lp4272
F0.426471
aaI68
aa(lp4273
I1
a(lp4274
F0.412698
aaI63
aa(lp4275
I1
a(lp4276
F0.234043
aaI47
aa(lp4277
I1
a(lp4278
F0.208333
aaI48
aa(lp4279
I1
a(lp4280
F0.225806
aaI31
aa(lp4281
I1
a(lp4282
F0.3
aaI30
aa(lp4283
I1
a(lp4284
F0.378378
aaI37
aa(lp4285
I1
a(lp4286
F0.388889
aaI36
aa(lp4287
I1
a(lp4288
F0.441176
aaI34
aa(lp4289
I1
a(lp4290
F0.459459
aaI37
aa(lp4291
I1
a(lp4292
F0.5
aaI36
aa(lp4293
I1
a(lp4294
F0.447368
aaI38
aa(lp4295
I1
a(lp4296
F0.441176
aaI34
aa(lp4297
I1
a(lp4298
F0.472222
aaI36
aa(lp4299
I1
a(lp4300
F0.2
aaI25
aa(lp4301
I1
a(lp4302
F0.272727
aaI33
aa(lp4303
I1
a(lp4304
F0.371429
aaI35
aa(lp4305
I1
a(lp4306
F0.340426
aaI47
aa(lp4307
I1
a(lp4308
F0.266667
aaI45
aa(lp4309
I1
a(lp4310
F0.25
aaI44
aa(lp4311
I1
a(lp4312
F0.255814
aaI43
aa(lp4313
I1
a(lp4314
F0.603448
aaI58
aa(lp4315
I1
a(lp4316
F0.369231
aaI65
aa(lp4317
I1
a(lp4318
F0.359375
aaI64
aa(lp4319
I1
a(lp4320
F0.652893
aaI121
aa(lp4321
I1
a(lp4322
F0.797619
aaI84
aa(lp4323
I1
a(lp4324
F0.285714
aaI42
aa(lp4325
I1
a(lp4326
F0.277778
aaI36
aa(lp4327
I1
a(lp4328
F0.225
aaI40
aa(lp4329
I1
a(lp4330
F0.217391
aaI46
aa(lp4331
I1
a(lp4332
F0.220339
aaI59
aa(lp4333
I1
a(lp4334
F0.204819
aaI83
aa(lp4335
I1
a(lp4336
F0.253521
aaI71
aaa(lp4337
g1904
ag1905
a(lp4338
I1
a(lp4339
F0.342857
aaI35
aa(lp4340
I1
a(lp4341
F0.290323
aaI31
aa(lp4342
I1
a(lp4343
F0.285714
aaI28
aaa(lp4344
g1909
ag1910
a(lp4345
I1
a(lp4346
F0.315789
aaI38
aa(lp4347
I1
a(lp4348
F0.394737
aaI38
aa(lp4349
I1
a(lp4350
F0.341463
aaI41
aa(lp4351
I1
a(lp4352
F0.348837
aaI43
aa(lp4353
I1
a(lp4354
F0.358974
aaI39
aa(lp4355
I1
a(lp4356
F0.477273
aaI44
aa(lp4357
I1
a(lp4358
F0.428571
aaI42
aa(lp4359
I1
a(lp4360
F0.512195
aaI41
aa(lp4361
I1
a(lp4362
F0.5
aaI38
aa(lp4363
I1
a(lp4364
F0.411765
aaI34
aa(lp4365
I1
a(lp4366
F0.297297
aaI37
aa(lp4367
I1
a(lp4368
F0.264706
aaI34
aa(lp4369
I1
a(lp4370
F0.367347
aaI49
aa(lp4371
I1
a(lp4372
F0.235294
aaI34
aaa(lp4373
g1912
ag1913
aa(lp4374
g1917
ag1918
aa(lp4375
g1920
ag1921
a(lp4376
I1
a(lp4377
F0.342105
aaI38
aa(lp4378
I1
a(lp4379
F0.380952
aaI42
aa(lp4380
I1
a(lp4381
F0.265306
aaI49
aa(lp4382
I1
a(lp4383
F0.333333
aaI57
aa(lp4384
I1
a(lp4385
F0.214286
aaI42
aa(lp4386
I1
a(lp4387
F0.238095
aaI42
aa(lp4388
I1
a(lp4389
F0.212766
aaI47
aa(lp4390
I1
a(lp4391
F0.528302
aaI53
aa(lp4392
I1
a(lp4393
F0.22449
aaI49
aa(lp4394
I1
a(lp4395
F0.23913
aaI46
aa(lp4396
I1
a(lp4397
F0.22449
aaI49
aa(lp4398
I1
a(lp4399
F0.5625
aaI48
aa(lp4400
I1
a(lp4401
F0.265306
aaI49
aa(lp4402
I1
a(lp4403
F0.282609
aaI46
aaa(lp4404
g1927
ag1928
a(lp4405
I1
a(lp4406
F0.5
aaI52
aaa(lp4407
g1930
ag1931
aa(lp4408
g1933
ag1934
a(lp4409
I1
a(lp4410
F0.306122
aaI49
aa(lp4411
I1
a(lp4412
F0.347826
aaI46
aa(lp4413
I1
a(lp4414
F0.333333
aaI39
aa(lp4415
I1
a(lp4416
F0.341463
aaI41
aa(lp4417
I1
a(lp4418
F0.395349
aaI43
aa(lp4419
I1
a(lp4420
F0.372093
aaI43
aa(lp4421
I1
a(lp4422
F0.413043
aaI46
aa(lp4423
I1
a(lp4424
F0.5
aaI74
aa(lp4425
I1
a(lp4426
F0.506849
aaI73
aa(lp4427
I1
a(lp4428
F0.506849
aaI73
aa(lp4429
I1
a(lp4430
F0.285714
aaI35
aaa(lp4431
g1936
ag1937
aa(lp4432
g1939
ag1940
a(lp4433
I1
a(lp4434
F0.276923
aaI65
aaa(lp4435
g1942
ag1943
a(lp4436
I1
a(lp4437
F0.0
aaI24
aaa(lp4438
g1947
ag1948
aa(lp4439
g1950
ag1951
aa(lp4440
g1953
ag1954
a(lp4441
I1
a(lp4442
F0.288889
aaI45
aa(lp4443
I1
a(lp4444
F0.419355
aaI62
aa(lp4445
I1
a(lp4446
F0.392157
aaI51
aaa(lp4447
g1968
ag1969
aa(lp4448
g1971
ag1972
a(lp4449
I1
a(lp4450
F0.206897
aaI29
aa(lp4451
I1
a(lp4452
F0.2
aaI30
aa(lp4453
I1
a(lp4454
F0.206897
aaI29
aa(lp4455
I1
a(lp4456
F0.333333
aaI48
aa(lp4457
I1
a(lp4458
F0.411765
aaI102
aa(lp4459
I1
a(lp4460
F0.236111
aaI72
aaa(lp4461
g2036
ag2037
aa(lp4462
g2039
ag2040
aa(lp4463
g2042
ag2043
aa(lp4464
g2045
ag2046
aa(lp4465
g2050
ag2051
a(lp4466
I1
a(lp4467
F0.453125
aaI64
aa(lp4468
I1
a(lp4469
F0.487805
aaI41
aa(lp4470
I1
a(lp4471
F0.466667
aaI30
aa(lp4472
I1
a(lp4473
F0.385965
aaI57
aa(lp4474
I1
a(lp4475
F0.369565
aaI46
aa(lp4476
I1
a(lp4477
F0.32
aaI50
aa(lp4478
I1
a(lp4479
F0.387097
aaI31
aa(lp4480
I1
a(lp4481
F0.530612
aaI49
aaa(lp4482
g2053
ag2054
a(lp4483
I1
a(lp4484
F0.2
aaI50
aaa(lp4485
g2058
ag2059
aa(lp4486
g2061
ag2062
aa(lp4487
g2064
ag2065
a(lp4488
I1
a(lp4489
F0.222222
aaI54
aaa(lp4490
g2073
ag2074
aa(lp4491
g2076
ag2077
a(lp4492
I1
a(lp4493
F0.416667
aaI36
aa(lp4494
I1
a(lp4495
F0.341463
aaI41
aa(lp4496
I1
a(lp4497
F0.268293
aaI41
aaa(lp4498
g2079
ag2080
aassS'diploids'
p4499
(dp4500
g3
(lp4501
(lp4502
S'scaffold15895_cov77'
p4503
aS'scaffold49814_cov72'
p4504
a(lp4505
I1
a(lp4506
F0.4375
aaI48
aa(lp4507
I1
a(lp4508
F0.241379
aaI29
aa(lp4509
I1
a(lp4510
F0.206897
aaI29
aaa(lp4511
S'scaffold20004_cov62'
p4512
aS'scaffold4610_cov62'
p4513
a(lp4514
I1
a(lp4515
F0.311111
aaI45
aa(lp4516
I1
a(lp4517
F0.377778
aaI45
aa(lp4518
I1
a(lp4519
F0.216216
aaI37
aa(lp4520
I1
a(lp4521
F0.236842
aaI38
aa(lp4522
I1
a(lp4523
F0.230769
aaI26
aa(lp4524
I1
a(lp4525
F0.206897
aaI29
aa(lp4526
I1
a(lp4527
F0.214286
aaI28
aa(lp4528
I1
a(lp4529
F0.25641
aaI39
aa(lp4530
I1
a(lp4531
F0.4
aaI95
aa(lp4532
I1
a(lp4533
F0.647059
aaI68
aa(lp4534
I1
a(lp4535
F0.553571
aaI112
aa(lp4536
I1
a(lp4537
F0.205607
aaI107
aa(lp4538
I1
a(lp4539
F0.607595
aaI79
aaa(lp4540
S'scaffold2677_cov108'
p4541
aS'scaffold6974_cov73'
p4542
a(lp4543
I1
a(lp4544
F0.209302
aaI43
aa(lp4545
I1
a(lp4546
F0.205128
aaI39
aa(lp4547
I1
a(lp4548
F0.0
aaI27
aaa(lp4549
S'scaffold166740_cov68'
p4550
aS'scaffold167477_cov80'
p4551
a(lp4552
I1
a(lp4553
F0.0
aaI3
aa(lp4554
I1
a(lp4555
F0.0
aaI3
aa(lp4556
I1
a(lp4557
F0.0
aaI3
aa(lp4558
I1
a(lp4559
F0.0
aaI3
aa(lp4560
I1
a(lp4561
F0.0
aaI2
aa(lp4562
I1
a(lp4563
F0.0
aaI2
aa(lp4564
I1
a(lp4565
F0.0
aaI4
aa(lp4566
I1
a(lp4567
F0.0
aaI2
aa(lp4568
I1
a(lp4569
F0.0
aaI4
aa(lp4570
I1
a(lp4571
F0.0
aaI3
aa(lp4572
I1
a(lp4573
F0.0
aaI2
aaa(lp4574
S'scaffold50322_cov70'
p4575
aS'scaffold50494_cov83'
p4576
aa(lp4577
S'scaffold100812_cov62'
p4578
aS'scaffold1158_cov100'
p4579
aa(lp4580
S'scaffold29230_cov135'
p4581
aS'scaffold7717_cov65'
p4582
aa(lp4583
S'scaffold16609_cov69'
p4584
aS'scaffold52798_cov134'
p4585
aa(lp4586
S'scaffold15237_cov73'
p4587
aS'scaffold24301_cov102'
p4588
aa(lp4589
S'scaffold1143_cov170'
p4590
aS'scaffold1145_cov65'
p4591
aa(lp4592
S'scaffold25513_cov91'
p4593
aS'scaffold92575_cov70'
p4594
aa(lp4595
S'scaffold166345_cov136'
p4596
aS'scaffold367_cov102'
p4597
aa(lp4598
S'scaffold1143_cov170'
p4599
aS'scaffold185565_cov204'
p4600
aa(lp4601
S'scaffold14527_cov64'
p4602
aS'scaffold14528_cov66'
p4603
aa(lp4604
S'scaffold18411_cov77'
p4605
aS'scaffold3448_cov89'
p4606
a(lp4607
I1
a(lp4608
F0.45614
aaI57
aaa(lp4609
S'scaffold12557_cov77'
p4610
aS'scaffold167464_cov86'
p4611
a(lp4612
I1
a(lp4613
F0.216216
aaI37
aa(lp4614
I1
a(lp4615
F0.40625
aaI32
aa(lp4616
I1
a(lp4617
F0.518519
aaI27
aa(lp4618
I1
a(lp4619
F0.37931
aaI29
aaa(lp4620
S'scaffold15073_cov71'
p4621
aS'scaffold15885_cov116'
p4622
a(lp4623
I1
a(lp4624
F0.243243
aaI37
aa(lp4625
I1
a(lp4626
F0.26087
aaI46
aa(lp4627
I1
a(lp4628
F0.416667
aaI12
aa(lp4629
I1
a(lp4630
F0.58
aaI50
aa(lp4631
I1
a(lp4632
F0.276596
aaI47
aaa(lp4633
S'scaffold166767_cov133'
p4634
aS'scaffold166788_cov64'
p4635
aa(lp4636
S'scaffold37263_cov117'
p4637
aS'scaffold4202_cov67'
p4638
a(lp4639
I1
a(lp4640
F0.333333
aaI51
aa(lp4641
I1
a(lp4642
F0.307692
aaI26
aa(lp4643
I1
a(lp4644
F0.357143
aaI28
aa(lp4645
I1
a(lp4646
F0.321429
aaI28
aa(lp4647
I1
a(lp4648
F0.307692
aaI26
aa(lp4649
I1
a(lp4650
F0.606557
aaI61
aa(lp4651
I1
a(lp4652
F0.233333
aaI30
aa(lp4653
I1
a(lp4654
F0.264706
aaI34
aa(lp4655
I1
a(lp4656
F0.219512
aaI41
aa(lp4657
I1
a(lp4658
F0.648649
aaI37
aa(lp4659
I1
a(lp4660
F0.54717
aaI53
aa(lp4661
I1
a(lp4662
F0.508475
aaI59
aa(lp4663
I1
a(lp4664
F0.225806
aaI62
aa(lp4665
I1
a(lp4666
F0.622642
aaI53
aa(lp4667
I1
a(lp4668
F0.696429
aaI56
aa(lp4669
I1
a(lp4670
F0.28
aaI50
aa(lp4671
I1
a(lp4672
F0.222222
aaI45
aa(lp4673
I1
a(lp4674
F0.5
aaI44
aa(lp4675
I1
a(lp4676
F0.259259
aaI27
aa(lp4677
I1
a(lp4678
F0.285714
aaI28
aa(lp4679
I1
a(lp4680
F0.568966
aaI58
aaa(lp4681
S'scaffold1030_cov88'
p4682
aS'scaffold20924_cov70'
p4683
aa(lp4684
S'scaffold20641_cov90'
p4685
aS'scaffold8011_cov68'
p4686
aa(lp4687
S'scaffold12601_cov106'
p4688
aS'scaffold12765_cov63'
p4689
a(lp4690
I1
a(lp4691
F0.368421
aaI38
aa(lp4692
I1
a(lp4693
F0.5
aaI52
aa(lp4694
I1
a(lp4695
F0.55102
aaI49
aa(lp4696
I1
a(lp4697
F0.346154
aaI52
aa(lp4698
I1
a(lp4699
F0.333333
aaI48
aa(lp4700
I1
a(lp4701
F0.294118
aaI34
aa(lp4702
I1
a(lp4703
F0.210526
aaI38
aa(lp4704
I1
a(lp4705
F0.236842
aaI38
aa(lp4706
I1
a(lp4707
F0.205128
aaI39
aa(lp4708
I1
a(lp4709
F0.219512
aaI41
aa(lp4710
I1
a(lp4711
F0.214286
aaI42
aa(lp4712
I1
a(lp4713
F0.25
aaI40
aa(lp4714
I1
a(lp4715
F0.276596
aaI47
aaa(lp4716
S'scaffold3002_cov145'
p4717
aS'scaffold32103_cov132'
p4718
aa(lp4719
S'scaffold12335_cov66'
p4720
aS'scaffold8993_cov67'
p4721
aa(lp4722
S'scaffold10215_cov75'
p4723
aS'scaffold16998_cov67'
p4724
a(lp4725
I1
a(lp4726
F0.21875
aaI32
aaa(lp4727
S'scaffold15785_cov113'
p4728
aS'scaffold66380_cov110'
p4729
aa(lp4730
S'scaffold8548_cov121'
p4731
aS'scaffold9073_cov65'
p4732
aa(lp4733
S'scaffold47796_cov64'
p4734
aS'scaffold6481_cov91'
p4735
a(lp4736
I1
a(lp4737
F0.636364
aaI44
aa(lp4738
I1
a(lp4739
F0.666667
aaI36
aa(lp4740
I1
a(lp4741
F0.0
aaI7
aa(lp4742
I1
a(lp4743
F0.0
aaI7
aa(lp4744
I1
a(lp4745
F0.0
aaI2
aa(lp4746
I1
a(lp4747
F0.0
aaI3
aa(lp4748
I1
a(lp4749
F0.0
aaI13
aa(lp4750
I1
a(lp4751
F0.0
aaI26
aa(lp4752
I1
a(lp4753
F0.0
aaI8
aa(lp4754
I1
a(lp4755
F0.0
aaI15
aa(lp4756
I1
a(lp4757
F0.0
aaI17
aa(lp4758
I1
a(lp4759
F0.0
aaI3
aa(lp4760
I1
a(lp4761
F0.571429
aaI7
aa(lp4762
I1
a(lp4763
F0.428571
aaI7
aa(lp4764
I1
a(lp4765
F0.0
aaI7
aa(lp4766
I1
a(lp4767
F0.0
aaI5
aa(lp4768
I1
a(lp4769
F0.0
aaI7
aa(lp4770
I1
a(lp4771
F0.0
aaI7
aa(lp4772
I1
a(lp4773
F0.0
aaI7
aaa(lp4774
S'scaffold10670_cov88'
p4775
aS'scaffold7453_cov60'
p4776
a(lp4777
I1
a(lp4778
F0.363636
aaI44
aaa(lp4779
S'scaffold11081_cov88'
p4780
aS'scaffold26032_cov70'
p4781
a(lp4782
I1
a(lp4783
F0.225806
aaI31
aa(lp4784
I1
a(lp4785
F0.222222
aaI36
aa(lp4786
I1
a(lp4787
F0.205128
aaI39
aa(lp4788
I1
a(lp4789
F0.355556
aaI45
aa(lp4790
I1
a(lp4791
F0.355556
aaI45
aaa(lp4792
S'scaffold10581_cov98'
p4793
aS'scaffold17516_cov69'
p4794
a(lp4795
I1
a(lp4796
F0.555556
aaI117
aa(lp4797
I1
a(lp4798
F0.386792
aaI106
aa(lp4799
I1
a(lp4800
F0.359649
aaI114
aa(lp4801
I1
a(lp4802
F0.439655
aaI116
aa(lp4803
I1
a(lp4804
F0.210526
aaI114
aa(lp4805
I1
a(lp4806
F0.451327
aaI113
aa(lp4807
I1
a(lp4808
F0.285714
aaI42
aa(lp4809
I1
a(lp4810
F0.295455
aaI44
aaa(lp4811
S'scaffold167650_cov100'
p4812
aS'scaffold21768_cov66'
p4813
aa(lp4814
S'scaffold11928_cov70'
p4815
aS'scaffold46909_cov63'
p4816
aa(lp4817
S'scaffold166682_cov143'
p4818
aS'scaffold374_cov71'
p4819
a(lp4820
I1
a(lp4821
F0.509804
aaI51
aa(lp4822
I1
a(lp4823
F0.489362
aaI47
aa(lp4824
I1
a(lp4825
F0.23913
aaI46
aa(lp4826
I1
a(lp4827
F0.209302
aaI43
aa(lp4828
I1
a(lp4829
F0.210526
aaI38
aaa(lp4830
S'scaffold4585_cov69'
p4831
aS'scaffold6268_cov78'
p4832
a(lp4833
I1
a(lp4834
F0.3
aaI20
aa(lp4835
I1
a(lp4836
F0.208333
aaI24
aaa(lp4837
S'scaffold195195_cov811'
p4838
aS'scaffold5496_cov92'
p4839
aa(lp4840
S'scaffold15386_cov80'
p4841
aS'scaffold23731_cov68'
p4842
aa(lp4843
S'scaffold21531_cov67'
p4844
aS'scaffold21534_cov145'
p4845
aa(lp4846
S'scaffold33902_cov94'
p4847
aS'scaffold8504_cov71'
p4848
a(lp4849
I1
a(lp4850
F0.333333
aaI33
aa(lp4851
I1
a(lp4852
F0.242424
aaI33
aa(lp4853
I1
a(lp4854
F0.24
aaI25
aaa(lp4855
S'scaffold141950_cov79'
p4856
aS'scaffold9327_cov109'
p4857
aa(lp4858
S'scaffold35689_cov78'
p4859
aS'scaffold63014_cov63'
p4860
a(lp4861
I1
a(lp4862
F0.0
aaI2
aaa(lp4863
S'scaffold36738_cov76'
p4864
aS'scaffold6580_cov70'
p4865
aa(lp4866
S'scaffold5995_cov84'
p4867
aS'scaffold6502_cov73'
p4868
aa(lp4869
S'scaffold107606_cov134'
p4870
aS'scaffold107607_cov79'
p4871
aa(lp4872
S'scaffold114629_cov63'
p4873
aS'scaffold15395_cov68'
p4874
aa(lp4875
S'scaffold21352_cov62'
p4876
aS'scaffold78461_cov65'
p4877
aa(lp4878
S'scaffold23855_cov65'
p4879
aS'scaffold8620_cov63'
p4880
aa(lp4881
S'scaffold7098_cov89'
p4882
aS'scaffold8421_cov73'
p4883
aa(lp4884
S'scaffold49078_cov128'
p4885
aS'scaffold54587_cov60'
p4886
aa(lp4887
S'scaffold4052_cov74'
p4888
aS'scaffold5847_cov85'
p4889
a(lp4890
I1
a(lp4891
F0.25
aaI28
aa(lp4892
I1
a(lp4893
F0.3125
aaI32
aa(lp4894
I1
a(lp4895
F0.2
aaI35
aaa(lp4896
S'scaffold11271_cov65'
p4897
aS'scaffold8101_cov85'
p4898
a(lp4899
I1
a(lp4900
F0.363636
aaI44
aaa(lp4901
S'scaffold24500_cov65'
p4902
aS'scaffold57197_cov90'
p4903
aasg2081
(lp4904
(lp4905
g4503
ag4504
aa(lp4906
g4512
ag4513
a(lp4907
I1
a(lp4908
F0.509804
aaI51
aa(lp4909
I1
a(lp4910
F0.285714
aaI42
aa(lp4911
I1
a(lp4912
F0.228571
aaI35
aaa(lp4913
g4541
ag4542
a(lp4914
I1
a(lp4915
F0.47561
aaI82
aa(lp4916
I1
a(lp4917
F0.204082
aaI49
aaa(lp4918
g4550
ag4551
a(lp4919
I1
a(lp4920
F0.210526
aaI38
aaa(lp4921
g4575
ag4576
aa(lp4922
g4578
ag4579
a(lp4923
I1
a(lp4924
F0.491525
aaI59
aa(lp4925
I1
a(lp4926
F0.263158
aaI19
aa(lp4927
I1
a(lp4928
F0.25
aaI20
aa(lp4929
I1
a(lp4930
F0.333333
aaI27
aaa(lp4931
g4581
ag4582
aa(lp4932
g4584
ag4585
aa(lp4933
g4587
ag4588
a(lp4934
I1
a(lp4935
F0.266667
aaI45
aa(lp4936
I1
a(lp4937
F0.47541
aaI61
aaa(lp4938
g4590
ag4591
aa(lp4939
g4593
ag4594
aa(lp4940
g4596
ag4597
aa(lp4941
g4599
ag4600
aa(lp4942
g4602
ag4603
a(lp4943
I1
a(lp4944
F0.418605
aaI43
aa(lp4945
I1
a(lp4946
F0.45098
aaI51
aa(lp4947
I1
a(lp4948
F0.285714
aaI35
aaa(lp4949
g4605
ag4606
a(lp4950
I1
a(lp4951
F0.254545
aaI55
aa(lp4952
I1
a(lp4953
F0.25
aaI52
aaa(lp4954
g4610
ag4611
aa(lp4955
g4621
ag4622
a(lp4956
I1
a(lp4957
F0.224138
aaI58
aa(lp4958
I1
a(lp4959
F0.233333
aaI60
aa(lp4960
I1
a(lp4961
F0.210526
aaI57
aa(lp4962
I1
a(lp4963
F0.459016
aaI61
aaa(lp4964
g4634
ag4635
aa(lp4965
g4637
ag4638
a(lp4966
I1
a(lp4967
F0.216667
aaI60
aa(lp4968
I1
a(lp4969
F0.203125
aaI64
aa(lp4970
I1
a(lp4971
F0.253333
aaI75
aa(lp4972
I1
a(lp4973
F0.206897
aaI29
aa(lp4974
I1
a(lp4975
F0.2
aaI25
aa(lp4976
I1
a(lp4977
F0.322581
aaI31
aaa(lp4978
g4682
ag4683
a(lp4979
I1
a(lp4980
F0.4
aaI55
aa(lp4981
I1
a(lp4982
F0.482143
aaI56
aaa(lp4983
g4685
ag4686
aa(lp4984
g4688
ag4689
a(lp4985
I1
a(lp4986
F0.245614
aaI57
aaa(lp4987
g4717
ag4718
aa(lp4988
g4720
ag4721
a(lp4989
I1
a(lp4990
F0.25
aaI16
aa(lp4991
I1
a(lp4992
F0.347826
aaI46
aaa(lp4993
g4723
ag4724
aa(lp4994
g4728
ag4729
aa(lp4995
g4731
ag4732
a(lp4996
I1
a(lp4997
F0.407407
aaI27
aa(lp4998
I1
a(lp4999
F0.433333
aaI30
aa(lp5000
I1
a(lp5001
F0.428571
aaI21
aa(lp5002
I1
a(lp5003
F0.4
aaI20
aa(lp5004
I1
a(lp5005
F0.322581
aaI31
aa(lp5006
I1
a(lp5007
F0.206897
aaI29
aa(lp5008
I1
a(lp5009
F0.642857
aaI28
aa(lp5010
I1
a(lp5011
F0.358974
aaI39
aa(lp5012
I1
a(lp5013
F0.285714
aaI35
aa(lp5014
I1
a(lp5015
F0.5
aaI42
aaa(lp5016
g4734
ag4735
a(lp5017
I1
a(lp5018
F0.212121
aaI33
aaa(lp5019
g4775
ag4776
aa(lp5020
g4780
ag4781
aa(lp5021
g4793
ag4794
a(lp5022
I1
a(lp5023
F0.464286
aaI28
aa(lp5024
I1
a(lp5025
F0.4375
aaI48
aa(lp5026
I1
a(lp5027
F0.477273
aaI44
aa(lp5028
I1
a(lp5029
F0.0
aaI18
aa(lp5030
I1
a(lp5031
F0.227273
aaI22
aa(lp5032
I1
a(lp5033
F0.277778
aaI18
aa(lp5034
I1
a(lp5035
F0.494949
aaI99
aa(lp5036
I1
a(lp5037
F0.444444
aaI36
aa(lp5038
I1
a(lp5039
F0.428571
aaI35
aa(lp5040
I1
a(lp5041
F0.666667
aaI63
aa(lp5042
I1
a(lp5043
F0.607843
aaI51
aa(lp5044
I1
a(lp5045
F0.340909
aaI44
aa(lp5046
I1
a(lp5047
F0.590909
aaI44
aa(lp5048
I1
a(lp5049
F0.225
aaI40
aa(lp5050
I1
a(lp5051
F0.555556
aaI45
aa(lp5052
I1
a(lp5053
F0.581818
aaI55
aaa(lp5054
g4812
ag4813
a(lp5055
I1
a(lp5056
F0.2
aaI30
aa(lp5057
I1
a(lp5058
F0.272727
aaI33
aa(lp5059
I1
a(lp5060
F0.235294
aaI34
aa(lp5061
I1
a(lp5062
F0.238095
aaI42
aa(lp5063
I1
a(lp5064
F0.292683
aaI41
aa(lp5065
I1
a(lp5066
F0.275
aaI40
aa(lp5067
I1
a(lp5068
F0.255814
aaI43
aa(lp5069
I1
a(lp5070
F0.222222
aaI36
aa(lp5071
I1
a(lp5072
F0.368421
aaI38
aa(lp5073
I1
a(lp5074
F0.214286
aaI28
aa(lp5075
I1
a(lp5076
F0.477273
aaI44
aa(lp5077
I1
a(lp5078
F0.478261
aaI46
aa(lp5079
I1
a(lp5080
F0.416667
aaI36
aa(lp5081
I1
a(lp5082
F0.269231
aaI26
aa(lp5083
I1
a(lp5084
F0.269231
aaI26
aaa(lp5085
g4815
ag4816
aa(lp5086
g4818
ag4819
aa(lp5087
g4831
ag4832
aa(lp5088
g4838
ag4839
aa(lp5089
g4841
ag4842
aa(lp5090
g4844
ag4845
aa(lp5091
g4847
ag4848
aa(lp5092
g4856
ag4857
aa(lp5093
g4859
ag4860
aa(lp5094
g4864
ag4865
aa(lp5095
g4867
ag4868
a(lp5096
I1
a(lp5097
F0.358491
aaI53
aa(lp5098
I1
a(lp5099
F0.222222
aaI45
aa(lp5100
I1
a(lp5101
F0.232558
aaI43
aa(lp5102
I1
a(lp5103
F0.214286
aaI42
aa(lp5104
I1
a(lp5105
F0.510638
aaI47
aaa(lp5106
g4870
ag4871
aa(lp5107
g4873
ag4874
aa(lp5108
g4876
ag4877
aa(lp5109
g4879
ag4880
a(lp5110
I1
a(lp5111
F0.371429
aaI35
aaa(lp5112
g4882
ag4883
a(lp5113
I1
a(lp5114
F0.24
aaI25
aa(lp5115
I1
a(lp5116
F0.423077
aaI52
aa(lp5117
I1
a(lp5118
F0.431034
aaI58
aaa(lp5119
g4885
ag4886
aa(lp5120
g4888
ag4889
a(lp5121
I1
a(lp5122
F0.210526
aaI19
aaa(lp5123
g4897
ag4898
aa(lp5124
g4902
ag4903
aass.