(lp0
(lp1
S'scaffold4095_cov147'
p2
aS'scaffold1076_cov67'
p3
aa(lp4
S'scaffold4610_cov62'
p5
aS'scaffold20004_cov62'
p6
aa(lp7
S'scaffold39367_cov97'
p8
aS'scaffold37943_cov120'
p9
aa(lp10
S'scaffold11629_cov141'
p11
aS'scaffold11627_cov72'
p12
aa(lp13
S'scaffold1391_cov96'
p14
aS'scaffold46961_cov69'
p15
aa(lp16
S'scaffold65460_cov69'
p17
aS'scaffold4555_cov123'
p18
aa(lp19
S'scaffold4019_cov99'
p20
aS'scaffold21633_cov84'
p21
aa(lp22
S'scaffold13917_cov148'
p23
aS'scaffold28422_cov65'
p24
aa(lp25
S'scaffold16120_cov143'
p26
aS'scaffold9901_cov65'
p27
aa(lp28
S'scaffold92575_cov70'
p29
aS'scaffold25513_cov91'
p30
aa(lp31
S'scaffold35735_cov102'
p32
aS'scaffold4162_cov69'
p33
aa(lp34
S'scaffold3477_cov108'
p35
aS'scaffold10061_cov67'
p36
aa(lp37
S'scaffold32619_cov118'
p38
aS'scaffold20061_cov80'
p39
aa(lp40
S'scaffold18411_cov77'
p41
aS'scaffold3448_cov89'
p42
aa(lp43
S'scaffold45626_cov132'
p44
aS'scaffold26610_cov67'
p45
aa(lp46
S'scaffold7146_cov65'
p47
aS'scaffold7147_cov103'
p48
aa(lp49
S'scaffold166767_cov133'
p50
aS'scaffold166788_cov64'
p51
aa(lp52
S'scaffold7174_cov138'
p53
aS'scaffold2501_cov70'
p54
aa(lp55
S'scaffold39128_cov65'
p56
aS'scaffold51750_cov85'
p57
aa(lp58
S'scaffold11081_cov88'
p59
aS'scaffold26032_cov70'
p60
aa(lp61
S'scaffold14572_cov90'
p62
aS'scaffold4478_cov68'
p63
aa(lp64
S'scaffold165417_cov143'
p65
aS'scaffold16672_cov63'
p66
aa(lp67
S'scaffold14567_cov126'
p68
aS'scaffold42400_cov69'
p69
aa(lp70
S'scaffold60_cov119'
p71
aS'scaffold56505_cov129'
p72
aa(lp73
S'scaffold43863_cov126'
p74
aS'scaffold7672_cov74'
p75
aa(lp76
S'scaffold57805_cov71'
p77
aS'scaffold166809_cov123'
p78
aa(lp79
S'scaffold21531_cov67'
p80
aS'scaffold21534_cov145'
p81
aa(lp82
S'scaffold34153_cov147'
p83
aS'scaffold48213_cov76'
p84
aa(lp85
S'scaffold89446_cov79'
p86
aS'scaffold7481_cov74'
p87
aa(lp88
S'scaffold22906_cov63'
p89
aS'scaffold14104_cov135'
p90
aa(lp91
S'scaffold7098_cov89'
p92
aS'scaffold8421_cov73'
p93
aa(lp94
S'scaffold49078_cov128'
p95
aS'scaffold54587_cov60'
p96
aa(lp97
S'scaffold13624_cov94'
p98
aS'scaffold72210_cov77'
p99
aa(lp100
S'scaffold165629_cov145'
p101
aS'scaffold33634_cov72'
p102
aa(lp103
S'scaffold8101_cov85'
p104
aS'scaffold11271_cov65'
p105
aa(lp106
S'scaffold182_cov83'
p107
aS'scaffold3533_cov68'
p108
aa.