(lp0
(lp1
S'scaffold11088_cov325'
p2
aS'scaffold11089_cov155'
p3
aa(lp4
S'scaffold262_cov323'
p5
aS'scaffold261_cov213'
p6
aa(lp7
S'scaffold684_cov214'
p8
aS'scaffold5563_cov230'
p9
aa(lp10
S'scaffold3314_cov373'
p11
aS'scaffold9972_cov177'
p12
aa(lp13
S'scaffold9367_cov219'
p14
aS'scaffold8628_cov216'
p15
aa(lp16
S'scaffold58129_cov344'
p17
aS'scaffold3894_cov181'
p18
aa(lp19
S'scaffold20382_cov247'
p20
aS'scaffold17295_cov185'
p21
aa(lp22
S'scaffold18037_cov371'
p23
aS'scaffold2860_cov188'
p24
aa(lp25
S'scaffold16510_cov329'
p26
aS'scaffold10765_cov158'
p27
aa(lp28
S'scaffold13130_cov270'
p29
aS'scaffold41185_cov207'
p30
aa(lp31
S'scaffold12745_cov327'
p32
aS'scaffold42983_cov201'
p33
aa(lp34
S'scaffold20594_cov282'
p35
aS'scaffold19148_cov168'
p36
aa(lp37
S'scaffold41261_cov259'
p38
aS'scaffold8283_cov205'
p39
aa(lp40
S'scaffold45455_cov354'
p41
aS'scaffold42499_cov209'
p42
aa(lp43
S'scaffold10815_cov307'
p44
aS'scaffold16387_cov173'
p45
aa(lp46
S'scaffold190_cov336'
p47
aS'scaffold18225_cov165'
p48
aa(lp49
S'scaffold42942_cov276'
p50
aS'scaffold7635_cov167'
p51
aa(lp52
S'scaffold2923_cov327'
p53
aS'scaffold1629_cov161'
p54
aa(lp55
S'scaffold40297_cov281'
p56
aS'scaffold22636_cov168'
p57
aa(lp58
S'scaffold14647_cov215'
p59
aS'scaffold8232_cov185'
p60
aa(lp61
S'scaffold61291_cov313'
p62
aS'scaffold5814_cov183'
p63
aa(lp64
S'scaffold1806_cov327'
p65
aS'scaffold41171_cov176'
p66
aa(lp67
S'scaffold56231_cov333'
p68
aS'scaffold22348_cov176'
p69
aa(lp70
S'scaffold40318_cov268'
p71
aS'scaffold2543_cov162'
p72
aa(lp73
S'scaffold9528_cov320'
p74
aS'scaffold6399_cov179'
p75
aa(lp76
S'scaffold5872_cov329'
p77
aS'scaffold4097_cov164'
p78
aa(lp79
S'scaffold42464_cov260'
p80
aS'scaffold31615_cov166'
p81
aa(lp82
S'scaffold41196_cov228'
p83
aS'scaffold7301_cov216'
p84
aa(lp85
S'scaffold7185_cov345'
p86
aS'scaffold24495_cov180'
p87
aa(lp88
S'scaffold4584_cov220'
p89
aS'scaffold7027_cov164'
p90
aa(lp91
S'scaffold15528_cov213'
p92
aS'scaffold4089_cov203'
p93
aa(lp94
S'scaffold65512_cov333'
p95
aS'scaffold9651_cov171'
p96
aa(lp97
S'scaffold10974_cov292'
p98
aS'scaffold1763_cov160'
p99
aa(lp100
S'scaffold9369_cov276'
p101
aS'scaffold9368_cov226'
p102
aa(lp103
S'scaffold41211_cov318'
p104
aS'scaffold12091_cov160'
p105
aa(lp106
S'scaffold3645_cov184'
p107
aS'scaffold7093_cov178'
p108
aa(lp109
S'scaffold289_cov265'
p110
aS'scaffold12119_cov179'
p111
aa(lp112
S'scaffold864_cov295'
p113
aS'scaffold863_cov154'
p114
aa(lp115
S'scaffold30174_cov303'
p116
aS'scaffold18763_cov162'
p117
aa(lp118
S'scaffold4240_cov264'
p119
aS'scaffold5227_cov160'
p120
aa(lp121
S'scaffold1542_cov315'
p122
aS'scaffold1543_cov161'
p123
aa(lp124
S'scaffold2474_cov331'
p125
aS'scaffold5692_cov160'
p126
aa(lp127
S'scaffold43147_cov232'
p128
aS'scaffold11562_cov185'
p129
aa(lp130
S'scaffold24650_cov316'
p131
aS'scaffold3971_cov198'
p132
aa(lp133
S'scaffold18076_cov337'
p134
aS'scaffold18078_cov173'
p135
aa(lp136
S'scaffold11792_cov346'
p137
aS'scaffold11307_cov171'
p138
aa(lp139
S'scaffold42675_cov221'
p140
aS'scaffold41370_cov186'
p141
aa(lp142
S'scaffold45058_cov323'
p143
aS'scaffold16786_cov170'
p144
aa(lp145
S'scaffold60025_cov313'
p146
aS'scaffold10848_cov173'
p147
aa(lp148
S'scaffold15373_cov297'
p149
aS'scaffold18924_cov151'
p150
aa(lp151
S'scaffold21232_cov323'
p152
aS'scaffold318_cov184'
p153
aa(lp154
S'scaffold66282_cov333'
p155
aS'scaffold15352_cov168'
p156
aa(lp157
S'scaffold13849_cov214'
p158
aS'scaffold11451_cov169'
p159
aa(lp160
S'scaffold13080_cov322'
p161
aS'scaffold12738_cov179'
p162
aa(lp163
S'scaffold4019_cov320'
p164
aS'scaffold5707_cov157'
p165
aa(lp166
S'scaffold4299_cov288'
p167
aS'scaffold1912_cov194'
p168
aa(lp169
S'scaffold15915_cov336'
p170
aS'scaffold15914_cov192'
p171
aa(lp172
S'scaffold3972_cov329'
p173
aS'scaffold16691_cov172'
p174
aa(lp175
S'scaffold23127_cov346'
p176
aS'scaffold19734_cov183'
p177
aa(lp178
S'scaffold9220_cov179'
p179
aS'scaffold9221_cov159'
p180
aa(lp181
S'scaffold245_cov204'
p182
aS'scaffold13661_cov170'
p183
aa(lp184
S'scaffold4212_cov201'
p185
aS'scaffold1646_cov153'
p186
aa(lp187
S'scaffold888_cov277'
p188
aS'scaffold499_cov163'
p189
aa(lp190
S'scaffold8786_cov179'
p191
aS'scaffold16695_cov150'
p192
aa(lp193
S'scaffold10697_cov344'
p194
aS'scaffold5172_cov168'
p195
aa(lp196
S'scaffold42922_cov344'
p197
aS'scaffold41038_cov166'
p198
aa(lp199
S'scaffold50442_cov344'
p200
aS'scaffold17291_cov167'
p201
aa(lp202
S'scaffold63722_cov344'
p203
aS'scaffold14674_cov188'
p204
aa(lp205
S'scaffold11769_cov245'
p206
aS'scaffold522_cov162'
p207
aa(lp208
S'scaffold42448_cov300'
p209
aS'scaffold707_cov182'
p210
aa(lp211
S'scaffold8294_cov344'
p212
aS'scaffold26748_cov151'
p213
aa(lp214
S'scaffold12519_cov243'
p215
aS'scaffold329_cov204'
p216
aa(lp217
S'scaffold17738_cov216'
p218
aS'scaffold9111_cov175'
p219
aa(lp220
S'scaffold1938_cov341'
p221
aS'scaffold17234_cov175'
p222
aa(lp223
S'scaffold56654_cov396'
p224
aS'scaffold14231_cov179'
p225
aa(lp226
S'scaffold42370_cov202'
p227
aS'scaffold11310_cov156'
p228
aa(lp229
S'scaffold7109_cov193'
p230
aS'scaffold20912_cov181'
p231
aa(lp232
S'scaffold64272_cov396'
p233
aS'scaffold15009_cov188'
p234
aa.