(lp0
(lp1
S'scaffold167486_cov93'
p2
aS'scaffold32268_cov68'
p3
aa(lp4
S'scaffold3954_cov94'
p5
aS'scaffold73744_cov62'
p6
aa(lp7
S'scaffold13284_cov147'
p8
aS'scaffold23977_cov68'
p9
aa(lp10
S'scaffold10148_cov99'
p11
aS'scaffold6498_cov76'
p12
aa(lp13
S'scaffold2658_cov137'
p14
aS'scaffold4421_cov66'
p15
aa(lp16
S'scaffold8528_cov135'
p17
aS'scaffold10431_cov72'
p18
aa(lp19
S'scaffold160792_cov138'
p20
aS'scaffold90278_cov81'
p21
aa(lp22
S'scaffold6934_cov101'
p23
aS'scaffold5476_cov91'
p24
aa(lp25
S'scaffold167467_cov101'
p26
aS'scaffold67159_cov68'
p27
aa(lp28
S'scaffold13631_cov149'
p29
aS'scaffold1043_cov70'
p30
aa(lp31
S'scaffold4095_cov147'
p32
aS'scaffold1076_cov67'
p33
aa(lp34
S'scaffold4610_cov62'
p35
aS'scaffold20004_cov62'
p36
aa(lp37
S'scaffold26651_cov113'
p38
aS'scaffold2076_cov75'
p39
aa(lp40
S'scaffold37943_cov120'
p41
aS'scaffold39367_cov97'
p42
aa(lp43
S'scaffold11629_cov141'
p44
aS'scaffold11627_cov72'
p45
aa(lp46
S'scaffold2522_cov147'
p47
aS'scaffold2520_cov73'
p48
aa(lp49
S'scaffold3257_cov146'
p50
aS'scaffold16169_cov72'
p51
aa(lp52
S'scaffold33358_cov122'
p53
aS'scaffold11974_cov67'
p54
aa(lp55
S'scaffold17315_cov142'
p56
aS'scaffold17316_cov65'
p57
aa(lp58
S'scaffold27512_cov124'
p59
aS'scaffold9838_cov70'
p60
aa(lp61
S'scaffold1868_cov136'
p62
aS'scaffold7102_cov63'
p63
aa(lp64
S'scaffold19614_cov87'
p65
aS'scaffold74444_cov64'
p66
aa(lp67
S'scaffold165401_cov148'
p68
aS'scaffold12422_cov71'
p69
aa(lp70
S'scaffold108_cov145'
p71
aS'scaffold107_cov67'
p72
aa(lp73
S'scaffold96847_cov139'
p74
aS'scaffold3943_cov70'
p75
aa(lp76
S'scaffold47647_cov69'
p77
aS'scaffold7129_cov63'
p78
aa(lp79
S'scaffold6388_cov146'
p80
aS'scaffold8779_cov66'
p81
aa(lp82
S'scaffold167512_cov105'
p83
aS'scaffold132398_cov66'
p84
aa(lp85
S'scaffold90279_cov161'
p86
aS'scaffold90278_cov81'
p87
aa(lp88
S'scaffold1391_cov96'
p89
aS'scaffold46961_cov69'
p90
aa(lp91
S'scaffold56728_cov119'
p92
aS'scaffold11627_cov72'
p93
aa(lp94
S'scaffold50322_cov70'
p95
aS'scaffold50494_cov83'
p96
aa(lp97
S'scaffold8397_cov125'
p98
aS'scaffold2722_cov84'
p99
aa(lp100
S'scaffold2416_cov137'
p101
aS'scaffold2417_cov66'
p102
aa(lp103
S'scaffold20419_cov113'
p104
aS'scaffold114_cov72'
p105
aa(lp106
S'scaffold27148_cov73'
p107
aS'scaffold860_cov64'
p108
aa(lp109
S'scaffold4513_cov135'
p110
aS'scaffold59029_cov68'
p111
aa(lp112
S'scaffold406_cov110'
p113
aS'scaffold39105_cov66'
p114
aa(lp115
S'scaffold11821_cov67'
p116
aS'scaffold16084_cov74'
p117
aa(lp118
S'scaffold11225_cov146'
p119
aS'scaffold33238_cov67'
p120
aa(lp121
S'scaffold1158_cov100'
p122
aS'scaffold100812_cov62'
p123
aa(lp124
S'scaffold4036_cov142'
p125
aS'scaffold10658_cov62'
p126
aa(lp127
S'scaffold12688_cov135'
p128
aS'scaffold12686_cov61'
p129
aa(lp130
S'scaffold9676_cov145'
p131
aS'scaffold16231_cov68'
p132
aa(lp133
S'scaffold180_cov107'
p134
aS'scaffold1171_cov70'
p135
aa(lp136
S'scaffold29230_cov135'
p137
aS'scaffold7717_cov65'
p138
aa(lp139
S'scaffold166708_cov122'
p140
aS'scaffold697_cov68'
p141
aa(lp142
S'scaffold6658_cov76'
p143
aS'scaffold860_cov64'
p144
aa(lp145
S'scaffold53892_cov107'
p146
aS'scaffold57838_cov69'
p147
aa(lp148
S'scaffold10313_cov102'
p149
aS'scaffold21316_cov65'
p150
aa(lp151
S'scaffold5667_cov96'
p152
aS'scaffold8355_cov67'
p153
aa(lp154
S'scaffold167496_cov97'
p155
aS'scaffold29206_cov81'
p156
aa(lp157
S'scaffold26582_cov78'
p158
aS'scaffold5481_cov69'
p159
aa(lp160
S'scaffold31513_cov82'
p161
aS'scaffold5259_cov70'
p162
aa(lp163
S'scaffold40887_cov133'
p164
aS'scaffold46748_cov73'
p165
aa(lp166
S'scaffold165520_cov190'
p167
aS'scaffold59464_cov122'
p168
aa(lp169
S'scaffold4555_cov123'
p170
aS'scaffold65460_cov69'
p171
aa(lp172
S'scaffold21633_cov84'
p173
aS'scaffold4019_cov99'
p174
aa(lp175
S'scaffold20825_cov153'
p176
aS'scaffold24052_cov69'
p177
aa(lp178
S'scaffold14473_cov147'
p179
aS'scaffold33229_cov65'
p180
aa(lp181
S'scaffold11599_cov105'
p182
aS'scaffold61789_cov64'
p183
aa(lp184
S'scaffold192192_cov171'
p185
aS'scaffold8532_cov71'
p186
aa(lp187
S'scaffold13917_cov148'
p188
aS'scaffold28422_cov65'
p189
aa(lp190
S'scaffold53875_cov130'
p191
aS'scaffold25755_cov75'
p192
aa(lp193
S'scaffold24301_cov102'
p194
aS'scaffold15237_cov73'
p195
aa(lp196
S'scaffold22882_cov105'
p197
aS'scaffold5203_cov76'
p198
aa(lp199
S'scaffold16120_cov143'
p200
aS'scaffold9901_cov65'
p201
aa(lp202
S'scaffold22339_cov108'
p203
aS'scaffold15124_cov63'
p204
aa(lp205
S'scaffold15763_cov140'
p206
aS'scaffold7011_cov67'
p207
aa(lp208
S'scaffold3674_cov106'
p209
aS'scaffold57150_cov68'
p210
aa(lp211
S'scaffold8694_cov129'
p212
aS'scaffold8135_cov71'
p213
aa(lp214
S'scaffold166685_cov152'
p215
aS'scaffold2832_cov75'
p216
aa(lp217
S'scaffold903_cov126'
p218
aS'scaffold1840_cov66'
p219
aa(lp220
S'scaffold12706_cov81'
p221
aS'scaffold16044_cov69'
p222
aa(lp223
S'scaffold34941_cov134'
p224
aS'scaffold1333_cov60'
p225
aa(lp226
S'scaffold4413_cov63'
p227
aS'scaffold15975_cov67'
p228
aa(lp229
S'scaffold6820_cov103'
p230
aS'scaffold6818_cov67'
p231
aa(lp232
S'scaffold4931_cov109'
p233
aS'scaffold2702_cov92'
p234
aa(lp235
S'scaffold3133_cov141'
p236
aS'scaffold30966_cov62'
p237
aa(lp238
S'scaffold6620_cov103'
p239
aS'scaffold7907_cov67'
p240
aa(lp241
S'scaffold95367_cov139'
p242
aS'scaffold95366_cov79'
p243
aa(lp244
S'scaffold9131_cov93'
p245
aS'scaffold28864_cov67'
p246
aa(lp247
S'scaffold19827_cov125'
p248
aS'scaffold167515_cov69'
p249
aa(lp250
S'scaffold5296_cov115'
p251
aS'scaffold2979_cov71'
p252
aa(lp253
S'scaffold35735_cov102'
p254
aS'scaffold4162_cov69'
p255
aa(lp256
S'scaffold36202_cov116'
p257
aS'scaffold32923_cov104'
p258
aa(lp259
S'scaffold14189_cov153'
p260
aS'scaffold2637_cov71'
p261
aa(lp262
S'scaffold1394_cov148'
p263
aS'scaffold1395_cov70'
p264
aa(lp265
S'scaffold165441_cov141'
p266
aS'scaffold2849_cov95'
p267
aa(lp268
S'scaffold21927_cov117'
p269
aS'scaffold6252_cov71'
p270
aa(lp271
S'scaffold8966_cov109'
p272
aS'scaffold3586_cov72'
p273
aa(lp274
S'scaffold514_cov77'
p275
aS'scaffold2213_cov74'
p276
aa(lp277
S'scaffold3987_cov100'
p278
aS'scaffold14924_cov62'
p279
aa(lp280
S'scaffold2987_cov88'
p281
aS'scaffold4224_cov73'
p282
aa(lp283
S'scaffold164974_cov139'
p284
aS'scaffold2833_cov61'
p285
aa(lp286
S'scaffold3477_cov108'
p287
aS'scaffold10061_cov67'
p288
aa(lp289
S'scaffold9403_cov96'
p290
aS'scaffold23269_cov69'
p291
aa(lp292
S'scaffold48176_cov76'
p293
aS'scaffold42838_cov68'
p294
aa(lp295
S'scaffold3722_cov135'
p296
aS'scaffold3719_cov67'
p297
aa(lp298
S'scaffold165461_cov100'
p299
aS'scaffold10491_cov66'
p300
aa(lp301
S'scaffold14267_cov83'
p302
aS'scaffold1125_cov68'
p303
aa(lp304
S'scaffold32619_cov118'
p305
aS'scaffold20061_cov80'
p306
aa(lp307
S'scaffold3738_cov114'
p308
aS'scaffold11440_cov66'
p309
aa(lp310
S'scaffold11968_cov142'
p311
aS'scaffold3404_cov63'
p312
aa(lp313
S'scaffold4957_cov147'
p314
aS'scaffold2304_cov67'
p315
aa(lp316
S'scaffold6014_cov96'
p317
aS'scaffold69980_cov67'
p318
aa(lp319
S'scaffold117137_cov65'
p320
aS'scaffold17627_cov105'
p321
aa(lp322
S'scaffold165395_cov77'
p323
aS'scaffold42402_cov68'
p324
aa(lp325
S'scaffold12770_cov157'
p326
aS'scaffold21646_cov62'
p327
aa(lp328
S'scaffold2416_cov137'
p329
aS'scaffold16788_cov63'
p330
aa(lp331
S'scaffold167565_cov117'
p332
aS'scaffold893_cov66'
p333
aa(lp334
S'scaffold49558_cov135'
p335
aS'scaffold10462_cov135'
p336
aa(lp337
S'scaffold25651_cov100'
p338
aS'scaffold46961_cov69'
p339
aa(lp340
S'scaffold14527_cov64'
p341
aS'scaffold14528_cov66'
p342
aa(lp343
S'scaffold3122_cov145'
p344
aS'scaffold3123_cov67'
p345
aa(lp346
S'scaffold8282_cov147'
p347
aS'scaffold8279_cov69'
p348
aa(lp349
S'scaffold903_cov126'
p350
aS'scaffold900_cov65'
p351
aa(lp352
S'scaffold26778_cov137'
p353
aS'scaffold13891_cov62'
p354
aa(lp355
S'scaffold7194_cov116'
p356
aS'scaffold6437_cov66'
p357
aa(lp358
S'scaffold33427_cov79'
p359
aS'scaffold1498_cov63'
p360
aa(lp361
S'scaffold70862_cov124'
p362
aS'scaffold34357_cov65'
p363
aa(lp364
S'scaffold14197_cov99'
p365
aS'scaffold6524_cov65'
p366
aa(lp367
S'scaffold15885_cov116'
p368
aS'scaffold15073_cov71'
p369
aa(lp370
S'scaffold3010_cov130'
p371
aS'scaffold3009_cov66'
p372
aa(lp373
S'scaffold34740_cov99'
p374
aS'scaffold10321_cov72'
p375
aa(lp376
S'scaffold45626_cov132'
p377
aS'scaffold26610_cov67'
p378
aa(lp379
S'scaffold19276_cov115'
p380
aS'scaffold33185_cov125'
p381
aa(lp382
S'scaffold13917_cov148'
p383
aS'scaffold5199_cov65'
p384
aa(lp385
S'scaffold4489_cov91'
p386
aS'scaffold166706_cov72'
p387
aa(lp388
S'scaffold23696_cov107'
p389
aS'scaffold46569_cov79'
p390
aa(lp391
S'scaffold14010_cov120'
p392
aS'scaffold9558_cov65'
p393
aa(lp394
S'scaffold7174_cov138'
p395
aS'scaffold6615_cov72'
p396
aa(lp397
S'scaffold8983_cov110'
p398
aS'scaffold5722_cov65'
p399
aa(lp400
S'scaffold165507_cov120'
p401
aS'scaffold1649_cov91'
p402
aa(lp403
S'scaffold7147_cov103'
p404
aS'scaffold7146_cov65'
p405
aa(lp406
S'scaffold166767_cov133'
p407
aS'scaffold166788_cov64'
p408
aa(lp409
S'scaffold14010_cov120'
p410
aS'scaffold20924_cov70'
p411
aa(lp412
S'scaffold14968_cov70'
p413
aS'scaffold5208_cov124'
p414
aa(lp415
S'scaffold33079_cov127'
p416
aS'scaffold21398_cov73'
p417
aa(lp418
S'scaffold45339_cov132'
p419
aS'scaffold5542_cov64'
p420
aa(lp421
S'scaffold37263_cov117'
p422
aS'scaffold4202_cov67'
p423
aa(lp424
S'scaffold62223_cov138'
p425
aS'scaffold41553_cov82'
p426
aa(lp427
S'scaffold167537_cov112'
p428
aS'scaffold540_cov68'
p429
aa(lp430
S'scaffold1030_cov88'
p431
aS'scaffold20924_cov70'
p432
aa(lp433
S'scaffold5060_cov136'
p434
aS'scaffold5059_cov70'
p435
aa(lp436
S'scaffold2398_cov98'
p437
aS'scaffold2617_cov76'
p438
aa(lp439
S'scaffold9303_cov137'
p440
aS'scaffold3018_cov62'
p441
aa(lp442
S'scaffold28224_cov147'
p443
aS'scaffold166774_cov71'
p444
aa(lp445
S'scaffold165413_cov124'
p446
aS'scaffold1323_cov67'
p447
aa(lp448
S'scaffold1637_cov151'
p449
aS'scaffold20670_cov68'
p450
aa(lp451
S'scaffold36067_cov121'
p452
aS'scaffold10421_cov69'
p453
aa(lp454
S'scaffold9037_cov132'
p455
aS'scaffold7705_cov77'
p456
aa(lp457
S'scaffold38008_cov141'
p458
aS'scaffold5960_cov65'
p459
aa(lp460
S'scaffold7174_cov138'
p461
aS'scaffold2501_cov70'
p462
aa(lp463
S'scaffold7264_cov122'
p464
aS'scaffold10275_cov68'
p465
aa(lp466
S'scaffold90706_cov103'
p467
aS'scaffold2061_cov67'
p468
aa(lp469
S'scaffold8011_cov68'
p470
aS'scaffold20641_cov90'
p471
aa(lp472
S'scaffold25662_cov161'
p473
aS'scaffold25660_cov79'
p474
aa(lp475
S'scaffold3559_cov143'
p476
aS'scaffold9683_cov69'
p477
aa(lp478
S'scaffold25492_cov142'
p479
aS'scaffold24079_cov69'
p480
aa(lp481
S'scaffold18420_cov96'
p482
aS'scaffold167535_cov101'
p483
aa(lp484
S'scaffold51750_cov85'
p485
aS'scaffold39128_cov65'
p486
aa(lp487
S'scaffold9703_cov100'
p488
aS'scaffold166756_cov71'
p489
aa(lp490
S'scaffold12601_cov106'
p491
aS'scaffold12765_cov63'
p492
aa(lp493
S'scaffold4941_cov130'
p494
aS'scaffold29738_cov68'
p495
aa(lp496
S'scaffold9324_cov148'
p497
aS'scaffold9325_cov63'
p498
aa(lp499
S'scaffold29312_cov132'
p500
aS'scaffold9996_cov69'
p501
aa(lp502
S'scaffold17051_cov101'
p503
aS'scaffold2939_cov64'
p504
aa(lp505
S'scaffold10858_cov149'
p506
aS'scaffold10857_cov70'
p507
aa(lp508
S'scaffold43497_cov152'
p509
aS'scaffold48022_cov63'
p510
aa(lp511
S'scaffold6824_cov114'
p512
aS'scaffold542_cov70'
p513
aa(lp514
S'scaffold10713_cov124'
p515
aS'scaffold4604_cov80'
p516
aa(lp517
S'scaffold21338_cov100'
p518
aS'scaffold8647_cov65'
p519
aa(lp520
S'scaffold18416_cov135'
p521
aS'scaffold16862_cov66'
p522
aa(lp523
S'scaffold17874_cov144'
p524
aS'scaffold38164_cov70'
p525
aa(lp526
S'scaffold19924_cov91'
p527
aS'scaffold10385_cov64'
p528
aa(lp529
S'scaffold1491_cov109'
p530
aS'scaffold3256_cov68'
p531
aa(lp532
S'scaffold167598_cov96'
p533
aS'scaffold7183_cov82'
p534
aa(lp535
S'scaffold3807_cov105'
p536
aS'scaffold3967_cov66'
p537
aa(lp538
S'scaffold182819_cov255'
p539
aS'scaffold2675_cov72'
p540
aa(lp541
S'scaffold1354_cov130'
p542
aS'scaffold8335_cov68'
p543
aa(lp544
S'scaffold77207_cov117'
p545
aS'scaffold43353_cov68'
p546
aa(lp547
S'scaffold36663_cov134'
p548
aS'scaffold75670_cov64'
p549
aa(lp550
S'scaffold843_cov127'
p551
aS'scaffold844_cov69'
p552
aa(lp553
S'scaffold6481_cov91'
p554
aS'scaffold47796_cov64'
p555
aa(lp556
S'scaffold10670_cov88'
p557
aS'scaffold7453_cov60'
p558
aa(lp559
S'scaffold18912_cov140'
p560
aS'scaffold18914_cov65'
p561
aa(lp562
S'scaffold3349_cov142'
p563
aS'scaffold5670_cov74'
p564
aa(lp565
S'scaffold11081_cov88'
p566
aS'scaffold26032_cov70'
p567
aa(lp568
S'scaffold2048_cov125'
p569
aS'scaffold7977_cov71'
p570
aa(lp571
S'scaffold11204_cov106'
p572
aS'scaffold30140_cov63'
p573
aa(lp574
S'scaffold167504_cov85'
p575
aS'scaffold17931_cov63'
p576
aa(lp577
S'scaffold6426_cov139'
p578
aS'scaffold6427_cov67'
p579
aa(lp580
S'scaffold165417_cov143'
p581
aS'scaffold16672_cov63'
p582
aa(lp583
S'scaffold36663_cov134'
p584
aS'scaffold30167_cov70'
p585
aa(lp586
S'scaffold18584_cov139'
p587
aS'scaffold15986_cov63'
p588
aa(lp589
S'scaffold73411_cov102'
p590
aS'scaffold25947_cov73'
p591
aa(lp592
S'scaffold14567_cov126'
p593
aS'scaffold42400_cov69'
p594
aa(lp595
S'scaffold6704_cov127'
p596
aS'scaffold6524_cov65'
p597
aa(lp598
S'scaffold18457_cov115'
p599
aS'scaffold32162_cov89'
p600
aa(lp601
S'scaffold1978_cov92'
p602
aS'scaffold2699_cov70'
p603
aa(lp604
S'scaffold43863_cov126'
p605
aS'scaffold7672_cov74'
p606
aa(lp607
S'scaffold10581_cov98'
p608
aS'scaffold17516_cov69'
p609
aa(lp610
S'scaffold4107_cov90'
p611
aS'scaffold6409_cov65'
p612
aa(lp613
S'scaffold165573_cov134'
p614
aS'scaffold6928_cov65'
p615
aa(lp616
S'scaffold721_cov134'
p617
aS'scaffold720_cov79'
p618
aa(lp619
S'scaffold9757_cov95'
p620
aS'scaffold3630_cov66'
p621
aa(lp622
S'scaffold18542_cov139'
p623
aS'scaffold26015_cov66'
p624
aa(lp625
S'scaffold4321_cov104'
p626
aS'scaffold9387_cov68'
p627
aa(lp628
S'scaffold167650_cov100'
p629
aS'scaffold21768_cov66'
p630
aa(lp631
S'scaffold34203_cov139'
p632
aS'scaffold18396_cov65'
p633
aa(lp634
S'scaffold3745_cov115'
p635
aS'scaffold7430_cov66'
p636
aa(lp637
S'scaffold181240_cov148'
p638
aS'scaffold59620_cov74'
p639
aa(lp640
S'scaffold27354_cov105'
p641
aS'scaffold16165_cov73'
p642
aa(lp643
S'scaffold11499_cov143'
p644
aS'scaffold19165_cov65'
p645
aa(lp646
S'scaffold166682_cov143'
p647
aS'scaffold374_cov71'
p648
aa(lp649
S'scaffold167515_cov69'
p650
aS'scaffold1497_cov69'
p651
aa(lp652
S'scaffold11274_cov111'
p653
aS'scaffold2804_cov69'
p654
aa(lp655
S'scaffold73058_cov93'
p656
aS'scaffold5775_cov75'
p657
aa(lp658
S'scaffold3566_cov79'
p659
aS'scaffold4610_cov62'
p660
aa(lp661
S'scaffold12892_cov134'
p662
aS'scaffold47938_cov75'
p663
aa(lp664
S'scaffold4939_cov152'
p665
aS'scaffold4940_cov72'
p666
aa(lp667
S'scaffold13862_cov109'
p668
aS'scaffold8878_cov69'
p669
aa(lp670
S'scaffold166331_cov132'
p671
aS'scaffold8565_cov73'
p672
aa(lp673
S'scaffold14578_cov124'
p674
aS'scaffold14579_cov112'
p675
aa(lp676
S'scaffold26431_cov130'
p677
aS'scaffold15686_cov66'
p678
aa(lp679
S'scaffold9117_cov151'
p680
aS'scaffold9115_cov70'
p681
aa(lp682
S'scaffold1006_cov111'
p683
aS'scaffold1003_cov64'
p684
aa(lp685
S'scaffold7298_cov66'
p686
aS'scaffold5572_cov101'
p687
aa(lp688
S'scaffold19598_cov123'
p689
aS'scaffold12870_cov60'
p690
aa(lp691
S'scaffold57805_cov71'
p692
aS'scaffold166809_cov123'
p693
aa(lp694
S'scaffold6206_cov112'
p695
aS'scaffold19927_cov67'
p696
aa(lp697
S'scaffold1808_cov87'
p698
aS'scaffold18178_cov78'
p699
aa(lp700
S'scaffold4678_cov116'
p701
aS'scaffold46295_cov125'
p702
aa(lp703
S'scaffold3133_cov141'
p704
aS'scaffold3135_cov68'
p705
aa(lp706
S'scaffold182_cov83'
p707
aS'scaffold16044_cov69'
p708
aa(lp709
S'scaffold20825_cov153'
p710
aS'scaffold20824_cov72'
p711
aa(lp712
S'scaffold94664_cov148'
p713
aS'scaffold11692_cov72'
p714
aa(lp715
S'scaffold45520_cov151'
p716
aS'scaffold45518_cov71'
p717
aa(lp718
S'scaffold49421_cov62'
p719
aS'scaffold1071_cov92'
p720
aa(lp721
S'scaffold3432_cov123'
p722
aS'scaffold3406_cov67'
p723
aa(lp724
S'scaffold12001_cov141'
p725
aS'scaffold12003_cov68'
p726
aa(lp727
S'scaffold5456_cov152'
p728
aS'scaffold67160_cov58'
p729
aa(lp730
S'scaffold166729_cov102'
p731
aS'scaffold165425_cov72'
p732
aa(lp733
S'scaffold21534_cov145'
p734
aS'scaffold21531_cov67'
p735
aa(lp736
S'scaffold9312_cov104'
p737
aS'scaffold35511_cov69'
p738
aa(lp739
S'scaffold55111_cov144'
p740
aS'scaffold55112_cov70'
p741
aa(lp742
S'scaffold25594_cov137'
p743
aS'scaffold19109_cov84'
p744
aa(lp745
S'scaffold12903_cov71'
p746
aS'scaffold10491_cov66'
p747
aa(lp748
S'scaffold33902_cov94'
p749
aS'scaffold8504_cov71'
p750
aa(lp751
S'scaffold27219_cov142'
p752
aS'scaffold16554_cov65'
p753
aa(lp754
S'scaffold165434_cov141'
p755
aS'scaffold29886_cov66'
p756
aa(lp757
S'scaffold1435_cov93'
p758
aS'scaffold4122_cov62'
p759
aa(lp760
S'scaffold95123_cov91'
p761
aS'scaffold2350_cov77'
p762
aa(lp763
S'scaffold11842_cov94'
p764
aS'scaffold158_cov68'
p765
aa(lp766
S'scaffold34153_cov147'
p767
aS'scaffold48213_cov76'
p768
aa(lp769
S'scaffold141950_cov79'
p770
aS'scaffold9327_cov109'
p771
aa(lp772
S'scaffold7481_cov74'
p773
aS'scaffold89446_cov79'
p774
aa(lp775
S'scaffold5399_cov135'
p776
aS'scaffold14003_cov64'
p777
aa(lp778
S'scaffold19197_cov73'
p779
aS'scaffold4030_cov67'
p780
aa(lp781
S'scaffold63014_cov63'
p782
aS'scaffold35689_cov78'
p783
aa(lp784
S'scaffold16608_cov151'
p785
aS'scaffold117332_cov60'
p786
aa(lp787
S'scaffold5433_cov148'
p788
aS'scaffold4791_cov68'
p789
aa(lp790
S'scaffold16606_cov107'
p791
aS'scaffold42581_cov70'
p792
aa(lp793
S'scaffold2507_cov119'
p794
aS'scaffold414_cov67'
p795
aa(lp796
S'scaffold6378_cov134'
p797
aS'scaffold6379_cov64'
p798
aa(lp799
S'scaffold6580_cov70'
p800
aS'scaffold36738_cov76'
p801
aa(lp802
S'scaffold27251_cov134'
p803
aS'scaffold26715_cov65'
p804
aa(lp805
S'scaffold34705_cov67'
p806
aS'scaffold104_cov67'
p807
aa(lp808
S'scaffold7224_cov118'
p809
aS'scaffold775_cov72'
p810
aa(lp811
S'scaffold6055_cov140'
p812
aS'scaffold30423_cov65'
p813
aa(lp814
S'scaffold1760_cov96'
p815
aS'scaffold1762_cov75'
p816
aa(lp817
S'scaffold213265_cov125'
p818
aS'scaffold13885_cov142'
p819
aa(lp820
S'scaffold178103_cov209'
p821
aS'scaffold16632_cov63'
p822
aa(lp823
S'scaffold36163_cov117'
p824
aS'scaffold6928_cov65'
p825
aa(lp826
S'scaffold7438_cov111'
p827
aS'scaffold279_cov75'
p828
aa(lp829
S'scaffold167503_cov98'
p830
aS'scaffold7473_cov63'
p831
aa(lp832
S'scaffold1316_cov119'
p833
aS'scaffold5085_cov79'
p834
aa(lp835
S'scaffold17086_cov103'
p836
aS'scaffold17615_cov61'
p837
aa(lp838
S'scaffold14104_cov135'
p839
aS'scaffold22906_cov63'
p840
aa(lp841
S'scaffold107606_cov134'
p842
aS'scaffold107607_cov79'
p843
aa(lp844
S'scaffold164980_cov146'
p845
aS'scaffold3955_cov67'
p846
aa(lp847
S'scaffold15395_cov68'
p848
aS'scaffold114629_cov63'
p849
aa(lp850
S'scaffold21352_cov62'
p851
aS'scaffold78461_cov65'
p852
aa(lp853
S'scaffold22793_cov63'
p854
aS'scaffold22791_cov67'
p855
aa(lp856
S'scaffold5694_cov90'
p857
aS'scaffold21004_cov60'
p858
aa(lp859
S'scaffold10298_cov88'
p860
aS'scaffold12318_cov65'
p861
aa(lp862
S'scaffold8620_cov63'
p863
aS'scaffold23855_cov65'
p864
aa(lp865
S'scaffold1518_cov144'
p866
aS'scaffold7273_cov73'
p867
aa(lp868
S'scaffold3714_cov147'
p869
aS'scaffold3718_cov71'
p870
aa(lp871
S'scaffold20332_cov97'
p872
aS'scaffold7080_cov68'
p873
aa(lp874
S'scaffold49078_cov128'
p875
aS'scaffold54587_cov60'
p876
aa(lp877
S'scaffold10475_cov143'
p878
aS'scaffold10474_cov65'
p879
aa(lp880
S'scaffold6306_cov146'
p881
aS'scaffold6305_cov69'
p882
aa(lp883
S'scaffold1865_cov101'
p884
aS'scaffold58306_cov63'
p885
aa(lp886
S'scaffold11499_cov143'
p887
aS'scaffold11874_cov70'
p888
aa(lp889
S'scaffold34203_cov139'
p890
aS'scaffold15986_cov63'
p891
aa(lp892
S'scaffold4589_cov98'
p893
aS'scaffold4585_cov69'
p894
aa(lp895
S'scaffold2129_cov167'
p896
aS'scaffold92330_cov67'
p897
aa(lp898
S'scaffold34203_cov139'
p899
aS'scaffold4395_cov68'
p900
aa(lp901
S'scaffold5847_cov85'
p902
aS'scaffold4052_cov74'
p903
aa(lp904
S'scaffold10574_cov127'
p905
aS'scaffold11171_cov138'
p906
aa(lp907
S'scaffold5348_cov143'
p908
aS'scaffold91295_cov60'
p909
aa(lp910
S'scaffold22816_cov146'
p911
aS'scaffold22815_cov69'
p912
aa(lp913
S'scaffold122299_cov139'
p914
aS'scaffold122298_cov65'
p915
aa(lp916
S'scaffold18351_cov137'
p917
aS'scaffold16169_cov72'
p918
aa(lp919
S'scaffold15731_cov124'
p920
aS'scaffold1701_cov70'
p921
aa(lp922
S'scaffold1170_cov146'
p923
aS'scaffold69771_cov67'
p924
aa(lp925
S'scaffold3741_cov108'
p926
aS'scaffold2061_cov67'
p927
aa(lp928
S'scaffold1461_cov134'
p929
aS'scaffold13020_cov66'
p930
aa(lp931
S'scaffold16201_cov125'
p932
aS'scaffold51827_cov73'
p933
aa(lp934
S'scaffold21068_cov65'
p935
aS'scaffold10337_cov80'
p936
aa(lp937
S'scaffold6532_cov126'
p938
aS'scaffold5058_cov63'
p939
aa(lp940
S'scaffold38959_cov135'
p941
aS'scaffold57178_cov79'
p942
aa(lp943
S'scaffold17601_cov135'
p944
aS'scaffold1994_cov63'
p945
aa(lp946
S'scaffold16294_cov110'
p947
aS'scaffold7481_cov74'
p948
aa(lp949
S'scaffold31627_cov123'
p950
aS'scaffold1614_cov71'
p951
aa(lp952
S'scaffold5399_cov135'
p953
aS'scaffold8409_cov62'
p954
aa(lp955
S'scaffold4605_cov69'
p956
aS'scaffold4604_cov80'
p957
aa(lp958
S'scaffold13624_cov94'
p959
aS'scaffold72210_cov77'
p960
aa(lp961
S'scaffold19315_cov107'
p962
aS'scaffold7113_cov70'
p963
aa(lp964
S'scaffold165629_cov145'
p965
aS'scaffold33634_cov72'
p966
aa(lp967
S'scaffold183201_cov134'
p968
aS'scaffold6997_cov65'
p969
aa(lp970
S'scaffold22010_cov97'
p971
aS'scaffold401_cov67'
p972
aa(lp973
S'scaffold17015_cov140'
p974
aS'scaffold4528_cov69'
p975
aa(lp976
S'scaffold21453_cov86'
p977
aS'scaffold4784_cov67'
p978
aa(lp979
S'scaffold13852_cov94'
p980
aS'scaffold7585_cov68'
p981
aa(lp982
S'scaffold165420_cov139'
p983
aS'scaffold27291_cov70'
p984
aa(lp985
S'scaffold476_cov90'
p986
aS'scaffold8782_cov64'
p987
aa(lp988
S'scaffold9044_cov136'
p989
aS'scaffold2501_cov70'
p990
aa(lp991
S'scaffold60916_cov101'
p992
aS'scaffold2562_cov78'
p993
aa(lp994
S'scaffold6452_cov96'
p995
aS'scaffold5694_cov90'
p996
aa(lp997
S'scaffold4116_cov143'
p998
aS'scaffold6097_cov70'
p999
aa(lp1000
S'scaffold451_cov146'
p1001
aS'scaffold449_cov70'
p1002
aa(lp1003
S'scaffold167824_cov153'
p1004
aS'scaffold540_cov68'
p1005
aa(lp1006
S'scaffold182_cov83'
p1007
aS'scaffold3533_cov68'
p1008
aa(lp1009
S'scaffold167494_cov111'
p1010
aS'scaffold12899_cov60'
p1011
aa(lp1012
S'scaffold3456_cov132'
p1013
aS'scaffold166714_cov62'
p1014
aa(lp1015
S'scaffold37213_cov79'
p1016
aS'scaffold29941_cov91'
p1017
aa(lp1018
S'scaffold183613_cov153'
p1019
aS'scaffold5720_cov71'
p1020
aa(lp1021
S'scaffold7005_cov65'
p1022
aS'scaffold7006_cov83'
p1023
aa(lp1024
S'scaffold10462_cov135'
p1025
aS'scaffold10461_cov66'
p1026
aa(lp1027
S'scaffold5046_cov63'
p1028
aS'scaffold5049_cov88'
p1029
aa(lp1030
S'scaffold19586_cov139'
p1031
aS'scaffold30711_cov65'
p1032
aa.