(lp0
(lp1
S'scaffold362_cov88'
p2
aS'scaffold361_cov52'
p3
aa(lp4
S'scaffold6032_cov86'
p5
aS'scaffold6010_cov62'
p6
aa(lp7
S'scaffold14_cov100'
p8
aS'scaffold8499_cov57'
p9
aa(lp10
S'scaffold37470_cov151'
p11
aS'scaffold23346_cov53'
p12
aa(lp13
S'scaffold16801_cov94'
p14
aS'scaffold20051_cov88'
p15
aa(lp16
S'scaffold32_cov80'
p17
aS'scaffold9366_cov65'
p18
aa(lp19
S'scaffold5664_cov97'
p20
aS'scaffold8637_cov48'
p21
aa(lp22
S'scaffold9935_cov102'
p23
aS'scaffold15216_cov95'
p24
aa(lp25
S'scaffold1778_cov83'
p26
aS'scaffold1307_cov71'
p27
aa(lp28
S'scaffold146_cov83'
p29
aS'scaffold6515_cov62'
p30
aa(lp31
S'scaffold42461_cov100'
p32
aS'scaffold7156_cov63'
p33
aa(lp34
S'scaffold37339_cov109'
p35
aS'scaffold7846_cov55'
p36
aa(lp37
S'scaffold3183_cov139'
p38
aS'scaffold3621_cov101'
p39
aa(lp40
S'scaffold5118_cov85'
p41
aS'scaffold5119_cov50'
p42
aa(lp43
S'scaffold174_cov95'
p44
aS'scaffold1036_cov100'
p45
aa(lp46
S'scaffold37758_cov123'
p47
aS'scaffold878_cov66'
p48
aa(lp49
S'scaffold8360_cov69'
p50
aS'scaffold2212_cov51'
p51
aa(lp52
S'scaffold4094_cov85'
p53
aS'scaffold4328_cov64'
p54
aa(lp55
S'scaffold5823_cov93'
p56
aS'scaffold687_cov68'
p57
aa(lp58
S'scaffold26400_cov107'
p59
aS'scaffold26402_cov46'
p60
aa(lp61
S'scaffold28921_cov145'
p62
aS'scaffold41142_cov161'
p63
aa(lp64
S'scaffold5663_cov69'
p65
aS'scaffold5328_cov53'
p66
aa(lp67
S'scaffold497_cov71'
p68
aS'scaffold35984_cov60'
p69
aa(lp70
S'scaffold1537_cov77'
p71
aS'scaffold772_cov56'
p72
aa(lp73
S'scaffold1673_cov68'
p74
aS'scaffold1672_cov57'
p75
aa(lp76
S'scaffold10915_cov72'
p77
aS'scaffold5164_cov59'
p78
aa(lp79
S'scaffold16656_cov56'
p80
aS'scaffold1461_cov54'
p81
aa(lp82
S'scaffold12036_cov77'
p83
aS'scaffold2530_cov71'
p84
aa(lp85
S'scaffold39016_cov111'
p86
aS'scaffold2786_cov74'
p87
aa(lp88
S'scaffold33286_cov88'
p89
aS'scaffold10537_cov54'
p90
aa(lp91
S'scaffold3719_cov93'
p92
aS'scaffold28403_cov55'
p93
aa(lp94
S'scaffold20937_cov59'
p95
aS'scaffold7528_cov114'
p96
aa(lp97
S'scaffold16506_cov55'
p98
aS'scaffold19259_cov55'
p99
aa(lp100
S'scaffold52619_cov115'
p101
aS'scaffold6959_cov64'
p102
aa(lp103
S'scaffold1981_cov53'
p104
aS'scaffold1561_cov50'
p105
aa(lp106
S'scaffold7470_cov77'
p107
aS'scaffold5211_cov57'
p108
aa(lp109
S'scaffold10002_cov126'
p110
aS'scaffold57_cov62'
p111
aa(lp112
S'scaffold13919_cov66'
p113
aS'scaffold7244_cov53'
p114
aa(lp115
S'scaffold40182_cov165'
p116
aS'scaffold2317_cov61'
p117
aa(lp118
S'scaffold9133_cov84'
p119
aS'scaffold507_cov73'
p120
aa(lp121
S'scaffold34228_cov83'
p122
aS'scaffold12788_cov56'
p123
aa(lp124
S'scaffold3118_cov72'
p125
aS'scaffold11587_cov65'
p126
aa(lp127
S'scaffold36090_cov104'
p128
aS'scaffold33623_cov60'
p129
aa(lp130
S'scaffold2297_cov70'
p131
aS'scaffold5466_cov54'
p132
aa(lp133
S'scaffold11940_cov99'
p134
aS'scaffold607_cov59'
p135
aa(lp136
S'scaffold832_cov72'
p137
aS'scaffold19517_cov60'
p138
aa(lp139
S'scaffold3771_cov131'
p140
aS'scaffold487_cov56'
p141
aa(lp142
S'scaffold35981_cov85'
p143
aS'scaffold4668_cov92'
p144
aa(lp145
S'scaffold13336_cov75'
p146
aS'scaffold5700_cov54'
p147
aa(lp148
S'scaffold1671_cov114'
p149
aS'scaffold16650_cov62'
p150
aa(lp151
S'scaffold23308_cov74'
p152
aS'scaffold5768_cov48'
p153
aa(lp154
S'scaffold17489_cov70'
p155
aS'scaffold36821_cov56'
p156
aa(lp157
S'scaffold6606_cov160'
p158
aS'scaffold36583_cov64'
p159
aa(lp160
S'scaffold2945_cov79'
p161
aS'scaffold2786_cov74'
p162
aa(lp163
S'scaffold7572_cov84'
p164
aS'scaffold7573_cov53'
p165
aa(lp166
S'scaffold6021_cov51'
p167
aS'scaffold9331_cov54'
p168
aa(lp169
S'scaffold5817_cov105'
p170
aS'scaffold480_cov57'
p171
aa(lp172
S'scaffold15659_cov85'
p173
aS'scaffold713_cov67'
p174
aa(lp175
S'scaffold33586_cov59'
p176
aS'scaffold10095_cov71'
p177
aa(lp178
S'scaffold27913_cov149'
p179
aS'scaffold565_cov58'
p180
aa(lp181
S'scaffold608_cov87'
p182
aS'scaffold1828_cov67'
p183
aa(lp184
S'scaffold10188_cov85'
p185
aS'scaffold3646_cov69'
p186
aa(lp187
S'scaffold14528_cov78'
p188
aS'scaffold7703_cov52'
p189
aa(lp190
S'scaffold35197_cov159'
p191
aS'scaffold1670_cov61'
p192
aa(lp193
S'scaffold1281_cov80'
p194
aS'scaffold33702_cov55'
p195
aa(lp196
S'scaffold34231_cov91'
p197
aS'scaffold39009_cov103'
p198
aa(lp199
S'scaffold34360_cov143'
p200
aS'scaffold35_cov50'
p201
aa(lp202
S'scaffold5777_cov82'
p203
aS'scaffold6784_cov56'
p204
aa(lp205
S'scaffold23743_cov66'
p206
aS'scaffold10910_cov53'
p207
aa(lp208
S'scaffold15690_cov108'
p209
aS'scaffold36775_cov68'
p210
aa(lp211
S'scaffold826_cov79'
p212
aS'scaffold1933_cov76'
p213
aa(lp214
S'scaffold14170_cov69'
p215
aS'scaffold47_cov51'
p216
aa(lp217
S'scaffold8073_cov71'
p218
aS'scaffold7766_cov56'
p219
aa(lp220
S'scaffold8487_cov70'
p221
aS'scaffold1201_cov53'
p222
aa(lp223
S'scaffold1740_cov88'
p224
aS'scaffold19477_cov64'
p225
aa(lp226
S'scaffold2946_cov99'
p227
aS'scaffold8059_cov49'
p228
aa(lp229
S'scaffold7406_cov97'
p230
aS'scaffold4048_cov55'
p231
aa(lp232
S'scaffold5498_cov103'
p233
aS'scaffold10506_cov79'
p234
aa(lp235
S'scaffold34278_cov88'
p236
aS'scaffold23473_cov56'
p237
aa(lp238
S'scaffold11518_cov107'
p239
aS'scaffold11517_cov58'
p240
aa(lp241
S'scaffold11140_cov73'
p242
aS'scaffold5096_cov57'
p243
aa(lp244
S'scaffold7234_cov93'
p245
aS'scaffold7575_cov56'
p246
aa(lp247
S'scaffold10758_cov137'
p248
aS'scaffold1943_cov61'
p249
aa(lp250
S'scaffold23544_cov102'
p251
aS'scaffold6429_cov65'
p252
aa(lp253
S'scaffold3688_cov96'
p254
aS'scaffold8941_cov89'
p255
aa(lp256
S'scaffold22301_cov147'
p257
aS'scaffold28236_cov103'
p258
aa(lp259
S'scaffold16639_cov75'
p260
aS'scaffold2248_cov58'
p261
aa(lp262
S'scaffold29903_cov123'
p263
aS'scaffold33612_cov72'
p264
aa(lp265
S'scaffold44933_cov138'
p266
aS'scaffold34976_cov99'
p267
aa(lp268
S'scaffold34278_cov88'
p269
aS'scaffold21922_cov80'
p270
aa(lp271
S'scaffold11533_cov113'
p272
aS'scaffold9543_cov100'
p273
aa(lp274
S'scaffold35156_cov134'
p275
aS'scaffold720_cov51'
p276
aa(lp277
S'scaffold34199_cov83'
p278
aS'scaffold886_cov63'
p279
aa(lp280
S'scaffold827_cov76'
p281
aS'scaffold3365_cov65'
p282
aa(lp283
S'scaffold34599_cov98'
p284
aS'scaffold10866_cov51'
p285
aa(lp286
S'scaffold7200_cov64'
p287
aS'scaffold8638_cov55'
p288
aa(lp289
S'scaffold1950_cov58'
p290
aS'scaffold2587_cov45'
p291
aa(lp292
S'scaffold3303_cov130'
p293
aS'scaffold4478_cov57'
p294
aa(lp295
S'scaffold16314_cov97'
p296
aS'scaffold6478_cov57'
p297
aa(lp298
S'scaffold3443_cov80'
p299
aS'scaffold2211_cov55'
p300
aa(lp301
S'scaffold7965_cov102'
p302
aS'scaffold36789_cov57'
p303
aa(lp304
S'scaffold3742_cov92'
p305
aS'scaffold33263_cov56'
p306
aa(lp307
S'scaffold5955_cov136'
p308
aS'scaffold13833_cov52'
p309
aa(lp310
S'scaffold9707_cov86'
p311
aS'scaffold2016_cov55'
p312
aa(lp313
S'scaffold2676_cov98'
p314
aS'scaffold1670_cov61'
p315
aa(lp316
S'scaffold6173_cov81'
p317
aS'scaffold161_cov85'
p318
aa(lp319
S'scaffold10735_cov120'
p320
aS'scaffold15562_cov57'
p321
aa(lp322
S'scaffold5970_cov74'
p323
aS'scaffold12766_cov71'
p324
aa(lp325
S'scaffold767_cov66'
p326
aS'scaffold20490_cov67'
p327
aa(lp328
S'scaffold24509_cov66'
p329
aS'scaffold14430_cov83'
p330
aa(lp331
S'scaffold17734_cov54'
p332
aS'scaffold4093_cov55'
p333
aa(lp334
S'scaffold4097_cov96'
p335
aS'scaffold1525_cov58'
p336
aa(lp337
S'scaffold5688_cov67'
p338
aS'scaffold25903_cov62'
p339
aa(lp340
S'scaffold55_cov132'
p341
aS'scaffold33949_cov53'
p342
aa(lp343
S'scaffold9666_cov95'
p344
aS'scaffold9665_cov44'
p345
aa(lp346
S'scaffold21076_cov99'
p347
aS'scaffold8059_cov49'
p348
aa(lp349
S'scaffold35940_cov79'
p350
aS'scaffold5213_cov135'
p351
aa(lp352
S'scaffold33245_cov72'
p353
aS'scaffold2355_cov59'
p354
aa(lp355
S'scaffold35057_cov143'
p356
aS'scaffold34175_cov92'
p357
aa(lp358
S'scaffold9871_cov55'
p359
aS'scaffold3224_cov53'
p360
aa(lp361
S'scaffold1390_cov116'
p362
aS'scaffold4621_cov57'
p363
aa(lp364
S'scaffold14725_cov115'
p365
aS'scaffold1554_cov54'
p366
aa(lp367
S'scaffold36895_cov67'
p368
aS'scaffold14776_cov55'
p369
aa(lp370
S'scaffold13613_cov67'
p371
aS'scaffold12316_cov62'
p372
aa(lp373
S'scaffold1036_cov100'
p374
aS'scaffold5066_cov51'
p375
aa(lp376
S'scaffold79_cov102'
p377
aS'scaffold1680_cov53'
p378
aa(lp379
S'scaffold5161_cov62'
p380
aS'scaffold1379_cov53'
p381
aa(lp382
S'scaffold154_cov94'
p383
aS'scaffold3622_cov63'
p384
aa(lp385
S'scaffold36370_cov147'
p386
aS'scaffold35874_cov101'
p387
aa(lp388
S'scaffold8496_cov75'
p389
aS'scaffold10687_cov51'
p390
aa(lp391
S'scaffold3130_cov88'
p392
aS'scaffold36033_cov68'
p393
aa(lp394
S'scaffold5962_cov96'
p395
aS'scaffold20541_cov54'
p396
aa(lp397
S'scaffold3915_cov75'
p398
aS'scaffold1101_cov58'
p399
aa(lp400
S'scaffold19950_cov56'
p401
aS'scaffold8908_cov58'
p402
aa(lp403
S'scaffold2412_cov121'
p404
aS'scaffold37060_cov73'
p405
aa(lp406
S'scaffold3966_cov89'
p407
aS'scaffold33587_cov72'
p408
aa(lp409
S'scaffold4278_cov90'
p410
aS'scaffold12774_cov55'
p411
aa(lp412
S'scaffold101_cov106'
p413
aS'scaffold9445_cov50'
p414
aa(lp415
S'scaffold1402_cov78'
p416
aS'scaffold3254_cov78'
p417
aa(lp418
S'scaffold15918_cov54'
p419
aS'scaffold5262_cov49'
p420
aa(lp421
S'scaffold12329_cov67'
p422
aS'scaffold2853_cov69'
p423
aa(lp424
S'scaffold1554_cov54'
p425
aS'scaffold7086_cov54'
p426
aa(lp427
S'scaffold4147_cov76'
p428
aS'scaffold36003_cov57'
p429
aa(lp430
S'scaffold2637_cov103'
p431
aS'scaffold3877_cov78'
p432
aa(lp433
S'scaffold42399_cov165'
p434
aS'scaffold4701_cov56'
p435
aa(lp436
S'scaffold19063_cov80'
p437
aS'scaffold3937_cov54'
p438
aa(lp439
S'scaffold53087_cov191'
p440
aS'scaffold19558_cov55'
p441
aa(lp442
S'scaffold35995_cov87'
p443
aS'scaffold36022_cov58'
p444
aa(lp445
S'scaffold16447_cov76'
p446
aS'scaffold1525_cov58'
p447
aa(lp448
S'scaffold9352_cov77'
p449
aS'scaffold7181_cov86'
p450
aa(lp451
S'scaffold34289_cov136'
p452
aS'scaffold23854_cov126'
p453
aa(lp454
S'scaffold4050_cov108'
p455
aS'scaffold15254_cov56'
p456
aa(lp457
S'scaffold45026_cov161'
p458
aS'scaffold9651_cov60'
p459
aa(lp460
S'scaffold426_cov79'
p461
aS'scaffold15290_cov65'
p462
aa(lp463
S'scaffold41262_cov172'
p464
aS'scaffold36919_cov73'
p465
aa(lp466
S'scaffold6480_cov125'
p467
aS'scaffold968_cov57'
p468
aa(lp469
S'scaffold159_cov87'
p470
aS'scaffold19164_cov60'
p471
aa(lp472
S'scaffold1007_cov77'
p473
aS'scaffold2714_cov57'
p474
aa(lp475
S'scaffold6200_cov128'
p476
aS'scaffold878_cov66'
p477
aa(lp478
S'scaffold4287_cov88'
p479
aS'scaffold2530_cov71'
p480
aa(lp481
S'scaffold2428_cov67'
p482
aS'scaffold8055_cov67'
p483
aa(lp484
S'scaffold35040_cov139'
p485
aS'scaffold2731_cov57'
p486
aa(lp487
S'scaffold36499_cov103'
p488
aS'scaffold34177_cov82'
p489
aa(lp490
S'scaffold4081_cov103'
p491
aS'scaffold4410_cov60'
p492
aa(lp493
S'scaffold33066_cov68'
p494
aS'scaffold4048_cov55'
p495
aa(lp496
S'scaffold9125_cov84'
p497
aS'scaffold4874_cov72'
p498
aa(lp499
S'scaffold33314_cov52'
p500
aS'scaffold6612_cov63'
p501
aa(lp502
S'scaffold44657_cov149'
p503
aS'scaffold4089_cov52'
p504
aa(lp505
S'scaffold3582_cov122'
p506
aS'scaffold720_cov51'
p507
aa(lp508
S'scaffold36509_cov117'
p509
aS'scaffold2683_cov54'
p510
aa(lp511
S'scaffold9959_cov130'
p512
aS'scaffold16604_cov60'
p513
aa(lp514
S'scaffold56598_cov161'
p515
aS'scaffold5176_cov58'
p516
aa(lp517
S'scaffold34682_cov108'
p518
aS'scaffold411_cov59'
p519
aa(lp520
S'scaffold24304_cov59'
p521
aS'scaffold359_cov50'
p522
aa(lp523
S'scaffold3293_cov67'
p524
aS'scaffold1467_cov54'
p525
aa(lp526
S'scaffold14721_cov66'
p527
aS'scaffold17264_cov49'
p528
aa(lp529
S'scaffold4369_cov78'
p530
aS'scaffold1727_cov50'
p531
aa(lp532
S'scaffold2164_cov100'
p533
aS'scaffold6159_cov60'
p534
aa(lp535
S'scaffold2998_cov77'
p536
aS'scaffold9604_cov73'
p537
aa(lp538
S'scaffold53971_cov161'
p539
aS'scaffold5146_cov52'
p540
aa(lp541
S'scaffold5065_cov145'
p542
aS'scaffold1207_cov107'
p543
aa(lp544
S'scaffold33155_cov116'
p545
aS'scaffold10894_cov83'
p546
aa(lp547
S'scaffold2390_cov64'
p548
aS'scaffold8942_cov56'
p549
aa(lp550
S'scaffold35419_cov111'
p551
aS'scaffold6807_cov54'
p552
aa(lp553
S'scaffold25181_cov79'
p554
aS'scaffold7198_cov59'
p555
aa(lp556
S'scaffold2637_cov103'
p557
aS'scaffold19626_cov63'
p558
aa(lp559
S'scaffold10711_cov58'
p560
aS'scaffold7920_cov76'
p561
aa(lp562
S'scaffold33560_cov76'
p563
aS'scaffold8879_cov52'
p564
aa(lp565
S'scaffold645_cov79'
p566
aS'scaffold33884_cov75'
p567
aa(lp568
S'scaffold22301_cov147'
p569
aS'scaffold6472_cov101'
p570
aa(lp571
S'scaffold50891_cov398'
p572
aS'scaffold909_cov73'
p573
aa(lp574
S'scaffold17539_cov88'
p575
aS'scaffold14622_cov56'
p576
aa(lp577
S'scaffold1103_cov83'
p578
aS'scaffold1104_cov68'
p579
aa(lp580
S'scaffold12642_cov74'
p581
aS'scaffold1985_cov52'
p582
aa(lp583
S'scaffold3014_cov60'
p584
aS'scaffold398_cov53'
p585
aa(lp586
S'scaffold617_cov62'
p587
aS'scaffold3051_cov52'
p588
aa(lp589
S'scaffold53939_cov149'
p590
aS'scaffold8942_cov56'
p591
aa(lp592
S'scaffold306_cov97'
p593
aS'scaffold1432_cov55'
p594
aa(lp595
S'scaffold5491_cov58'
p596
aS'scaffold10112_cov50'
p597
aa(lp598
S'scaffold4550_cov107'
p599
aS'scaffold3432_cov48'
p600
aa(lp601
S'scaffold11820_cov72'
p602
aS'scaffold3429_cov57'
p603
aa(lp604
S'scaffold13367_cov89'
p605
aS'scaffold37302_cov74'
p606
aa(lp607
S'scaffold11190_cov116'
p608
aS'scaffold12855_cov52'
p609
aa(lp610
S'scaffold33248_cov88'
p611
aS'scaffold1972_cov88'
p612
aa(lp613
S'scaffold32491_cov104'
p614
aS'scaffold23375_cov83'
p615
aa(lp616
S'scaffold4313_cov91'
p617
aS'scaffold21487_cov54'
p618
aa(lp619
S'scaffold33155_cov116'
p620
aS'scaffold6384_cov82'
p621
aa(lp622
S'scaffold14844_cov71'
p623
aS'scaffold985_cov66'
p624
aa(lp625
S'scaffold8270_cov118'
p626
aS'scaffold872_cov49'
p627
aa(lp628
S'scaffold58002_cov168'
p629
aS'scaffold27769_cov112'
p630
aa(lp631
S'scaffold35910_cov137'
p632
aS'scaffold3418_cov60'
p633
aa(lp634
S'scaffold33201_cov53'
p635
aS'scaffold7428_cov49'
p636
aa(lp637
S'scaffold3013_cov87'
p638
aS'scaffold2494_cov73'
p639
aa(lp640
S'scaffold3175_cov115'
p641
aS'scaffold733_cov57'
p642
aa(lp643
S'scaffold53186_cov165'
p644
aS'scaffold2900_cov54'
p645
aa(lp646
S'scaffold17628_cov108'
p647
aS'scaffold1969_cov52'
p648
aa(lp649
S'scaffold4178_cov79'
p650
aS'scaffold331_cov56'
p651
aa(lp652
S'scaffold18_cov68'
p653
aS'scaffold4080_cov54'
p654
aa(lp655
S'scaffold9907_cov91'
p656
aS'scaffold2126_cov70'
p657
aa(lp658
S'scaffold50244_cov161'
p659
aS'scaffold4391_cov53'
p660
aa(lp661
S'scaffold24718_cov103'
p662
aS'scaffold26220_cov52'
p663
aa(lp664
S'scaffold9958_cov63'
p665
aS'scaffold4040_cov52'
p666
aa(lp667
S'scaffold38360_cov207'
p668
aS'scaffold20375_cov54'
p669
aa(lp670
S'scaffold931_cov102'
p671
aS'scaffold3401_cov49'
p672
aa(lp673
S'scaffold10310_cov117'
p674
aS'scaffold2088_cov50'
p675
aa(lp676
S'scaffold32857_cov74'
p677
aS'scaffold9215_cov55'
p678
aa(lp679
S'scaffold11819_cov105'
p680
aS'scaffold25653_cov54'
p681
aa(lp682
S'scaffold11537_cov147'
p683
aS'scaffold37592_cov59'
p684
aa(lp685
S'scaffold344_cov95'
p686
aS'scaffold2245_cov55'
p687
aa(lp688
S'scaffold38060_cov100'
p689
aS'scaffold4757_cov67'
p690
aa(lp691
S'scaffold33284_cov157'
p692
aS'scaffold14343_cov60'
p693
aa(lp694
S'scaffold25369_cov123'
p695
aS'scaffold2248_cov58'
p696
aa(lp697
S'scaffold34289_cov136'
p698
aS'scaffold4085_cov106'
p699
aa(lp700
S'scaffold37745_cov103'
p701
aS'scaffold756_cov60'
p702
aa(lp703
S'scaffold18292_cov125'
p704
aS'scaffold11042_cov64'
p705
aa(lp706
S'scaffold7097_cov101'
p707
aS'scaffold1054_cov57'
p708
aa(lp709
S'scaffold3846_cov88'
p710
aS'scaffold1776_cov57'
p711
aa(lp712
S'scaffold17701_cov112'
p713
aS'scaffold7423_cov56'
p714
aa(lp715
S'scaffold5382_cov123'
p716
aS'scaffold143_cov57'
p717
aa(lp718
S'scaffold34267_cov108'
p719
aS'scaffold643_cov63'
p720
aa(lp721
S'scaffold1111_cov107'
p722
aS'scaffold479_cov51'
p723
aa(lp724
S'scaffold5454_cov72'
p725
aS'scaffold5517_cov53'
p726
aa(lp727
S'scaffold19720_cov60'
p728
aS'scaffold8038_cov51'
p729
aa(lp730
S'scaffold5562_cov105'
p731
aS'scaffold6247_cov68'
p732
aa(lp733
S'scaffold36032_cov131'
p734
aS'scaffold15508_cov90'
p735
aa(lp736
S'scaffold37060_cov73'
p737
aS'scaffold3248_cov70'
p738
aa(lp739
S'scaffold10343_cov61'
p740
aS'scaffold3106_cov64'
p741
aa(lp742
S'scaffold14767_cov109'
p743
aS'scaffold32828_cov78'
p744
aa(lp745
S'scaffold3769_cov71'
p746
aS'scaffold18525_cov53'
p747
aa(lp748
S'scaffold39987_cov111'
p749
aS'scaffold7461_cov76'
p750
aa(lp751
S'scaffold25106_cov104'
p752
aS'scaffold55592_cov107'
p753
aa(lp754
S'scaffold14610_cov136'
p755
aS'scaffold2598_cov61'
p756
aa(lp757
S'scaffold2694_cov89'
p758
aS'scaffold36033_cov68'
p759
aa(lp760
S'scaffold17143_cov73'
p761
aS'scaffold18659_cov51'
p762
aa(lp763
S'scaffold32858_cov151'
p764
aS'scaffold255_cov58'
p765
aa(lp766
S'scaffold6209_cov128'
p767
aS'scaffold1667_cov55'
p768
aa(lp769
S'scaffold40047_cov153'
p770
aS'scaffold36009_cov57'
p771
aa(lp772
S'scaffold4668_cov92'
p773
aS'scaffold2804_cov64'
p774
aa(lp775
S'scaffold462_cov72'
p776
aS'scaffold10361_cov51'
p777
aa(lp778
S'scaffold20873_cov79'
p779
aS'scaffold85_cov56'
p780
aa(lp781
S'scaffold13738_cov105'
p782
aS'scaffold11516_cov50'
p783
aa(lp784
S'scaffold15562_cov57'
p785
aS'scaffold17331_cov117'
p786
aa(lp787
S'scaffold18040_cov61'
p788
aS'scaffold4891_cov78'
p789
aa(lp790
S'scaffold1364_cov77'
p791
aS'scaffold2830_cov52'
p792
aa(lp793
S'scaffold2388_cov79'
p794
aS'scaffold3457_cov55'
p795
aa(lp796
S'scaffold14804_cov81'
p797
aS'scaffold8576_cov64'
p798
aa(lp799
S'scaffold5284_cov102'
p800
aS'scaffold18868_cov79'
p801
aa(lp802
S'scaffold37571_cov118'
p803
aS'scaffold14485_cov58'
p804
aa(lp805
S'scaffold1151_cov99'
p806
aS'scaffold5881_cov87'
p807
aa(lp808
S'scaffold14755_cov58'
p809
aS'scaffold1835_cov54'
p810
aa(lp811
S'scaffold34989_cov66'
p812
aS'scaffold5980_cov50'
p813
aa(lp814
S'scaffold7261_cov132'
p815
aS'scaffold6018_cov72'
p816
aa(lp817
S'scaffold25187_cov99'
p818
aS'scaffold3835_cov72'
p819
aa(lp820
S'scaffold16649_cov90'
p821
aS'scaffold33204_cov76'
p822
aa(lp823
S'scaffold2088_cov50'
p824
aS'scaffold21479_cov41'
p825
aa(lp826
S'scaffold14030_cov122'
p827
aS'scaffold350_cov52'
p828
aa(lp829
S'scaffold6757_cov85'
p830
aS'scaffold10114_cov67'
p831
aa(lp832
S'scaffold8823_cov89'
p833
aS'scaffold8357_cov58'
p834
aa(lp835
S'scaffold21582_cov121'
p836
aS'scaffold5370_cov101'
p837
aa(lp838
S'scaffold34332_cov81'
p839
aS'scaffold4339_cov63'
p840
aa(lp841
S'scaffold3128_cov90'
p842
aS'scaffold570_cov75'
p843
aa(lp844
S'scaffold36145_cov66'
p845
aS'scaffold5517_cov53'
p846
aa(lp847
S'scaffold23886_cov86'
p848
aS'scaffold5357_cov53'
p849
aa(lp850
S'scaffold37745_cov103'
p851
aS'scaffold9100_cov54'
p852
aa(lp853
S'scaffold14596_cov132'
p854
aS'scaffold36584_cov77'
p855
aa(lp856
S'scaffold34367_cov119'
p857
aS'scaffold33612_cov72'
p858
aa(lp859
S'scaffold3077_cov95'
p860
aS'scaffold5136_cov47'
p861
aa(lp862
S'scaffold5283_cov61'
p863
aS'scaffold2790_cov71'
p864
aa(lp865
S'scaffold14887_cov139'
p866
aS'scaffold7284_cov54'
p867
aa(lp868
S'scaffold37624_cov98'
p869
aS'scaffold14365_cov55'
p870
aa(lp871
S'scaffold5841_cov52'
p872
aS'scaffold8765_cov54'
p873
aa(lp874
S'scaffold12169_cov151'
p875
aS'scaffold2317_cov61'
p876
aa(lp877
S'scaffold10508_cov75'
p878
aS'scaffold5982_cov55'
p879
aa(lp880
S'scaffold2637_cov103'
p881
aS'scaffold12063_cov48'
p882
aa(lp883
S'scaffold12489_cov66'
p884
aS'scaffold12509_cov75'
p885
aa(lp886
S'scaffold5049_cov79'
p887
aS'scaffold9910_cov51'
p888
aa(lp889
S'scaffold7154_cov101'
p890
aS'scaffold11306_cov90'
p891
aa(lp892
S'scaffold14510_cov60'
p893
aS'scaffold11820_cov72'
p894
aa(lp895
S'scaffold1343_cov77'
p896
aS'scaffold34185_cov69'
p897
aa(lp898
S'scaffold663_cov79'
p899
aS'scaffold2057_cov66'
p900
aa(lp901
S'scaffold8668_cov57'
p902
aS'scaffold11818_cov100'
p903
aa(lp904
S'scaffold154_cov94'
p905
aS'scaffold14496_cov57'
p906
aa(lp907
S'scaffold32065_cov59'
p908
aS'scaffold28048_cov54'
p909
aa(lp910
S'scaffold20331_cov77'
p911
aS'scaffold3358_cov56'
p912
aa(lp913
S'scaffold18278_cov58'
p914
aS'scaffold2739_cov53'
p915
aa(lp916
S'scaffold4918_cov110'
p917
aS'scaffold1432_cov55'
p918
aa(lp919
S'scaffold9750_cov109'
p920
aS'scaffold23746_cov60'
p921
aa(lp922
S'scaffold6457_cov56'
p923
aS'scaffold36776_cov56'
p924
aa(lp925
S'scaffold36466_cov115'
p926
aS'scaffold6807_cov54'
p927
aa(lp928
S'scaffold1850_cov129'
p929
aS'scaffold4085_cov106'
p930
aa(lp931
S'scaffold5518_cov59'
p932
aS'scaffold21109_cov47'
p933
aa(lp934
S'scaffold3753_cov79'
p935
aS'scaffold1680_cov53'
p936
aa(lp937
S'scaffold29404_cov53'
p938
aS'scaffold10537_cov54'
p939
aa(lp940
S'scaffold15110_cov149'
p941
aS'scaffold1645_cov55'
p942
aa(lp943
S'scaffold4816_cov61'
p944
aS'scaffold4606_cov54'
p945
aa(lp946
S'scaffold16801_cov94'
p947
aS'scaffold2603_cov89'
p948
aa.