(lp0
(lp1
S'scaffold34413_cov63'
p2
aS'scaffold2285_cov92'
p3
aa(lp4
S'scaffold6010_cov62'
p5
aS'scaffold6032_cov86'
p6
aa(lp7
S'scaffold14_cov100'
p8
aS'scaffold8499_cov57'
p9
aa(lp10
S'scaffold37470_cov151'
p11
aS'scaffold23346_cov53'
p12
aa(lp13
S'scaffold19386_cov101'
p14
aS'scaffold34060_cov96'
p15
aa(lp16
S'scaffold20051_cov88'
p17
aS'scaffold16801_cov94'
p18
aa(lp19
S'scaffold32_cov80'
p20
aS'scaffold9366_cov65'
p21
aa(lp22
S'scaffold5664_cov97'
p23
aS'scaffold8637_cov48'
p24
aa(lp25
S'scaffold9935_cov102'
p26
aS'scaffold15216_cov95'
p27
aa(lp28
S'scaffold42461_cov100'
p29
aS'scaffold7156_cov63'
p30
aa(lp31
S'scaffold7846_cov55'
p32
aS'scaffold37339_cov109'
p33
aa(lp34
S'scaffold3621_cov101'
p35
aS'scaffold3183_cov139'
p36
aa(lp37
S'scaffold18737_cov72'
p38
aS'scaffold38243_cov111'
p39
aa(lp40
S'scaffold5119_cov50'
p41
aS'scaffold5118_cov85'
p42
aa(lp43
S'scaffold174_cov95'
p44
aS'scaffold1036_cov100'
p45
aa(lp46
S'scaffold37758_cov123'
p47
aS'scaffold878_cov66'
p48
aa(lp49
S'scaffold2212_cov51'
p50
aS'scaffold8360_cov69'
p51
aa(lp52
S'scaffold11244_cov56'
p53
aS'scaffold7401_cov60'
p54
aa(lp55
S'scaffold687_cov68'
p56
aS'scaffold5823_cov93'
p57
aa(lp58
S'scaffold26402_cov46'
p59
aS'scaffold26400_cov107'
p60
aa(lp61
S'scaffold28921_cov145'
p62
aS'scaffold41142_cov161'
p63
aa(lp64
S'scaffold5328_cov53'
p65
aS'scaffold5663_cov69'
p66
aa(lp67
S'scaffold497_cov71'
p68
aS'scaffold35984_cov60'
p69
aa(lp70
S'scaffold772_cov56'
p71
aS'scaffold1537_cov77'
p72
aa(lp73
S'scaffold1673_cov68'
p74
aS'scaffold1672_cov57'
p75
aa(lp76
S'scaffold35008_cov71'
p77
aS'scaffold617_cov62'
p78
aa(lp79
S'scaffold846_cov98'
p80
aS'scaffold13232_cov62'
p81
aa(lp82
S'scaffold16656_cov56'
p83
aS'scaffold1461_cov54'
p84
aa(lp85
S'scaffold12036_cov77'
p86
aS'scaffold2530_cov71'
p87
aa(lp88
S'scaffold33286_cov88'
p89
aS'scaffold10537_cov54'
p90
aa(lp91
S'scaffold3719_cov93'
p92
aS'scaffold28403_cov55'
p93
aa(lp94
S'scaffold20937_cov59'
p95
aS'scaffold7528_cov114'
p96
aa(lp97
S'scaffold19259_cov55'
p98
aS'scaffold16506_cov55'
p99
aa(lp100
S'scaffold46292_cov180'
p101
aS'scaffold44255_cov165'
p102
aa(lp103
S'scaffold1561_cov50'
p104
aS'scaffold1981_cov53'
p105
aa(lp106
S'scaffold5211_cov57'
p107
aS'scaffold7470_cov77'
p108
aa(lp109
S'scaffold57_cov62'
p110
aS'scaffold10002_cov126'
p111
aa(lp112
S'scaffold13919_cov66'
p113
aS'scaffold7244_cov53'
p114
aa(lp115
S'scaffold2317_cov61'
p116
aS'scaffold40182_cov165'
p117
aa(lp118
S'scaffold24311_cov69'
p119
aS'scaffold138_cov63'
p120
aa(lp121
S'scaffold9133_cov84'
p122
aS'scaffold507_cov73'
p123
aa(lp124
S'scaffold11587_cov65'
p125
aS'scaffold3118_cov72'
p126
aa(lp127
S'scaffold3771_cov131'
p128
aS'scaffold487_cov56'
p129
aa(lp130
S'scaffold2592_cov100'
p131
aS'scaffold466_cov101'
p132
aa(lp133
S'scaffold4668_cov92'
p134
aS'scaffold35981_cov85'
p135
aa(lp136
S'scaffold5700_cov54'
p137
aS'scaffold13336_cov75'
p138
aa(lp139
S'scaffold1671_cov114'
p140
aS'scaffold16650_cov62'
p141
aa(lp142
S'scaffold5768_cov48'
p143
aS'scaffold23308_cov74'
p144
aa(lp145
S'scaffold36821_cov56'
p146
aS'scaffold17489_cov70'
p147
aa(lp148
S'scaffold6606_cov160'
p149
aS'scaffold36583_cov64'
p150
aa(lp151
S'scaffold2786_cov74'
p152
aS'scaffold2945_cov79'
p153
aa(lp154
S'scaffold7573_cov53'
p155
aS'scaffold7572_cov84'
p156
aa(lp157
S'scaffold713_cov67'
p158
aS'scaffold15659_cov85'
p159
aa(lp160
S'scaffold27913_cov149'
p161
aS'scaffold565_cov58'
p162
aa(lp163
S'scaffold1828_cov67'
p164
aS'scaffold608_cov87'
p165
aa(lp166
S'scaffold3646_cov69'
p167
aS'scaffold10188_cov85'
p168
aa(lp169
S'scaffold2393_cov71'
p170
aS'scaffold1040_cov63'
p171
aa(lp172
S'scaffold6640_cov57'
p173
aS'scaffold15420_cov62'
p174
aa(lp175
S'scaffold14528_cov78'
p176
aS'scaffold7703_cov52'
p177
aa(lp178
S'scaffold35197_cov159'
p179
aS'scaffold1670_cov61'
p180
aa(lp181
S'scaffold3247_cov88'
p182
aS'scaffold33782_cov98'
p183
aa(lp184
S'scaffold33702_cov55'
p185
aS'scaffold1281_cov80'
p186
aa(lp187
S'scaffold866_cov53'
p188
aS'scaffold4034_cov67'
p189
aa(lp190
S'scaffold34231_cov91'
p191
aS'scaffold39009_cov103'
p192
aa(lp193
S'scaffold35_cov50'
p194
aS'scaffold34360_cov143'
p195
aa(lp196
S'scaffold4544_cov85'
p197
aS'scaffold30472_cov70'
p198
aa(lp199
S'scaffold5777_cov82'
p200
aS'scaffold6784_cov56'
p201
aa(lp202
S'scaffold23743_cov66'
p203
aS'scaffold10910_cov53'
p204
aa(lp205
S'scaffold15690_cov108'
p206
aS'scaffold36775_cov68'
p207
aa(lp208
S'scaffold7217_cov99'
p209
aS'scaffold35970_cov109'
p210
aa(lp211
S'scaffold7766_cov56'
p212
aS'scaffold8073_cov71'
p213
aa(lp214
S'scaffold1201_cov53'
p215
aS'scaffold8487_cov70'
p216
aa(lp217
S'scaffold1740_cov88'
p218
aS'scaffold19477_cov64'
p219
aa(lp220
S'scaffold6317_cov51'
p221
aS'scaffold874_cov68'
p222
aa(lp223
S'scaffold3440_cov56'
p224
aS'scaffold582_cov57'
p225
aa(lp226
S'scaffold2946_cov99'
p227
aS'scaffold8059_cov49'
p228
aa(lp229
S'scaffold7406_cov97'
p230
aS'scaffold4048_cov55'
p231
aa(lp232
S'scaffold10506_cov79'
p233
aS'scaffold5498_cov103'
p234
aa(lp235
S'scaffold5487_cov69'
p236
aS'scaffold7228_cov62'
p237
aa(lp238
S'scaffold11518_cov107'
p239
aS'scaffold11517_cov58'
p240
aa(lp241
S'scaffold11140_cov73'
p242
aS'scaffold5096_cov57'
p243
aa(lp244
S'scaffold7575_cov56'
p245
aS'scaffold7234_cov93'
p246
aa(lp247
S'scaffold1774_cov51'
p248
aS'scaffold707_cov65'
p249
aa(lp250
S'scaffold1943_cov61'
p251
aS'scaffold10758_cov137'
p252
aa(lp253
S'scaffold23544_cov102'
p254
aS'scaffold6429_cov65'
p255
aa(lp256
S'scaffold36297_cov113'
p257
aS'scaffold35963_cov95'
p258
aa(lp259
S'scaffold22301_cov147'
p260
aS'scaffold28236_cov103'
p261
aa(lp262
S'scaffold2248_cov58'
p263
aS'scaffold16639_cov75'
p264
aa(lp265
S'scaffold33612_cov72'
p266
aS'scaffold29903_cov123'
p267
aa(lp268
S'scaffold21922_cov80'
p269
aS'scaffold34278_cov88'
p270
aa(lp271
S'scaffold9543_cov100'
p272
aS'scaffold11533_cov113'
p273
aa(lp274
S'scaffold34199_cov83'
p275
aS'scaffold886_cov63'
p276
aa(lp277
S'scaffold827_cov76'
p278
aS'scaffold3365_cov65'
p279
aa(lp280
S'scaffold8638_cov55'
p281
aS'scaffold7200_cov64'
p282
aa(lp283
S'scaffold3303_cov130'
p284
aS'scaffold4478_cov57'
p285
aa(lp286
S'scaffold8021_cov59'
p287
aS'scaffold1455_cov53'
p288
aa(lp289
S'scaffold6478_cov57'
p290
aS'scaffold16314_cov97'
p291
aa(lp292
S'scaffold3443_cov80'
p293
aS'scaffold2211_cov55'
p294
aa(lp295
S'scaffold36789_cov57'
p296
aS'scaffold7965_cov102'
p297
aa(lp298
S'scaffold3742_cov92'
p299
aS'scaffold33263_cov56'
p300
aa(lp301
S'scaffold5955_cov136'
p302
aS'scaffold13833_cov52'
p303
aa(lp304
S'scaffold35021_cov83'
p305
aS'scaffold43367_cov115'
p306
aa(lp307
S'scaffold9707_cov86'
p308
aS'scaffold2016_cov55'
p309
aa(lp310
S'scaffold8082_cov74'
p311
aS'scaffold12811_cov99'
p312
aa(lp313
S'scaffold161_cov85'
p314
aS'scaffold6173_cov81'
p315
aa(lp316
S'scaffold10735_cov120'
p317
aS'scaffold15562_cov57'
p318
aa(lp319
S'scaffold5970_cov74'
p320
aS'scaffold12766_cov71'
p321
aa(lp322
S'scaffold20490_cov67'
p323
aS'scaffold767_cov66'
p324
aa(lp325
S'scaffold14430_cov83'
p326
aS'scaffold24509_cov66'
p327
aa(lp328
S'scaffold17734_cov54'
p329
aS'scaffold4093_cov55'
p330
aa(lp331
S'scaffold4097_cov96'
p332
aS'scaffold1525_cov58'
p333
aa(lp334
S'scaffold1651_cov81'
p335
aS'scaffold2084_cov95'
p336
aa(lp337
S'scaffold33949_cov53'
p338
aS'scaffold55_cov132'
p339
aa(lp340
S'scaffold21076_cov99'
p341
aS'scaffold8059_cov49'
p342
aa(lp343
S'scaffold35940_cov79'
p344
aS'scaffold5213_cov135'
p345
aa(lp346
S'scaffold34175_cov92'
p347
aS'scaffold35057_cov143'
p348
aa(lp349
S'scaffold9871_cov55'
p350
aS'scaffold3224_cov53'
p351
aa(lp352
S'scaffold1390_cov116'
p353
aS'scaffold4621_cov57'
p354
aa(lp355
S'scaffold34270_cov89'
p356
aS'scaffold5071_cov113'
p357
aa(lp358
S'scaffold311_cov53'
p359
aS'scaffold16119_cov63'
p360
aa(lp361
S'scaffold1680_cov53'
p362
aS'scaffold79_cov102'
p363
aa(lp364
S'scaffold5587_cov95'
p365
aS'scaffold6763_cov50'
p366
aa(lp367
S'scaffold1156_cov80'
p368
aS'scaffold6497_cov85'
p369
aa(lp370
S'scaffold1379_cov53'
p371
aS'scaffold5161_cov62'
p372
aa(lp373
S'scaffold154_cov94'
p374
aS'scaffold3622_cov63'
p375
aa(lp376
S'scaffold8496_cov75'
p377
aS'scaffold10687_cov51'
p378
aa(lp379
S'scaffold20541_cov54'
p380
aS'scaffold5962_cov96'
p381
aa(lp382
S'scaffold19950_cov56'
p383
aS'scaffold8908_cov58'
p384
aa(lp385
S'scaffold2412_cov121'
p386
aS'scaffold37060_cov73'
p387
aa(lp388
S'scaffold33587_cov72'
p389
aS'scaffold3966_cov89'
p390
aa(lp391
S'scaffold4278_cov90'
p392
aS'scaffold12774_cov55'
p393
aa(lp394
S'scaffold9445_cov50'
p395
aS'scaffold101_cov106'
p396
aa(lp397
S'scaffold3254_cov78'
p398
aS'scaffold1402_cov78'
p399
aa(lp400
S'scaffold5262_cov49'
p401
aS'scaffold15918_cov54'
p402
aa(lp403
S'scaffold2853_cov69'
p404
aS'scaffold12329_cov67'
p405
aa(lp406
S'scaffold1554_cov54'
p407
aS'scaffold7086_cov54'
p408
aa(lp409
S'scaffold4147_cov76'
p410
aS'scaffold36003_cov57'
p411
aa(lp412
S'scaffold2637_cov103'
p413
aS'scaffold3877_cov78'
p414
aa(lp415
S'scaffold4701_cov56'
p416
aS'scaffold42399_cov165'
p417
aa(lp418
S'scaffold3937_cov54'
p419
aS'scaffold19063_cov80'
p420
aa(lp421
S'scaffold36022_cov58'
p422
aS'scaffold35995_cov87'
p423
aa(lp424
S'scaffold16447_cov76'
p425
aS'scaffold1525_cov58'
p426
aa(lp427
S'scaffold9352_cov77'
p428
aS'scaffold7181_cov86'
p429
aa(lp430
S'scaffold34289_cov136'
p431
aS'scaffold23854_cov126'
p432
aa(lp433
S'scaffold45026_cov161'
p434
aS'scaffold9651_cov60'
p435
aa(lp436
S'scaffold36919_cov73'
p437
aS'scaffold41262_cov172'
p438
aa(lp439
S'scaffold5295_cov55'
p440
aS'scaffold15336_cov60'
p441
aa(lp442
S'scaffold968_cov57'
p443
aS'scaffold6480_cov125'
p444
aa(lp445
S'scaffold159_cov87'
p446
aS'scaffold19164_cov60'
p447
aa(lp448
S'scaffold2714_cov57'
p449
aS'scaffold1007_cov77'
p450
aa(lp451
S'scaffold6200_cov128'
p452
aS'scaffold878_cov66'
p453
aa(lp454
S'scaffold9739_cov94'
p455
aS'scaffold35055_cov91'
p456
aa(lp457
S'scaffold36499_cov103'
p458
aS'scaffold34177_cov82'
p459
aa(lp460
S'scaffold4081_cov103'
p461
aS'scaffold4410_cov60'
p462
aa(lp463
S'scaffold33066_cov68'
p464
aS'scaffold4048_cov55'
p465
aa(lp466
S'scaffold4874_cov72'
p467
aS'scaffold9125_cov84'
p468
aa(lp469
S'scaffold6612_cov63'
p470
aS'scaffold33314_cov52'
p471
aa(lp472
S'scaffold5186_cov71'
p473
aS'scaffold5185_cov80'
p474
aa(lp475
S'scaffold44657_cov149'
p476
aS'scaffold4089_cov52'
p477
aa(lp478
S'scaffold13650_cov74'
p479
aS'scaffold54888_cov107'
p480
aa(lp481
S'scaffold3582_cov122'
p482
aS'scaffold720_cov51'
p483
aa(lp484
S'scaffold36509_cov117'
p485
aS'scaffold2683_cov54'
p486
aa(lp487
S'scaffold9959_cov130'
p488
aS'scaffold16604_cov60'
p489
aa(lp490
S'scaffold56598_cov161'
p491
aS'scaffold5176_cov58'
p492
aa(lp493
S'scaffold24304_cov59'
p494
aS'scaffold359_cov50'
p495
aa(lp496
S'scaffold17264_cov49'
p497
aS'scaffold14721_cov66'
p498
aa(lp499
S'scaffold2164_cov100'
p500
aS'scaffold6159_cov60'
p501
aa(lp502
S'scaffold2998_cov77'
p503
aS'scaffold9604_cov73'
p504
aa(lp505
S'scaffold53971_cov161'
p506
aS'scaffold5146_cov52'
p507
aa(lp508
S'scaffold5065_cov145'
p509
aS'scaffold1207_cov107'
p510
aa(lp511
S'scaffold33155_cov116'
p512
aS'scaffold10894_cov83'
p513
aa(lp514
S'scaffold35419_cov111'
p515
aS'scaffold6807_cov54'
p516
aa(lp517
S'scaffold7198_cov59'
p518
aS'scaffold25181_cov79'
p519
aa(lp520
S'scaffold2637_cov103'
p521
aS'scaffold19626_cov63'
p522
aa(lp523
S'scaffold10711_cov58'
p524
aS'scaffold7920_cov76'
p525
aa(lp526
S'scaffold8879_cov52'
p527
aS'scaffold33560_cov76'
p528
aa(lp529
S'scaffold645_cov79'
p530
aS'scaffold33884_cov75'
p531
aa(lp532
S'scaffold7874_cov52'
p533
aS'scaffold7875_cov69'
p534
aa(lp535
S'scaffold6472_cov101'
p536
aS'scaffold22301_cov147'
p537
aa(lp538
S'scaffold50891_cov398'
p539
aS'scaffold909_cov73'
p540
aa(lp541
S'scaffold17539_cov88'
p542
aS'scaffold14622_cov56'
p543
aa(lp544
S'scaffold32906_cov106'
p545
aS'scaffold683_cov92'
p546
aa(lp547
S'scaffold12642_cov74'
p548
aS'scaffold1985_cov52'
p549
aa(lp550
S'scaffold398_cov53'
p551
aS'scaffold3014_cov60'
p552
aa(lp553
S'scaffold35974_cov80'
p554
aS'scaffold34177_cov82'
p555
aa(lp556
S'scaffold13494_cov55'
p557
aS'scaffold444_cov67'
p558
aa(lp559
S'scaffold53939_cov149'
p560
aS'scaffold8942_cov56'
p561
aa(lp562
S'scaffold306_cov97'
p563
aS'scaffold1432_cov55'
p564
aa(lp565
S'scaffold3432_cov48'
p566
aS'scaffold4550_cov107'
p567
aa(lp568
S'scaffold11820_cov72'
p569
aS'scaffold3429_cov57'
p570
aa(lp571
S'scaffold8803_cov55'
p572
aS'scaffold13550_cov68'
p573
aa(lp574
S'scaffold37302_cov74'
p575
aS'scaffold13367_cov89'
p576
aa(lp577
S'scaffold570_cov75'
p578
aS'scaffold6452_cov95'
p579
aa(lp580
S'scaffold54186_cov103'
p581
aS'scaffold28599_cov95'
p582
aa(lp583
S'scaffold289_cov71'
p584
aS'scaffold3757_cov64'
p585
aa(lp586
S'scaffold11190_cov116'
p587
aS'scaffold12855_cov52'
p588
aa(lp589
S'scaffold33248_cov88'
p590
aS'scaffold1972_cov88'
p591
aa(lp592
S'scaffold32491_cov104'
p593
aS'scaffold23375_cov83'
p594
aa(lp595
S'scaffold34162_cov105'
p596
aS'scaffold14859_cov92'
p597
aa(lp598
S'scaffold4917_cov59'
p599
aS'scaffold1175_cov49'
p600
aa(lp601
S'scaffold4313_cov91'
p602
aS'scaffold21487_cov54'
p603
aa(lp604
S'scaffold28521_cov53'
p605
aS'scaffold5310_cov60'
p606
aa(lp607
S'scaffold33155_cov116'
p608
aS'scaffold6384_cov82'
p609
aa(lp610
S'scaffold8270_cov118'
p611
aS'scaffold872_cov49'
p612
aa(lp613
S'scaffold58002_cov168'
p614
aS'scaffold27769_cov112'
p615
aa(lp616
S'scaffold7428_cov49'
p617
aS'scaffold33201_cov53'
p618
aa(lp619
S'scaffold2494_cov73'
p620
aS'scaffold3013_cov87'
p621
aa(lp622
S'scaffold13115_cov55'
p623
aS'scaffold6977_cov64'
p624
aa(lp625
S'scaffold7133_cov53'
p626
aS'scaffold8457_cov52'
p627
aa(lp628
S'scaffold15333_cov101'
p629
aS'scaffold36026_cov97'
p630
aa(lp631
S'scaffold4391_cov53'
p632
aS'scaffold50244_cov161'
p633
aa(lp634
S'scaffold9958_cov63'
p635
aS'scaffold4040_cov52'
p636
aa(lp637
S'scaffold5829_cov52'
p638
aS'scaffold200_cov51'
p639
aa(lp640
S'scaffold38360_cov207'
p641
aS'scaffold20375_cov54'
p642
aa(lp643
S'scaffold931_cov102'
p644
aS'scaffold3401_cov49'
p645
aa(lp646
S'scaffold10310_cov117'
p647
aS'scaffold2088_cov50'
p648
aa(lp649
S'scaffold37592_cov59'
p650
aS'scaffold11537_cov147'
p651
aa(lp652
S'scaffold33284_cov157'
p653
aS'scaffold14343_cov60'
p654
aa(lp655
S'scaffold4085_cov106'
p656
aS'scaffold34289_cov136'
p657
aa(lp658
S'scaffold37745_cov103'
p659
aS'scaffold756_cov60'
p660
aa(lp661
S'scaffold7097_cov101'
p662
aS'scaffold1054_cov57'
p663
aa(lp664
S'scaffold10360_cov60'
p665
aS'scaffold6609_cov59'
p666
aa(lp667
S'scaffold143_cov57'
p668
aS'scaffold5382_cov123'
p669
aa(lp670
S'scaffold34267_cov108'
p671
aS'scaffold643_cov63'
p672
aa(lp673
S'scaffold1111_cov107'
p674
aS'scaffold479_cov51'
p675
aa(lp676
S'scaffold1231_cov53'
p677
aS'scaffold15012_cov64'
p678
aa(lp679
S'scaffold8038_cov51'
p680
aS'scaffold19720_cov60'
p681
aa(lp682
S'scaffold6247_cov68'
p683
aS'scaffold5562_cov105'
p684
aa(lp685
S'scaffold15508_cov90'
p686
aS'scaffold36032_cov131'
p687
aa(lp688
S'scaffold33248_cov88'
p689
aS'scaffold8659_cov78'
p690
aa(lp691
S'scaffold37060_cov73'
p692
aS'scaffold3248_cov70'
p693
aa(lp694
S'scaffold3106_cov64'
p695
aS'scaffold10343_cov61'
p696
aa(lp697
S'scaffold14767_cov109'
p698
aS'scaffold32828_cov78'
p699
aa(lp700
S'scaffold18525_cov53'
p701
aS'scaffold3769_cov71'
p702
aa(lp703
S'scaffold39987_cov111'
p704
aS'scaffold7461_cov76'
p705
aa(lp706
S'scaffold55592_cov107'
p707
aS'scaffold25106_cov104'
p708
aa(lp709
S'scaffold21958_cov101'
p710
aS'scaffold2626_cov102'
p711
aa(lp712
S'scaffold2598_cov61'
p713
aS'scaffold14610_cov136'
p714
aa(lp715
S'scaffold10405_cov56'
p716
aS'scaffold33245_cov72'
p717
aa(lp718
S'scaffold36033_cov68'
p719
aS'scaffold2694_cov89'
p720
aa(lp721
S'scaffold255_cov58'
p722
aS'scaffold32858_cov151'
p723
aa(lp724
S'scaffold6209_cov128'
p725
aS'scaffold1667_cov55'
p726
aa(lp727
S'scaffold40047_cov153'
p728
aS'scaffold36009_cov57'
p729
aa(lp730
S'scaffold4668_cov92'
p731
aS'scaffold2804_cov64'
p732
aa(lp733
S'scaffold462_cov72'
p734
aS'scaffold10361_cov51'
p735
aa(lp736
S'scaffold2786_cov74'
p737
aS'scaffold6624_cov86'
p738
aa(lp739
S'scaffold85_cov56'
p740
aS'scaffold20873_cov79'
p741
aa(lp742
S'scaffold11516_cov50'
p743
aS'scaffold13738_cov105'
p744
aa(lp745
S'scaffold33440_cov107'
p746
aS'scaffold7192_cov111'
p747
aa(lp748
S'scaffold15562_cov57'
p749
aS'scaffold17331_cov117'
p750
aa(lp751
S'scaffold4891_cov78'
p752
aS'scaffold18040_cov61'
p753
aa(lp754
S'scaffold1364_cov77'
p755
aS'scaffold2830_cov52'
p756
aa(lp757
S'scaffold2388_cov79'
p758
aS'scaffold3457_cov55'
p759
aa(lp760
S'scaffold8576_cov64'
p761
aS'scaffold14804_cov81'
p762
aa(lp763
S'scaffold5284_cov102'
p764
aS'scaffold18868_cov79'
p765
aa(lp766
S'scaffold5881_cov87'
p767
aS'scaffold1151_cov99'
p768
aa(lp769
S'scaffold1835_cov54'
p770
aS'scaffold14755_cov58'
p771
aa(lp772
S'scaffold5980_cov50'
p773
aS'scaffold34989_cov66'
p774
aa(lp775
S'scaffold4874_cov72'
p776
aS'scaffold7806_cov72'
p777
aa(lp778
S'scaffold3835_cov72'
p779
aS'scaffold25187_cov99'
p780
aa(lp781
S'scaffold16649_cov90'
p782
aS'scaffold33204_cov76'
p783
aa(lp784
S'scaffold2088_cov50'
p785
aS'scaffold21479_cov41'
p786
aa(lp787
S'scaffold10114_cov67'
p788
aS'scaffold6757_cov85'
p789
aa(lp790
S'scaffold8357_cov58'
p791
aS'scaffold8823_cov89'
p792
aa(lp793
S'scaffold5370_cov101'
p794
aS'scaffold21582_cov121'
p795
aa(lp796
S'scaffold4339_cov63'
p797
aS'scaffold34332_cov81'
p798
aa(lp799
S'scaffold570_cov75'
p800
aS'scaffold3128_cov90'
p801
aa(lp802
S'scaffold36145_cov66'
p803
aS'scaffold5517_cov53'
p804
aa(lp805
S'scaffold37745_cov103'
p806
aS'scaffold9100_cov54'
p807
aa(lp808
S'scaffold14596_cov132'
p809
aS'scaffold36584_cov77'
p810
aa(lp811
S'scaffold34367_cov119'
p812
aS'scaffold33612_cov72'
p813
aa(lp814
S'scaffold10858_cov54'
p815
aS'scaffold33183_cov87'
p816
aa(lp817
S'scaffold3077_cov95'
p818
aS'scaffold5136_cov47'
p819
aa(lp820
S'scaffold861_cov54'
p821
aS'scaffold6110_cov55'
p822
aa(lp823
S'scaffold2790_cov71'
p824
aS'scaffold5283_cov61'
p825
aa(lp826
S'scaffold33204_cov76'
p827
aS'scaffold6201_cov79'
p828
aa(lp829
S'scaffold14887_cov139'
p830
aS'scaffold7284_cov54'
p831
aa(lp832
S'scaffold14365_cov55'
p833
aS'scaffold37624_cov98'
p834
aa(lp835
S'scaffold5966_cov74'
p836
aS'scaffold18342_cov147'
p837
aa(lp838
S'scaffold3230_cov72'
p839
aS'scaffold2697_cov65'
p840
aa(lp841
S'scaffold10508_cov75'
p842
aS'scaffold5982_cov55'
p843
aa(lp844
S'scaffold2637_cov103'
p845
aS'scaffold12063_cov48'
p846
aa(lp847
S'scaffold12509_cov75'
p848
aS'scaffold12489_cov66'
p849
aa(lp850
S'scaffold5049_cov79'
p851
aS'scaffold9910_cov51'
p852
aa(lp853
S'scaffold7154_cov101'
p854
aS'scaffold11306_cov90'
p855
aa(lp856
S'scaffold14510_cov60'
p857
aS'scaffold11820_cov72'
p858
aa(lp859
S'scaffold17719_cov52'
p860
aS'scaffold7882_cov53'
p861
aa(lp862
S'scaffold11052_cov59'
p863
aS'scaffold2304_cov65'
p864
aa(lp865
S'scaffold34185_cov69'
p866
aS'scaffold1343_cov77'
p867
aa(lp868
S'scaffold663_cov79'
p869
aS'scaffold2057_cov66'
p870
aa(lp871
S'scaffold8668_cov57'
p872
aS'scaffold11818_cov100'
p873
aa(lp874
S'scaffold1902_cov64'
p875
aS'scaffold4418_cov65'
p876
aa(lp877
S'scaffold2541_cov64'
p878
aS'scaffold9591_cov85'
p879
aa(lp880
S'scaffold32065_cov59'
p881
aS'scaffold28048_cov54'
p882
aa(lp883
S'scaffold2571_cov70'
p884
aS'scaffold27216_cov96'
p885
aa(lp886
S'scaffold3358_cov56'
p887
aS'scaffold20331_cov77'
p888
aa(lp889
S'scaffold2739_cov53'
p890
aS'scaffold18278_cov58'
p891
aa(lp892
S'scaffold10187_cov86'
p893
aS'scaffold10455_cov70'
p894
aa(lp895
S'scaffold4918_cov110'
p896
aS'scaffold1432_cov55'
p897
aa(lp898
S'scaffold9750_cov109'
p899
aS'scaffold23746_cov60'
p900
aa(lp901
S'scaffold36776_cov56'
p902
aS'scaffold6457_cov56'
p903
aa(lp904
S'scaffold36466_cov115'
p905
aS'scaffold6807_cov54'
p906
aa(lp907
S'scaffold9240_cov92'
p908
aS'scaffold952_cov71'
p909
aa(lp910
S'scaffold4085_cov106'
p911
aS'scaffold1850_cov129'
p912
aa(lp913
S'scaffold5518_cov59'
p914
aS'scaffold21109_cov47'
p915
aa(lp916
S'scaffold10537_cov54'
p917
aS'scaffold29404_cov53'
p918
aa(lp919
S'scaffold15110_cov149'
p920
aS'scaffold1645_cov55'
p921
aa(lp922
S'scaffold4606_cov54'
p923
aS'scaffold4816_cov61'
p924
aa(lp925
S'scaffold16801_cov94'
p926
aS'scaffold2603_cov89'
p927
aa(lp928
S'scaffold37747_cov56'
p929
aS'scaffold10374_cov51'
p930
aa.