(lp0
(lp1
S'scaffold4386_cov298'
p2
aS'scaffold2688_cov189'
p3
aa(lp4
S'scaffold5383_cov228'
p5
aS'scaffold6260_cov182'
p6
aa(lp7
S'scaffold34997_cov218'
p8
aS'scaffold126_cov233'
p9
aa(lp10
S'scaffold3363_cov220'
p11
aS'scaffold4931_cov207'
p12
aa(lp13
S'scaffold520_cov225'
p14
aS'scaffold11220_cov221'
p15
aa(lp16
S'scaffold8181_cov267'
p17
aS'scaffold4564_cov155'
p18
aa(lp19
S'scaffold6784_cov373'
p20
aS'scaffold34876_cov153'
p21
aa(lp22
S'scaffold8707_cov275'
p23
aS'scaffold1032_cov163'
p24
aa(lp25
S'scaffold4886_cov351'
p26
aS'scaffold987_cov149'
p27
aa(lp28
S'scaffold5780_cov292'
p29
aS'scaffold421_cov166'
p30
aa(lp31
S'scaffold8289_cov180'
p32
aS'scaffold4798_cov206'
p33
aa(lp34
S'scaffold467_cov263'
p35
aS'scaffold7247_cov286'
p36
aa(lp37
S'scaffold1469_cov209'
p38
aS'scaffold3829_cov235'
p39
aa(lp40
S'scaffold14087_cov206'
p41
aS'scaffold4385_cov239'
p42
aa(lp43
S'scaffold19250_cov205'
p44
aS'scaffold8056_cov196'
p45
aa(lp46
S'scaffold4480_cov293'
p47
aS'scaffold18648_cov147'
p48
aa(lp49
S'scaffold3984_cov353'
p50
aS'scaffold2503_cov151'
p51
aa(lp52
S'scaffold3693_cov252'
p53
aS'scaffold35708_cov182'
p54
aa(lp55
S'scaffold35009_cov245'
p56
aS'scaffold91_cov238'
p57
aa(lp58
S'scaffold1767_cov191'
p59
aS'scaffold1511_cov206'
p60
aa(lp61
S'scaffold10091_cov218'
p62
aS'scaffold8128_cov148'
p63
aa(lp64
S'scaffold40391_cov315'
p65
aS'scaffold10294_cov190'
p66
aa(lp67
S'scaffold709_cov247'
p68
aS'scaffold5198_cov234'
p69
aa(lp70
S'scaffold52810_cov589'
p71
aS'scaffold2099_cov316'
p72
aa(lp73
S'scaffold6504_cov303'
p74
aS'scaffold13906_cov172'
p75
aa(lp76
S'scaffold275_cov215'
p77
aS'scaffold387_cov149'
p78
aa(lp79
S'scaffold1607_cov239'
p80
aS'scaffold35912_cov193'
p81
aa(lp82
S'scaffold35835_cov299'
p83
aS'scaffold15165_cov249'
p84
aa(lp85
S'scaffold3960_cov215'
p86
aS'scaffold3895_cov206'
p87
aa(lp88
S'scaffold2468_cov231'
p89
aS'scaffold4243_cov244'
p90
aa(lp91
S'scaffold2338_cov238'
p92
aS'scaffold2516_cov204'
p93
aa(lp94
S'scaffold6588_cov297'
p95
aS'scaffold3089_cov153'
p96
aa(lp97
S'scaffold11638_cov181'
p98
aS'scaffold11037_cov149'
p99
aa(lp100
S'scaffold5697_cov266'
p101
aS'scaffold3738_cov179'
p102
aa(lp103
S'scaffold12689_cov256'
p104
aS'scaffold7460_cov152'
p105
aa(lp106
S'scaffold3666_cov227'
p107
aS'scaffold2175_cov210'
p108
aa(lp109
S'scaffold4560_cov350'
p110
aS'scaffold2640_cov197'
p111
aa(lp112
S'scaffold34901_cov222'
p113
aS'scaffold14139_cov184'
p114
aa(lp115
S'scaffold35491_cov284'
p116
aS'scaffold6922_cov210'
p117
aa(lp118
S'scaffold5724_cov219'
p119
aS'scaffold8613_cov250'
p120
aa(lp121
S'scaffold6223_cov242'
p122
aS'scaffold1876_cov202'
p123
aa(lp124
S'scaffold34047_cov174'
p125
aS'scaffold14855_cov234'
p126
aa(lp127
S'scaffold2702_cov266'
p128
aS'scaffold432_cov233'
p129
aa(lp130
S'scaffold11028_cov263'
p131
aS'scaffold3310_cov167'
p132
aa(lp133
S'scaffold5897_cov436'
p134
aS'scaffold343_cov157'
p135
aa(lp136
S'scaffold6105_cov252'
p137
aS'scaffold6855_cov172'
p138
aa(lp139
S'scaffold36255_cov269'
p140
aS'scaffold42378_cov315'
p141
aa(lp142
S'scaffold2237_cov233'
p143
aS'scaffold34835_cov215'
p144
aa(lp145
S'scaffold2751_cov176'
p146
aS'scaffold636_cov192'
p147
aa(lp148
S'scaffold1228_cov289'
p149
aS'scaffold18802_cov239'
p150
aa(lp151
S'scaffold6446_cov191'
p152
aS'scaffold34878_cov239'
p153
aa(lp154
S'scaffold6205_cov227'
p155
aS'scaffold858_cov242'
p156
aa(lp157
S'scaffold34894_cov238'
p158
aS'scaffold424_cov173'
p159
aa(lp160
S'scaffold13730_cov260'
p161
aS'scaffold53022_cov294'
p162
aa(lp163
S'scaffold3883_cov286'
p164
aS'scaffold2531_cov161'
p165
aa(lp166
S'scaffold19486_cov306'
p167
aS'scaffold19485_cov191'
p168
aa(lp169
S'scaffold13299_cov272'
p170
aS'scaffold13790_cov193'
p171
aa(lp172
S'scaffold2120_cov226'
p173
aS'scaffold5979_cov159'
p174
aa(lp175
S'scaffold30587_cov247'
p176
aS'scaffold1792_cov186'
p177
aa(lp178
S'scaffold3511_cov209'
p179
aS'scaffold383_cov198'
p180
aa(lp181
S'scaffold1747_cov293'
p182
aS'scaffold34100_cov244'
p183
aa(lp184
S'scaffold1599_cov246'
p185
aS'scaffold34016_cov157'
p186
aa(lp187
S'scaffold53165_cov284'
p188
aS'scaffold4404_cov204'
p189
aa(lp190
S'scaffold16908_cov201'
p191
aS'scaffold4051_cov206'
p192
aa(lp193
S'scaffold15598_cov210'
p194
aS'scaffold5017_cov219'
p195
aa(lp196
S'scaffold11791_cov336'
p197
aS'scaffold3120_cov189'
p198
aa(lp199
S'scaffold1893_cov262'
p200
aS'scaffold35334_cov163'
p201
aa(lp202
S'scaffold2157_cov220'
p203
aS'scaffold5589_cov166'
p204
aa(lp205
S'scaffold7588_cov337'
p206
aS'scaffold9757_cov155'
p207
aa(lp208
S'scaffold3083_cov378'
p209
aS'scaffold34652_cov210'
p210
aa(lp211
S'scaffold1203_cov294'
p212
aS'scaffold1019_cov183'
p213
aa(lp214
S'scaffold4758_cov346'
p215
aS'scaffold1045_cov153'
p216
aa(lp217
S'scaffold355_cov233'
p218
aS'scaffold5164_cov209'
p219
aa(lp220
S'scaffold10417_cov197'
p221
aS'scaffold4396_cov166'
p222
aa(lp223
S'scaffold3883_cov286'
p224
aS'scaffold12108_cov159'
p225
aa(lp226
S'scaffold16317_cov210'
p227
aS'scaffold6713_cov225'
p228
aa(lp229
S'scaffold9508_cov196'
p230
aS'scaffold11324_cov225'
p231
aa(lp232
S'scaffold24073_cov287'
p233
aS'scaffold36462_cov152'
p234
aa(lp235
S'scaffold5051_cov291'
p236
aS'scaffold1404_cov156'
p237
aa(lp238
S'scaffold3476_cov276'
p239
aS'scaffold3249_cov179'
p240
aa(lp241
S'scaffold299_cov290'
p242
aS'scaffold4971_cov235'
p243
aa(lp244
S'scaffold34756_cov262'
p245
aS'scaffold23838_cov109'
p246
aa(lp247
S'scaffold276_cov267'
p248
aS'scaffold6071_cov156'
p249
aa(lp250
S'scaffold38974_cov463'
p251
aS'scaffold343_cov157'
p252
aa(lp253
S'scaffold14255_cov253'
p254
aS'scaffold2270_cov160'
p255
aa(lp256
S'scaffold19913_cov154'
p257
aS'scaffold35508_cov210'
p258
aa(lp259
S'scaffold34240_cov291'
p260
aS'scaffold43247_cov305'
p261
aa(lp262
S'scaffold6415_cov250'
p263
aS'scaffold6724_cov185'
p264
aa(lp265
S'scaffold34969_cov237'
p266
aS'scaffold5373_cov204'
p267
aa(lp268
S'scaffold22860_cov185'
p269
aS'scaffold6721_cov174'
p270
aa(lp271
S'scaffold1871_cov212'
p272
aS'scaffold3028_cov204'
p273
aa(lp274
S'scaffold9334_cov225'
p275
aS'scaffold4813_cov177'
p276
aa(lp277
S'scaffold625_cov187'
p278
aS'scaffold8957_cov170'
p279
aa(lp280
S'scaffold193_cov232'
p281
aS'scaffold51921_cov294'
p282
aa(lp283
S'scaffold622_cov424'
p284
aS'scaffold1302_cov140'
p285
aa(lp286
S'scaffold3060_cov247'
p287
aS'scaffold3487_cov182'
p288
aa(lp289
S'scaffold21_cov335'
p290
aS'scaffold1045_cov153'
p291
aa(lp292
S'scaffold13299_cov272'
p293
aS'scaffold10369_cov160'
p294
aa(lp295
S'scaffold1828_cov217'
p296
aS'scaffold5358_cov160'
p297
aa(lp298
S'scaffold36286_cov261'
p299
aS'scaffold8587_cov157'
p300
aa(lp301
S'scaffold5178_cov237'
p302
aS'scaffold6699_cov179'
p303
aa(lp304
S'scaffold3911_cov285'
p305
aS'scaffold5073_cov227'
p306
aa(lp307
S'scaffold6166_cov218'
p308
aS'scaffold34141_cov184'
p309
aa(lp310
S'scaffold3082_cov287'
p311
aS'scaffold2983_cov165'
p312
aa(lp313
S'scaffold47198_cov463'
p314
aS'scaffold34572_cov182'
p315
aa(lp316
S'scaffold2985_cov221'
p317
aS'scaffold103_cov152'
p318
aa(lp319
S'scaffold12793_cov183'
p320
aS'scaffold12226_cov185'
p321
aa(lp322
S'scaffold1234_cov222'
p323
aS'scaffold34763_cov140'
p324
aa(lp325
S'scaffold3901_cov329'
p326
aS'scaffold14736_cov203'
p327
aa(lp328
S'scaffold34579_cov226'
p329
aS'scaffold34935_cov228'
p330
aa(lp331
S'scaffold21112_cov305'
p332
aS'scaffold22738_cov154'
p333
aa(lp334
S'scaffold34946_cov233'
p335
aS'scaffold2695_cov200'
p336
aa(lp337
S'scaffold4226_cov183'
p338
aS'scaffold4227_cov149'
p339
aa(lp340
S'scaffold7776_cov261'
p341
aS'scaffold417_cov219'
p342
aa(lp343
S'scaffold35170_cov289'
p344
aS'scaffold34652_cov210'
p345
aa(lp346
S'scaffold65_cov217'
p347
aS'scaffold15270_cov133'
p348
aa(lp349
S'scaffold35361_cov259'
p350
aS'scaffold2334_cov190'
p351
aa(lp352
S'scaffold34904_cov288'
p353
aS'scaffold5809_cov177'
p354
aa(lp355
S'scaffold5287_cov211'
p356
aS'scaffold6822_cov208'
p357
aa(lp358
S'scaffold21569_cov380'
p359
aS'scaffold20237_cov146'
p360
aa(lp361
S'scaffold13538_cov239'
p362
aS'scaffold5402_cov179'
p363
aa(lp364
S'scaffold6948_cov274'
p365
aS'scaffold6699_cov179'
p366
aa(lp367
S'scaffold5796_cov292'
p368
aS'scaffold2082_cov195'
p369
aa(lp370
S'scaffold5059_cov217'
p371
aS'scaffold7462_cov213'
p372
aa(lp373
S'scaffold6808_cov251'
p374
aS'scaffold5535_cov217'
p375
aa(lp376
S'scaffold12391_cov201'
p377
aS'scaffold114_cov204'
p378
aa(lp379
S'scaffold13539_cov223'
p380
aS'scaffold2054_cov174'
p381
aa(lp382
S'scaffold14835_cov172'
p383
aS'scaffold3075_cov156'
p384
aa(lp385
S'scaffold6925_cov364'
p386
aS'scaffold2058_cov324'
p387
aa(lp388
S'scaffold2297_cov206'
p389
aS'scaffold4936_cov217'
p390
aa(lp391
S'scaffold25113_cov199'
p392
aS'scaffold6911_cov202'
p393
aa(lp394
S'scaffold14550_cov277'
p395
aS'scaffold1760_cov210'
p396
aa(lp397
S'scaffold40132_cov484'
p398
aS'scaffold7849_cov260'
p399
aa(lp400
S'scaffold19757_cov388'
p401
aS'scaffold1999_cov166'
p402
aa(lp403
S'scaffold3845_cov316'
p404
aS'scaffold3342_cov163'
p405
aa(lp406
S'scaffold3674_cov258'
p407
aS'scaffold12700_cov150'
p408
aa(lp409
S'scaffold34052_cov286'
p410
aS'scaffold2311_cov232'
p411
aa(lp412
S'scaffold13470_cov212'
p413
aS'scaffold10396_cov149'
p414
aa(lp415
S'scaffold7198_cov282'
p416
aS'scaffold3310_cov167'
p417
aa(lp418
S'scaffold29092_cov411'
p419
aS'scaffold3158_cov165'
p420
aa(lp421
S'scaffold5141_cov149'
p422
aS'scaffold4981_cov255'
p423
aa(lp424
S'scaffold35134_cov241'
p425
aS'scaffold1798_cov239'
p426
aa(lp427
S'scaffold9518_cov247'
p428
aS'scaffold1141_cov217'
p429
aa(lp430
S'scaffold11665_cov274'
p431
aS'scaffold4220_cov209'
p432
aa(lp433
S'scaffold50233_cov936'
p434
aS'scaffold4673_cov163'
p435
aa(lp436
S'scaffold52004_cov305'
p437
aS'scaffold11324_cov225'
p438
aa(lp439
S'scaffold11923_cov205'
p440
aS'scaffold34893_cov219'
p441
aa(lp442
S'scaffold1512_cov178'
p443
aS'scaffold7068_cov172'
p444
aa(lp445
S'scaffold9550_cov156'
p446
aS'scaffold3486_cov238'
p447
aa(lp448
S'scaffold3183_cov273'
p449
aS'scaffold11838_cov280'
p450
aa(lp451
S'scaffold2251_cov300'
p452
aS'scaffold5494_cov202'
p453
aa(lp454
S'scaffold10174_cov324'
p455
aS'scaffold10173_cov150'
p456
aa(lp457
S'scaffold13712_cov247'
p458
aS'scaffold3898_cov165'
p459
aa(lp460
S'scaffold3444_cov244'
p461
aS'scaffold2301_cov209'
p462
aa(lp463
S'scaffold1073_cov267'
p464
aS'scaffold11614_cov255'
p465
aa(lp466
S'scaffold205_cov231'
p467
aS'scaffold1655_cov200'
p468
aa(lp469
S'scaffold12547_cov300'
p470
aS'scaffold2376_cov165'
p471
aa(lp472
S'scaffold34780_cov223'
p473
aS'scaffold2666_cov188'
p474
aa(lp475
S'scaffold7855_cov227'
p476
aS'scaffold642_cov217'
p477
aa(lp478
S'scaffold2395_cov243'
p479
aS'scaffold3285_cov233'
p480
aa(lp481
S'scaffold6144_cov377'
p482
aS'scaffold6254_cov268'
p483
aa(lp484
S'scaffold19797_cov164'
p485
aS'scaffold6112_cov148'
p486
aa(lp487
S'scaffold534_cov297'
p488
aS'scaffold532_cov244'
p489
aa(lp490
S'scaffold7912_cov254'
p491
aS'scaffold22036_cov148'
p492
aa(lp493
S'scaffold5249_cov206'
p494
aS'scaffold4631_cov169'
p495
aa(lp496
S'scaffold35739_cov310'
p497
aS'scaffold36798_cov326'
p498
aa(lp499
S'scaffold40802_cov284'
p500
aS'scaffold30714_cov262'
p501
aa(lp502
S'scaffold3201_cov239'
p503
aS'scaffold1948_cov236'
p504
aa(lp505
S'scaffold6504_cov303'
p506
aS'scaffold32879_cov158'
p507
aa(lp508
S'scaffold1636_cov295'
p509
aS'scaffold1637_cov206'
p510
aa(lp511
S'scaffold17188_cov256'
p512
aS'scaffold6575_cov192'
p513
aa(lp514
S'scaffold13565_cov263'
p515
aS'scaffold25159_cov143'
p516
aa(lp517
S'scaffold1134_cov233'
p518
aS'scaffold9743_cov237'
p519
aa(lp520
S'scaffold22748_cov150'
p521
aS'scaffold2939_cov159'
p522
aa(lp523
S'scaffold16898_cov268'
p524
aS'scaffold42181_cov294'
p525
aa(lp526
S'scaffold3033_cov182'
p527
aS'scaffold2254_cov207'
p528
aa(lp529
S'scaffold19777_cov232'
p530
aS'scaffold4838_cov202'
p531
aa(lp532
S'scaffold7242_cov266'
p533
aS'scaffold7661_cov288'
p534
aa(lp535
S'scaffold21079_cov185'
p536
aS'scaffold34580_cov232'
p537
aa(lp538
S'scaffold11307_cov229'
p539
aS'scaffold6551_cov161'
p540
aa(lp541
S'scaffold34240_cov291'
p542
aS'scaffold6227_cov210'
p543
aa(lp544
S'scaffold7998_cov239'
p545
aS'scaffold34786_cov228'
p546
aa(lp547
S'scaffold2764_cov248'
p548
aS'scaffold35902_cov179'
p549
aa(lp550
S'scaffold5533_cov227'
p551
aS'scaffold10988_cov149'
p552
aa(lp553
S'scaffold6035_cov288'
p554
aS'scaffold1952_cov217'
p555
aa(lp556
S'scaffold34993_cov283'
p557
aS'scaffold2688_cov189'
p558
aa(lp559
S'scaffold2015_cov427'
p560
aS'scaffold843_cov157'
p561
aa(lp562
S'scaffold16937_cov241'
p563
aS'scaffold1798_cov239'
p564
aa(lp565
S'scaffold1047_cov391'
p566
aS'scaffold1999_cov166'
p567
aa(lp568
S'scaffold2018_cov229'
p569
aS'scaffold3622_cov247'
p570
aa(lp571
S'scaffold48640_cov294'
p572
aS'scaffold10308_cov219'
p573
aa(lp574
S'scaffold3282_cov224'
p575
aS'scaffold35925_cov172'
p576
aa(lp577
S'scaffold15715_cov311'
p578
aS'scaffold34618_cov281'
p579
aa(lp580
S'scaffold2836_cov225'
p581
aS'scaffold4074_cov180'
p582
aa(lp583
S'scaffold8201_cov210'
p584
aS'scaffold487_cov180'
p585
aa(lp586
S'scaffold8280_cov208'
p587
aS'scaffold18434_cov227'
p588
aa(lp589
S'scaffold8291_cov270'
p590
aS'scaffold6880_cov163'
p591
aa(lp592
S'scaffold3436_cov196'
p593
aS'scaffold1629_cov253'
p594
aa(lp595
S'scaffold5242_cov262'
p596
aS'scaffold35822_cov215'
p597
aa(lp598
S'scaffold34455_cov418'
p599
aS'scaffold34968_cov196'
p600
aa(lp601
S'scaffold7259_cov286'
p602
aS'scaffold1969_cov172'
p603
aa(lp604
S'scaffold16517_cov275'
p605
aS'scaffold1106_cov224'
p606
aa(lp607
S'scaffold6196_cov437'
p608
aS'scaffold343_cov157'
p609
aa(lp610
S'scaffold1559_cov231'
p611
aS'scaffold204_cov205'
p612
aa(lp613
S'scaffold33716_cov277'
p614
aS'scaffold58_cov215'
p615
aa(lp616
S'scaffold7038_cov214'
p617
aS'scaffold3562_cov182'
p618
aa(lp619
S'scaffold6911_cov202'
p620
aS'scaffold4867_cov158'
p621
aa(lp622
S'scaffold53889_cov315'
p623
aS'scaffold4451_cov223'
p624
aa(lp625
S'scaffold36011_cov302'
p626
aS'scaffold40654_cov315'
p627
aa(lp628
S'scaffold9574_cov228'
p629
aS'scaffold2246_cov240'
p630
aa(lp631
S'scaffold5205_cov172'
p632
aS'scaffold2554_cov143'
p633
aa(lp634
S'scaffold3194_cov316'
p635
aS'scaffold12171_cov160'
p636
aa(lp637
S'scaffold30714_cov262'
p638
aS'scaffold3621_cov266'
p639
aa(lp640
S'scaffold1041_cov212'
p641
aS'scaffold6560_cov168'
p642
aa(lp643
S'scaffold34854_cov183'
p644
aS'scaffold10029_cov156'
p645
aa(lp646
S'scaffold28262_cov431'
p647
aS'scaffold343_cov157'
p648
aa(lp649
S'scaffold4790_cov191'
p650
aS'scaffold33895_cov180'
p651
aa(lp652
S'scaffold674_cov219'
p653
aS'scaffold10400_cov191'
p654
aa(lp655
S'scaffold3824_cov240'
p656
aS'scaffold5144_cov205'
p657
aa(lp658
S'scaffold8081_cov244'
p659
aS'scaffold34811_cov176'
p660
aa(lp661
S'scaffold849_cov247'
p662
aS'scaffold1253_cov168'
p663
aa(lp664
S'scaffold3590_cov237'
p665
aS'scaffold34183_cov209'
p666
aa(lp667
S'scaffold6964_cov214'
p668
aS'scaffold1655_cov200'
p669
aa(lp670
S'scaffold6177_cov155'
p671
aS'scaffold33647_cov137'
p672
aa(lp673
S'scaffold41363_cov389'
p674
aS'scaffold3342_cov163'
p675
aa(lp676
S'scaffold5058_cov197'
p677
aS'scaffold4464_cov185'
p678
aa(lp679
S'scaffold35824_cov247'
p680
aS'scaffold3010_cov208'
p681
aa(lp682
S'scaffold5523_cov227'
p683
aS'scaffold3428_cov197'
p684
aa(lp685
S'scaffold1436_cov280'
p686
aS'scaffold11878_cov196'
p687
aa(lp688
S'scaffold6978_cov264'
p689
aS'scaffold4654_cov204'
p690
aa(lp691
S'scaffold16909_cov171'
p692
aS'scaffold10939_cov235'
p693
aa(lp694
S'scaffold34992_cov298'
p695
aS'scaffold428_cov197'
p696
aa(lp697
S'scaffold5271_cov299'
p698
aS'scaffold5221_cov193'
p699
aa(lp700
S'scaffold5976_cov266'
p701
aS'scaffold3325_cov214'
p702
aa(lp703
S'scaffold1042_cov233'
p704
aS'scaffold20788_cov116'
p705
aa(lp706
S'scaffold6403_cov387'
p707
aS'scaffold1999_cov166'
p708
aa(lp709
S'scaffold13641_cov196'
p710
aS'scaffold13364_cov176'
p711
aa(lp712
S'scaffold854_cov247'
p713
aS'scaffold9044_cov264'
p714
aa(lp715
S'scaffold7260_cov230'
p716
aS'scaffold2659_cov200'
p717
aa(lp718
S'scaffold29217_cov317'
p719
aS'scaffold1412_cov235'
p720
aa(lp721
S'scaffold8573_cov422'
p722
aS'scaffold5917_cov146'
p723
aa(lp724
S'scaffold5708_cov422'
p725
aS'scaffold5917_cov146'
p726
aa(lp727
S'scaffold869_cov236'
p728
aS'scaffold35051_cov180'
p729
aa(lp730
S'scaffold5700_cov293'
p731
aS'scaffold5813_cov245'
p732
aa(lp733
S'scaffold4573_cov200'
p734
aS'scaffold9482_cov230'
p735
aa(lp736
S'scaffold36090_cov308'
p737
aS'scaffold4008_cov147'
p738
aa(lp739
S'scaffold38236_cov294'
p740
aS'scaffold12700_cov150'
p741
aa(lp742
S'scaffold10361_cov204'
p743
aS'scaffold11037_cov149'
p744
aa(lp745
S'scaffold22541_cov161'
p746
aS'scaffold6820_cov173'
p747
aa(lp748
S'scaffold1081_cov253'
p749
aS'scaffold1083_cov222'
p750
aa(lp751
S'scaffold1911_cov231'
p752
aS'scaffold2955_cov235'
p753
aa(lp754
S'scaffold709_cov247'
p755
aS'scaffold5394_cov155'
p756
aa(lp757
S'scaffold4184_cov249'
p758
aS'scaffold2531_cov161'
p759
aa(lp760
S'scaffold2596_cov234'
p761
aS'scaffold1898_cov190'
p762
aa(lp763
S'scaffold6422_cov190'
p764
aS'scaffold14276_cov161'
p765
aa(lp766
S'scaffold9505_cov197'
p767
aS'scaffold3671_cov181'
p768
aa(lp769
S'scaffold36473_cov268'
p770
aS'scaffold3188_cov246'
p771
aa(lp772
S'scaffold6461_cov208'
p773
aS'scaffold10232_cov153'
p774
aa(lp775
S'scaffold3709_cov220'
p776
aS'scaffold9550_cov156'
p777
aa(lp778
S'scaffold1435_cov176'
p779
aS'scaffold7695_cov182'
p780
aa(lp781
S'scaffold20444_cov436'
p782
aS'scaffold13149_cov173'
p783
aa(lp784
S'scaffold9528_cov287'
p785
aS'scaffold13440_cov161'
p786
aa(lp787
S'scaffold3054_cov300'
p788
aS'scaffold9545_cov229'
p789
aa(lp790
S'scaffold7135_cov385'
p791
aS'scaffold2547_cov148'
p792
aa(lp793
S'scaffold4093_cov203'
p794
aS'scaffold15331_cov173'
p795
aa(lp796
S'scaffold4879_cov249'
p797
aS'scaffold916_cov197'
p798
aa(lp799
S'scaffold441_cov213'
p800
aS'scaffold3541_cov180'
p801
aa(lp802
S'scaffold6945_cov182'
p803
aS'scaffold3075_cov156'
p804
aa(lp805
S'scaffold2691_cov437'
p806
aS'scaffold843_cov157'
p807
aa(lp808
S'scaffold6744_cov389'
p809
aS'scaffold54_cov186'
p810
aa(lp811
S'scaffold3062_cov254'
p812
aS'scaffold34957_cov248'
p813
aa(lp814
S'scaffold11228_cov232'
p815
aS'scaffold14602_cov161'
p816
aa(lp817
S'scaffold36852_cov305'
p818
aS'scaffold4188_cov191'
p819
aa(lp820
S'scaffold915_cov207'
p821
aS'scaffold914_cov157'
p822
aa(lp823
S'scaffold663_cov256'
p824
aS'scaffold29908_cov147'
p825
aa(lp826
S'scaffold1561_cov271'
p827
aS'scaffold1811_cov234'
p828
aa(lp829
S'scaffold279_cov300'
p830
aS'scaffold888_cov152'
p831
aa(lp832
S'scaffold35026_cov310'
p833
aS'scaffold288_cov182'
p834
aa(lp835
S'scaffold9204_cov285'
p836
aS'scaffold2497_cov220'
p837
aa(lp838
S'scaffold47223_cov305'
p839
aS'scaffold428_cov197'
p840
aa(lp841
S'scaffold3367_cov255'
p842
aS'scaffold3227_cov180'
p843
aa(lp844
S'scaffold1226_cov199'
p845
aS'scaffold3246_cov212'
p846
aa(lp847
S'scaffold17142_cov215'
p848
aS'scaffold35222_cov195'
p849
aa(lp850
S'scaffold35800_cov215'
p851
aS'scaffold7468_cov213'
p852
aa(lp853
S'scaffold50853_cov294'
p854
aS'scaffold4382_cov182'
p855
aa(lp856
S'scaffold6035_cov288'
p857
aS'scaffold8301_cov160'
p858
aa(lp859
S'scaffold33985_cov263'
p860
aS'scaffold383_cov198'
p861
aa(lp862
S'scaffold51910_cov463'
p863
aS'scaffold3158_cov165'
p864
aa(lp865
S'scaffold1343_cov240'
p866
aS'scaffold219_cov217'
p867
aa(lp868
S'scaffold12570_cov377'
p869
aS'scaffold1045_cov153'
p870
aa(lp871
S'scaffold902_cov223'
p872
aS'scaffold6221_cov149'
p873
aa(lp874
S'scaffold12881_cov242'
p875
aS'scaffold36279_cov207'
p876
aa(lp877
S'scaffold10585_cov239'
p878
aS'scaffold14002_cov262'
p879
aa(lp880
S'scaffold12136_cov215'
p881
aS'scaffold5344_cov146'
p882
aa(lp883
S'scaffold7758_cov177'
p884
aS'scaffold34054_cov214'
p885
aa(lp886
S'scaffold2323_cov224'
p887
aS'scaffold11669_cov179'
p888
aa(lp889
S'scaffold7526_cov240'
p890
aS'scaffold8195_cov213'
p891
aa(lp892
S'scaffold5645_cov270'
p893
aS'scaffold8590_cov218'
p894
aa(lp895
S'scaffold50320_cov305'
p896
aS'scaffold1792_cov186'
p897
aa(lp898
S'scaffold10366_cov326'
p899
aS'scaffold17512_cov158'
p900
aa(lp901
S'scaffold6871_cov206'
p902
aS'scaffold10121_cov202'
p903
aa(lp904
S'scaffold9918_cov286'
p905
aS'scaffold3310_cov167'
p906
aa(lp907
S'scaffold2942_cov228'
p908
aS'scaffold18738_cov241'
p909
aa(lp910
S'scaffold10654_cov169'
p911
aS'scaffold5155_cov170'
p912
aa(lp913
S'scaffold16272_cov418'
p914
aS'scaffold343_cov157'
p915
aa(lp916
S'scaffold3956_cov265'
p917
aS'scaffold4654_cov204'
p918
aa.