(lp0
(lp1
S'scaffold361_cov52'
p2
aS'scaffold362_cov88'
p3
aa(lp4
S'scaffold6010_cov62'
p5
aS'scaffold6032_cov86'
p6
aa(lp7
S'scaffold14_cov100'
p8
aS'scaffold8499_cov57'
p9
aa(lp10
S'scaffold23346_cov53'
p11
aS'scaffold37470_cov151'
p12
aa(lp13
S'scaffold19386_cov101'
p14
aS'scaffold34060_cov96'
p15
aa(lp16
S'scaffold20051_cov88'
p17
aS'scaffold16801_cov94'
p18
aa(lp19
S'scaffold9366_cov65'
p20
aS'scaffold32_cov80'
p21
aa(lp22
S'scaffold8637_cov48'
p23
aS'scaffold5664_cov97'
p24
aa(lp25
S'scaffold9935_cov102'
p26
aS'scaffold15216_cov95'
p27
aa(lp28
S'scaffold1307_cov71'
p29
aS'scaffold1778_cov83'
p30
aa(lp31
S'scaffold6515_cov62'
p32
aS'scaffold146_cov83'
p33
aa(lp34
S'scaffold37339_cov109'
p35
aS'scaffold7846_cov55'
p36
aa(lp37
S'scaffold3621_cov101'
p38
aS'scaffold3183_cov139'
p39
aa(lp40
S'scaffold18737_cov72'
p41
aS'scaffold38243_cov111'
p42
aa(lp43
S'scaffold12434_cov50'
p44
aS'scaffold8329_cov54'
p45
aa(lp46
S'scaffold5119_cov50'
p47
aS'scaffold5118_cov85'
p48
aa(lp49
S'scaffold174_cov95'
p50
aS'scaffold1036_cov100'
p51
aa(lp52
S'scaffold878_cov66'
p53
aS'scaffold37758_cov123'
p54
aa(lp55
S'scaffold8360_cov69'
p56
aS'scaffold2212_cov51'
p57
aa(lp58
S'scaffold11244_cov56'
p59
aS'scaffold7401_cov60'
p60
aa(lp61
S'scaffold4328_cov64'
p62
aS'scaffold4094_cov85'
p63
aa(lp64
S'scaffold687_cov68'
p65
aS'scaffold5823_cov93'
p66
aa(lp67
S'scaffold6252_cov63'
p68
aS'scaffold9548_cov63'
p69
aa(lp70
S'scaffold26400_cov107'
p71
aS'scaffold26402_cov46'
p72
aa(lp73
S'scaffold41142_cov161'
p74
aS'scaffold28921_cov145'
p75
aa(lp76
S'scaffold5328_cov53'
p77
aS'scaffold5663_cov69'
p78
aa(lp79
S'scaffold497_cov71'
p80
aS'scaffold35984_cov60'
p81
aa(lp82
S'scaffold1537_cov77'
p83
aS'scaffold772_cov56'
p84
aa(lp85
S'scaffold1673_cov68'
p86
aS'scaffold1672_cov57'
p87
aa(lp88
S'scaffold35008_cov71'
p89
aS'scaffold617_cov62'
p90
aa(lp91
S'scaffold846_cov98'
p92
aS'scaffold13232_cov62'
p93
aa(lp94
S'scaffold16656_cov56'
p95
aS'scaffold1461_cov54'
p96
aa(lp97
S'scaffold36443_cov67'
p98
aS'scaffold10198_cov57'
p99
aa(lp100
S'scaffold2530_cov71'
p101
aS'scaffold12036_cov77'
p102
aa(lp103
S'scaffold10537_cov54'
p104
aS'scaffold33286_cov88'
p105
aa(lp106
S'scaffold28403_cov55'
p107
aS'scaffold3719_cov93'
p108
aa(lp109
S'scaffold20937_cov59'
p110
aS'scaffold7528_cov114'
p111
aa(lp112
S'scaffold19259_cov55'
p113
aS'scaffold16506_cov55'
p114
aa(lp115
S'scaffold6959_cov64'
p116
aS'scaffold52619_cov115'
p117
aa(lp118
S'scaffold8059_cov49'
p119
aS'scaffold30712_cov54'
p120
aa(lp121
S'scaffold46292_cov180'
p122
aS'scaffold44255_cov165'
p123
aa(lp124
S'scaffold7470_cov77'
p125
aS'scaffold5211_cov57'
p126
aa(lp127
S'scaffold57_cov62'
p128
aS'scaffold10002_cov126'
p129
aa(lp130
S'scaffold40182_cov165'
p131
aS'scaffold2317_cov61'
p132
aa(lp133
S'scaffold24311_cov69'
p134
aS'scaffold138_cov63'
p135
aa(lp136
S'scaffold507_cov73'
p137
aS'scaffold9133_cov84'
p138
aa(lp139
S'scaffold12788_cov56'
p140
aS'scaffold34228_cov83'
p141
aa(lp142
S'scaffold11587_cov65'
p143
aS'scaffold3118_cov72'
p144
aa(lp145
S'scaffold36090_cov104'
p146
aS'scaffold33623_cov60'
p147
aa(lp148
S'scaffold11940_cov99'
p149
aS'scaffold607_cov59'
p150
aa(lp151
S'scaffold3771_cov131'
p152
aS'scaffold487_cov56'
p153
aa(lp154
S'scaffold4668_cov92'
p155
aS'scaffold35981_cov85'
p156
aa(lp157
S'scaffold13336_cov75'
p158
aS'scaffold5700_cov54'
p159
aa(lp160
S'scaffold1671_cov114'
p161
aS'scaffold16650_cov62'
p162
aa(lp163
S'scaffold5768_cov48'
p164
aS'scaffold23308_cov74'
p165
aa(lp166
S'scaffold2786_cov74'
p167
aS'scaffold2945_cov79'
p168
aa(lp169
S'scaffold7573_cov53'
p170
aS'scaffold7572_cov84'
p171
aa(lp172
S'scaffold9331_cov54'
p173
aS'scaffold6021_cov51'
p174
aa(lp175
S'scaffold5817_cov105'
p176
aS'scaffold480_cov57'
p177
aa(lp178
S'scaffold713_cov67'
p179
aS'scaffold15659_cov85'
p180
aa(lp181
S'scaffold27913_cov149'
p182
aS'scaffold565_cov58'
p183
aa(lp184
S'scaffold1828_cov67'
p185
aS'scaffold608_cov87'
p186
aa(lp187
S'scaffold3646_cov69'
p188
aS'scaffold10188_cov85'
p189
aa(lp190
S'scaffold2393_cov71'
p191
aS'scaffold1040_cov63'
p192
aa(lp193
S'scaffold15420_cov62'
p194
aS'scaffold6640_cov57'
p195
aa(lp196
S'scaffold17407_cov65'
p197
aS'scaffold9695_cov86'
p198
aa(lp199
S'scaffold14528_cov78'
p200
aS'scaffold7703_cov52'
p201
aa(lp202
S'scaffold1670_cov61'
p203
aS'scaffold35197_cov159'
p204
aa(lp205
S'scaffold3247_cov88'
p206
aS'scaffold33782_cov98'
p207
aa(lp208
S'scaffold33702_cov55'
p209
aS'scaffold1281_cov80'
p210
aa(lp211
S'scaffold4034_cov67'
p212
aS'scaffold866_cov53'
p213
aa(lp214
S'scaffold34231_cov91'
p215
aS'scaffold39009_cov103'
p216
aa(lp217
S'scaffold35_cov50'
p218
aS'scaffold34360_cov143'
p219
aa(lp220
S'scaffold4544_cov85'
p221
aS'scaffold30472_cov70'
p222
aa(lp223
S'scaffold5777_cov82'
p224
aS'scaffold6784_cov56'
p225
aa(lp226
S'scaffold23743_cov66'
p227
aS'scaffold10910_cov53'
p228
aa(lp229
S'scaffold15690_cov108'
p230
aS'scaffold36775_cov68'
p231
aa(lp232
S'scaffold1933_cov76'
p233
aS'scaffold826_cov79'
p234
aa(lp235
S'scaffold35970_cov109'
p236
aS'scaffold7217_cov99'
p237
aa(lp238
S'scaffold7766_cov56'
p239
aS'scaffold8073_cov71'
p240
aa(lp241
S'scaffold8487_cov70'
p242
aS'scaffold1201_cov53'
p243
aa(lp244
S'scaffold1740_cov88'
p245
aS'scaffold19477_cov64'
p246
aa(lp247
S'scaffold874_cov68'
p248
aS'scaffold6317_cov51'
p249
aa(lp250
S'scaffold3440_cov56'
p251
aS'scaffold582_cov57'
p252
aa(lp253
S'scaffold7406_cov97'
p254
aS'scaffold4048_cov55'
p255
aa(lp256
S'scaffold10506_cov79'
p257
aS'scaffold5498_cov103'
p258
aa(lp259
S'scaffold5487_cov69'
p260
aS'scaffold7228_cov62'
p261
aa(lp262
S'scaffold11140_cov73'
p263
aS'scaffold5096_cov57'
p264
aa(lp265
S'scaffold7575_cov56'
p266
aS'scaffold7234_cov93'
p267
aa(lp268
S'scaffold1774_cov51'
p269
aS'scaffold707_cov65'
p270
aa(lp271
S'scaffold10758_cov137'
p272
aS'scaffold1943_cov61'
p273
aa(lp274
S'scaffold23544_cov102'
p275
aS'scaffold6429_cov65'
p276
aa(lp277
S'scaffold8941_cov89'
p278
aS'scaffold3688_cov96'
p279
aa(lp280
S'scaffold36297_cov113'
p281
aS'scaffold35963_cov95'
p282
aa(lp283
S'scaffold28236_cov103'
p284
aS'scaffold22301_cov147'
p285
aa(lp286
S'scaffold16639_cov75'
p287
aS'scaffold2248_cov58'
p288
aa(lp289
S'scaffold29903_cov123'
p290
aS'scaffold33612_cov72'
p291
aa(lp292
S'scaffold21922_cov80'
p293
aS'scaffold34278_cov88'
p294
aa(lp295
S'scaffold9543_cov100'
p296
aS'scaffold11533_cov113'
p297
aa(lp298
S'scaffold35156_cov134'
p299
aS'scaffold720_cov51'
p300
aa(lp301
S'scaffold827_cov76'
p302
aS'scaffold3365_cov65'
p303
aa(lp304
S'scaffold34599_cov98'
p305
aS'scaffold10866_cov51'
p306
aa(lp307
S'scaffold8638_cov55'
p308
aS'scaffold7200_cov64'
p309
aa(lp310
S'scaffold2587_cov45'
p311
aS'scaffold1950_cov58'
p312
aa(lp313
S'scaffold4478_cov57'
p314
aS'scaffold3303_cov130'
p315
aa(lp316
S'scaffold1455_cov53'
p317
aS'scaffold8021_cov59'
p318
aa(lp319
S'scaffold6478_cov57'
p320
aS'scaffold16314_cov97'
p321
aa(lp322
S'scaffold3443_cov80'
p323
aS'scaffold2211_cov55'
p324
aa(lp325
S'scaffold7965_cov102'
p326
aS'scaffold36789_cov57'
p327
aa(lp328
S'scaffold3742_cov92'
p329
aS'scaffold33263_cov56'
p330
aa(lp331
S'scaffold5955_cov136'
p332
aS'scaffold13833_cov52'
p333
aa(lp334
S'scaffold9707_cov86'
p335
aS'scaffold2016_cov55'
p336
aa(lp337
S'scaffold8082_cov74'
p338
aS'scaffold12811_cov99'
p339
aa(lp340
S'scaffold2676_cov98'
p341
aS'scaffold1670_cov61'
p342
aa(lp343
S'scaffold144_cov60'
p344
aS'scaffold36050_cov70'
p345
aa(lp346
S'scaffold161_cov85'
p347
aS'scaffold6173_cov81'
p348
aa(lp349
S'scaffold10735_cov120'
p350
aS'scaffold15562_cov57'
p351
aa(lp352
S'scaffold5970_cov74'
p353
aS'scaffold12766_cov71'
p354
aa(lp355
S'scaffold20490_cov67'
p356
aS'scaffold767_cov66'
p357
aa(lp358
S'scaffold14430_cov83'
p359
aS'scaffold24509_cov66'
p360
aa(lp361
S'scaffold17734_cov54'
p362
aS'scaffold4093_cov55'
p363
aa(lp364
S'scaffold4097_cov96'
p365
aS'scaffold1525_cov58'
p366
aa(lp367
S'scaffold33949_cov53'
p368
aS'scaffold55_cov132'
p369
aa(lp370
S'scaffold8059_cov49'
p371
aS'scaffold21076_cov99'
p372
aa(lp373
S'scaffold33245_cov72'
p374
aS'scaffold2355_cov59'
p375
aa(lp376
S'scaffold34175_cov92'
p377
aS'scaffold35057_cov143'
p378
aa(lp379
S'scaffold9871_cov55'
p380
aS'scaffold3224_cov53'
p381
aa(lp382
S'scaffold1390_cov116'
p383
aS'scaffold4621_cov57'
p384
aa(lp385
S'scaffold1554_cov54'
p386
aS'scaffold14725_cov115'
p387
aa(lp388
S'scaffold14776_cov55'
p389
aS'scaffold36895_cov67'
p390
aa(lp391
S'scaffold34270_cov89'
p392
aS'scaffold5071_cov113'
p393
aa(lp394
S'scaffold13613_cov67'
p395
aS'scaffold12316_cov62'
p396
aa(lp397
S'scaffold5066_cov51'
p398
aS'scaffold1036_cov100'
p399
aa(lp400
S'scaffold311_cov53'
p401
aS'scaffold16119_cov63'
p402
aa(lp403
S'scaffold5587_cov95'
p404
aS'scaffold6763_cov50'
p405
aa(lp406
S'scaffold1156_cov80'
p407
aS'scaffold6497_cov85'
p408
aa(lp409
S'scaffold1379_cov53'
p410
aS'scaffold5161_cov62'
p411
aa(lp412
S'scaffold3622_cov63'
p413
aS'scaffold154_cov94'
p414
aa(lp415
S'scaffold35874_cov101'
p416
aS'scaffold36370_cov147'
p417
aa(lp418
S'scaffold8496_cov75'
p419
aS'scaffold10687_cov51'
p420
aa(lp421
S'scaffold36033_cov68'
p422
aS'scaffold3130_cov88'
p423
aa(lp424
S'scaffold5962_cov96'
p425
aS'scaffold20541_cov54'
p426
aa(lp427
S'scaffold1101_cov58'
p428
aS'scaffold3915_cov75'
p429
aa(lp430
S'scaffold19950_cov56'
p431
aS'scaffold8908_cov58'
p432
aa(lp433
S'scaffold2412_cov121'
p434
aS'scaffold37060_cov73'
p435
aa(lp436
S'scaffold33587_cov72'
p437
aS'scaffold3966_cov89'
p438
aa(lp439
S'scaffold4278_cov90'
p440
aS'scaffold12774_cov55'
p441
aa(lp442
S'scaffold9445_cov50'
p443
aS'scaffold101_cov106'
p444
aa(lp445
S'scaffold3254_cov78'
p446
aS'scaffold1402_cov78'
p447
aa(lp448
S'scaffold5262_cov49'
p449
aS'scaffold15918_cov54'
p450
aa(lp451
S'scaffold2853_cov69'
p452
aS'scaffold12329_cov67'
p453
aa(lp454
S'scaffold1554_cov54'
p455
aS'scaffold7086_cov54'
p456
aa(lp457
S'scaffold36003_cov57'
p458
aS'scaffold4147_cov76'
p459
aa(lp460
S'scaffold36022_cov58'
p461
aS'scaffold35995_cov87'
p462
aa(lp463
S'scaffold16447_cov76'
p464
aS'scaffold1525_cov58'
p465
aa(lp466
S'scaffold7181_cov86'
p467
aS'scaffold9352_cov77'
p468
aa(lp469
S'scaffold4050_cov108'
p470
aS'scaffold15254_cov56'
p471
aa(lp472
S'scaffold15290_cov65'
p473
aS'scaffold426_cov79'
p474
aa(lp475
S'scaffold36919_cov73'
p476
aS'scaffold41262_cov172'
p477
aa(lp478
S'scaffold5295_cov55'
p479
aS'scaffold15336_cov60'
p480
aa(lp481
S'scaffold19164_cov60'
p482
aS'scaffold159_cov87'
p483
aa(lp484
S'scaffold2714_cov57'
p485
aS'scaffold1007_cov77'
p486
aa(lp487
S'scaffold878_cov66'
p488
aS'scaffold6200_cov128'
p489
aa(lp490
S'scaffold2530_cov71'
p491
aS'scaffold4287_cov88'
p492
aa(lp493
S'scaffold9739_cov94'
p494
aS'scaffold35055_cov91'
p495
aa(lp496
S'scaffold5602_cov57'
p497
aS'scaffold5604_cov55'
p498
aa(lp499
S'scaffold36499_cov103'
p500
aS'scaffold34177_cov82'
p501
aa(lp502
S'scaffold4081_cov103'
p503
aS'scaffold4410_cov60'
p504
aa(lp505
S'scaffold33066_cov68'
p506
aS'scaffold4048_cov55'
p507
aa(lp508
S'scaffold4874_cov72'
p509
aS'scaffold9125_cov84'
p510
aa(lp511
S'scaffold6612_cov63'
p512
aS'scaffold33314_cov52'
p513
aa(lp514
S'scaffold5186_cov71'
p515
aS'scaffold5185_cov80'
p516
aa(lp517
S'scaffold44657_cov149'
p518
aS'scaffold4089_cov52'
p519
aa(lp520
S'scaffold13650_cov74'
p521
aS'scaffold54888_cov107'
p522
aa(lp523
S'scaffold3582_cov122'
p524
aS'scaffold720_cov51'
p525
aa(lp526
S'scaffold36509_cov117'
p527
aS'scaffold2683_cov54'
p528
aa(lp529
S'scaffold56598_cov161'
p530
aS'scaffold5176_cov58'
p531
aa(lp532
S'scaffold24304_cov59'
p533
aS'scaffold359_cov50'
p534
aa(lp535
S'scaffold3293_cov67'
p536
aS'scaffold1467_cov54'
p537
aa(lp538
S'scaffold17264_cov49'
p539
aS'scaffold14721_cov66'
p540
aa(lp541
S'scaffold2164_cov100'
p542
aS'scaffold6159_cov60'
p543
aa(lp544
S'scaffold5146_cov52'
p545
aS'scaffold53971_cov161'
p546
aa(lp547
S'scaffold33155_cov116'
p548
aS'scaffold10894_cov83'
p549
aa(lp550
S'scaffold6807_cov54'
p551
aS'scaffold35419_cov111'
p552
aa(lp553
S'scaffold19626_cov63'
p554
aS'scaffold2637_cov103'
p555
aa(lp556
S'scaffold10711_cov58'
p557
aS'scaffold7920_cov76'
p558
aa(lp559
S'scaffold33560_cov76'
p560
aS'scaffold8879_cov52'
p561
aa(lp562
S'scaffold645_cov79'
p563
aS'scaffold33884_cov75'
p564
aa(lp565
S'scaffold7875_cov69'
p566
aS'scaffold7874_cov52'
p567
aa(lp568
S'scaffold6472_cov101'
p569
aS'scaffold22301_cov147'
p570
aa(lp571
S'scaffold50891_cov398'
p572
aS'scaffold909_cov73'
p573
aa(lp574
S'scaffold32906_cov106'
p575
aS'scaffold683_cov92'
p576
aa(lp577
S'scaffold12642_cov74'
p578
aS'scaffold1985_cov52'
p579
aa(lp580
S'scaffold3014_cov60'
p581
aS'scaffold398_cov53'
p582
aa(lp583
S'scaffold35974_cov80'
p584
aS'scaffold34177_cov82'
p585
aa(lp586
S'scaffold13494_cov55'
p587
aS'scaffold444_cov67'
p588
aa(lp589
S'scaffold617_cov62'
p590
aS'scaffold3051_cov52'
p591
aa(lp592
S'scaffold53939_cov149'
p593
aS'scaffold8942_cov56'
p594
aa(lp595
S'scaffold306_cov97'
p596
aS'scaffold1432_cov55'
p597
aa(lp598
S'scaffold3432_cov48'
p599
aS'scaffold4550_cov107'
p600
aa(lp601
S'scaffold11820_cov72'
p602
aS'scaffold3429_cov57'
p603
aa(lp604
S'scaffold8803_cov55'
p605
aS'scaffold13550_cov68'
p606
aa(lp607
S'scaffold13367_cov89'
p608
aS'scaffold37302_cov74'
p609
aa(lp610
S'scaffold570_cov75'
p611
aS'scaffold6452_cov95'
p612
aa(lp613
S'scaffold54186_cov103'
p614
aS'scaffold28599_cov95'
p615
aa(lp616
S'scaffold3757_cov64'
p617
aS'scaffold289_cov71'
p618
aa(lp619
S'scaffold11190_cov116'
p620
aS'scaffold12855_cov52'
p621
aa(lp622
S'scaffold33248_cov88'
p623
aS'scaffold1972_cov88'
p624
aa(lp625
S'scaffold32491_cov104'
p626
aS'scaffold23375_cov83'
p627
aa(lp628
S'scaffold34162_cov105'
p629
aS'scaffold14859_cov92'
p630
aa(lp631
S'scaffold4917_cov59'
p632
aS'scaffold1175_cov49'
p633
aa(lp634
S'scaffold4313_cov91'
p635
aS'scaffold21487_cov54'
p636
aa(lp637
S'scaffold28521_cov53'
p638
aS'scaffold5310_cov60'
p639
aa(lp640
S'scaffold33155_cov116'
p641
aS'scaffold6384_cov82'
p642
aa(lp643
S'scaffold8270_cov118'
p644
aS'scaffold872_cov49'
p645
aa(lp646
S'scaffold58002_cov168'
p647
aS'scaffold27769_cov112'
p648
aa(lp649
S'scaffold35910_cov137'
p650
aS'scaffold3418_cov60'
p651
aa(lp652
S'scaffold33201_cov53'
p653
aS'scaffold7428_cov49'
p654
aa(lp655
S'scaffold2494_cov73'
p656
aS'scaffold3013_cov87'
p657
aa(lp658
S'scaffold13115_cov55'
p659
aS'scaffold6977_cov64'
p660
aa(lp661
S'scaffold733_cov57'
p662
aS'scaffold3175_cov115'
p663
aa(lp664
S'scaffold53186_cov165'
p665
aS'scaffold2900_cov54'
p666
aa(lp667
S'scaffold13474_cov57'
p668
aS'scaffold4565_cov62'
p669
aa(lp670
S'scaffold7133_cov53'
p671
aS'scaffold8457_cov52'
p672
aa(lp673
S'scaffold4178_cov79'
p674
aS'scaffold331_cov56'
p675
aa(lp676
S'scaffold4080_cov54'
p677
aS'scaffold18_cov68'
p678
aa(lp679
S'scaffold15333_cov101'
p680
aS'scaffold36026_cov97'
p681
aa(lp682
S'scaffold2126_cov70'
p683
aS'scaffold9907_cov91'
p684
aa(lp685
S'scaffold50244_cov161'
p686
aS'scaffold4391_cov53'
p687
aa(lp688
S'scaffold26220_cov52'
p689
aS'scaffold24718_cov103'
p690
aa(lp691
S'scaffold9958_cov63'
p692
aS'scaffold4040_cov52'
p693
aa(lp694
S'scaffold5829_cov52'
p695
aS'scaffold200_cov51'
p696
aa(lp697
S'scaffold931_cov102'
p698
aS'scaffold3401_cov49'
p699
aa(lp700
S'scaffold10310_cov117'
p701
aS'scaffold2088_cov50'
p702
aa(lp703
S'scaffold32857_cov74'
p704
aS'scaffold9215_cov55'
p705
aa(lp706
S'scaffold11819_cov105'
p707
aS'scaffold25653_cov54'
p708
aa(lp709
S'scaffold4757_cov67'
p710
aS'scaffold38060_cov100'
p711
aa(lp712
S'scaffold33284_cov157'
p713
aS'scaffold14343_cov60'
p714
aa(lp715
S'scaffold25369_cov123'
p716
aS'scaffold2248_cov58'
p717
aa(lp718
S'scaffold4085_cov106'
p719
aS'scaffold34289_cov136'
p720
aa(lp721
S'scaffold37745_cov103'
p722
aS'scaffold756_cov60'
p723
aa(lp724
S'scaffold18292_cov125'
p725
aS'scaffold11042_cov64'
p726
aa(lp727
S'scaffold3846_cov88'
p728
aS'scaffold1776_cov57'
p729
aa(lp730
S'scaffold17701_cov112'
p731
aS'scaffold7423_cov56'
p732
aa(lp733
S'scaffold10360_cov60'
p734
aS'scaffold6609_cov59'
p735
aa(lp736
S'scaffold5382_cov123'
p737
aS'scaffold143_cov57'
p738
aa(lp739
S'scaffold34267_cov108'
p740
aS'scaffold643_cov63'
p741
aa(lp742
S'scaffold1111_cov107'
p743
aS'scaffold479_cov51'
p744
aa(lp745
S'scaffold1231_cov53'
p746
aS'scaffold15012_cov64'
p747
aa(lp748
S'scaffold5517_cov53'
p749
aS'scaffold5454_cov72'
p750
aa(lp751
S'scaffold19720_cov60'
p752
aS'scaffold8038_cov51'
p753
aa(lp754
S'scaffold6247_cov68'
p755
aS'scaffold5562_cov105'
p756
aa(lp757
S'scaffold33248_cov88'
p758
aS'scaffold8659_cov78'
p759
aa(lp760
S'scaffold37060_cov73'
p761
aS'scaffold3248_cov70'
p762
aa(lp763
S'scaffold3106_cov64'
p764
aS'scaffold10343_cov61'
p765
aa(lp766
S'scaffold14767_cov109'
p767
aS'scaffold32828_cov78'
p768
aa(lp769
S'scaffold55592_cov107'
p770
aS'scaffold25106_cov104'
p771
aa(lp772
S'scaffold10405_cov56'
p773
aS'scaffold33245_cov72'
p774
aa(lp775
S'scaffold36033_cov68'
p776
aS'scaffold2694_cov89'
p777
aa(lp778
S'scaffold6209_cov128'
p779
aS'scaffold1667_cov55'
p780
aa(lp781
S'scaffold40047_cov153'
p782
aS'scaffold36009_cov57'
p783
aa(lp784
S'scaffold2804_cov64'
p785
aS'scaffold4668_cov92'
p786
aa(lp787
S'scaffold462_cov72'
p788
aS'scaffold10361_cov51'
p789
aa(lp790
S'scaffold2786_cov74'
p791
aS'scaffold6624_cov86'
p792
aa(lp793
S'scaffold85_cov56'
p794
aS'scaffold20873_cov79'
p795
aa(lp796
S'scaffold13738_cov105'
p797
aS'scaffold11516_cov50'
p798
aa(lp799
S'scaffold7192_cov111'
p800
aS'scaffold33440_cov107'
p801
aa(lp802
S'scaffold15562_cov57'
p803
aS'scaffold17331_cov117'
p804
aa(lp805
S'scaffold18040_cov61'
p806
aS'scaffold4891_cov78'
p807
aa(lp808
S'scaffold1364_cov77'
p809
aS'scaffold2830_cov52'
p810
aa(lp811
S'scaffold2388_cov79'
p812
aS'scaffold3457_cov55'
p813
aa(lp814
S'scaffold8576_cov64'
p815
aS'scaffold14804_cov81'
p816
aa(lp817
S'scaffold5284_cov102'
p818
aS'scaffold18868_cov79'
p819
aa(lp820
S'scaffold37571_cov118'
p821
aS'scaffold14485_cov58'
p822
aa(lp823
S'scaffold5881_cov87'
p824
aS'scaffold1151_cov99'
p825
aa(lp826
S'scaffold1082_cov61'
p827
aS'scaffold8217_cov58'
p828
aa(lp829
S'scaffold6018_cov72'
p830
aS'scaffold7261_cov132'
p831
aa(lp832
S'scaffold4874_cov72'
p833
aS'scaffold7806_cov72'
p834
aa(lp835
S'scaffold3835_cov72'
p836
aS'scaffold25187_cov99'
p837
aa(lp838
S'scaffold33204_cov76'
p839
aS'scaffold16649_cov90'
p840
aa(lp841
S'scaffold2088_cov50'
p842
aS'scaffold21479_cov41'
p843
aa(lp844
S'scaffold10114_cov67'
p845
aS'scaffold6757_cov85'
p846
aa(lp847
S'scaffold8357_cov58'
p848
aS'scaffold8823_cov89'
p849
aa(lp850
S'scaffold5370_cov101'
p851
aS'scaffold21582_cov121'
p852
aa(lp853
S'scaffold4339_cov63'
p854
aS'scaffold34332_cov81'
p855
aa(lp856
S'scaffold570_cov75'
p857
aS'scaffold3128_cov90'
p858
aa(lp859
S'scaffold36145_cov66'
p860
aS'scaffold5517_cov53'
p861
aa(lp862
S'scaffold5357_cov53'
p863
aS'scaffold23886_cov86'
p864
aa(lp865
S'scaffold37745_cov103'
p866
aS'scaffold9100_cov54'
p867
aa(lp868
S'scaffold36584_cov77'
p869
aS'scaffold14596_cov132'
p870
aa(lp871
S'scaffold33612_cov72'
p872
aS'scaffold34367_cov119'
p873
aa(lp874
S'scaffold10858_cov54'
p875
aS'scaffold33183_cov87'
p876
aa(lp877
S'scaffold33204_cov76'
p878
aS'scaffold6201_cov79'
p879
aa(lp880
S'scaffold14887_cov139'
p881
aS'scaffold7284_cov54'
p882
aa(lp883
S'scaffold14365_cov55'
p884
aS'scaffold37624_cov98'
p885
aa(lp886
S'scaffold12169_cov151'
p887
aS'scaffold2317_cov61'
p888
aa(lp889
S'scaffold3230_cov72'
p890
aS'scaffold2697_cov65'
p891
aa(lp892
S'scaffold34162_cov105'
p893
aS'scaffold4290_cov94'
p894
aa(lp895
S'scaffold10508_cov75'
p896
aS'scaffold5982_cov55'
p897
aa(lp898
S'scaffold2637_cov103'
p899
aS'scaffold12063_cov48'
p900
aa(lp901
S'scaffold9910_cov51'
p902
aS'scaffold5049_cov79'
p903
aa(lp904
S'scaffold7154_cov101'
p905
aS'scaffold11306_cov90'
p906
aa(lp907
S'scaffold14510_cov60'
p908
aS'scaffold11820_cov72'
p909
aa(lp910
S'scaffold17719_cov52'
p911
aS'scaffold7882_cov53'
p912
aa(lp913
S'scaffold34185_cov69'
p914
aS'scaffold1343_cov77'
p915
aa(lp916
S'scaffold2057_cov66'
p917
aS'scaffold663_cov79'
p918
aa(lp919
S'scaffold8668_cov57'
p920
aS'scaffold11818_cov100'
p921
aa(lp922
S'scaffold1902_cov64'
p923
aS'scaffold4418_cov65'
p924
aa(lp925
S'scaffold2541_cov64'
p926
aS'scaffold9591_cov85'
p927
aa(lp928
S'scaffold20331_cov77'
p929
aS'scaffold3358_cov56'
p930
aa(lp931
S'scaffold10187_cov86'
p932
aS'scaffold10455_cov70'
p933
aa(lp934
S'scaffold4918_cov110'
p935
aS'scaffold1432_cov55'
p936
aa(lp937
S'scaffold23746_cov60'
p938
aS'scaffold9750_cov109'
p939
aa(lp940
S'scaffold36776_cov56'
p941
aS'scaffold6457_cov56'
p942
aa(lp943
S'scaffold36466_cov115'
p944
aS'scaffold6807_cov54'
p945
aa(lp946
S'scaffold9240_cov92'
p947
aS'scaffold952_cov71'
p948
aa(lp949
S'scaffold4085_cov106'
p950
aS'scaffold1850_cov129'
p951
aa(lp952
S'scaffold29404_cov53'
p953
aS'scaffold10537_cov54'
p954
aa(lp955
S'scaffold15110_cov149'
p956
aS'scaffold1645_cov55'
p957
aa(lp958
S'scaffold4816_cov61'
p959
aS'scaffold4606_cov54'
p960
aa(lp961
S'scaffold2603_cov89'
p962
aS'scaffold16801_cov94'
p963
aa(lp964
S'scaffold10374_cov51'
p965
aS'scaffold37747_cov56'
p966
aa.